Certificate:
    Data:
        Version: 3 (0x2)
        Serial Number:
            15:83:6c:b7:bb:f8:74:46:6c:3f:5f:cb:42:56:18:b7:f7:2d:bc:53
        Signature Algorithm: sha256WithRSAEncryption
        Issuer: C = US, ST = California, L = Santa Clara, O = pkg5, OU = ta11, CN = localhost, emailAddress = ta11
        Validity
            Not Before: Nov 17 23:01:35 2020 GMT
            Not After : Aug 14 23:01:35 2023 GMT
        Subject: C = US, ST = California, L = Santa Clara, O = pkg5, OU = ta11, CN = localhost, emailAddress = ta11
        Subject Public Key Info:
            Public Key Algorithm: rsaEncryption
                RSA Public-Key: (2048 bit)
                Modulus:
                    00:d2:67:05:01:50:48:4e:54:9f:b6:ea:45:e0:c1:
                    bc:aa:64:95:2e:aa:b9:23:d2:02:93:62:37:9e:d0:
                    39:a0:da:c4:55:79:c8:0e:fa:4f:df:39:7d:79:b1:
                    9a:6a:f1:92:23:b8:26:cc:b7:e1:c4:bf:4c:12:cc:
                    39:09:75:86:51:86:15:a0:99:f3:cf:71:40:04:6b:
                    3c:26:09:87:82:47:82:57:05:cc:6b:ff:2b:36:5f:
                    27:82:f2:53:16:bf:b0:a2:6a:64:22:d6:be:73:5e:
                    aa:92:d1:3e:22:55:b8:89:a8:54:84:db:db:74:43:
                    c0:ea:54:f0:1b:0c:b1:66:b0:52:2e:22:e4:90:2e:
                    aa:4b:81:74:3e:eb:bf:0c:59:b6:ec:64:5c:53:15:
                    83:0c:a2:28:37:e6:59:92:a8:3c:b7:5d:fa:38:e1:
                    eb:e0:dd:dc:9d:24:76:9d:2f:c6:0a:be:c6:9b:f1:
                    a9:97:3a:84:ef:d5:99:44:a6:0e:a9:cf:43:08:86:
                    7a:c7:0e:8a:49:3d:50:54:49:a7:ab:8c:1a:1d:d9:
                    50:17:a9:8f:60:0f:85:bd:97:d2:79:d2:3f:c0:14:
                    7c:bf:36:aa:6b:84:90:5a:8c:6c:73:e9:51:14:7e:
                    ff:8a:fe:6b:18:f2:0f:d8:a8:8f:4b:76:47:3a:0d:
                    00:f7
                Exponent: 65537 (0x10001)
        X509v3 extensions:
            X509v3 Subject Key Identifier: 
                CF:86:49:73:85:44:06:4B:8C:8B:51:D8:87:62:E6:D0:47:FD:D0:3E
            X509v3 Authority Key Identifier: 
                keyid:CF:86:49:73:85:44:06:4B:8C:8B:51:D8:87:62:E6:D0:47:FD:D0:3E

            X509v3 Basic Constraints: critical
                CA:TRUE
    Signature Algorithm: sha256WithRSAEncryption
         c8:c1:78:34:1c:74:06:be:f9:86:70:bb:b5:0c:5b:dd:bb:84:
         0e:bd:aa:c0:e9:67:9d:36:67:85:98:df:63:9e:52:6f:c3:5d:
         60:93:71:0a:ce:01:30:9d:56:ab:9f:82:7c:b4:47:95:84:cc:
         31:6a:71:a5:67:ff:26:7b:93:85:db:c9:59:73:ba:d4:d4:98:
         fc:c9:38:17:3b:25:d3:b5:2d:22:4c:2e:f0:82:b8:93:39:ed:
         3f:0d:22:96:7b:61:43:f6:4b:8a:8c:01:f7:08:c8:c4:6c:f8:
         7a:24:b0:66:3f:f7:a1:b4:21:58:65:f2:21:2e:ac:c3:d1:25:
         b5:2b:69:bc:50:1f:c3:b8:28:7f:9e:82:62:ca:ee:64:68:b7:
         2f:ab:9d:34:2c:17:c1:c9:1c:38:df:13:61:64:2e:6d:96:36:
         92:5c:61:57:33:a4:2e:81:61:2b:25:7b:e8:30:e0:9c:a0:71:
         41:df:d0:09:4b:79:ee:32:a8:a6:77:e5:1c:55:b3:a2:32:9b:
         ef:d9:b7:80:61:68:00:8d:cb:57:62:61:66:3e:0a:ca:56:f6:
         fa:d6:3a:ac:67:60:7a:43:96:7f:0b:34:2a:56:31:c8:68:b2:
         47:0b:78:1e:60:d7:12:da:37:99:10:fb:90:05:14:e5:3a:3a:
         a8:ed:b8:3f
-----BEGIN CERTIFICATE-----
MIID3zCCAsegAwIBAgIUFYNst7v4dEZsP1/LQlYYt/ctvFMwDQYJKoZIhvcNAQEL
BQAwfzELMAkGA1UEBhMCVVMxEzARBgNVBAgMCkNhbGlmb3JuaWExFDASBgNVBAcM
C1NhbnRhIENsYXJhMQ0wCwYDVQQKDARwa2c1MQ0wCwYDVQQLDAR0YTExMRIwEAYD
VQQDDAlsb2NhbGhvc3QxEzARBgkqhkiG9w0BCQEWBHRhMTEwHhcNMjAxMTE3MjMw
MTM1WhcNMjMwODE0MjMwMTM1WjB/MQswCQYDVQQGEwJVUzETMBEGA1UECAwKQ2Fs
aWZvcm5pYTEUMBIGA1UEBwwLU2FudGEgQ2xhcmExDTALBgNVBAoMBHBrZzUxDTAL
BgNVBAsMBHRhMTExEjAQBgNVBAMMCWxvY2FsaG9zdDETMBEGCSqGSIb3DQEJARYE
dGExMTCCASIwDQYJKoZIhvcNAQEBBQADggEPADCCAQoCggEBANJnBQFQSE5Un7bq
ReDBvKpklS6quSPSApNiN57QOaDaxFV5yA76T985fXmxmmrxkiO4Jsy34cS/TBLM
OQl1hlGGFaCZ889xQARrPCYJh4JHglcFzGv/KzZfJ4LyUxa/sKJqZCLWvnNeqpLR
PiJVuImoVITb23RDwOpU8BsMsWawUi4i5JAuqkuBdD7rvwxZtuxkXFMVgwyiKDfm
WZKoPLdd+jjh6+Dd3J0kdp0vxgq+xpvxqZc6hO/VmUSmDqnPQwiGescOikk9UFRJ
p6uMGh3ZUBepj2APhb2X0nnSP8AUfL82qmuEkFqMbHPpURR+/4r+axjyD9ioj0t2
RzoNAPcCAwEAAaNTMFEwHQYDVR0OBBYEFM+GSXOFRAZLjItR2Idi5tBH/dA+MB8G
A1UdIwQYMBaAFM+GSXOFRAZLjItR2Idi5tBH/dA+MA8GA1UdEwEB/wQFMAMBAf8w
DQYJKoZIhvcNAQELBQADggEBAMjBeDQcdAa++YZwu7UMW927hA69qsDpZ502Z4WY
32OeUm/DXWCTcQrOATCdVqufgny0R5WEzDFqcaVn/yZ7k4XbyVlzutTUmPzJOBc7
JdO1LSJMLvCCuJM57T8NIpZ7YUP2S4qMAfcIyMRs+HoksGY/96G0IVhl8iEurMPR
JbUrabxQH8O4KH+egmLK7mRoty+rnTQsF8HJHDjfE2FkLm2WNpJcYVczpC6BYSsl
e+gw4JygcUHf0AlLee4yqKZ35RxVs6Iym+/Zt4BhaACNy1diYWY+CspW9vrWOqxn
YHpDln8LNCpWMchoskcLeB5g1xLaN5kQ+5AFFOU6OqjtuD8=
-----END CERTIFICATE-----
