Certificate:
    Data:
        Version: 3 (0x2)
        Serial Number:
            99:48:67:85:b6:6e:46:d0
    Signature Algorithm: sha256WithRSAEncryption
        Issuer: C=US, ST=California, L=Santa Clara, O=pkg5, OU=ta11, CN=localhost/emailAddress=ta11
        Validity
            Not Before: Nov 16 10:58:52 2017 GMT
            Not After : Aug 12 10:58:52 2020 GMT
        Subject: C=US, ST=California, L=Santa Clara, O=pkg5, OU=ta11, CN=localhost/emailAddress=ta11
        Subject Public Key Info:
            Public Key Algorithm: rsaEncryption
                Public-Key: (2048 bit)
                Modulus:
                    00:d2:f3:41:22:97:fd:19:eb:01:f6:7f:5b:f5:df:
                    f2:4a:ed:7d:d8:3a:d4:8c:5c:2a:43:1f:bd:32:1b:
                    82:92:e5:03:30:50:e5:19:9e:91:43:e2:05:c3:13:
                    51:40:64:bd:b1:42:47:d0:c2:bb:fa:f1:24:da:82:
                    30:aa:b7:0a:c0:84:7b:95:77:a8:e3:96:1f:26:dc:
                    fa:8a:0e:1f:27:91:01:51:92:d6:60:6e:e0:4d:3c:
                    8d:46:e6:37:63:8c:3f:12:17:c2:b4:3e:5d:3d:8c:
                    96:fa:52:1c:be:2a:fd:e7:6e:5e:ca:13:f0:1e:7a:
                    f6:a2:3b:99:1c:38:1b:4b:47:2e:4d:82:44:2e:16:
                    74:e2:24:b5:33:88:fa:90:9e:f0:6e:16:41:e9:b4:
                    16:b9:a9:5e:b9:84:cf:1e:b5:9c:3f:7e:03:22:71:
                    85:00:52:8f:3e:8c:9a:ab:37:ac:61:15:79:bf:82:
                    d0:6d:84:e6:ea:b8:76:32:a2:be:ea:a9:fb:bc:1d:
                    24:f3:66:52:7f:7b:b8:8d:35:6e:a6:57:20:79:7e:
                    d6:37:65:bc:a5:a5:da:80:14:2e:6a:fd:fa:fe:df:
                    08:2c:b0:d5:9f:da:e5:58:0d:a8:dd:4f:23:bd:a9:
                    59:02:f0:18:0d:0a:79:48:1e:ff:c3:6c:1f:e4:ec:
                    1e:f9
                Exponent: 65537 (0x10001)
        X509v3 extensions:
            X509v3 Subject Key Identifier: 
                3F:00:D3:16:52:59:75:37:BF:9C:8D:DC:42:BA:5D:20:F4:3F:60:6F
            X509v3 Authority Key Identifier: 
                keyid:3F:00:D3:16:52:59:75:37:BF:9C:8D:DC:42:BA:5D:20:F4:3F:60:6F

            X509v3 Basic Constraints: 
                CA:TRUE
    Signature Algorithm: sha256WithRSAEncryption
         43:16:ca:04:96:1f:e9:b2:61:e5:c2:7a:5c:c1:ea:7d:f4:6a:
         b0:28:f1:f0:28:9c:67:27:88:89:20:b9:82:6d:a8:ec:b7:94:
         58:62:b5:3a:51:65:f4:12:2f:50:4f:a9:9b:4d:3e:3b:fa:b9:
         27:0f:e7:94:36:61:ad:80:e0:ea:aa:06:79:61:78:1d:f9:d9:
         b1:8a:7a:03:57:75:a6:7f:3c:59:1e:b3:a1:77:b2:5d:2b:a5:
         91:7e:30:3f:e9:3c:bc:dc:75:2d:01:87:69:1a:26:1e:73:57:
         82:72:dc:e5:22:e4:30:c0:43:dc:0b:98:d1:d4:61:b2:67:c7:
         a0:8a:70:2c:62:7e:c1:29:e9:4d:b3:53:d4:fb:78:69:63:f1:
         81:6e:25:11:b6:f2:a8:84:e0:24:4e:b3:bd:03:37:86:bb:63:
         3e:ff:bd:06:12:c2:1a:b6:44:65:c2:2f:46:4f:e5:b5:ad:3e:
         99:f0:c0:30:fd:4e:60:cf:9c:3f:97:a1:d7:d1:eb:21:f0:f0:
         05:d0:5e:4f:80:fe:71:1b:9b:f6:38:d9:2d:05:7c:0a:62:25:
         3d:be:42:10:c5:30:ad:d0:eb:b2:7b:fb:75:50:c2:76:49:7f:
         6f:68:eb:8d:71:d4:58:46:6a:f7:3c:03:46:c4:2d:88:f5:0c:
         b1:32:2e:e0
-----BEGIN CERTIFICATE-----
MIID0TCCArmgAwIBAgIJAJlIZ4W2bkbQMA0GCSqGSIb3DQEBCwUAMH8xCzAJBgNV
BAYTAlVTMRMwEQYDVQQIDApDYWxpZm9ybmlhMRQwEgYDVQQHDAtTYW50YSBDbGFy
YTENMAsGA1UECgwEcGtnNTENMAsGA1UECwwEdGExMTESMBAGA1UEAwwJbG9jYWxo
b3N0MRMwEQYJKoZIhvcNAQkBFgR0YTExMB4XDTE3MTExNjEwNTg1MloXDTIwMDgx
MjEwNTg1MlowfzELMAkGA1UEBhMCVVMxEzARBgNVBAgMCkNhbGlmb3JuaWExFDAS
BgNVBAcMC1NhbnRhIENsYXJhMQ0wCwYDVQQKDARwa2c1MQ0wCwYDVQQLDAR0YTEx
MRIwEAYDVQQDDAlsb2NhbGhvc3QxEzARBgkqhkiG9w0BCQEWBHRhMTEwggEiMA0G
CSqGSIb3DQEBAQUAA4IBDwAwggEKAoIBAQDS80Eil/0Z6wH2f1v13/JK7X3YOtSM
XCpDH70yG4KS5QMwUOUZnpFD4gXDE1FAZL2xQkfQwrv68STagjCqtwrAhHuVd6jj
lh8m3PqKDh8nkQFRktZgbuBNPI1G5jdjjD8SF8K0Pl09jJb6Uhy+Kv3nbl7KE/Ae
evaiO5kcOBtLRy5NgkQuFnTiJLUziPqQnvBuFkHptBa5qV65hM8etZw/fgMicYUA
Uo8+jJqrN6xhFXm/gtBthObquHYyor7qqfu8HSTzZlJ/e7iNNW6mVyB5ftY3Zbyl
pdqAFC5q/fr+3wgssNWf2uVYDajdTyO9qVkC8BgNCnlIHv/DbB/k7B75AgMBAAGj
UDBOMB0GA1UdDgQWBBQ/ANMWUll1N7+cjdxCul0g9D9gbzAfBgNVHSMEGDAWgBQ/
ANMWUll1N7+cjdxCul0g9D9gbzAMBgNVHRMEBTADAQH/MA0GCSqGSIb3DQEBCwUA
A4IBAQBDFsoElh/psmHlwnpcwep99GqwKPHwKJxnJ4iJILmCbajst5RYYrU6UWX0
Ei9QT6mbTT47+rknD+eUNmGtgODqqgZ5YXgd+dmxinoDV3WmfzxZHrOhd7JdK6WR
fjA/6Ty83HUtAYdpGiYec1eCctzlIuQwwEPcC5jR1GGyZ8eginAsYn7BKelNs1PU
+3hpY/GBbiURtvKohOAkTrO9AzeGu2M+/70GEsIatkRlwi9GT+W1rT6Z8MAw/U5g
z5w/l6HX0esh8PAF0F5PgP5xG5v2ONktBXwKYiU9vkIQxTCt0Ouye/t1UMJ2SX9v
aOuNcdRYRmr3PANGxC2I9QyxMi7g
-----END CERTIFICATE-----
