Certificate:
    Data:
        Version: 3 (0x2)
        Serial Number: 9881955886670443743 (0x8923c285a71274df)
    Signature Algorithm: sha256WithRSAEncryption
        Issuer: C=US, ST=California, L=Santa Clara, O=pkg5, OU=ta11, CN=localhost/emailAddress=ta11
        Validity
            Not Before: Dec  6 03:06:44 2014 GMT
            Not After : Sep  1 03:06:44 2017 GMT
        Subject: C=US, ST=California, L=Santa Clara, O=pkg5, OU=ta11, CN=localhost/emailAddress=ta11
        Subject Public Key Info:
            Public Key Algorithm: rsaEncryption
                Public-Key: (1024 bit)
                Modulus:
                    00:e2:18:bf:52:7e:bd:14:4a:3e:93:1b:c6:9e:11:
                    58:39:a6:fe:91:fd:ba:38:af:94:1f:2a:ae:55:de:
                    3a:8a:b3:a1:55:80:c2:97:ea:58:ef:6f:dd:0e:6f:
                    d4:82:19:89:f5:a0:11:1e:59:16:a4:ad:3a:d2:2f:
                    99:de:fe:36:6d:5d:30:12:92:d7:a1:6d:f0:96:c1:
                    c9:8f:7d:fc:e6:69:71:d6:8b:d4:89:28:21:12:ae:
                    61:e0:05:9c:e8:c4:c6:c7:16:c1:4c:28:70:f9:05:
                    87:10:90:ef:7d:52:d4:28:c6:e3:86:a8:2f:ce:4e:
                    47:e2:f6:48:79:ba:2a:b2:95
                Exponent: 65537 (0x10001)
        X509v3 extensions:
            X509v3 Subject Key Identifier: 
                9E:95:A4:08:97:81:BB:A9:A5:A3:DF:CB:CD:41:8C:A2:8A:A7:38:26
            X509v3 Authority Key Identifier: 
                keyid:9E:95:A4:08:97:81:BB:A9:A5:A3:DF:CB:CD:41:8C:A2:8A:A7:38:26

            X509v3 Basic Constraints: 
                CA:TRUE
    Signature Algorithm: sha256WithRSAEncryption
         39:24:a5:06:26:04:1d:3e:d1:4e:f2:63:81:4a:18:66:95:fc:
         80:3f:a7:f6:a8:45:85:c2:f8:41:57:b3:e2:61:a3:e0:9d:11:
         c6:98:3b:75:42:0f:ef:fd:79:b6:7c:1a:ce:8c:ce:7f:6c:52:
         1e:c2:77:2b:3b:76:16:fb:55:3c:38:58:f8:6e:9e:fd:b9:89:
         df:58:40:cc:b4:ff:a4:2f:75:c7:c3:67:b5:03:3d:a3:f5:65:
         04:6a:5c:77:4b:ca:a9:4a:5e:20:cf:f1:dc:c0:f4:b3:73:bf:
         56:ec:8a:33:1d:96:02:82:ad:da:f9:0a:6c:cf:4c:1e:6b:4f:
         4c:b4
-----BEGIN CERTIFICATE-----
MIICzDCCAjWgAwIBAgIJAIkjwoWnEnTfMA0GCSqGSIb3DQEBCwUAMH8xCzAJBgNV
BAYTAlVTMRMwEQYDVQQIDApDYWxpZm9ybmlhMRQwEgYDVQQHDAtTYW50YSBDbGFy
YTENMAsGA1UECgwEcGtnNTENMAsGA1UECwwEdGExMTESMBAGA1UEAwwJbG9jYWxo
b3N0MRMwEQYJKoZIhvcNAQkBFgR0YTExMB4XDTE0MTIwNjAzMDY0NFoXDTE3MDkw
MTAzMDY0NFowfzELMAkGA1UEBhMCVVMxEzARBgNVBAgMCkNhbGlmb3JuaWExFDAS
BgNVBAcMC1NhbnRhIENsYXJhMQ0wCwYDVQQKDARwa2c1MQ0wCwYDVQQLDAR0YTEx
MRIwEAYDVQQDDAlsb2NhbGhvc3QxEzARBgkqhkiG9w0BCQEWBHRhMTEwgZ8wDQYJ
KoZIhvcNAQEBBQADgY0AMIGJAoGBAOIYv1J+vRRKPpMbxp4RWDmm/pH9ujivlB8q
rlXeOoqzoVWAwpfqWO9v3Q5v1IIZifWgER5ZFqStOtIvmd7+Nm1dMBKS16Ft8JbB
yY99/OZpcdaL1IkoIRKuYeAFnOjExscWwUwocPkFhxCQ731S1CjG44aoL85OR+L2
SHm6KrKVAgMBAAGjUDBOMB0GA1UdDgQWBBSelaQIl4G7qaWj38vNQYyiiqc4JjAf
BgNVHSMEGDAWgBSelaQIl4G7qaWj38vNQYyiiqc4JjAMBgNVHRMEBTADAQH/MA0G
CSqGSIb3DQEBCwUAA4GBADkkpQYmBB0+0U7yY4FKGGaV/IA/p/aoRYXC+EFXs+Jh
o+CdEcaYO3VCD+/9ebZ8Gs6Mzn9sUh7Cdys7dhb7VTw4WPhunv25id9YQMy0/6Qv
dcfDZ7UDPaP1ZQRqXHdLyqlKXiDP8dzA9LNzv1bsijMdlgKCrdr5CmzPTB5rT0y0
-----END CERTIFICATE-----
