Certificate:
    Data:
        Version: 3 (0x2)
        Serial Number:
            65:57:6b:d5:3b:88:78:53:ec:dc:7f:43:2e:43:92:f7:48:db:f3:07
        Signature Algorithm: sha256WithRSAEncryption
        Issuer: C=US, ST=California, L=Santa Clara, O=pkg5, OU=ta11, CN=localhost, emailAddress=ta11
        Validity
            Not Before: Nov 14 14:26:59 2024 GMT
            Not After : Aug 11 14:26:59 2027 GMT
        Subject: C=US, ST=California, L=Santa Clara, O=pkg5, OU=ta11, CN=localhost, emailAddress=ta11
        Subject Public Key Info:
            Public Key Algorithm: rsaEncryption
                Public-Key: (2048 bit)
                Modulus:
                    00:d2:9f:81:e3:ff:e7:03:50:de:7f:c0:aa:7e:8e:
                    97:a1:fd:61:f7:25:36:8c:9f:c1:36:48:29:5f:11:
                    2a:ee:52:bf:f4:21:44:4e:19:7d:2d:18:d7:12:a8:
                    b3:97:f9:dd:24:c2:8a:76:9a:aa:c5:3f:23:37:a8:
                    ff:f3:8c:14:79:bf:a2:1c:30:69:f0:00:91:52:03:
                    9e:8e:3d:42:3a:8c:02:1e:35:1e:5f:35:89:84:ac:
                    18:a6:d1:19:f6:60:12:61:e9:38:a7:1b:3e:5a:80:
                    4e:f4:29:1c:40:02:09:eb:95:e5:a5:46:0d:69:11:
                    30:51:76:47:98:bf:0c:43:46:50:c6:fa:dd:fc:1e:
                    8d:2a:5d:aa:2a:00:7a:30:ec:fd:dc:08:3f:b1:84:
                    b6:98:72:39:ea:e9:99:57:19:15:7b:cc:e7:0e:76:
                    6a:54:0d:97:be:9a:b1:5f:ce:d2:20:2a:23:e9:93:
                    35:54:9a:3b:01:23:e1:96:4f:76:a5:ce:e7:01:3d:
                    75:91:e9:a3:31:db:97:03:a8:95:65:c7:ea:5a:0e:
                    fe:2f:af:68:e5:6a:b8:87:28:aa:a7:bf:da:0a:b4:
                    1c:d5:26:58:16:2d:fe:e1:db:74:fa:3e:21:9c:81:
                    ae:0b:a0:90:b1:17:23:5a:eb:62:8e:e8:9f:a9:b0:
                    84:b9
                Exponent: 65537 (0x10001)
        X509v3 extensions:
            X509v3 Subject Key Identifier: 
                79:F2:26:F0:30:39:D6:D9:43:60:6F:CA:41:D8:06:FB:B8:5C:78:30
            X509v3 Authority Key Identifier: 
                79:F2:26:F0:30:39:D6:D9:43:60:6F:CA:41:D8:06:FB:B8:5C:78:30
            X509v3 Basic Constraints: critical
                CA:TRUE
    Signature Algorithm: sha256WithRSAEncryption
    Signature Value:
        84:3f:1d:a0:28:83:54:54:07:ba:2e:2a:5f:f5:e3:a6:82:52:
        8e:54:5a:13:27:bb:35:1a:7a:98:81:13:b2:ad:f6:8b:2b:9a:
        6d:92:ec:40:25:b1:92:8e:1c:a9:fd:7f:63:29:43:e2:2e:3d:
        34:d0:7c:44:5f:a0:ec:66:20:cb:04:06:cf:48:58:7b:5b:c7:
        df:ff:41:fa:c5:6c:2d:1a:29:41:29:22:f3:54:8d:af:57:c8:
        45:ef:ab:ac:56:8d:da:2a:9c:35:85:e2:4b:37:47:b2:27:84:
        54:cc:f8:6b:ce:55:72:5a:9c:36:36:40:ed:fc:20:3f:17:d5:
        66:0d:b0:4e:30:d3:59:d0:07:ab:18:3e:b5:00:b4:32:35:64:
        10:cf:ee:e8:5d:04:76:27:a3:14:a9:aa:79:ed:06:90:47:ae:
        ee:fe:14:ed:f2:13:d2:20:da:86:70:18:d7:4e:fd:cf:09:b8:
        1b:f6:7d:41:73:7e:3e:5d:6f:05:4c:a9:78:c7:6c:32:7c:ed:
        2e:b0:04:24:30:14:fb:9c:7d:18:a5:31:34:77:3e:08:ca:35:
        cc:4e:6a:41:b7:1e:9e:b4:6b:b8:92:76:21:1d:e0:70:ff:32:
        68:1c:03:30:65:af:5f:f3:06:25:a8:25:42:6e:50:52:92:d7:
        de:34:be:b7
-----BEGIN CERTIFICATE-----
MIID3zCCAsegAwIBAgIUZVdr1TuIeFPs3H9DLkOS90jb8wcwDQYJKoZIhvcNAQEL
BQAwfzELMAkGA1UEBhMCVVMxEzARBgNVBAgMCkNhbGlmb3JuaWExFDASBgNVBAcM
C1NhbnRhIENsYXJhMQ0wCwYDVQQKDARwa2c1MQ0wCwYDVQQLDAR0YTExMRIwEAYD
VQQDDAlsb2NhbGhvc3QxEzARBgkqhkiG9w0BCQEWBHRhMTEwHhcNMjQxMTE0MTQy
NjU5WhcNMjcwODExMTQyNjU5WjB/MQswCQYDVQQGEwJVUzETMBEGA1UECAwKQ2Fs
aWZvcm5pYTEUMBIGA1UEBwwLU2FudGEgQ2xhcmExDTALBgNVBAoMBHBrZzUxDTAL
BgNVBAsMBHRhMTExEjAQBgNVBAMMCWxvY2FsaG9zdDETMBEGCSqGSIb3DQEJARYE
dGExMTCCASIwDQYJKoZIhvcNAQEBBQADggEPADCCAQoCggEBANKfgeP/5wNQ3n/A
qn6Ol6H9YfclNoyfwTZIKV8RKu5Sv/QhRE4ZfS0Y1xKos5f53STCinaaqsU/Izeo
//OMFHm/ohwwafAAkVIDno49QjqMAh41Hl81iYSsGKbRGfZgEmHpOKcbPlqATvQp
HEACCeuV5aVGDWkRMFF2R5i/DENGUMb63fwejSpdqioAejDs/dwIP7GEtphyOerp
mVcZFXvM5w52alQNl76asV/O0iAqI+mTNVSaOwEj4ZZPdqXO5wE9dZHpozHblwOo
lWXH6loO/i+vaOVquIcoqqe/2gq0HNUmWBYt/uHbdPo+IZyBrgugkLEXI1rrYo7o
n6mwhLkCAwEAAaNTMFEwHQYDVR0OBBYEFHnyJvAwOdbZQ2BvykHYBvu4XHgwMB8G
A1UdIwQYMBaAFHnyJvAwOdbZQ2BvykHYBvu4XHgwMA8GA1UdEwEB/wQFMAMBAf8w
DQYJKoZIhvcNAQELBQADggEBAIQ/HaAog1RUB7ouKl/146aCUo5UWhMnuzUaepiB
E7Kt9osrmm2S7EAlsZKOHKn9f2MpQ+IuPTTQfERfoOxmIMsEBs9IWHtbx9//QfrF
bC0aKUEpIvNUja9XyEXvq6xWjdoqnDWF4ks3R7InhFTM+GvOVXJanDY2QO38ID8X
1WYNsE4w01nQB6sYPrUAtDI1ZBDP7uhdBHYnoxSpqnntBpBHru7+FO3yE9Ig2oZw
GNdO/c8JuBv2fUFzfj5dbwVMqXjHbDJ87S6wBCQwFPucfRilMTR3PgjKNcxOakG3
Hp60a7iSdiEd4HD/MmgcAzBlr1/zBiWoJUJuUFKS1940vrc=
-----END CERTIFICATE-----
