Certificate:
    Data:
        Version: 3 (0x2)
        Serial Number:
            68:37:3a:4d:a5:e5:4b:cc:16:35:ac:53:91:e5:d6:eb:bc:65:46:b7
        Signature Algorithm: sha256WithRSAEncryption
        Issuer: C = US, ST = California, L = Santa Clara, O = pkg5, OU = ta11, CN = localhost, emailAddress = ta11
        Validity
            Not Before: Oct 24 21:43:18 2023 GMT
            Not After : Jul 20 21:43:18 2026 GMT
        Subject: C = US, ST = California, L = Santa Clara, O = pkg5, OU = ta11, CN = localhost, emailAddress = ta11
        Subject Public Key Info:
            Public Key Algorithm: rsaEncryption
                Public-Key: (2048 bit)
                Modulus:
                    00:e1:07:cd:35:01:48:47:fa:4f:cd:ae:4e:96:f5:
                    69:d4:98:59:2d:6a:e1:1e:26:4b:c7:f8:27:bc:3a:
                    f3:0d:b6:69:53:e2:70:a0:f2:54:1c:d7:ec:9e:aa:
                    78:9c:06:2f:63:a3:bf:de:a6:09:34:38:48:29:64:
                    24:15:cc:ef:dc:e1:8f:a5:01:b9:37:08:df:62:e8:
                    ee:f3:5e:2f:74:40:fb:b2:a1:6b:b6:d8:55:61:e2:
                    f8:98:59:09:e0:48:7e:05:ca:d7:d7:a9:fb:24:3e:
                    8b:b0:f5:b6:cc:c6:e4:20:76:3d:e6:31:f4:b1:8c:
                    7d:8e:1a:9e:ab:dc:47:e3:43:f4:dc:b6:8f:2c:42:
                    91:58:d4:d6:b8:67:7b:02:37:36:3e:61:8a:0d:bd:
                    68:6d:ff:91:fe:8a:f3:89:b4:a4:78:ba:ad:2a:0d:
                    1e:ba:7e:1d:e9:bb:b2:87:c2:ff:2c:ee:0c:55:b8:
                    5e:87:e7:e6:61:6e:1d:eb:9c:8d:7c:2d:f2:28:57:
                    22:8a:53:63:40:58:a8:9d:ba:d6:ee:97:c2:1a:4a:
                    98:ca:00:46:f0:a8:fd:26:d7:35:a0:be:12:3c:c4:
                    3c:1f:5c:33:6d:5c:1e:5d:de:a4:40:30:7f:bb:d8:
                    a6:4f:38:7f:3a:91:b0:90:4c:72:a6:b9:55:1b:98:
                    83:53
                Exponent: 65537 (0x10001)
        X509v3 extensions:
            X509v3 Subject Key Identifier: 
                9E:D6:A8:28:C3:04:5C:89:A2:36:5F:D4:85:22:C3:AB:4A:C4:DE:7E
            X509v3 Authority Key Identifier: 
                9E:D6:A8:28:C3:04:5C:89:A2:36:5F:D4:85:22:C3:AB:4A:C4:DE:7E
            X509v3 Basic Constraints: critical
                CA:TRUE
    Signature Algorithm: sha256WithRSAEncryption
    Signature Value:
        8b:56:9e:06:77:67:28:48:d9:51:52:af:f0:44:c0:b3:5b:e5:
        ae:96:5a:dd:1d:c1:b2:4d:b4:1c:3f:5d:00:be:0e:f0:81:b9:
        a4:52:b2:5e:9c:35:c4:45:24:6f:6e:5e:b2:30:d4:06:2c:5a:
        dd:41:1a:80:95:36:91:ab:af:c8:4a:ee:13:6b:b0:5c:a5:05:
        f0:e2:a7:f1:ac:1a:6f:50:a4:7d:3f:81:fa:e1:ca:af:bb:43:
        5b:84:48:39:72:e0:88:43:fe:13:54:af:ea:90:17:55:71:65:
        7a:3b:71:29:35:cb:29:32:8f:95:7a:b5:23:01:11:1b:8d:ee:
        9b:79:27:75:d1:a6:69:71:26:52:d8:31:28:ad:58:e3:89:da:
        6c:ae:c9:8f:db:29:24:c3:43:c2:41:51:52:49:26:eb:f2:b1:
        2b:4a:00:c3:fa:6e:fc:04:21:b4:fd:e4:4e:99:db:0c:e3:18:
        ac:e0:9d:d1:79:ef:ef:88:11:df:36:16:f9:5e:37:b0:51:57:
        60:41:48:1e:af:76:55:7c:62:05:df:60:af:7e:02:9d:7a:cf:
        7d:81:bd:39:88:ec:f6:9e:9c:65:7a:83:81:8c:44:3c:31:13:
        c9:c1:d5:e6:98:86:5c:58:e4:6d:74:af:b4:4f:0e:3d:d8:6e:
        05:fd:c9:73
-----BEGIN CERTIFICATE-----
MIID3zCCAsegAwIBAgIUaDc6TaXlS8wWNaxTkeXW67xlRrcwDQYJKoZIhvcNAQEL
BQAwfzELMAkGA1UEBhMCVVMxEzARBgNVBAgMCkNhbGlmb3JuaWExFDASBgNVBAcM
C1NhbnRhIENsYXJhMQ0wCwYDVQQKDARwa2c1MQ0wCwYDVQQLDAR0YTExMRIwEAYD
VQQDDAlsb2NhbGhvc3QxEzARBgkqhkiG9w0BCQEWBHRhMTEwHhcNMjMxMDI0MjE0
MzE4WhcNMjYwNzIwMjE0MzE4WjB/MQswCQYDVQQGEwJVUzETMBEGA1UECAwKQ2Fs
aWZvcm5pYTEUMBIGA1UEBwwLU2FudGEgQ2xhcmExDTALBgNVBAoMBHBrZzUxDTAL
BgNVBAsMBHRhMTExEjAQBgNVBAMMCWxvY2FsaG9zdDETMBEGCSqGSIb3DQEJARYE
dGExMTCCASIwDQYJKoZIhvcNAQEBBQADggEPADCCAQoCggEBAOEHzTUBSEf6T82u
Tpb1adSYWS1q4R4mS8f4J7w68w22aVPicKDyVBzX7J6qeJwGL2Ojv96mCTQ4SClk
JBXM79zhj6UBuTcI32Lo7vNeL3RA+7Kha7bYVWHi+JhZCeBIfgXK19ep+yQ+i7D1
tszG5CB2PeYx9LGMfY4anqvcR+ND9Ny2jyxCkVjU1rhnewI3Nj5hig29aG3/kf6K
84m0pHi6rSoNHrp+Hem7sofC/yzuDFW4Xofn5mFuHeucjXwt8ihXIopTY0BYqJ26
1u6XwhpKmMoARvCo/SbXNaC+EjzEPB9cM21cHl3epEAwf7vYpk84fzqRsJBMcqa5
VRuYg1MCAwEAAaNTMFEwHQYDVR0OBBYEFJ7WqCjDBFyJojZf1IUiw6tKxN5+MB8G
A1UdIwQYMBaAFJ7WqCjDBFyJojZf1IUiw6tKxN5+MA8GA1UdEwEB/wQFMAMBAf8w
DQYJKoZIhvcNAQELBQADggEBAItWngZ3ZyhI2VFSr/BEwLNb5a6WWt0dwbJNtBw/
XQC+DvCBuaRSsl6cNcRFJG9uXrIw1AYsWt1BGoCVNpGrr8hK7hNrsFylBfDip/Gs
Gm9QpH0/gfrhyq+7Q1uESDly4IhD/hNUr+qQF1VxZXo7cSk1yykyj5V6tSMBERuN
7pt5J3XRpmlxJlLYMSitWOOJ2myuyY/bKSTDQ8JBUVJJJuvysStKAMP6bvwEIbT9
5E6Z2wzjGKzgndF57++IEd82FvleN7BRV2BBSB6vdlV8YgXfYK9+Ap16z32BvTmI
7PaenGV6g4GMRDwxE8nB1eaYhlxY5G10r7RPDj3YbgX9yXM=
-----END CERTIFICATE-----
