Certificate:
    Data:
        Version: 3 (0x2)
        Serial Number:
            d7:98:f0:1e:56:fa:67:a2
    Signature Algorithm: sha256WithRSAEncryption
        Issuer: C=US, ST=California, L=Santa Clara, O=pkg5, OU=ta11, CN=localhost/emailAddress=ta11
        Validity
            Not Before: Mar 20 10:20:57 2018 GMT
            Not After : Dec 14 10:20:57 2020 GMT
        Subject: C=US, ST=California, L=Santa Clara, O=pkg5, OU=ta11, CN=localhost/emailAddress=ta11
        Subject Public Key Info:
            Public Key Algorithm: rsaEncryption
                Public-Key: (2048 bit)
                Modulus:
                    00:f0:74:42:69:90:c7:db:88:8d:67:fa:b5:b5:32:
                    35:64:1f:38:e1:fd:ea:4c:bf:ff:53:80:78:38:51:
                    db:d8:fb:8e:fd:c1:c3:7c:97:50:65:64:13:d0:9b:
                    da:10:5e:54:74:2f:bd:1a:e1:87:4c:4c:b5:f2:93:
                    31:5b:42:d3:1e:5f:db:94:ff:eb:fa:67:aa:e1:92:
                    75:a1:60:fa:28:e5:a0:51:08:35:6c:cb:85:6e:6a:
                    1e:41:35:60:6f:26:da:56:77:0d:89:d7:62:a2:0b:
                    ca:80:7e:71:33:1c:71:24:cf:c2:98:b0:69:6f:8d:
                    b1:bd:7a:ec:d1:bc:74:ab:bd:ab:8f:65:c8:2c:b2:
                    ba:9c:5a:f6:f6:3e:39:14:2c:30:35:79:e4:c7:bd:
                    50:7c:85:ca:5a:dc:fd:ac:f4:53:18:b3:4c:80:a8:
                    d7:d0:aa:18:2f:0b:6a:2d:6b:d6:1d:b6:79:d9:0f:
                    e7:fe:13:fd:9c:cd:28:40:2c:db:af:f1:26:4d:c4:
                    ce:22:5b:18:16:c0:a0:aa:d8:c7:7b:97:35:cd:27:
                    85:d6:06:78:2c:c2:ee:a9:58:be:68:0c:23:8a:1f:
                    a4:f7:b2:84:fd:65:45:19:2c:3f:00:e2:68:55:08:
                    8d:bb:00:be:a2:74:25:07:05:a6:06:e8:e2:31:8c:
                    53:67
                Exponent: 65537 (0x10001)
        X509v3 extensions:
            X509v3 Subject Key Identifier: 
                2B:98:B8:44:A3:B5:04:E2:AA:0E:FC:93:0E:DF:18:8F:95:5D:AA:0C
            X509v3 Authority Key Identifier: 
                keyid:2B:98:B8:44:A3:B5:04:E2:AA:0E:FC:93:0E:DF:18:8F:95:5D:AA:0C

            X509v3 Basic Constraints: 
                CA:TRUE
    Signature Algorithm: sha256WithRSAEncryption
         93:96:ae:e8:2c:3f:e4:7f:95:f1:0b:b2:0e:2e:6b:66:88:44:
         f6:9b:74:e7:b7:e4:4f:8f:22:13:06:34:f4:3b:89:4d:2e:36:
         5d:49:00:a7:60:ea:2d:91:01:f7:8e:a4:07:8b:62:39:10:d4:
         0f:e5:8c:8b:ac:40:30:ac:e1:a9:9a:7d:c7:8c:09:53:e3:13:
         11:d7:55:ee:6f:79:97:62:67:17:e7:e8:c4:ee:5d:ca:e9:01:
         f9:12:2a:ed:29:b7:d8:a3:db:31:41:b1:c2:18:64:40:52:ae:
         ed:c8:4f:7b:be:55:00:4c:42:c6:53:58:0f:c0:19:c1:52:f1:
         0f:90:40:ee:d9:25:fa:5e:a9:87:7b:8d:80:36:c4:52:2a:04:
         a9:ed:fc:c8:08:9f:b1:2c:fa:13:89:78:85:f4:43:7e:2b:59:
         fb:54:20:8b:2e:fa:b6:cf:c7:68:b2:da:12:a2:a1:98:1c:83:
         65:38:26:80:ab:e0:aa:de:65:c2:97:44:d0:ca:fb:ac:18:62:
         8f:13:d8:56:13:9f:aa:80:77:0a:03:62:a6:47:44:db:3f:29:
         40:5f:a1:b8:71:ce:a0:4f:91:5c:1b:6f:52:d5:b5:ac:a3:b2:
         5b:6d:4d:e4:c8:19:90:b9:de:6f:10:2d:73:b5:53:90:4b:ae:
         13:60:67:df
-----BEGIN CERTIFICATE-----
MIID0TCCArmgAwIBAgIJANeY8B5W+meiMA0GCSqGSIb3DQEBCwUAMH8xCzAJBgNV
BAYTAlVTMRMwEQYDVQQIDApDYWxpZm9ybmlhMRQwEgYDVQQHDAtTYW50YSBDbGFy
YTENMAsGA1UECgwEcGtnNTENMAsGA1UECwwEdGExMTESMBAGA1UEAwwJbG9jYWxo
b3N0MRMwEQYJKoZIhvcNAQkBFgR0YTExMB4XDTE4MDMyMDEwMjA1N1oXDTIwMTIx
NDEwMjA1N1owfzELMAkGA1UEBhMCVVMxEzARBgNVBAgMCkNhbGlmb3JuaWExFDAS
BgNVBAcMC1NhbnRhIENsYXJhMQ0wCwYDVQQKDARwa2c1MQ0wCwYDVQQLDAR0YTEx
MRIwEAYDVQQDDAlsb2NhbGhvc3QxEzARBgkqhkiG9w0BCQEWBHRhMTEwggEiMA0G
CSqGSIb3DQEBAQUAA4IBDwAwggEKAoIBAQDwdEJpkMfbiI1n+rW1MjVkHzjh/epM
v/9TgHg4UdvY+479wcN8l1BlZBPQm9oQXlR0L70a4YdMTLXykzFbQtMeX9uU/+v6
Z6rhknWhYPoo5aBRCDVsy4Vuah5BNWBvJtpWdw2J12KiC8qAfnEzHHEkz8KYsGlv
jbG9euzRvHSrvauPZcgssrqcWvb2PjkULDA1eeTHvVB8hcpa3P2s9FMYs0yAqNfQ
qhgvC2ota9YdtnnZD+f+E/2czShALNuv8SZNxM4iWxgWwKCq2Md7lzXNJ4XWBngs
wu6pWL5oDCOKH6T3soT9ZUUZLD8A4mhVCI27AL6idCUHBaYG6OIxjFNnAgMBAAGj
UDBOMB0GA1UdDgQWBBQrmLhEo7UE4qoO/JMO3xiPlV2qDDAfBgNVHSMEGDAWgBQr
mLhEo7UE4qoO/JMO3xiPlV2qDDAMBgNVHRMEBTADAQH/MA0GCSqGSIb3DQEBCwUA
A4IBAQCTlq7oLD/kf5XxC7IOLmtmiET2m3Tnt+RPjyITBjT0O4lNLjZdSQCnYOot
kQH3jqQHi2I5ENQP5YyLrEAwrOGpmn3HjAlT4xMR11Xub3mXYmcX5+jE7l3K6QH5
EirtKbfYo9sxQbHCGGRAUq7tyE97vlUATELGU1gPwBnBUvEPkEDu2SX6XqmHe42A
NsRSKgSp7fzICJ+xLPoTiXiF9EN+K1n7VCCLLvq2z8dostoSoqGYHINlOCaAq+Cq
3mXCl0TQyvusGGKPE9hWE5+qgHcKA2KmR0TbPylAX6G4cc6gT5FcG29S1bWso7Jb
bU3kyBmQud5vEC1ztVOQS64TYGff
-----END CERTIFICATE-----
