Certificate:
    Data:
        Version: 3 (0x2)
        Serial Number:
            7f:89:ed:44:12:3e:5d:7c:ce:36:d4:35:a7:64:d7:1a:90:64:6c:5a
        Signature Algorithm: sha256WithRSAEncryption
        Issuer: C=US, ST=California, L=Santa Clara, O=pkg5, CN=ta4, emailAddress=ta4
        Validity
            Not Before: Nov 14 14:26:56 2024 GMT
            Not After : Aug 11 14:26:56 2027 GMT
        Subject: C=US, ST=California, L=Santa Clara, O=pkg5, CN=ta4, emailAddress=ta4
        Subject Public Key Info:
            Public Key Algorithm: rsaEncryption
                Public-Key: (2048 bit)
                Modulus:
                    00:c4:4a:9e:c1:a6:fe:8b:a8:17:16:bb:d5:e7:4d:
                    a3:c8:60:4c:a9:be:e3:25:14:fe:a0:3d:f6:c5:7e:
                    d2:eb:a5:ac:c0:77:53:4d:ca:9a:50:c6:37:43:d0:
                    4f:69:39:09:f3:16:13:62:ea:ee:fd:14:5d:96:8a:
                    0e:4b:6a:1d:f6:39:78:f9:a2:a2:7d:fe:28:11:22:
                    de:ed:7a:96:5b:8d:cf:a5:68:bd:3b:ea:70:bf:e6:
                    4d:c5:f3:42:e3:39:e1:f8:08:06:1c:fc:89:a1:e0:
                    ba:0f:70:5c:2b:2a:64:81:72:c1:b3:f5:0e:e3:cc:
                    d1:a8:c5:72:b5:26:85:84:15:52:aa:db:16:ad:49:
                    23:35:55:14:25:af:f5:d6:35:a0:8e:d3:73:73:dd:
                    e5:e9:5b:35:d9:27:57:a3:16:ba:2b:f2:5e:6c:7a:
                    f0:ed:9c:13:30:aa:34:61:de:e5:7e:6b:fb:69:ff:
                    9b:ed:5e:d8:27:d0:cd:26:41:ae:97:a6:b4:41:71:
                    ad:47:81:48:bd:83:56:b9:55:91:eb:4c:6c:81:f6:
                    f4:97:30:2a:e7:c7:44:02:0d:51:7b:3d:e8:4f:9f:
                    71:fd:4e:96:a6:3e:98:b0:d3:1b:60:d1:8f:2a:b8:
                    a1:e7:e3:18:9d:de:15:26:2b:00:f5:3e:83:95:e4:
                    96:85
                Exponent: 65537 (0x10001)
        X509v3 extensions:
            X509v3 Subject Key Identifier: 
                F4:6E:A2:D5:FD:51:88:20:D0:67:6D:7F:36:87:90:6B:61:F9:81:4A
            X509v3 Authority Key Identifier: 
                F4:6E:A2:D5:FD:51:88:20:D0:67:6D:7F:36:87:90:6B:61:F9:81:4A
            X509v3 Basic Constraints: critical
                CA:TRUE
    Signature Algorithm: sha256WithRSAEncryption
    Signature Value:
        52:aa:0b:41:a5:fd:4c:1c:48:88:76:21:99:43:99:01:90:7e:
        a7:12:2f:f4:b4:f6:89:46:b3:0e:89:55:b9:17:d6:07:7a:9c:
        98:78:d9:b0:e0:82:3e:92:4d:71:d3:a0:8d:82:49:79:5f:91:
        ff:ef:a2:4c:99:dc:3c:67:0d:07:82:6a:89:7d:6a:94:72:31:
        63:9d:03:ca:99:82:68:da:d1:df:07:40:fb:b9:c7:f9:5e:25:
        64:ed:5f:35:95:79:e4:30:f0:75:4a:6f:0f:de:15:1a:43:fd:
        84:a2:f1:58:ba:12:37:8b:03:7c:39:7f:21:28:cd:e4:03:24:
        92:0a:b8:d7:0c:15:f6:c5:f0:d5:ad:1a:60:e4:93:e3:91:e7:
        3b:63:43:1a:21:7d:c9:cb:1f:26:43:db:ca:d1:df:95:58:e6:
        9e:07:24:9a:46:16:33:d9:4b:29:91:a2:14:77:d5:c1:64:0e:
        8b:da:91:c6:76:cd:31:70:b1:4f:da:cc:ad:c5:97:60:a8:ed:
        90:80:5d:4d:d2:b5:cb:0c:95:b0:5a:f0:8d:4a:6e:f1:9c:24:
        f4:ec:4a:82:35:22:71:db:e3:64:a6:58:dd:0f:44:4c:f4:21:
        a7:58:f7:dd:bb:f7:1b:72:83:df:4c:88:77:46:91:7b:bd:3d:
        96:91:6d:64
-----BEGIN CERTIFICATE-----
MIIDszCCApugAwIBAgIUf4ntRBI+XXzONtQ1p2TXGpBkbFowDQYJKoZIhvcNAQEL
BQAwaTELMAkGA1UEBhMCVVMxEzARBgNVBAgMCkNhbGlmb3JuaWExFDASBgNVBAcM
C1NhbnRhIENsYXJhMQ0wCwYDVQQKDARwa2c1MQwwCgYDVQQDDAN0YTQxEjAQBgkq
hkiG9w0BCQEWA3RhNDAeFw0yNDExMTQxNDI2NTZaFw0yNzA4MTExNDI2NTZaMGkx
CzAJBgNVBAYTAlVTMRMwEQYDVQQIDApDYWxpZm9ybmlhMRQwEgYDVQQHDAtTYW50
YSBDbGFyYTENMAsGA1UECgwEcGtnNTEMMAoGA1UEAwwDdGE0MRIwEAYJKoZIhvcN
AQkBFgN0YTQwggEiMA0GCSqGSIb3DQEBAQUAA4IBDwAwggEKAoIBAQDESp7Bpv6L
qBcWu9XnTaPIYEypvuMlFP6gPfbFftLrpazAd1NNyppQxjdD0E9pOQnzFhNi6u79
FF2Wig5Lah32OXj5oqJ9/igRIt7tepZbjc+laL076nC/5k3F80LjOeH4CAYc/Imh
4LoPcFwrKmSBcsGz9Q7jzNGoxXK1JoWEFVKq2xatSSM1VRQlr/XWNaCO03Nz3eXp
WzXZJ1ejFror8l5sevDtnBMwqjRh3uV+a/tp/5vtXtgn0M0mQa6XprRBca1HgUi9
g1a5VZHrTGyB9vSXMCrnx0QCDVF7PehPn3H9TpamPpiw0xtg0Y8quKHn4xid3hUm
KwD1PoOV5JaFAgMBAAGjUzBRMB0GA1UdDgQWBBT0bqLV/VGIINBnbX82h5BrYfmB
SjAfBgNVHSMEGDAWgBT0bqLV/VGIINBnbX82h5BrYfmBSjAPBgNVHRMBAf8EBTAD
AQH/MA0GCSqGSIb3DQEBCwUAA4IBAQBSqgtBpf1MHEiIdiGZQ5kBkH6nEi/0tPaJ
RrMOiVW5F9YHepyYeNmw4II+kk1x06CNgkl5X5H/76JMmdw8Zw0HgmqJfWqUcjFj
nQPKmYJo2tHfB0D7ucf5XiVk7V81lXnkMPB1Sm8P3hUaQ/2EovFYuhI3iwN8OX8h
KM3kAySSCrjXDBX2xfDVrRpg5JPjkec7Y0MaIX3Jyx8mQ9vK0d+VWOaeBySaRhYz
2UspkaIUd9XBZA6L2pHGds0xcLFP2sytxZdgqO2QgF1N0rXLDJWwWvCNSm7xnCT0
7EqCNSJx2+NkpljdD0RM9CGnWPfdu/cbcoPfTIh3RpF7vT2WkW1k
-----END CERTIFICATE-----
