Certificate:
    Data:
        Version: 3 (0x2)
        Serial Number:
            03:f1:7e:84:4f:b7:f0:1a:45:31:f0:af:a3:79:49:46:be:2a:b3:47
        Signature Algorithm: sha256WithRSAEncryption
        Issuer: C = US, ST = California, L = Santa Clara, O = pkg5, CN = ta4, emailAddress = ta4
        Validity
            Not Before: Oct 22 10:15:18 2021 GMT
            Not After : Jul 18 10:15:18 2024 GMT
        Subject: C = US, ST = California, L = Santa Clara, O = pkg5, CN = ta4, emailAddress = ta4
        Subject Public Key Info:
            Public Key Algorithm: rsaEncryption
                Public-Key: (2048 bit)
                Modulus:
                    00:c5:94:99:ee:85:fb:44:b9:dc:75:ab:09:10:15:
                    73:11:41:a5:38:45:86:b4:36:bd:50:08:1e:a3:d6:
                    d2:b2:26:1f:7e:57:12:b2:20:78:ba:e2:72:d0:fe:
                    5a:0d:23:5f:16:55:ec:81:79:a5:5c:94:89:12:75:
                    bf:3e:f3:2a:ec:95:c7:c3:c0:ea:5e:41:0a:cd:c1:
                    a0:92:c5:7a:e5:c0:07:66:82:95:05:7a:c6:5c:c3:
                    79:d2:5d:cd:9d:cc:28:2b:7e:4c:16:3d:75:8a:54:
                    f0:67:3b:dc:d9:37:8e:ee:29:8b:73:12:30:a9:63:
                    bc:48:77:53:0d:dc:96:a6:91:5d:c7:9f:cd:2c:ba:
                    ff:11:53:18:9a:86:df:9d:fd:53:2b:8f:1f:49:93:
                    c3:a9:43:82:70:88:2e:b7:8a:a0:ca:ad:e5:62:6b:
                    1c:22:57:6a:ce:79:d0:8f:d9:c7:18:38:9a:a6:27:
                    7b:61:7c:d5:62:10:f4:ed:b3:e9:d0:2e:28:60:87:
                    6d:b1:0a:a8:3d:44:ea:67:b8:dc:d5:c5:60:83:b2:
                    f6:ef:44:29:fa:6e:1c:43:d2:0d:5b:b7:9d:67:47:
                    7f:6d:2b:f8:63:33:77:c7:21:2b:79:6a:01:33:bd:
                    94:93:f8:72:69:7d:6f:5e:8c:02:11:03:e1:d3:9a:
                    52:a5
                Exponent: 65537 (0x10001)
        X509v3 extensions:
            X509v3 Subject Key Identifier: 
                3A:3B:2F:66:18:C6:1A:E4:A2:99:A1:A8:C5:7D:86:69:7C:B5:63:F6
            X509v3 Authority Key Identifier: 
                3A:3B:2F:66:18:C6:1A:E4:A2:99:A1:A8:C5:7D:86:69:7C:B5:63:F6
            X509v3 Basic Constraints: critical
                CA:TRUE
    Signature Algorithm: sha256WithRSAEncryption
    Signature Value:
        1e:02:d6:97:f6:2e:f8:0b:e2:fe:70:44:d4:1b:8e:67:56:52:
        2c:0b:cc:3b:ff:15:a6:4b:2f:64:22:3f:cc:7f:84:6f:db:d6:
        9b:72:29:cd:82:6a:d0:04:c1:05:e7:78:0f:47:a0:7a:bc:ff:
        da:b1:84:c1:a8:03:fb:1b:2b:cc:fd:a9:fd:b1:ef:19:fb:8e:
        bf:c1:d7:9f:4c:5d:08:45:58:4a:cb:f0:e0:69:ba:26:9a:48:
        1e:f0:f0:f8:92:72:bb:24:bf:62:e7:73:43:33:3a:85:ab:a2:
        a8:61:c1:70:14:34:0b:67:99:96:da:02:56:d6:d4:9d:a5:20:
        4e:9c:d3:cd:07:5f:8a:c1:66:6c:78:74:08:ff:c6:68:c1:6a:
        30:63:85:26:a0:4d:c3:ae:48:37:e0:63:0b:c0:a8:ec:54:82:
        be:a6:19:ef:80:f1:84:34:93:c5:58:9a:a0:67:ce:be:97:41:
        8d:35:41:07:cc:aa:a4:16:02:d2:c8:d5:96:a8:f8:21:13:65:
        88:1b:46:88:9f:47:1b:9f:4a:e5:43:9a:c7:ad:c9:52:e1:78:
        59:7a:94:d3:6c:1a:f0:6e:37:28:2a:26:84:2c:53:19:e9:55:
        c9:27:ac:c3:95:7a:4e:d2:e8:cd:6f:27:10:c0:81:db:94:a7:
        ad:82:60:ac
-----BEGIN CERTIFICATE-----
MIIDszCCApugAwIBAgIUA/F+hE+38BpFMfCvo3lJRr4qs0cwDQYJKoZIhvcNAQEL
BQAwaTELMAkGA1UEBhMCVVMxEzARBgNVBAgMCkNhbGlmb3JuaWExFDASBgNVBAcM
C1NhbnRhIENsYXJhMQ0wCwYDVQQKDARwa2c1MQwwCgYDVQQDDAN0YTQxEjAQBgkq
hkiG9w0BCQEWA3RhNDAeFw0yMTEwMjIxMDE1MThaFw0yNDA3MTgxMDE1MThaMGkx
CzAJBgNVBAYTAlVTMRMwEQYDVQQIDApDYWxpZm9ybmlhMRQwEgYDVQQHDAtTYW50
YSBDbGFyYTENMAsGA1UECgwEcGtnNTEMMAoGA1UEAwwDdGE0MRIwEAYJKoZIhvcN
AQkBFgN0YTQwggEiMA0GCSqGSIb3DQEBAQUAA4IBDwAwggEKAoIBAQDFlJnuhftE
udx1qwkQFXMRQaU4RYa0Nr1QCB6j1tKyJh9+VxKyIHi64nLQ/loNI18WVeyBeaVc
lIkSdb8+8yrslcfDwOpeQQrNwaCSxXrlwAdmgpUFesZcw3nSXc2dzCgrfkwWPXWK
VPBnO9zZN47uKYtzEjCpY7xId1MN3JamkV3Hn80suv8RUxiaht+d/VMrjx9Jk8Op
Q4JwiC63iqDKreViaxwiV2rOedCP2ccYOJqmJ3thfNViEPTts+nQLihgh22xCqg9
ROpnuNzVxWCDsvbvRCn6bhxD0g1bt51nR39tK/hjM3fHISt5agEzvZST+HJpfW9e
jAIRA+HTmlKlAgMBAAGjUzBRMB0GA1UdDgQWBBQ6Oy9mGMYa5KKZoajFfYZpfLVj
9jAfBgNVHSMEGDAWgBQ6Oy9mGMYa5KKZoajFfYZpfLVj9jAPBgNVHRMBAf8EBTAD
AQH/MA0GCSqGSIb3DQEBCwUAA4IBAQAeAtaX9i74C+L+cETUG45nVlIsC8w7/xWm
Sy9kIj/Mf4Rv29abcinNgmrQBMEF53gPR6B6vP/asYTBqAP7GyvM/an9se8Z+46/
wdefTF0IRVhKy/Dgabommkge8PD4knK7JL9i53NDMzqFq6KoYcFwFDQLZ5mW2gJW
1tSdpSBOnNPNB1+KwWZseHQI/8ZowWowY4UmoE3Drkg34GMLwKjsVIK+phnvgPGE
NJPFWJqgZ86+l0GNNUEHzKqkFgLSyNWWqPghE2WIG0aIn0cbn0rlQ5rHrclS4XhZ
epTTbBrwbjcoKiaELFMZ6VXJJ6zDlXpO0ujNbycQwIHblKetgmCs
-----END CERTIFICATE-----
