Certificate:
    Data:
        Version: 3 (0x2)
        Serial Number: 17076338376979357151 (0xecfb574790399ddf)
    Signature Algorithm: sha256WithRSAEncryption
        Issuer: C=US, ST=California, L=Santa Clara, O=pkg5, CN=ta4/emailAddress=ta4
        Validity
            Not Before: Dec  6 03:06:43 2014 GMT
            Not After : Sep  1 03:06:43 2017 GMT
        Subject: C=US, ST=California, L=Santa Clara, O=pkg5, CN=ta4/emailAddress=ta4
        Subject Public Key Info:
            Public Key Algorithm: rsaEncryption
                Public-Key: (1024 bit)
                Modulus:
                    00:ba:75:84:c3:eb:06:c0:01:1b:b5:21:52:94:10:
                    71:00:57:7f:ce:23:0a:98:62:98:2a:92:10:2d:93:
                    0f:86:4e:b3:08:e3:6c:80:37:2b:1b:67:0f:71:70:
                    3b:04:c2:b2:a8:b9:dc:91:f4:18:a5:56:9e:c7:d1:
                    01:5f:e8:0d:eb:e1:7a:f9:c7:25:6f:fa:9c:a3:84:
                    ed:98:f0:f4:73:4f:a7:7f:33:c5:8d:69:50:39:87:
                    67:84:ab:9f:99:51:d4:49:dd:25:0a:2c:c7:35:e9:
                    2f:9c:f1:84:1b:08:7f:ca:c9:50:57:8b:4a:40:55:
                    a6:43:38:9e:00:7d:f1:03:95
                Exponent: 65537 (0x10001)
        X509v3 extensions:
            X509v3 Subject Key Identifier: 
                84:80:A1:5F:84:9C:D1:C3:B8:50:F3:B8:3F:AA:D1:9A:F4:D8:CF:6F
            X509v3 Authority Key Identifier: 
                keyid:84:80:A1:5F:84:9C:D1:C3:B8:50:F3:B8:3F:AA:D1:9A:F4:D8:CF:6F

            X509v3 Basic Constraints: 
                CA:TRUE
    Signature Algorithm: sha256WithRSAEncryption
         63:7c:13:6d:ff:cb:37:63:6a:19:8b:7b:0b:b3:11:71:e2:7a:
         08:72:dc:f1:02:99:c6:e6:81:bc:26:20:cc:4f:fd:a8:02:43:
         f7:69:9b:ef:1b:65:13:7d:a8:41:32:0a:67:54:ed:ce:f7:96:
         82:27:3f:da:52:3f:f3:39:38:16:db:6e:70:3e:71:9d:3c:c5:
         ea:ff:0a:af:a4:2b:3f:96:ed:7a:9f:34:aa:77:be:bd:3a:68:
         da:87:76:bd:15:69:8e:3b:23:94:20:9a:1c:14:0d:45:5f:84:
         ce:ef:e8:0c:79:38:9a:a3:e3:c1:ea:db:39:1b:9b:ee:d7:ae:
         02:57
-----BEGIN CERTIFICATE-----
MIICoDCCAgmgAwIBAgIJAOz7V0eQOZ3fMA0GCSqGSIb3DQEBCwUAMGkxCzAJBgNV
BAYTAlVTMRMwEQYDVQQIDApDYWxpZm9ybmlhMRQwEgYDVQQHDAtTYW50YSBDbGFy
YTENMAsGA1UECgwEcGtnNTEMMAoGA1UEAwwDdGE0MRIwEAYJKoZIhvcNAQkBFgN0
YTQwHhcNMTQxMjA2MDMwNjQzWhcNMTcwOTAxMDMwNjQzWjBpMQswCQYDVQQGEwJV
UzETMBEGA1UECAwKQ2FsaWZvcm5pYTEUMBIGA1UEBwwLU2FudGEgQ2xhcmExDTAL
BgNVBAoMBHBrZzUxDDAKBgNVBAMMA3RhNDESMBAGCSqGSIb3DQEJARYDdGE0MIGf
MA0GCSqGSIb3DQEBAQUAA4GNADCBiQKBgQC6dYTD6wbAARu1IVKUEHEAV3/OIwqY
YpgqkhAtkw+GTrMI42yANysbZw9xcDsEwrKoudyR9BilVp7H0QFf6A3r4Xr5xyVv
+pyjhO2Y8PRzT6d/M8WNaVA5h2eEq5+ZUdRJ3SUKLMc16S+c8YQbCH/KyVBXi0pA
VaZDOJ4AffEDlQIDAQABo1AwTjAdBgNVHQ4EFgQUhIChX4Sc0cO4UPO4P6rRmvTY
z28wHwYDVR0jBBgwFoAUhIChX4Sc0cO4UPO4P6rRmvTYz28wDAYDVR0TBAUwAwEB
/zANBgkqhkiG9w0BAQsFAAOBgQBjfBNt/8s3Y2oZi3sLsxFx4noIctzxApnG5oG8
JiDMT/2oAkP3aZvvG2UTfahBMgpnVO3O95aCJz/aUj/zOTgW225wPnGdPMXq/wqv
pCs/lu16nzSqd769Omjah3a9FWmOOyOUIJocFA1FX4TO7+gMeTiao+PB6ts5G5vu
164CVw==
-----END CERTIFICATE-----
