Certificate:
    Data:
        Version: 3 (0x2)
        Serial Number:
            e3:bf:f7:54:7c:61:f2:59
    Signature Algorithm: sha256WithRSAEncryption
        Issuer: C=US, ST=California, L=Santa Clara, O=pkg5, CN=ta4/emailAddress=ta4
        Validity
            Not Before: Mar 20 10:20:55 2018 GMT
            Not After : Dec 14 10:20:55 2020 GMT
        Subject: C=US, ST=California, L=Santa Clara, O=pkg5, CN=ta4/emailAddress=ta4
        Subject Public Key Info:
            Public Key Algorithm: rsaEncryption
                Public-Key: (2048 bit)
                Modulus:
                    00:ae:19:62:ee:94:43:67:a9:a5:4b:27:6f:74:07:
                    b8:cc:df:d9:6b:93:f9:43:43:6e:01:62:06:c3:4e:
                    ee:6f:f3:76:af:01:86:0e:10:9f:5e:68:5e:3e:51:
                    8b:36:ae:10:b5:8f:3e:03:bc:90:a6:68:4a:d2:72:
                    69:34:1d:af:5d:5b:8a:74:8f:80:fe:a8:5c:0a:7b:
                    91:9a:94:bc:f3:2d:e0:74:11:76:7f:19:5e:41:dc:
                    f8:fa:c3:a6:1d:3c:8e:db:c1:7c:5e:a1:e7:93:b0:
                    0e:66:42:d7:88:6b:04:c7:12:dd:80:e7:df:f2:6a:
                    34:92:0d:ac:92:a2:80:9b:b5:45:5e:e3:e0:6c:e7:
                    82:75:01:97:ed:fe:07:b7:a6:1b:14:85:57:0f:6e:
                    ed:85:a4:a2:07:94:58:fb:3f:17:a9:d4:02:ca:75:
                    81:fb:c5:62:6b:9e:9d:c8:a2:bd:c5:02:b6:38:4b:
                    3e:fa:2e:13:04:ef:d5:e2:f7:33:40:98:6e:a0:3a:
                    ed:5e:33:3c:17:54:f5:d6:19:72:40:36:1e:87:68:
                    3c:c4:d5:00:3d:c1:8f:15:fc:64:51:cc:0d:22:03:
                    2f:4e:59:a9:f5:8d:f2:6e:6c:aa:d3:62:8f:54:c1:
                    7a:20:cc:78:56:cb:b9:2b:42:c7:ce:91:15:45:f6:
                    8f:d7
                Exponent: 65537 (0x10001)
        X509v3 extensions:
            X509v3 Subject Key Identifier: 
                8D:C3:81:0F:EA:0D:53:C4:C4:BF:96:F1:96:07:71:BE:10:39:8C:BE
            X509v3 Authority Key Identifier: 
                keyid:8D:C3:81:0F:EA:0D:53:C4:C4:BF:96:F1:96:07:71:BE:10:39:8C:BE

            X509v3 Basic Constraints: 
                CA:TRUE
    Signature Algorithm: sha256WithRSAEncryption
         26:a8:61:49:92:74:8c:b4:7f:d2:cd:48:36:65:f2:13:46:51:
         26:3e:80:a8:a5:43:d7:66:c9:7c:cb:d0:38:00:b4:1d:ed:87:
         64:6a:da:55:19:c7:27:ea:1f:f1:36:ce:2a:bd:91:eb:96:67:
         6e:43:fb:0f:5b:c8:c6:56:2f:9e:75:ba:17:57:59:70:5e:32:
         fe:00:8b:8c:2b:e6:7a:e5:ad:93:90:59:1a:67:ac:cd:a8:0c:
         fd:76:b3:8a:88:02:3f:00:04:92:95:5b:fd:f0:2e:c4:27:e4:
         d5:94:0d:f8:a1:d0:dd:4a:97:7a:e5:31:1e:9e:77:43:4d:9e:
         0a:19:1c:4b:2a:15:6a:e1:a0:c4:53:85:34:83:86:ff:81:3c:
         07:d9:db:b5:37:b1:4f:ea:b0:6b:ba:80:d9:4f:13:c5:81:75:
         06:a9:09:c7:62:68:8d:7f:e9:be:96:cc:c6:a9:1d:77:3e:47:
         30:92:60:87:52:71:c9:b1:a2:57:bd:43:75:95:b9:8a:ea:7d:
         7d:6a:c8:ee:43:50:55:d2:22:6f:ff:e9:f9:45:b2:fd:92:40:
         b4:1d:73:66:64:34:82:17:8a:a5:3e:da:88:b4:1d:36:7f:b4:
         ca:46:55:4a:8d:8f:eb:b4:81:8e:20:34:24:36:72:0c:c9:8f:
         e5:d4:c0:79
-----BEGIN CERTIFICATE-----
MIIDpTCCAo2gAwIBAgIJAOO/91R8YfJZMA0GCSqGSIb3DQEBCwUAMGkxCzAJBgNV
BAYTAlVTMRMwEQYDVQQIDApDYWxpZm9ybmlhMRQwEgYDVQQHDAtTYW50YSBDbGFy
YTENMAsGA1UECgwEcGtnNTEMMAoGA1UEAwwDdGE0MRIwEAYJKoZIhvcNAQkBFgN0
YTQwHhcNMTgwMzIwMTAyMDU1WhcNMjAxMjE0MTAyMDU1WjBpMQswCQYDVQQGEwJV
UzETMBEGA1UECAwKQ2FsaWZvcm5pYTEUMBIGA1UEBwwLU2FudGEgQ2xhcmExDTAL
BgNVBAoMBHBrZzUxDDAKBgNVBAMMA3RhNDESMBAGCSqGSIb3DQEJARYDdGE0MIIB
IjANBgkqhkiG9w0BAQEFAAOCAQ8AMIIBCgKCAQEArhli7pRDZ6mlSydvdAe4zN/Z
a5P5Q0NuAWIGw07ub/N2rwGGDhCfXmhePlGLNq4QtY8+A7yQpmhK0nJpNB2vXVuK
dI+A/qhcCnuRmpS88y3gdBF2fxleQdz4+sOmHTyO28F8XqHnk7AOZkLXiGsExxLd
gOff8mo0kg2skqKAm7VFXuPgbOeCdQGX7f4Ht6YbFIVXD27thaSiB5RY+z8XqdQC
ynWB+8Via56dyKK9xQK2OEs++i4TBO/V4vczQJhuoDrtXjM8F1T11hlyQDYeh2g8
xNUAPcGPFfxkUcwNIgMvTlmp9Y3ybmyq02KPVMF6IMx4Vsu5K0LHzpEVRfaP1wID
AQABo1AwTjAdBgNVHQ4EFgQUjcOBD+oNU8TEv5bxlgdxvhA5jL4wHwYDVR0jBBgw
FoAUjcOBD+oNU8TEv5bxlgdxvhA5jL4wDAYDVR0TBAUwAwEB/zANBgkqhkiG9w0B
AQsFAAOCAQEAJqhhSZJ0jLR/0s1INmXyE0ZRJj6AqKVD12bJfMvQOAC0He2HZGra
VRnHJ+of8TbOKr2R65ZnbkP7D1vIxlYvnnW6F1dZcF4y/gCLjCvmeuWtk5BZGmes
zagM/XaziogCPwAEkpVb/fAuxCfk1ZQN+KHQ3UqXeuUxHp53Q02eChkcSyoVauGg
xFOFNIOG/4E8B9nbtTexT+qwa7qA2U8TxYF1BqkJx2JojX/pvpbMxqkddz5HMJJg
h1JxybGiV71DdZW5iup9fWrI7kNQVdIib//p+UWy/ZJAtB1zZmQ0gheKpT7aiLQd
Nn+0ykZVSo2P67SBjiA0JDZyDMmP5dTAeQ==
-----END CERTIFICATE-----
