Certificate:
    Data:
        Version: 3 (0x2)
        Serial Number:
            bc:78:eb:56:19:c9:55:a2
    Signature Algorithm: sha256WithRSAEncryption
        Issuer: C=US, ST=California, L=Santa Clara, O=pkg5, CN=ta4/emailAddress=ta4
        Validity
            Not Before: Nov 16 10:58:50 2017 GMT
            Not After : Aug 12 10:58:50 2020 GMT
        Subject: C=US, ST=California, L=Santa Clara, O=pkg5, CN=ta4/emailAddress=ta4
        Subject Public Key Info:
            Public Key Algorithm: rsaEncryption
                Public-Key: (2048 bit)
                Modulus:
                    00:b8:19:fa:28:ef:a3:95:f0:1d:14:1c:fa:b3:f3:
                    33:37:3c:d0:62:25:5b:8c:bf:86:37:e1:06:b8:db:
                    9a:3d:66:b6:ad:79:ea:1e:00:a1:57:81:c2:1c:24:
                    a6:b7:44:ef:33:8c:f0:a2:89:e2:f9:b6:d0:6f:c4:
                    6f:43:51:95:8c:f2:fe:f6:f8:4a:74:b5:3a:03:2f:
                    34:e9:2f:3e:00:7a:8b:67:50:fc:fd:36:26:8a:b5:
                    15:8f:38:5d:69:25:ef:53:d8:04:11:31:a5:51:a2:
                    15:eb:75:f7:7c:7a:ce:1c:9b:30:8d:d3:75:1f:61:
                    96:5c:53:db:6e:26:ee:62:2c:44:40:88:0c:9e:4c:
                    dd:f1:9f:5e:a7:25:38:a4:9f:d8:12:21:cc:0a:87:
                    de:69:e6:34:c5:5c:93:1a:fb:e5:72:03:ff:11:9a:
                    45:0c:18:45:cf:6d:c8:80:2a:ed:27:bb:cb:ed:b3:
                    fe:8d:34:5c:6f:78:35:22:65:47:39:a4:11:35:48:
                    d2:f7:f7:a1:6e:fb:f4:c8:ea:95:a8:aa:6d:e6:ce:
                    16:57:8a:31:40:be:49:2f:94:5e:23:29:ef:91:63:
                    1c:c3:d8:d4:57:33:6e:82:1a:7e:0a:35:91:f0:cb:
                    b2:21:94:3c:82:81:be:04:c7:b5:52:5d:65:09:96:
                    29:b7
                Exponent: 65537 (0x10001)
        X509v3 extensions:
            X509v3 Subject Key Identifier: 
                D1:96:CC:4B:91:5F:66:A0:A7:59:31:2D:53:29:3D:18:7D:B8:AA:5F
            X509v3 Authority Key Identifier: 
                keyid:D1:96:CC:4B:91:5F:66:A0:A7:59:31:2D:53:29:3D:18:7D:B8:AA:5F

            X509v3 Basic Constraints: 
                CA:TRUE
    Signature Algorithm: sha256WithRSAEncryption
         77:f6:c1:fc:30:e1:93:bf:1c:fe:39:eb:7a:2e:f7:58:77:9b:
         5e:21:31:c9:d0:90:a9:91:18:46:e6:8d:20:7a:a1:74:ab:c5:
         83:69:90:d1:5d:14:79:55:db:e2:20:4e:6a:9e:ed:10:0a:c4:
         22:35:80:5b:db:6f:68:be:88:bb:ff:2d:28:b2:23:72:70:00:
         3e:04:2d:93:5b:4d:ea:a3:23:37:2f:8e:4c:02:05:1b:6d:83:
         cb:5e:8d:ef:da:c6:b1:9d:56:38:a4:35:59:c9:96:07:c8:99:
         26:4e:bd:0f:cf:85:39:7c:98:1f:aa:89:ba:3f:f8:35:d8:cb:
         b2:18:ee:a4:a3:0a:a8:0a:3c:53:47:f2:63:f9:27:5a:fc:1f:
         df:de:f9:ee:e5:9f:b4:62:07:0a:ce:5a:de:f3:4a:94:d0:77:
         2c:e9:17:0e:af:65:8e:a3:79:f5:fe:81:7c:d6:2e:b5:7a:eb:
         37:0c:6c:51:a0:ee:88:30:a8:5f:0f:47:17:9e:ec:bd:5a:51:
         69:5b:ec:86:a6:25:fe:f7:30:f7:e0:20:67:57:16:9e:07:e7:
         a0:fe:ed:b0:7c:3f:f7:87:6a:9d:ac:22:73:ce:bf:b2:d2:99:
         a1:13:ea:0b:16:c5:3e:d9:19:d1:a3:43:05:87:d9:8d:0d:97:
         a1:c9:25:56
-----BEGIN CERTIFICATE-----
MIIDpTCCAo2gAwIBAgIJALx461YZyVWiMA0GCSqGSIb3DQEBCwUAMGkxCzAJBgNV
BAYTAlVTMRMwEQYDVQQIDApDYWxpZm9ybmlhMRQwEgYDVQQHDAtTYW50YSBDbGFy
YTENMAsGA1UECgwEcGtnNTEMMAoGA1UEAwwDdGE0MRIwEAYJKoZIhvcNAQkBFgN0
YTQwHhcNMTcxMTE2MTA1ODUwWhcNMjAwODEyMTA1ODUwWjBpMQswCQYDVQQGEwJV
UzETMBEGA1UECAwKQ2FsaWZvcm5pYTEUMBIGA1UEBwwLU2FudGEgQ2xhcmExDTAL
BgNVBAoMBHBrZzUxDDAKBgNVBAMMA3RhNDESMBAGCSqGSIb3DQEJARYDdGE0MIIB
IjANBgkqhkiG9w0BAQEFAAOCAQ8AMIIBCgKCAQEAuBn6KO+jlfAdFBz6s/MzNzzQ
YiVbjL+GN+EGuNuaPWa2rXnqHgChV4HCHCSmt0TvM4zwooni+bbQb8RvQ1GVjPL+
9vhKdLU6Ay806S8+AHqLZ1D8/TYmirUVjzhdaSXvU9gEETGlUaIV63X3fHrOHJsw
jdN1H2GWXFPbbibuYixEQIgMnkzd8Z9epyU4pJ/YEiHMCofeaeY0xVyTGvvlcgP/
EZpFDBhFz23IgCrtJ7vL7bP+jTRcb3g1ImVHOaQRNUjS9/ehbvv0yOqVqKpt5s4W
V4oxQL5JL5ReIynvkWMcw9jUVzNughp+CjWR8MuyIZQ8goG+BMe1Ul1lCZYptwID
AQABo1AwTjAdBgNVHQ4EFgQU0ZbMS5FfZqCnWTEtUyk9GH24ql8wHwYDVR0jBBgw
FoAU0ZbMS5FfZqCnWTEtUyk9GH24ql8wDAYDVR0TBAUwAwEB/zANBgkqhkiG9w0B
AQsFAAOCAQEAd/bB/DDhk78c/jnrei73WHebXiExydCQqZEYRuaNIHqhdKvFg2mQ
0V0UeVXb4iBOap7tEArEIjWAW9tvaL6Iu/8tKLIjcnAAPgQtk1tN6qMjNy+OTAIF
G22Dy16N79rGsZ1WOKQ1WcmWB8iZJk69D8+FOXyYH6qJuj/4NdjLshjupKMKqAo8
U0fyY/knWvwf39757uWftGIHCs5a3vNKlNB3LOkXDq9ljqN59f6BfNYutXrrNwxs
UaDuiDCoXw9HF57svVpRaVvshqYl/vcw9+AgZ1cWngfnoP7tsHw/94dqnawic86/
stKZoRPqCxbFPtkZ0aNDBYfZjQ2XocklVg==
-----END CERTIFICATE-----
