Certificate:
    Data:
        Version: 3 (0x2)
        Serial Number:
            d8:98:98:a5:a1:61:a0:82
    Signature Algorithm: sha256WithRSAEncryption
        Issuer: C=US, ST=California, L=Santa Clara, O=pkg5, OU=ta6, CN=localhost/emailAddress=ta6
        Validity
            Not Before: Mar 20 10:20:56 2018 GMT
            Not After : Dec 14 10:20:56 2020 GMT
        Subject: C=US, ST=California, L=Santa Clara, O=pkg5, OU=ta6, CN=localhost/emailAddress=ta6
        Subject Public Key Info:
            Public Key Algorithm: rsaEncryption
                Public-Key: (2048 bit)
                Modulus:
                    00:9f:32:4c:cd:a0:7c:f3:4c:1a:92:a3:1d:fd:38:
                    8a:c9:e0:f1:17:fb:ed:7b:0a:7c:69:aa:9f:e6:88:
                    7a:84:50:1e:2d:8a:59:7b:39:13:5d:08:4f:9c:a9:
                    01:38:62:41:07:cb:37:db:f3:9e:3d:88:e0:01:8f:
                    26:6f:82:35:84:e9:7e:d4:6e:87:e6:72:ac:be:3c:
                    d4:e1:d1:33:2b:50:bf:dc:55:fb:63:b6:a4:03:ca:
                    b3:7b:89:13:80:1c:9c:6e:00:19:67:25:32:d6:ce:
                    11:21:7b:a5:63:fb:cb:98:71:8b:47:bd:8f:eb:12:
                    23:9c:bc:04:ce:89:90:98:30:f2:0c:f2:14:78:95:
                    4e:f6:a2:cc:d9:2a:f1:9d:94:09:4a:6a:6d:85:44:
                    d9:0c:84:35:34:7e:5f:76:36:a2:cd:03:14:fb:3b:
                    0a:72:af:d3:f5:dc:c3:1a:7c:ae:8b:05:55:81:51:
                    a9:df:e5:e7:01:9b:b1:e7:92:97:00:7a:67:b8:4c:
                    88:49:10:da:4a:64:1e:be:55:a5:eb:0f:ad:af:70:
                    4a:a0:f1:bd:9d:63:d3:9d:07:24:61:6e:9e:75:cb:
                    b0:61:aa:9a:ce:c5:3e:a4:f1:6c:c2:27:f0:41:71:
                    59:a3:18:8c:17:24:c3:de:bb:9a:5f:84:28:7e:f2:
                    81:b1
                Exponent: 65537 (0x10001)
        X509v3 extensions:
            X509v3 Subject Key Identifier: 
                8D:63:96:58:4F:C0:CF:1E:56:73:56:D3:83:F4:FE:94:20:27:7D:4D
            X509v3 Authority Key Identifier: 
                keyid:8D:63:96:58:4F:C0:CF:1E:56:73:56:D3:83:F4:FE:94:20:27:7D:4D

            X509v3 Basic Constraints: 
                CA:TRUE
    Signature Algorithm: sha256WithRSAEncryption
         5c:af:ba:e3:66:36:5f:ad:43:eb:44:a7:96:73:3d:4e:73:7d:
         ac:c4:a8:a6:8e:61:6d:db:0b:5c:2a:5d:93:7e:bc:7b:19:80:
         c6:0c:43:e7:dc:08:2f:95:75:f6:38:71:11:25:f5:8b:5e:13:
         cb:c3:87:4a:42:6d:64:8a:9f:a8:1d:73:5c:b2:b3:15:d4:4e:
         84:c6:50:e4:89:b1:21:49:4c:70:63:34:97:bd:4b:3e:25:e2:
         39:2a:06:dd:72:dd:1e:50:54:f2:0b:29:b8:76:a4:85:a2:01:
         2e:72:a7:8c:d9:77:40:97:f2:c3:25:ea:b7:22:43:ef:5d:f6:
         da:f5:a8:19:92:1e:3b:9d:5a:b9:a4:a7:c9:3b:d7:09:1b:2e:
         0d:f1:2d:af:bd:b1:2f:54:c4:37:91:e6:29:59:ec:0b:48:98:
         55:52:4a:cc:fd:67:43:3e:a4:ac:33:0d:83:a3:3b:58:a0:bc:
         46:d5:60:ef:42:b2:73:5f:f6:26:66:47:0c:1a:3c:48:7d:e0:
         96:6f:39:e2:10:24:2b:e8:43:73:53:05:3a:57:b5:68:7d:94:
         0a:4f:28:12:6d:3d:be:bb:48:00:ab:43:e7:33:b1:30:c6:04:
         9e:15:14:ac:c9:2d:2c:27:79:4c:6e:27:68:56:31:f3:c1:04:
         04:04:a0:fc
-----BEGIN CERTIFICATE-----
MIIDzTCCArWgAwIBAgIJANiYmKWhYaCCMA0GCSqGSIb3DQEBCwUAMH0xCzAJBgNV
BAYTAlVTMRMwEQYDVQQIDApDYWxpZm9ybmlhMRQwEgYDVQQHDAtTYW50YSBDbGFy
YTENMAsGA1UECgwEcGtnNTEMMAoGA1UECwwDdGE2MRIwEAYDVQQDDAlsb2NhbGhv
c3QxEjAQBgkqhkiG9w0BCQEWA3RhNjAeFw0xODAzMjAxMDIwNTZaFw0yMDEyMTQx
MDIwNTZaMH0xCzAJBgNVBAYTAlVTMRMwEQYDVQQIDApDYWxpZm9ybmlhMRQwEgYD
VQQHDAtTYW50YSBDbGFyYTENMAsGA1UECgwEcGtnNTEMMAoGA1UECwwDdGE2MRIw
EAYDVQQDDAlsb2NhbGhvc3QxEjAQBgkqhkiG9w0BCQEWA3RhNjCCASIwDQYJKoZI
hvcNAQEBBQADggEPADCCAQoCggEBAJ8yTM2gfPNMGpKjHf04isng8Rf77XsKfGmq
n+aIeoRQHi2KWXs5E10IT5ypAThiQQfLN9vznj2I4AGPJm+CNYTpftRuh+ZyrL48
1OHRMytQv9xV+2O2pAPKs3uJE4AcnG4AGWclMtbOESF7pWP7y5hxi0e9j+sSI5y8
BM6JkJgw8gzyFHiVTvaizNkq8Z2UCUpqbYVE2QyENTR+X3Y2os0DFPs7CnKv0/Xc
wxp8rosFVYFRqd/l5wGbseeSlwB6Z7hMiEkQ2kpkHr5VpesPra9wSqDxvZ1j050H
JGFunnXLsGGqms7FPqTxbMIn8EFxWaMYjBckw967ml+EKH7ygbECAwEAAaNQME4w
HQYDVR0OBBYEFI1jllhPwM8eVnNW04P0/pQgJ31NMB8GA1UdIwQYMBaAFI1jllhP
wM8eVnNW04P0/pQgJ31NMAwGA1UdEwQFMAMBAf8wDQYJKoZIhvcNAQELBQADggEB
AFyvuuNmNl+tQ+tEp5ZzPU5zfazEqKaOYW3bC1wqXZN+vHsZgMYMQ+fcCC+VdfY4
cREl9YteE8vDh0pCbWSKn6gdc1yysxXUToTGUOSJsSFJTHBjNJe9Sz4l4jkqBt1y
3R5QVPILKbh2pIWiAS5yp4zZd0CX8sMl6rciQ+9d9tr1qBmSHjudWrmkp8k71wkb
Lg3xLa+9sS9UxDeR5ilZ7AtImFVSSsz9Z0M+pKwzDYOjO1igvEbVYO9CsnNf9iZm
RwwaPEh94JZvOeIQJCvoQ3NTBTpXtWh9lApPKBJtPb67SACrQ+czsTDGBJ4VFKzJ
LSwneUxuJ2hWMfPBBAQEoPw=
-----END CERTIFICATE-----
