Certificate:
    Data:
        Version: 3 (0x2)
        Serial Number: 14179155546530814316 (0xc4c67ad85dfa996c)
    Signature Algorithm: sha256WithRSAEncryption
        Issuer: C=US, ST=California, L=Santa Clara, O=pkg5, OU=ta6, CN=localhost/emailAddress=ta6
        Validity
            Not Before: Dec  6 03:06:44 2014 GMT
            Not After : Sep  1 03:06:44 2017 GMT
        Subject: C=US, ST=California, L=Santa Clara, O=pkg5, OU=ta6, CN=localhost/emailAddress=ta6
        Subject Public Key Info:
            Public Key Algorithm: rsaEncryption
                Public-Key: (1024 bit)
                Modulus:
                    00:dd:c0:c6:1c:53:ed:73:93:5c:1a:db:73:ca:4d:
                    f6:57:68:db:b7:41:17:98:e7:99:0c:95:2c:5a:53:
                    9e:42:3f:f6:43:2e:95:4d:d6:07:05:34:6b:11:2e:
                    75:ed:bd:b1:36:56:73:5b:f0:79:70:a2:bf:b1:ac:
                    35:bb:da:a4:e7:04:ce:13:43:f0:89:7f:1b:b4:7f:
                    53:ba:46:97:b0:f4:90:5c:b5:dd:67:c3:b3:54:ef:
                    21:97:d6:53:f1:67:a2:b4:03:6c:c3:65:97:ac:55:
                    f0:5c:99:98:ba:d3:9b:85:68:69:30:63:b0:bc:34:
                    ed:2b:e1:81:88:9c:18:74:1b
                Exponent: 65537 (0x10001)
        X509v3 extensions:
            X509v3 Subject Key Identifier: 
                78:0D:E5:A7:4C:6E:A4:4F:A2:DF:9F:44:50:A2:09:8F:9B:08:28:C4
            X509v3 Authority Key Identifier: 
                keyid:78:0D:E5:A7:4C:6E:A4:4F:A2:DF:9F:44:50:A2:09:8F:9B:08:28:C4

            X509v3 Basic Constraints: 
                CA:TRUE
    Signature Algorithm: sha256WithRSAEncryption
         c1:f7:7b:fe:d7:f3:db:09:c3:83:b9:27:55:ea:eb:53:4f:1a:
         c4:90:7d:f9:10:d2:55:5b:e2:32:d1:d5:d9:db:da:89:5f:91:
         21:d0:d6:c6:41:98:68:e4:08:6a:29:f4:dd:5e:22:8b:8e:a4:
         8e:f3:bf:55:8e:2d:8f:5d:ae:54:ab:5d:8f:6f:f9:94:a6:0d:
         b2:d8:90:8b:45:df:c3:40:76:d9:e0:d0:cf:05:ed:90:19:58:
         01:0a:45:f2:a8:a5:8a:19:36:6c:82:31:6e:42:ab:6f:a8:4b:
         7e:b0:2f:df:7d:3c:26:22:60:2d:ea:de:d7:93:f3:c5:e3:2f:
         2f:f2
-----BEGIN CERTIFICATE-----
MIICyDCCAjGgAwIBAgIJAMTGethd+plsMA0GCSqGSIb3DQEBCwUAMH0xCzAJBgNV
BAYTAlVTMRMwEQYDVQQIDApDYWxpZm9ybmlhMRQwEgYDVQQHDAtTYW50YSBDbGFy
YTENMAsGA1UECgwEcGtnNTEMMAoGA1UECwwDdGE2MRIwEAYDVQQDDAlsb2NhbGhv
c3QxEjAQBgkqhkiG9w0BCQEWA3RhNjAeFw0xNDEyMDYwMzA2NDRaFw0xNzA5MDEw
MzA2NDRaMH0xCzAJBgNVBAYTAlVTMRMwEQYDVQQIDApDYWxpZm9ybmlhMRQwEgYD
VQQHDAtTYW50YSBDbGFyYTENMAsGA1UECgwEcGtnNTEMMAoGA1UECwwDdGE2MRIw
EAYDVQQDDAlsb2NhbGhvc3QxEjAQBgkqhkiG9w0BCQEWA3RhNjCBnzANBgkqhkiG
9w0BAQEFAAOBjQAwgYkCgYEA3cDGHFPtc5NcGttzyk32V2jbt0EXmOeZDJUsWlOe
Qj/2Qy6VTdYHBTRrES517b2xNlZzW/B5cKK/saw1u9qk5wTOE0PwiX8btH9TukaX
sPSQXLXdZ8OzVO8hl9ZT8WeitANsw2WXrFXwXJmYutObhWhpMGOwvDTtK+GBiJwY
dBsCAwEAAaNQME4wHQYDVR0OBBYEFHgN5adMbqRPot+fRFCiCY+bCCjEMB8GA1Ud
IwQYMBaAFHgN5adMbqRPot+fRFCiCY+bCCjEMAwGA1UdEwQFMAMBAf8wDQYJKoZI
hvcNAQELBQADgYEAwfd7/tfz2wnDg7knVerrU08axJB9+RDSVVviMtHV2dvaiV+R
IdDWxkGYaOQIain03V4ii46kjvO/VY4tj12uVKtdj2/5lKYNstiQi0Xfw0B22eDQ
zwXtkBlYAQpF8qilihk2bIIxbkKrb6hLfrAv3308JiJgLere15PzxeMvL/I=
-----END CERTIFICATE-----
