Certificate:
    Data:
        Version: 3 (0x2)
        Serial Number:
            03:28:23:a8:8b:9c:26:44:17:df:2c:ff:c9:9b:c8:e3:5a:d0:6e:39
        Signature Algorithm: sha256WithRSAEncryption
        Issuer: C = US, ST = California, L = Santa Clara, O = pkg5, OU = ta6, CN = localhost, emailAddress = ta6
        Validity
            Not Before: Oct 22 10:15:22 2021 GMT
            Not After : Jul 18 10:15:22 2024 GMT
        Subject: C = US, ST = California, L = Santa Clara, O = pkg5, OU = ta6, CN = localhost, emailAddress = ta6
        Subject Public Key Info:
            Public Key Algorithm: rsaEncryption
                Public-Key: (2048 bit)
                Modulus:
                    00:aa:1e:b7:6e:07:5a:57:86:b0:2c:a2:e5:7d:4f:
                    9f:5c:3f:38:98:7a:8e:90:96:c8:1d:91:3c:f9:01:
                    15:d7:59:1b:ba:0c:87:b4:0f:01:3c:bc:da:62:c0:
                    c5:27:8c:53:59:60:50:f8:43:07:a8:47:ff:e8:20:
                    6d:c1:24:2a:fc:d1:59:ba:84:b7:54:1f:ba:8a:11:
                    8e:64:ae:70:e2:9e:db:1e:5b:c9:57:d2:b2:03:8c:
                    63:e6:2e:c7:2c:b6:38:bd:62:f2:02:b8:7f:cc:ef:
                    3c:b8:4c:a6:e0:dc:13:c2:3c:25:7f:23:a8:ab:83:
                    8a:57:af:60:82:5e:79:16:5e:20:a0:4d:66:62:7b:
                    ef:59:15:92:ed:ff:b4:a4:5b:d9:30:dd:a5:11:39:
                    af:d1:8a:ef:a0:5b:6f:a7:f2:35:3e:fe:b7:c4:24:
                    c4:bf:12:4a:dd:88:46:e4:79:a4:e1:3d:00:72:cc:
                    b4:51:bd:1a:c8:29:39:b9:70:0b:ae:f5:32:df:f4:
                    b8:4b:5d:59:e4:c8:74:1c:c6:81:58:f6:c5:1f:6a:
                    4f:04:83:55:cc:96:11:a3:5e:8b:09:b0:6f:7d:3e:
                    3f:0f:ba:a2:17:b4:db:76:02:47:da:b7:fb:b6:2a:
                    c4:44:bb:af:ac:82:6a:50:a5:c2:02:41:0a:17:97:
                    45:f9
                Exponent: 65537 (0x10001)
        X509v3 extensions:
            X509v3 Subject Key Identifier: 
                97:10:72:0C:EE:4A:4A:3B:FC:5C:21:AB:12:39:3C:7C:D7:4B:32:35
            X509v3 Authority Key Identifier: 
                97:10:72:0C:EE:4A:4A:3B:FC:5C:21:AB:12:39:3C:7C:D7:4B:32:35
            X509v3 Basic Constraints: critical
                CA:TRUE
    Signature Algorithm: sha256WithRSAEncryption
    Signature Value:
        34:47:00:f9:a2:82:58:3a:6d:0f:6f:2a:7b:c3:17:a7:0d:dd:
        a7:c0:6f:08:fb:31:e9:ae:e4:06:8d:eb:87:ba:66:c3:f0:3e:
        e0:08:22:c0:f3:3f:30:1c:12:95:0c:8b:3d:c5:dc:77:b0:a2:
        aa:44:94:bc:fa:1f:67:f5:31:a3:1b:9c:1c:ba:55:7f:ec:6e:
        d1:c1:53:c2:ab:68:d7:d4:96:19:37:ca:92:f8:ce:25:38:6d:
        c5:53:0a:99:b9:e1:34:b7:ef:b6:e9:48:aa:09:9a:0b:64:cd:
        06:b1:ce:c3:07:64:73:40:4b:a4:56:98:43:c1:3d:63:e2:d0:
        b0:e5:38:16:86:c6:e8:7d:75:8a:66:b8:57:19:8c:1d:b2:8f:
        66:b3:97:3d:de:72:bd:3c:7c:dc:b0:90:f6:5d:49:f7:73:46:
        96:ba:3d:b2:8e:d3:08:76:01:31:3d:a9:d9:bf:9a:af:3b:4a:
        81:ce:3b:43:8f:cb:64:61:6c:5e:5c:41:30:3c:c3:f7:c0:d3:
        f2:a8:6f:2a:14:5f:fc:c5:ad:83:77:a8:10:3b:3a:7e:b8:30:
        e8:50:b2:67:d9:05:9f:47:67:95:b9:87:e6:76:5b:c2:f4:05:
        95:de:8e:d0:92:8a:04:fa:1b:67:60:37:1d:66:35:b9:9c:e7:
        ff:a8:51:74
-----BEGIN CERTIFICATE-----
MIID2zCCAsOgAwIBAgIUAygjqIucJkQX3yz/yZvI41rQbjkwDQYJKoZIhvcNAQEL
BQAwfTELMAkGA1UEBhMCVVMxEzARBgNVBAgMCkNhbGlmb3JuaWExFDASBgNVBAcM
C1NhbnRhIENsYXJhMQ0wCwYDVQQKDARwa2c1MQwwCgYDVQQLDAN0YTYxEjAQBgNV
BAMMCWxvY2FsaG9zdDESMBAGCSqGSIb3DQEJARYDdGE2MB4XDTIxMTAyMjEwMTUy
MloXDTI0MDcxODEwMTUyMlowfTELMAkGA1UEBhMCVVMxEzARBgNVBAgMCkNhbGlm
b3JuaWExFDASBgNVBAcMC1NhbnRhIENsYXJhMQ0wCwYDVQQKDARwa2c1MQwwCgYD
VQQLDAN0YTYxEjAQBgNVBAMMCWxvY2FsaG9zdDESMBAGCSqGSIb3DQEJARYDdGE2
MIIBIjANBgkqhkiG9w0BAQEFAAOCAQ8AMIIBCgKCAQEAqh63bgdaV4awLKLlfU+f
XD84mHqOkJbIHZE8+QEV11kbugyHtA8BPLzaYsDFJ4xTWWBQ+EMHqEf/6CBtwSQq
/NFZuoS3VB+6ihGOZK5w4p7bHlvJV9KyA4xj5i7HLLY4vWLyArh/zO88uEym4NwT
wjwlfyOoq4OKV69ggl55Fl4goE1mYnvvWRWS7f+0pFvZMN2lETmv0YrvoFtvp/I1
Pv63xCTEvxJK3YhG5Hmk4T0Acsy0Ub0ayCk5uXALrvUy3/S4S11Z5Mh0HMaBWPbF
H2pPBINVzJYRo16LCbBvfT4/D7qiF7TbdgJH2rf7tirERLuvrIJqUKXCAkEKF5dF
+QIDAQABo1MwUTAdBgNVHQ4EFgQUlxByDO5KSjv8XCGrEjk8fNdLMjUwHwYDVR0j
BBgwFoAUlxByDO5KSjv8XCGrEjk8fNdLMjUwDwYDVR0TAQH/BAUwAwEB/zANBgkq
hkiG9w0BAQsFAAOCAQEANEcA+aKCWDptD28qe8MXpw3dp8BvCPsx6a7kBo3rh7pm
w/A+4AgiwPM/MBwSlQyLPcXcd7CiqkSUvPofZ/UxoxucHLpVf+xu0cFTwqto19SW
GTfKkvjOJThtxVMKmbnhNLfvtulIqgmaC2TNBrHOwwdkc0BLpFaYQ8E9Y+LQsOU4
FobG6H11ima4VxmMHbKPZrOXPd5yvTx83LCQ9l1J93NGlro9so7TCHYBMT2p2b+a
rztKgc47Q4/LZGFsXlxBMDzD98DT8qhvKhRf/MWtg3eoEDs6frgw6FCyZ9kFn0dn
lbmH5nZbwvQFld6O0JKKBPobZ2A3HWY1uZzn/6hRdA==
-----END CERTIFICATE-----
