Certificate:
    Data:
        Version: 3 (0x2)
        Serial Number:
            51:72:f7:6b:b2:59:4b:14:88:be:60:e9:2a:7c:c1:6a:f4:4a:da:be
        Signature Algorithm: sha256WithRSAEncryption
        Issuer: C = US, ST = California, L = Santa Clara, O = pkg5, OU = ta6, CN = localhost, emailAddress = ta6
        Validity
            Not Before: Oct 24 21:43:15 2023 GMT
            Not After : Jul 20 21:43:15 2026 GMT
        Subject: C = US, ST = California, L = Santa Clara, O = pkg5, OU = ta6, CN = localhost, emailAddress = ta6
        Subject Public Key Info:
            Public Key Algorithm: rsaEncryption
                Public-Key: (2048 bit)
                Modulus:
                    00:9e:9f:36:9b:51:12:84:44:24:38:5b:bf:5b:88:
                    c8:08:ac:01:1a:41:ad:ee:e3:18:c9:8d:e3:93:7e:
                    0f:a6:f6:1c:fb:cb:06:0e:68:81:ed:86:12:94:2a:
                    33:1b:33:66:58:89:c1:52:98:78:4f:bb:16:74:a0:
                    fd:49:f7:27:35:10:ce:60:e6:cd:11:33:4f:d0:57:
                    ca:e5:58:ff:50:f0:d8:0a:83:75:df:c5:7b:7f:3b:
                    2e:6d:a7:19:04:17:13:76:35:53:13:f9:4b:14:01:
                    91:44:ae:7a:30:aa:3a:a0:84:00:11:35:cd:fd:5b:
                    cb:0e:ce:de:c0:82:8d:bf:e9:3b:96:89:f4:ff:a7:
                    11:36:bf:e6:74:d5:60:27:f7:29:4c:40:b8:51:57:
                    80:61:12:01:7f:1b:4c:49:eb:07:df:86:fc:10:83:
                    d4:1d:64:8f:42:0c:32:20:39:72:2e:93:73:a9:b1:
                    c7:a0:10:86:99:3f:af:53:d6:73:fb:d7:29:67:78:
                    0b:a3:c3:9a:d9:f4:26:c8:a8:36:09:3f:28:16:de:
                    5a:aa:a0:ae:4d:d3:97:dd:72:53:c2:28:b0:ff:62:
                    d7:93:ce:d7:17:40:04:a0:13:15:c8:0e:30:88:0d:
                    02:5d:08:b2:c5:be:0a:ba:76:ce:f9:ac:9c:25:c6:
                    93:d3
                Exponent: 65537 (0x10001)
        X509v3 extensions:
            X509v3 Subject Key Identifier: 
                44:51:89:2C:18:55:65:37:93:C0:FA:3D:2A:E0:06:0B:E4:9D:D8:BF
            X509v3 Authority Key Identifier: 
                44:51:89:2C:18:55:65:37:93:C0:FA:3D:2A:E0:06:0B:E4:9D:D8:BF
            X509v3 Basic Constraints: critical
                CA:TRUE
    Signature Algorithm: sha256WithRSAEncryption
    Signature Value:
        8f:32:9a:9a:eb:74:83:58:88:4f:69:33:59:8c:8b:22:65:87:
        08:65:c3:78:9e:4f:f2:2a:d4:2c:3a:40:67:89:cd:d2:09:0f:
        cc:fa:84:26:cb:ea:9a:2a:ed:fe:e6:f3:bc:c5:52:40:1e:9f:
        2e:fa:0b:6c:51:0a:20:f0:f1:8d:67:67:31:76:8f:63:b8:60:
        fc:f2:94:bb:9e:32:ef:08:e9:0a:28:11:69:93:e8:8b:0f:25:
        5d:74:eb:1a:4c:30:8d:a3:41:e1:10:0b:78:b3:32:61:7a:ed:
        47:79:fe:92:6b:ee:24:78:83:c5:41:bd:cc:28:13:cd:79:78:
        1f:2d:8e:92:76:3f:a8:6e:2f:a4:f5:00:d4:04:89:eb:f7:92:
        f8:05:31:93:02:a9:d3:2d:36:ea:10:1a:4b:d0:37:ab:c4:ef:
        42:60:06:0b:9c:42:38:6c:4d:22:24:f4:e5:7b:e0:cf:b0:e3:
        4a:51:23:d0:fd:51:8a:78:dd:4b:3b:3a:9c:c1:92:02:eb:77:
        fe:ea:a6:32:10:1c:50:8b:c3:da:ff:14:60:71:92:78:ca:f8:
        9d:e0:84:68:63:ef:90:25:35:ad:f6:17:f0:42:4a:58:fe:46:
        65:7f:56:07:ae:6c:45:89:21:0d:42:d5:0e:52:5f:5f:2b:2c:
        6b:d8:82:34
-----BEGIN CERTIFICATE-----
MIID2zCCAsOgAwIBAgIUUXL3a7JZSxSIvmDpKnzBavRK2r4wDQYJKoZIhvcNAQEL
BQAwfTELMAkGA1UEBhMCVVMxEzARBgNVBAgMCkNhbGlmb3JuaWExFDASBgNVBAcM
C1NhbnRhIENsYXJhMQ0wCwYDVQQKDARwa2c1MQwwCgYDVQQLDAN0YTYxEjAQBgNV
BAMMCWxvY2FsaG9zdDESMBAGCSqGSIb3DQEJARYDdGE2MB4XDTIzMTAyNDIxNDMx
NVoXDTI2MDcyMDIxNDMxNVowfTELMAkGA1UEBhMCVVMxEzARBgNVBAgMCkNhbGlm
b3JuaWExFDASBgNVBAcMC1NhbnRhIENsYXJhMQ0wCwYDVQQKDARwa2c1MQwwCgYD
VQQLDAN0YTYxEjAQBgNVBAMMCWxvY2FsaG9zdDESMBAGCSqGSIb3DQEJARYDdGE2
MIIBIjANBgkqhkiG9w0BAQEFAAOCAQ8AMIIBCgKCAQEAnp82m1EShEQkOFu/W4jI
CKwBGkGt7uMYyY3jk34PpvYc+8sGDmiB7YYSlCozGzNmWInBUph4T7sWdKD9Sfcn
NRDOYObNETNP0FfK5Vj/UPDYCoN138V7fzsubacZBBcTdjVTE/lLFAGRRK56MKo6
oIQAETXN/VvLDs7ewIKNv+k7lon0/6cRNr/mdNVgJ/cpTEC4UVeAYRIBfxtMSesH
34b8EIPUHWSPQgwyIDlyLpNzqbHHoBCGmT+vU9Zz+9cpZ3gLo8Oa2fQmyKg2CT8o
Ft5aqqCuTdOX3XJTwiiw/2LXk87XF0AEoBMVyA4wiA0CXQiyxb4KunbO+aycJcaT
0wIDAQABo1MwUTAdBgNVHQ4EFgQURFGJLBhVZTeTwPo9KuAGC+Sd2L8wHwYDVR0j
BBgwFoAURFGJLBhVZTeTwPo9KuAGC+Sd2L8wDwYDVR0TAQH/BAUwAwEB/zANBgkq
hkiG9w0BAQsFAAOCAQEAjzKamut0g1iIT2kzWYyLImWHCGXDeJ5P8irULDpAZ4nN
0gkPzPqEJsvqmirt/ubzvMVSQB6fLvoLbFEKIPDxjWdnMXaPY7hg/PKUu54y7wjp
CigRaZPoiw8lXXTrGkwwjaNB4RALeLMyYXrtR3n+kmvuJHiDxUG9zCgTzXl4Hy2O
knY/qG4vpPUA1ASJ6/eS+AUxkwKp0y026hAaS9A3q8TvQmAGC5xCOGxNIiT05Xvg
z7DjSlEj0P1RinjdSzs6nMGSAut3/uqmMhAcUIvD2v8UYHGSeMr4neCEaGPvkCU1
rfYX8EJKWP5GZX9WB65sRYkhDULVDlJfXyssa9iCNA==
-----END CERTIFICATE-----
