Certificate:
    Data:
        Version: 3 (0x2)
        Serial Number:
            19:d9:c6:2e:73:7d:a3:d4:69:76:e5:13:83:ce:bd:cc:99:f1:cf:1b
        Signature Algorithm: sha256WithRSAEncryption
        Issuer: C=US, ST=California, L=Santa Clara, O=pkg5, OU=ta6, CN=localhost, emailAddress=ta6
        Validity
            Not Before: Nov 14 14:26:58 2024 GMT
            Not After : Aug 11 14:26:58 2027 GMT
        Subject: C=US, ST=California, L=Santa Clara, O=pkg5, OU=ta6, CN=localhost, emailAddress=ta6
        Subject Public Key Info:
            Public Key Algorithm: rsaEncryption
                Public-Key: (2048 bit)
                Modulus:
                    00:d1:7f:39:74:db:0e:0b:74:71:05:01:6d:6a:09:
                    62:87:70:79:bd:80:f1:bb:e3:1a:2a:16:a3:0d:a8:
                    bb:9b:22:6a:9b:e5:c1:51:82:0a:53:dd:f5:f9:5f:
                    e8:11:1f:b0:90:64:5c:30:70:f3:ff:28:00:a3:17:
                    61:6d:96:ca:0d:41:d3:be:ec:09:4d:12:f9:a8:89:
                    80:7d:fd:31:a5:64:ba:6a:8a:9d:52:78:4d:46:04:
                    64:37:4a:e2:ca:bc:b1:5c:f8:69:a8:28:df:ad:8e:
                    73:7e:5b:67:5e:0f:ab:5c:ee:58:3e:2d:2e:2f:85:
                    01:12:d9:c3:9f:c2:ec:8b:ce:dd:4b:d7:e9:48:b7:
                    0a:be:83:8c:a4:a8:eb:56:8d:6a:23:13:ce:0d:41:
                    d7:80:f4:d1:97:f6:dc:41:3a:8c:16:d9:59:85:76:
                    46:bc:19:ad:b2:e0:21:9a:19:22:84:c1:93:59:74:
                    a4:e8:cf:64:d1:9b:0e:b5:7f:0a:fc:48:92:7c:a7:
                    24:c4:48:1f:fe:75:11:df:d7:2e:06:dd:ba:fc:19:
                    38:ca:ad:f4:c3:f2:b9:fd:d6:c8:4c:c2:56:4b:67:
                    80:65:f8:50:bb:05:ca:4a:07:22:c4:95:0b:d5:42:
                    72:3c:13:09:ec:69:a8:69:62:e5:da:33:38:87:84:
                    d5:01
                Exponent: 65537 (0x10001)
        X509v3 extensions:
            X509v3 Subject Key Identifier: 
                7E:28:23:4E:6C:E7:4A:5B:C8:3E:CC:DF:9A:48:28:BE:7E:81:89:D0
            X509v3 Authority Key Identifier: 
                7E:28:23:4E:6C:E7:4A:5B:C8:3E:CC:DF:9A:48:28:BE:7E:81:89:D0
            X509v3 Basic Constraints: critical
                CA:TRUE
    Signature Algorithm: sha256WithRSAEncryption
    Signature Value:
        d0:43:fd:db:bf:b1:10:90:bc:01:cd:18:63:8f:58:6e:6b:fd:
        c0:62:43:5e:82:9a:37:fd:48:7d:1c:2c:b7:0c:85:f7:e1:14:
        47:bd:64:b7:15:e9:a7:34:bf:8a:8f:3f:4d:b9:18:76:ef:82:
        79:1b:ed:9c:f1:b9:7d:7b:3e:24:f8:5c:a6:57:6e:d7:84:68:
        d0:fc:92:73:ac:bc:3a:2b:39:9f:20:1c:61:b8:d4:81:bc:77:
        8f:22:f3:eb:9c:df:37:48:c7:4c:13:0a:4b:33:2f:43:6e:de:
        47:7f:db:c5:28:97:c1:0f:88:32:4f:01:01:fb:43:da:fa:32:
        af:3f:8a:7c:47:cb:96:c3:17:14:b1:2c:35:fd:39:26:a1:64:
        75:e5:48:90:3c:34:ff:65:1a:d2:fa:1e:9e:65:fd:18:6e:cf:
        86:18:4f:1e:3d:c7:21:f0:42:6e:84:10:4a:99:34:9a:51:bf:
        88:80:36:71:a5:20:9f:88:2e:fa:88:aa:ab:53:4a:72:a2:ae:
        98:ed:f2:5e:03:56:78:db:31:32:fa:e8:40:c7:e2:34:d0:a5:
        cd:06:78:7e:5e:28:48:60:1d:72:c8:f9:ea:bb:c3:f7:05:fd:
        bd:0c:27:18:99:31:40:80:ad:d8:5c:5c:69:ec:56:b5:bf:bd:
        ae:25:35:d0
-----BEGIN CERTIFICATE-----
MIID2zCCAsOgAwIBAgIUGdnGLnN9o9RpduUTg869zJnxzxswDQYJKoZIhvcNAQEL
BQAwfTELMAkGA1UEBhMCVVMxEzARBgNVBAgMCkNhbGlmb3JuaWExFDASBgNVBAcM
C1NhbnRhIENsYXJhMQ0wCwYDVQQKDARwa2c1MQwwCgYDVQQLDAN0YTYxEjAQBgNV
BAMMCWxvY2FsaG9zdDESMBAGCSqGSIb3DQEJARYDdGE2MB4XDTI0MTExNDE0MjY1
OFoXDTI3MDgxMTE0MjY1OFowfTELMAkGA1UEBhMCVVMxEzARBgNVBAgMCkNhbGlm
b3JuaWExFDASBgNVBAcMC1NhbnRhIENsYXJhMQ0wCwYDVQQKDARwa2c1MQwwCgYD
VQQLDAN0YTYxEjAQBgNVBAMMCWxvY2FsaG9zdDESMBAGCSqGSIb3DQEJARYDdGE2
MIIBIjANBgkqhkiG9w0BAQEFAAOCAQ8AMIIBCgKCAQEA0X85dNsOC3RxBQFtagli
h3B5vYDxu+MaKhajDai7myJqm+XBUYIKU931+V/oER+wkGRcMHDz/ygAoxdhbZbK
DUHTvuwJTRL5qImAff0xpWS6aoqdUnhNRgRkN0riyryxXPhpqCjfrY5zfltnXg+r
XO5YPi0uL4UBEtnDn8Lsi87dS9fpSLcKvoOMpKjrVo1qIxPODUHXgPTRl/bcQTqM
FtlZhXZGvBmtsuAhmhkihMGTWXSk6M9k0ZsOtX8K/EiSfKckxEgf/nUR39cuBt26
/Bk4yq30w/K5/dbITMJWS2eAZfhQuwXKSgcixJUL1UJyPBMJ7GmoaWLl2jM4h4TV
AQIDAQABo1MwUTAdBgNVHQ4EFgQUfigjTmznSlvIPszfmkgovn6BidAwHwYDVR0j
BBgwFoAUfigjTmznSlvIPszfmkgovn6BidAwDwYDVR0TAQH/BAUwAwEB/zANBgkq
hkiG9w0BAQsFAAOCAQEA0EP927+xEJC8Ac0YY49Ybmv9wGJDXoKaN/1IfRwstwyF
9+EUR71ktxXppzS/io8/TbkYdu+CeRvtnPG5fXs+JPhcpldu14Ro0PySc6y8Ois5
nyAcYbjUgbx3jyLz65zfN0jHTBMKSzMvQ27eR3/bxSiXwQ+IMk8BAftD2voyrz+K
fEfLlsMXFLEsNf05JqFkdeVIkDw0/2Ua0voenmX9GG7PhhhPHj3HIfBCboQQSpk0
mlG/iIA2caUgn4gu+oiqq1NKcqKumO3yXgNWeNsxMvroQMfiNNClzQZ4fl4oSGAd
csj56rvD9wX9vQwnGJkxQICt2FxcaexWtb+9riU10A==
-----END CERTIFICATE-----
