Certificate:
    Data:
        Version: 3 (0x2)
        Serial Number:
            f4:85:19:96:ab:50:bd:a0
    Signature Algorithm: sha256WithRSAEncryption
        Issuer: C=US, ST=California, L=Santa Clara, O=pkg5, OU=ta6, CN=localhost/emailAddress=ta6
        Validity
            Not Before: Nov 28 22:50:58 2016 GMT
            Not After : Aug 25 22:50:58 2019 GMT
        Subject: C=US, ST=California, L=Santa Clara, O=pkg5, OU=ta6, CN=localhost/emailAddress=ta6
        Subject Public Key Info:
            Public Key Algorithm: rsaEncryption
                Public-Key: (2048 bit)
                Modulus:
                    00:9e:de:9e:60:cb:63:e8:39:7f:2a:27:ee:63:09:
                    e6:43:b4:5e:e7:50:5b:65:c2:69:56:72:6a:f4:0e:
                    ab:67:05:97:fa:80:80:df:64:08:a0:60:a6:5d:9b:
                    4a:71:a8:37:7a:b5:e8:0b:10:06:dd:cd:ba:21:41:
                    a2:dc:98:f3:43:33:bc:d5:34:64:b2:1a:f3:3c:33:
                    ac:8d:4a:dd:e0:a4:45:ab:00:cd:91:44:64:eb:86:
                    f4:f6:59:84:e1:d4:7f:6c:86:be:03:bf:a5:f1:da:
                    48:78:78:bb:79:ce:c1:5d:b6:12:49:7c:b6:64:1c:
                    42:6f:89:f6:28:a9:2e:2b:16:b3:53:a5:e4:68:03:
                    ee:bc:6c:f5:4c:f8:b3:16:fa:44:29:e8:56:a8:5a:
                    23:15:3b:b2:9c:a4:12:d0:76:80:a9:1c:db:77:9a:
                    85:a3:cc:86:7b:be:19:7f:14:33:9d:26:e1:45:d0:
                    5a:e9:f5:c9:ed:15:93:fa:e5:d4:96:3e:01:24:bf:
                    c5:09:34:bd:c1:ab:3b:40:32:21:9e:b8:33:5b:5d:
                    6a:04:25:f3:3a:12:98:ec:ad:de:19:c6:fb:96:15:
                    ee:07:e7:91:c3:3d:20:ba:c0:72:76:f8:c6:72:18:
                    e7:f3:ce:cc:35:84:d7:09:dd:43:33:9f:b4:9c:1d:
                    78:c9
                Exponent: 65537 (0x10001)
        X509v3 extensions:
            X509v3 Subject Key Identifier: 
                9A:DB:F9:22:F4:1B:41:4E:89:9B:BC:D3:89:62:5A:25:C9:88:8A:F1
            X509v3 Authority Key Identifier: 
                keyid:9A:DB:F9:22:F4:1B:41:4E:89:9B:BC:D3:89:62:5A:25:C9:88:8A:F1

            X509v3 Basic Constraints: 
                CA:TRUE
    Signature Algorithm: sha256WithRSAEncryption
         30:8a:6b:d9:c2:a5:d1:a6:49:1a:9d:f0:6f:fa:2c:26:a2:ac:
         08:21:21:11:3d:a3:52:cb:13:5b:45:3c:ee:be:ef:2c:36:00:
         d1:f5:66:52:9b:b6:36:0d:56:90:b8:c2:89:26:cd:89:d6:62:
         ae:8b:73:ac:03:ab:88:71:fe:11:94:92:77:69:ca:9e:9c:cc:
         cf:da:63:0b:84:4b:73:a5:f4:84:a2:9c:2d:67:10:4e:6e:f3:
         f0:0f:a8:e8:67:88:ce:da:e5:2c:20:81:58:1d:55:9b:d7:47:
         8e:ef:f3:50:1c:86:4b:01:98:e4:d2:b6:30:18:fe:5c:16:e2:
         2d:e0:1e:54:45:8e:89:b0:41:62:e9:b6:af:ba:00:d1:5f:df:
         cb:e6:2a:14:81:7c:27:f9:c9:85:7b:6d:90:be:07:24:bd:32:
         bd:37:dc:16:d5:e3:c8:7e:cf:3a:01:44:d1:21:36:fe:b4:9e:
         78:e4:24:1a:37:f9:13:81:47:0a:cd:42:e3:3d:bc:45:de:d8:
         76:8c:fa:aa:7a:29:5f:f7:0e:da:2c:09:e8:1a:18:08:e1:15:
         88:90:f1:c2:7f:fc:f2:91:8c:9b:c1:11:4c:77:57:55:ea:14:
         0b:1a:6a:50:e3:5d:cd:a0:3d:9e:53:6b:66:32:25:ef:0d:e7:
         3b:a0:d8:99
-----BEGIN CERTIFICATE-----
MIIDzTCCArWgAwIBAgIJAPSFGZarUL2gMA0GCSqGSIb3DQEBCwUAMH0xCzAJBgNV
BAYTAlVTMRMwEQYDVQQIDApDYWxpZm9ybmlhMRQwEgYDVQQHDAtTYW50YSBDbGFy
YTENMAsGA1UECgwEcGtnNTEMMAoGA1UECwwDdGE2MRIwEAYDVQQDDAlsb2NhbGhv
c3QxEjAQBgkqhkiG9w0BCQEWA3RhNjAeFw0xNjExMjgyMjUwNThaFw0xOTA4MjUy
MjUwNThaMH0xCzAJBgNVBAYTAlVTMRMwEQYDVQQIDApDYWxpZm9ybmlhMRQwEgYD
VQQHDAtTYW50YSBDbGFyYTENMAsGA1UECgwEcGtnNTEMMAoGA1UECwwDdGE2MRIw
EAYDVQQDDAlsb2NhbGhvc3QxEjAQBgkqhkiG9w0BCQEWA3RhNjCCASIwDQYJKoZI
hvcNAQEBBQADggEPADCCAQoCggEBAJ7enmDLY+g5fyon7mMJ5kO0XudQW2XCaVZy
avQOq2cFl/qAgN9kCKBgpl2bSnGoN3q16AsQBt3NuiFBotyY80MzvNU0ZLIa8zwz
rI1K3eCkRasAzZFEZOuG9PZZhOHUf2yGvgO/pfHaSHh4u3nOwV22Ekl8tmQcQm+J
9iipLisWs1Ol5GgD7rxs9Uz4sxb6RCnoVqhaIxU7spykEtB2gKkc23eahaPMhnu+
GX8UM50m4UXQWun1ye0Vk/rl1JY+ASS/xQk0vcGrO0AyIZ64M1tdagQl8zoSmOyt
3hnG+5YV7gfnkcM9ILrAcnb4xnIY5/POzDWE1wndQzOftJwdeMkCAwEAAaNQME4w
HQYDVR0OBBYEFJrb+SL0G0FOiZu804liWiXJiIrxMB8GA1UdIwQYMBaAFJrb+SL0
G0FOiZu804liWiXJiIrxMAwGA1UdEwQFMAMBAf8wDQYJKoZIhvcNAQELBQADggEB
ADCKa9nCpdGmSRqd8G/6LCairAghIRE9o1LLE1tFPO6+7yw2ANH1ZlKbtjYNVpC4
wokmzYnWYq6Lc6wDq4hx/hGUkndpyp6czM/aYwuES3Ol9ISinC1nEE5u8/APqOhn
iM7a5SwggVgdVZvXR47v81AchksBmOTStjAY/lwW4i3gHlRFjomwQWLptq+6ANFf
38vmKhSBfCf5yYV7bZC+ByS9Mr033BbV48h+zzoBRNEhNv60nnjkJBo3+ROBRwrN
QuM9vEXe2HaM+qp6KV/3DtosCegaGAjhFYiQ8cJ//PKRjJvBEUx3V1XqFAsaalDj
Xc2gPZ5Ta2YyJe8N5zug2Jk=
-----END CERTIFICATE-----
