Certificate:
    Data:
        Version: 3 (0x2)
        Serial Number:
            02:a4:30:7a:36:31:32:e4:69:57:85:1a:69:a4:15:af:36:a1:30:54
        Signature Algorithm: sha256WithRSAEncryption
        Issuer: C = US, ST = California, L = Santa Clara, O = pkg5, OU = ta6, CN = localhost, emailAddress = ta6
        Validity
            Not Before: May 23 15:47:22 2024 GMT
            Not After : Feb 17 15:47:22 2027 GMT
        Subject: C = US, ST = California, L = Santa Clara, O = pkg5, OU = ta6, CN = localhost, emailAddress = ta6
        Subject Public Key Info:
            Public Key Algorithm: rsaEncryption
                Public-Key: (2048 bit)
                Modulus:
                    00:a9:02:79:77:0a:4e:a0:b5:ea:83:81:e2:83:2d:
                    49:8e:67:f5:29:3b:22:69:ca:aa:3f:42:fd:dc:69:
                    d7:84:ff:5f:8e:c2:16:58:e1:5e:17:7d:37:26:96:
                    17:0d:53:43:27:35:54:73:a0:53:20:90:6c:cd:58:
                    4a:a5:4d:3c:00:2e:b1:72:9d:5b:ff:20:36:4a:6c:
                    5b:e9:45:cd:ed:54:37:08:cc:b2:e3:91:18:9e:10:
                    4d:ff:87:70:c2:66:1c:30:45:77:9b:58:ac:80:9e:
                    58:2f:75:f8:1c:6d:0b:10:2c:01:59:f1:ac:25:6d:
                    a7:2e:5d:34:d0:b1:fa:65:6c:2b:b1:4b:b3:9d:f2:
                    1f:34:80:e9:ab:e7:7f:44:fe:59:50:03:66:63:e4:
                    02:da:86:a6:0e:5d:3b:48:7a:27:ca:1e:fd:87:ca:
                    93:a6:60:d1:c3:62:e9:6d:e6:56:93:ec:38:6f:c3:
                    03:3e:52:7f:4c:96:1a:06:39:fe:80:c6:ba:2e:fb:
                    bf:bf:30:a8:b2:76:8d:f5:41:15:40:09:e8:75:7b:
                    e0:4f:aa:a3:a4:37:8a:3b:87:87:fc:9a:99:fc:e3:
                    63:b2:75:0b:6a:3b:a4:55:fb:b0:50:72:b3:7b:1a:
                    a6:77:b6:9e:94:1e:73:cc:2f:b5:50:17:98:f4:68:
                    8f:3f
                Exponent: 65537 (0x10001)
        X509v3 extensions:
            X509v3 Subject Key Identifier: 
                5D:A6:D1:20:DD:B5:2C:F8:BC:01:09:9B:63:A4:B1:23:BA:45:77:83
            X509v3 Authority Key Identifier: 
                5D:A6:D1:20:DD:B5:2C:F8:BC:01:09:9B:63:A4:B1:23:BA:45:77:83
            X509v3 Basic Constraints: critical
                CA:TRUE
    Signature Algorithm: sha256WithRSAEncryption
    Signature Value:
        4c:bd:07:27:8c:97:72:db:7d:7c:8f:bf:aa:a4:a0:66:05:b2:
        6f:ff:f8:59:29:85:7e:a2:87:f4:99:7c:62:96:72:10:0e:e6:
        8f:83:4a:31:44:f7:00:42:c9:2a:6d:99:d7:18:d2:95:47:52:
        76:48:de:db:60:6e:e9:e7:45:8c:cf:a3:ca:03:53:e7:96:d0:
        ce:f4:57:29:3b:dd:62:ec:7a:71:a9:ff:fe:17:cc:a8:b4:12:
        f9:f1:8c:61:f9:f7:17:3f:9d:2c:ed:64:32:ac:0f:cf:4e:7b:
        f8:9e:b3:d1:82:f9:8f:28:8d:38:2b:7e:77:27:b7:22:84:07:
        c7:d9:0b:eb:a6:33:16:c6:11:d8:de:01:7a:92:62:7e:e5:9a:
        9d:39:ac:54:34:59:ac:14:f9:e1:43:fb:50:0f:5c:96:1b:0d:
        ad:38:de:8d:ea:b7:df:46:f8:c8:5b:61:19:46:0c:64:ce:bb:
        71:ac:7c:98:7a:f8:92:ca:b6:33:8d:90:d1:f5:0a:09:b0:d8:
        1d:61:02:7c:17:00:dd:55:0c:a4:32:1a:63:9e:c5:bf:e2:10:
        0c:e0:b8:72:44:f9:8c:ae:75:f0:7c:f3:e7:94:21:54:b2:72:
        1a:0f:32:30:af:28:bc:2c:71:bc:19:01:f0:fa:e5:b0:cb:bc:
        c5:3d:9c:d2
-----BEGIN CERTIFICATE-----
MIID2zCCAsOgAwIBAgIUAqQwejYxMuRpV4UaaaQVrzahMFQwDQYJKoZIhvcNAQEL
BQAwfTELMAkGA1UEBhMCVVMxEzARBgNVBAgMCkNhbGlmb3JuaWExFDASBgNVBAcM
C1NhbnRhIENsYXJhMQ0wCwYDVQQKDARwa2c1MQwwCgYDVQQLDAN0YTYxEjAQBgNV
BAMMCWxvY2FsaG9zdDESMBAGCSqGSIb3DQEJARYDdGE2MB4XDTI0MDUyMzE1NDcy
MloXDTI3MDIxNzE1NDcyMlowfTELMAkGA1UEBhMCVVMxEzARBgNVBAgMCkNhbGlm
b3JuaWExFDASBgNVBAcMC1NhbnRhIENsYXJhMQ0wCwYDVQQKDARwa2c1MQwwCgYD
VQQLDAN0YTYxEjAQBgNVBAMMCWxvY2FsaG9zdDESMBAGCSqGSIb3DQEJARYDdGE2
MIIBIjANBgkqhkiG9w0BAQEFAAOCAQ8AMIIBCgKCAQEAqQJ5dwpOoLXqg4Higy1J
jmf1KTsiacqqP0L93GnXhP9fjsIWWOFeF303JpYXDVNDJzVUc6BTIJBszVhKpU08
AC6xcp1b/yA2Smxb6UXN7VQ3CMyy45EYnhBN/4dwwmYcMEV3m1isgJ5YL3X4HG0L
ECwBWfGsJW2nLl000LH6ZWwrsUuznfIfNIDpq+d/RP5ZUANmY+QC2oamDl07SHon
yh79h8qTpmDRw2LpbeZWk+w4b8MDPlJ/TJYaBjn+gMa6Lvu/vzCosnaN9UEVQAno
dXvgT6qjpDeKO4eH/JqZ/ONjsnULajukVfuwUHKzexqmd7aelB5zzC+1UBeY9GiP
PwIDAQABo1MwUTAdBgNVHQ4EFgQUXabRIN21LPi8AQmbY6SxI7pFd4MwHwYDVR0j
BBgwFoAUXabRIN21LPi8AQmbY6SxI7pFd4MwDwYDVR0TAQH/BAUwAwEB/zANBgkq
hkiG9w0BAQsFAAOCAQEATL0HJ4yXctt9fI+/qqSgZgWyb//4WSmFfqKH9Jl8YpZy
EA7mj4NKMUT3AELJKm2Z1xjSlUdSdkje22Bu6edFjM+jygNT55bQzvRXKTvdYux6
can//hfMqLQS+fGMYfn3Fz+dLO1kMqwPz057+J6z0YL5jyiNOCt+dye3IoQHx9kL
66YzFsYR2N4BepJifuWanTmsVDRZrBT54UP7UA9clhsNrTjejeq330b4yFthGUYM
ZM67cax8mHr4ksq2M42Q0fUKCbDYHWECfBcA3VUMpDIaY57Fv+IQDOC4ckT5jK51
8Hzz55QhVLJyGg8yMK8ovCxxvBkB8PrlsMu8xT2c0g==
-----END CERTIFICATE-----
