Certificate:
    Data:
        Version: 3 (0x2)
        Serial Number:
            91:e5:32:91:f2:6e:ab:92
    Signature Algorithm: sha256WithRSAEncryption
        Issuer: C=US, ST=California, L=Santa Clara, O=pkg5, OU=ta6, CN=localhost/emailAddress=ta6
        Validity
            Not Before: Nov 16 10:58:51 2017 GMT
            Not After : Aug 12 10:58:51 2020 GMT
        Subject: C=US, ST=California, L=Santa Clara, O=pkg5, OU=ta6, CN=localhost/emailAddress=ta6
        Subject Public Key Info:
            Public Key Algorithm: rsaEncryption
                Public-Key: (2048 bit)
                Modulus:
                    00:c5:ea:be:8d:08:c4:53:13:3f:f1:03:7a:28:51:
                    d2:74:9a:93:38:23:2d:ad:8b:87:06:34:46:1e:92:
                    ac:7f:07:f6:04:a9:56:ce:74:89:7d:8c:27:07:b0:
                    46:65:64:7d:63:f9:08:d9:2a:f9:8c:f0:9a:e7:27:
                    35:7a:92:a6:f3:14:41:5c:6a:75:1a:2d:96:18:79:
                    4a:89:62:f7:1b:46:e4:0a:db:69:44:1e:44:9b:be:
                    ba:0b:8e:d9:88:ed:78:2f:9b:51:f3:2a:bd:a0:3e:
                    56:73:c3:9b:5a:3d:c1:6b:6c:ce:11:bd:72:39:bf:
                    3e:b1:d9:78:85:3d:1a:2f:e3:3d:1a:e0:54:e4:7e:
                    29:f9:d0:9b:c3:71:55:cd:f6:33:eb:df:06:ae:4f:
                    01:4d:d7:a5:42:d3:b4:2c:2b:0d:92:a4:6a:e4:a1:
                    41:72:1a:a4:1c:14:17:ca:61:6c:da:9a:5e:89:d1:
                    f5:90:6e:07:e6:ac:bd:d9:3b:4c:94:d7:59:17:83:
                    f5:8a:77:67:3f:bf:8e:30:08:75:f5:46:f1:25:e6:
                    6c:d1:09:f7:ba:ed:e2:41:bd:99:c7:f9:5d:a9:e9:
                    f2:89:b1:81:5d:02:e6:b7:86:21:88:e6:2b:f2:c4:
                    dc:9b:5c:03:ca:f2:c2:13:47:de:a9:27:c5:52:63:
                    1d:41
                Exponent: 65537 (0x10001)
        X509v3 extensions:
            X509v3 Subject Key Identifier: 
                82:44:A1:80:EE:EB:99:BD:36:74:41:8A:E8:C4:F7:BB:6A:F7:7D:49
            X509v3 Authority Key Identifier: 
                keyid:82:44:A1:80:EE:EB:99:BD:36:74:41:8A:E8:C4:F7:BB:6A:F7:7D:49

            X509v3 Basic Constraints: 
                CA:TRUE
    Signature Algorithm: sha256WithRSAEncryption
         7b:f5:15:9b:06:b2:54:78:e6:56:4d:4e:d6:fa:4c:56:76:32:
         f9:22:81:16:41:3d:02:f8:85:cb:99:d6:4c:df:7c:32:7d:10:
         7f:03:32:3c:a7:85:d5:8a:74:9e:40:d4:f0:80:fe:c5:77:54:
         46:07:36:e1:90:65:54:e3:4f:0f:2c:c6:03:a5:cd:9c:5d:f3:
         25:4a:15:dc:cc:2f:5a:d4:5a:fd:12:62:e9:1d:7f:77:6b:37:
         0f:fb:2b:7e:95:d6:0d:e7:c7:a9:32:da:13:11:9f:b5:06:66:
         e2:76:1b:e0:4a:a4:09:43:28:dc:64:b2:b4:d4:9f:f2:71:2b:
         a3:51:f0:26:23:be:76:33:aa:6a:2a:55:14:a4:af:84:63:64:
         54:11:28:32:50:31:cd:dd:c4:3b:16:96:06:dd:d9:03:d4:a6:
         7b:f0:5b:36:80:22:3e:eb:80:5b:b3:7d:0c:30:3d:7c:6d:5b:
         d4:ec:8d:ea:e0:df:a2:38:a5:dc:90:cf:00:4e:fb:58:0e:5d:
         32:c9:69:ac:5a:69:f1:3b:0f:5c:50:d1:18:3d:5d:98:0c:90:
         5c:5f:94:f8:bf:7f:ef:19:f4:9c:8d:f6:a9:df:83:ec:49:0c:
         e7:a3:35:4a:74:5f:51:47:88:eb:ea:6a:da:8f:aa:65:7e:4d:
         d0:78:2f:18
-----BEGIN CERTIFICATE-----
MIIDzTCCArWgAwIBAgIJAJHlMpHybquSMA0GCSqGSIb3DQEBCwUAMH0xCzAJBgNV
BAYTAlVTMRMwEQYDVQQIDApDYWxpZm9ybmlhMRQwEgYDVQQHDAtTYW50YSBDbGFy
YTENMAsGA1UECgwEcGtnNTEMMAoGA1UECwwDdGE2MRIwEAYDVQQDDAlsb2NhbGhv
c3QxEjAQBgkqhkiG9w0BCQEWA3RhNjAeFw0xNzExMTYxMDU4NTFaFw0yMDA4MTIx
MDU4NTFaMH0xCzAJBgNVBAYTAlVTMRMwEQYDVQQIDApDYWxpZm9ybmlhMRQwEgYD
VQQHDAtTYW50YSBDbGFyYTENMAsGA1UECgwEcGtnNTEMMAoGA1UECwwDdGE2MRIw
EAYDVQQDDAlsb2NhbGhvc3QxEjAQBgkqhkiG9w0BCQEWA3RhNjCCASIwDQYJKoZI
hvcNAQEBBQADggEPADCCAQoCggEBAMXqvo0IxFMTP/EDeihR0nSakzgjLa2LhwY0
Rh6SrH8H9gSpVs50iX2MJwewRmVkfWP5CNkq+YzwmucnNXqSpvMUQVxqdRotlhh5
Soli9xtG5ArbaUQeRJu+uguO2YjteC+bUfMqvaA+VnPDm1o9wWtszhG9cjm/PrHZ
eIU9Gi/jPRrgVOR+KfnQm8NxVc32M+vfBq5PAU3XpULTtCwrDZKkauShQXIapBwU
F8phbNqaXonR9ZBuB+asvdk7TJTXWReD9Yp3Zz+/jjAIdfVG8SXmbNEJ97rt4kG9
mcf5Xanp8omxgV0C5reGIYjmK/LE3JtcA8rywhNH3qknxVJjHUECAwEAAaNQME4w
HQYDVR0OBBYEFIJEoYDu65m9NnRBiujE97tq931JMB8GA1UdIwQYMBaAFIJEoYDu
65m9NnRBiujE97tq931JMAwGA1UdEwQFMAMBAf8wDQYJKoZIhvcNAQELBQADggEB
AHv1FZsGslR45lZNTtb6TFZ2MvkigRZBPQL4hcuZ1kzffDJ9EH8DMjynhdWKdJ5A
1PCA/sV3VEYHNuGQZVTjTw8sxgOlzZxd8yVKFdzML1rUWv0SYukdf3drNw/7K36V
1g3nx6ky2hMRn7UGZuJ2G+BKpAlDKNxksrTUn/JxK6NR8CYjvnYzqmoqVRSkr4Rj
ZFQRKDJQMc3dxDsWlgbd2QPUpnvwWzaAIj7rgFuzfQwwPXxtW9Tsjerg36I4pdyQ
zwBO+1gOXTLJaaxaafE7D1xQ0Rg9XZgMkFxflPi/f+8Z9JyN9qnfg+xJDOejNUp0
X1FHiOvqatqPqmV+TdB4Lxg=
-----END CERTIFICATE-----
