Certificate:
    Data:
        Version: 3 (0x2)
        Serial Number:
            24:44:58:55:54:37:b7:24:56:00:c4:54:a9:b2:ff:96:05:0f:e7:96
        Signature Algorithm: sha256WithRSAEncryption
        Issuer: C = US, ST = California, L = Santa Clara, O = pkg5, CN = ta2, emailAddress = ta2
        Validity
            Not Before: Oct 22 10:15:10 2021 GMT
            Not After : Jul 18 10:15:10 2024 GMT
        Subject: C = US, ST = California, L = Santa Clara, O = pkg5, CN = ta2, emailAddress = ta2
        Subject Public Key Info:
            Public Key Algorithm: rsaEncryption
                Public-Key: (2048 bit)
                Modulus:
                    00:bd:5c:21:8c:10:27:65:b4:79:55:f3:f1:06:89:
                    19:c6:22:4a:54:48:de:bb:c8:a7:55:10:79:49:d4:
                    88:ef:1b:cb:7d:49:79:bd:81:ac:30:eb:05:05:89:
                    ea:eb:7f:b5:66:74:63:bb:5b:70:2a:eb:4f:8a:6d:
                    7f:ca:c4:f8:e1:54:ea:ff:ef:c6:bb:cb:3f:e3:e9:
                    2d:21:61:30:ef:fa:21:0c:43:9a:f9:54:00:bc:9f:
                    0c:6f:b2:c1:90:64:42:8a:25:80:c5:fd:61:cc:4a:
                    cc:36:61:65:d6:68:01:26:ef:ca:a1:86:4a:e6:b7:
                    b0:68:c7:86:d5:7c:11:17:36:09:5a:a4:ee:60:72:
                    e8:88:ce:0e:0d:9d:eb:fa:e4:f8:67:cb:8a:81:61:
                    85:13:29:50:e2:79:35:a3:6c:c9:9d:46:05:49:17:
                    0e:58:49:fe:05:0f:21:0a:0d:f3:b9:db:76:0b:70:
                    69:1d:a4:1a:22:11:ff:51:1d:0e:47:94:7f:33:2e:
                    45:30:12:79:e6:db:93:be:ae:1a:67:55:29:79:49:
                    eb:0e:0d:b6:d7:09:89:d8:78:cd:d0:a7:ee:50:b9:
                    73:79:21:45:26:f3:27:a6:63:5d:46:a0:93:0e:0a:
                    c6:35:62:a8:a7:64:e7:18:60:2a:da:d5:8f:11:df:
                    e0:b3
                Exponent: 65537 (0x10001)
        X509v3 extensions:
            X509v3 Subject Key Identifier: 
                03:BA:26:84:61:94:0C:83:72:49:09:1D:DE:07:24:58:73:F0:F5:B5
            X509v3 Authority Key Identifier: 
                03:BA:26:84:61:94:0C:83:72:49:09:1D:DE:07:24:58:73:F0:F5:B5
            X509v3 Basic Constraints: critical
                CA:TRUE
    Signature Algorithm: sha256WithRSAEncryption
    Signature Value:
        22:2c:55:e4:5d:a3:eb:f4:65:40:2e:31:10:72:32:0f:ac:36:
        fc:1d:ab:2f:a3:2e:da:f8:ba:f6:2b:be:ce:da:63:3d:1b:11:
        1b:48:e4:e1:22:b1:1c:74:d9:c4:05:8b:d7:cc:c8:8c:6b:c7:
        0f:84:f2:73:88:2c:70:04:a4:2e:a2:dd:ca:07:12:c8:1b:ff:
        9c:ea:22:0b:74:0b:22:17:00:bb:b7:43:48:31:8f:2a:2c:f4:
        59:3f:ba:db:0c:36:36:51:07:71:17:f2:ba:d5:16:4d:9b:c3:
        8d:7b:9f:6d:44:36:8d:8e:96:a5:0b:57:12:dc:4f:ad:60:87:
        4e:84:7d:6b:3c:f7:1d:f2:62:db:ff:03:e1:1a:b1:82:b8:ad:
        c9:71:48:83:1a:1b:11:7e:5f:e6:a9:6c:d1:c0:ba:e2:cc:86:
        06:a8:e8:f6:5e:bb:bf:25:06:4a:17:dd:a5:07:cd:90:19:78:
        bf:f2:e3:ff:17:58:db:6c:95:31:85:46:a1:ff:3d:05:c1:f3:
        4e:aa:0b:c8:42:37:2f:cb:2c:d4:0f:9e:93:1d:5b:5f:2e:7e:
        f7:63:29:2e:43:41:d7:c5:21:42:22:32:1f:b2:85:4d:11:ac:
        96:43:33:8f:04:9b:42:3a:0c:bc:0d:e1:76:80:ae:eb:5b:40:
        0b:e6:45:ef
-----BEGIN CERTIFICATE-----
MIIDszCCApugAwIBAgIUJERYVVQ3tyRWAMRUqbL/lgUP55YwDQYJKoZIhvcNAQEL
BQAwaTELMAkGA1UEBhMCVVMxEzARBgNVBAgMCkNhbGlmb3JuaWExFDASBgNVBAcM
C1NhbnRhIENsYXJhMQ0wCwYDVQQKDARwa2c1MQwwCgYDVQQDDAN0YTIxEjAQBgkq
hkiG9w0BCQEWA3RhMjAeFw0yMTEwMjIxMDE1MTBaFw0yNDA3MTgxMDE1MTBaMGkx
CzAJBgNVBAYTAlVTMRMwEQYDVQQIDApDYWxpZm9ybmlhMRQwEgYDVQQHDAtTYW50
YSBDbGFyYTENMAsGA1UECgwEcGtnNTEMMAoGA1UEAwwDdGEyMRIwEAYJKoZIhvcN
AQkBFgN0YTIwggEiMA0GCSqGSIb3DQEBAQUAA4IBDwAwggEKAoIBAQC9XCGMECdl
tHlV8/EGiRnGIkpUSN67yKdVEHlJ1IjvG8t9SXm9gaww6wUFierrf7VmdGO7W3Aq
60+KbX/KxPjhVOr/78a7yz/j6S0hYTDv+iEMQ5r5VAC8nwxvssGQZEKKJYDF/WHM
Ssw2YWXWaAEm78qhhkrmt7Box4bVfBEXNglapO5gcuiIzg4Nnev65Phny4qBYYUT
KVDieTWjbMmdRgVJFw5YSf4FDyEKDfO523YLcGkdpBoiEf9RHQ5HlH8zLkUwEnnm
25O+rhpnVSl5SesODbbXCYnYeM3Qp+5QuXN5IUUm8yemY11GoJMOCsY1YqinZOcY
YCra1Y8R3+CzAgMBAAGjUzBRMB0GA1UdDgQWBBQDuiaEYZQMg3JJCR3eByRYc/D1
tTAfBgNVHSMEGDAWgBQDuiaEYZQMg3JJCR3eByRYc/D1tTAPBgNVHRMBAf8EBTAD
AQH/MA0GCSqGSIb3DQEBCwUAA4IBAQAiLFXkXaPr9GVALjEQcjIPrDb8Hasvoy7a
+Lr2K77O2mM9GxEbSOThIrEcdNnEBYvXzMiMa8cPhPJziCxwBKQuot3KBxLIG/+c
6iILdAsiFwC7t0NIMY8qLPRZP7rbDDY2UQdxF/K61RZNm8ONe59tRDaNjpalC1cS
3E+tYIdOhH1rPPcd8mLb/wPhGrGCuK3JcUiDGhsRfl/mqWzRwLrizIYGqOj2Xru/
JQZKF92lB82QGXi/8uP/F1jbbJUxhUah/z0FwfNOqgvIQjcvyyzUD56THVtfLn73
YykuQ0HXxSFCIjIfsoVNEayWQzOPBJtCOgy8DeF2gK7rW0AL5kXv
-----END CERTIFICATE-----
