Certificate:
    Data:
        Version: 3 (0x2)
        Serial Number:
            40:9d:81:65:15:1a:a6:3a:dd:25:63:93:04:a9:4b:82:8b:e8:2b:9c
        Signature Algorithm: sha256WithRSAEncryption
        Issuer: C=US, ST=California, L=Santa Clara, O=pkg5, CN=ta2, emailAddress=ta2
        Validity
            Not Before: Nov 14 14:26:53 2024 GMT
            Not After : Aug 11 14:26:53 2027 GMT
        Subject: C=US, ST=California, L=Santa Clara, O=pkg5, CN=ta2, emailAddress=ta2
        Subject Public Key Info:
            Public Key Algorithm: rsaEncryption
                Public-Key: (2048 bit)
                Modulus:
                    00:b6:7f:86:42:40:67:b9:eb:44:1e:04:f7:db:0d:
                    57:a5:8d:07:ef:c9:3b:47:b4:4b:0e:48:8c:2f:1d:
                    26:2c:e3:2a:52:a5:99:2f:ba:1c:8b:2f:2c:49:4d:
                    e9:15:84:07:bc:05:24:9b:97:65:2c:4d:88:6e:99:
                    be:b1:2b:54:7b:62:ed:65:46:6d:41:1d:8c:74:75:
                    18:a5:45:c9:e5:6c:8a:25:70:59:0a:7d:ef:11:92:
                    14:0c:27:dc:2b:54:57:01:23:dc:f8:3c:e2:c9:dc:
                    d7:77:cf:6f:d6:b4:0d:a4:6d:c6:29:d9:96:94:48:
                    c3:56:87:2f:e7:26:36:3f:c9:f2:bb:10:98:aa:93:
                    3d:4c:82:d0:f6:91:18:81:1b:cb:b0:11:f8:04:e9:
                    b7:47:47:ab:74:5a:4a:bd:ce:f0:c3:b6:eb:f4:cf:
                    36:1b:fb:13:dc:48:57:38:d7:21:7e:08:d3:58:67:
                    1e:97:2d:ef:fe:f5:36:6c:13:83:83:ba:4f:e8:5f:
                    4b:a8:4e:15:bc:90:ce:85:ab:36:b7:bc:98:af:bf:
                    2f:9c:b1:b8:6e:a9:16:41:dc:35:84:9b:00:1d:b6:
                    95:34:71:c4:56:d0:82:65:dd:b9:c7:28:8a:40:2a:
                    c0:b9:80:b7:fd:b9:ea:be:31:9f:9e:9f:be:6c:0b:
                    7e:d1
                Exponent: 65537 (0x10001)
        X509v3 extensions:
            X509v3 Subject Key Identifier: 
                C7:9B:A0:B1:6A:EB:E3:A2:69:81:13:B8:49:CC:A0:0F:75:04:F3:5C
            X509v3 Authority Key Identifier: 
                C7:9B:A0:B1:6A:EB:E3:A2:69:81:13:B8:49:CC:A0:0F:75:04:F3:5C
            X509v3 Basic Constraints: critical
                CA:TRUE
    Signature Algorithm: sha256WithRSAEncryption
    Signature Value:
        1a:25:67:70:26:39:64:28:ae:77:ab:78:9e:4c:fc:10:b2:9c:
        4e:c1:1d:a5:c8:53:75:30:eb:be:07:78:b3:e0:de:86:96:2d:
        55:66:f6:d8:4c:7b:e7:fd:fa:49:92:c0:f7:28:d6:23:f3:32:
        cd:f1:02:60:4c:be:9d:e6:19:ad:a9:e1:c8:0f:2b:ef:9d:ed:
        54:02:e5:a0:51:70:51:66:7b:4a:a8:ba:18:c6:f6:72:98:3a:
        f3:3f:b3:f0:12:a0:3e:04:e7:00:e2:2d:bf:96:81:ff:d8:ba:
        9a:55:54:2b:1e:6e:76:54:95:e5:0d:3d:16:96:7f:6c:92:9f:
        36:67:6e:f6:7a:be:30:df:36:ae:7a:8e:ae:ce:ed:fb:5e:b1:
        9a:45:d8:bb:c4:b6:bb:08:ce:e4:8b:a2:29:2b:c8:c6:e2:71:
        f4:6a:50:b4:11:8a:b9:73:01:f3:fb:bd:07:07:0c:af:b3:30:
        6a:24:6b:b7:6e:88:c7:2d:27:c5:f6:51:d0:46:0b:1c:d0:e4:
        b2:61:25:92:56:c4:4d:97:24:92:38:c6:8e:92:d1:00:a6:cb:
        0d:84:59:e1:5c:5d:f7:57:31:4c:0b:36:e2:83:30:b5:30:83:
        2f:e6:32:25:d1:86:98:63:92:dd:5a:23:46:7a:11:80:6a:07:
        ab:a1:8d:b4
-----BEGIN CERTIFICATE-----
MIIDszCCApugAwIBAgIUQJ2BZRUapjrdJWOTBKlLgovoK5wwDQYJKoZIhvcNAQEL
BQAwaTELMAkGA1UEBhMCVVMxEzARBgNVBAgMCkNhbGlmb3JuaWExFDASBgNVBAcM
C1NhbnRhIENsYXJhMQ0wCwYDVQQKDARwa2c1MQwwCgYDVQQDDAN0YTIxEjAQBgkq
hkiG9w0BCQEWA3RhMjAeFw0yNDExMTQxNDI2NTNaFw0yNzA4MTExNDI2NTNaMGkx
CzAJBgNVBAYTAlVTMRMwEQYDVQQIDApDYWxpZm9ybmlhMRQwEgYDVQQHDAtTYW50
YSBDbGFyYTENMAsGA1UECgwEcGtnNTEMMAoGA1UEAwwDdGEyMRIwEAYJKoZIhvcN
AQkBFgN0YTIwggEiMA0GCSqGSIb3DQEBAQUAA4IBDwAwggEKAoIBAQC2f4ZCQGe5
60QeBPfbDVeljQfvyTtHtEsOSIwvHSYs4ypSpZkvuhyLLyxJTekVhAe8BSSbl2Us
TYhumb6xK1R7Yu1lRm1BHYx0dRilRcnlbIolcFkKfe8RkhQMJ9wrVFcBI9z4POLJ
3Nd3z2/WtA2kbcYp2ZaUSMNWhy/nJjY/yfK7EJiqkz1MgtD2kRiBG8uwEfgE6bdH
R6t0Wkq9zvDDtuv0zzYb+xPcSFc41yF+CNNYZx6XLe/+9TZsE4ODuk/oX0uoThW8
kM6Fqza3vJivvy+csbhuqRZB3DWEmwAdtpU0ccRW0IJl3bnHKIpAKsC5gLf9ueq+
MZ+en75sC37RAgMBAAGjUzBRMB0GA1UdDgQWBBTHm6CxauvjommBE7hJzKAPdQTz
XDAfBgNVHSMEGDAWgBTHm6CxauvjommBE7hJzKAPdQTzXDAPBgNVHRMBAf8EBTAD
AQH/MA0GCSqGSIb3DQEBCwUAA4IBAQAaJWdwJjlkKK53q3ieTPwQspxOwR2lyFN1
MOu+B3iz4N6Gli1VZvbYTHvn/fpJksD3KNYj8zLN8QJgTL6d5hmtqeHIDyvvne1U
AuWgUXBRZntKqLoYxvZymDrzP7PwEqA+BOcA4i2/loH/2LqaVVQrHm52VJXlDT0W
ln9skp82Z272er4w3zaueo6uzu37XrGaRdi7xLa7CM7ki6IpK8jG4nH0alC0EYq5
cwHz+70HBwyvszBqJGu3bojHLSfF9lHQRgsc0OSyYSWSVsRNlySSOMaOktEApssN
hFnhXF33VzFMCzbigzC1MIMv5jIl0YaYY5LdWiNGehGAageroY20
-----END CERTIFICATE-----
