Certificate:
    Data:
        Version: 3 (0x2)
        Serial Number:
            a6:1f:48:d6:50:71:49:1b
    Signature Algorithm: sha256WithRSAEncryption
        Issuer: C=US, ST=California, L=Santa Clara, O=pkg5, CN=ta2/emailAddress=ta2
        Validity
            Not Before: Mar 20 10:20:53 2018 GMT
            Not After : Dec 14 10:20:53 2020 GMT
        Subject: C=US, ST=California, L=Santa Clara, O=pkg5, CN=ta2/emailAddress=ta2
        Subject Public Key Info:
            Public Key Algorithm: rsaEncryption
                Public-Key: (2048 bit)
                Modulus:
                    00:af:f8:04:d8:3d:b8:73:e9:90:71:b3:0a:51:22:
                    47:d7:ef:96:99:99:5a:6b:47:14:23:b9:13:b4:2e:
                    fd:19:df:9c:a2:ec:07:b6:e2:b0:7b:4a:fa:39:ec:
                    01:12:3c:89:aa:24:57:ea:0b:4a:ab:71:9d:7b:56:
                    80:a1:8b:17:17:28:31:69:40:c7:55:2d:94:8e:2b:
                    cb:c5:59:8e:1d:63:b1:e1:e5:9e:9f:6a:19:77:73:
                    b0:8a:fd:25:55:fd:b0:2c:24:af:04:a4:0e:13:35:
                    69:61:3b:ea:9c:5f:ed:ed:9f:09:e3:66:4f:16:3a:
                    39:dc:5b:89:c7:43:be:67:53:ea:57:1b:42:14:ee:
                    f8:58:42:57:f6:2f:e9:90:9d:bf:0d:9a:44:a4:2f:
                    98:1d:6c:bf:5c:07:cc:fc:b0:76:75:2e:36:15:ad:
                    17:40:29:6c:fc:8f:28:2f:68:a6:82:91:b0:21:c3:
                    d6:69:e8:41:bd:ac:89:19:3a:20:c1:33:7e:4a:df:
                    f9:ec:03:af:2d:e8:2c:8f:70:11:63:51:41:5b:d5:
                    49:e6:76:9c:5c:16:30:aa:33:e0:28:78:7e:31:c7:
                    02:9b:e3:f8:14:a4:f2:3d:a1:a2:18:ae:de:c8:fb:
                    20:c3:e0:6d:00:cf:6b:96:4f:5e:05:7a:8c:80:dc:
                    33:09
                Exponent: 65537 (0x10001)
        X509v3 extensions:
            X509v3 Subject Key Identifier: 
                1A:FE:BC:E4:63:71:A1:87:30:00:BA:60:A7:09:AF:47:65:7D:E1:29
            X509v3 Authority Key Identifier: 
                keyid:1A:FE:BC:E4:63:71:A1:87:30:00:BA:60:A7:09:AF:47:65:7D:E1:29

            X509v3 Basic Constraints: 
                CA:TRUE
    Signature Algorithm: sha256WithRSAEncryption
         55:01:18:f3:66:e6:14:56:22:56:52:dd:cb:ca:22:e6:6a:44:
         12:47:a2:85:67:2a:8d:c6:f8:b1:c2:ca:fb:02:0b:64:be:6c:
         5b:c7:16:68:61:f6:68:c6:c7:05:1c:98:c1:d5:57:e4:e4:57:
         36:8f:ab:2a:d9:b3:1e:6b:e1:1f:9c:8d:a5:a8:63:12:89:6a:
         f0:8a:d3:e8:b8:fa:fe:5a:d2:91:ba:5f:3f:53:be:3e:5d:5f:
         5e:d1:1a:4b:f1:23:41:91:14:65:1f:f0:1b:8a:a6:1b:d4:a7:
         9a:a3:e3:b4:be:a2:97:60:b2:5d:9a:69:62:8a:03:03:f8:9d:
         3e:f2:90:fc:0b:72:8f:e6:76:e2:b7:0f:44:f0:ff:95:da:a7:
         88:af:9c:71:78:f9:35:ed:4a:07:a9:bf:2c:53:3b:e0:c3:39:
         bf:b2:30:16:7f:3a:b2:7f:10:6a:93:28:0d:74:f4:5b:e9:3f:
         d6:00:a8:39:42:4f:cb:e1:60:34:bd:f8:d8:e6:e6:34:5a:88:
         4b:e8:e7:6e:6b:f2:2e:aa:ba:b9:d4:45:9f:0d:c0:d4:8f:21:
         ac:50:14:f9:f9:dc:6b:92:0e:6f:20:24:8a:cb:7b:be:ff:07:
         49:4a:35:bb:3e:b0:86:da:b3:b3:13:ac:1f:fa:b8:03:21:ca:
         cd:3a:ad:e3
-----BEGIN CERTIFICATE-----
MIIDpTCCAo2gAwIBAgIJAKYfSNZQcUkbMA0GCSqGSIb3DQEBCwUAMGkxCzAJBgNV
BAYTAlVTMRMwEQYDVQQIDApDYWxpZm9ybmlhMRQwEgYDVQQHDAtTYW50YSBDbGFy
YTENMAsGA1UECgwEcGtnNTEMMAoGA1UEAwwDdGEyMRIwEAYJKoZIhvcNAQkBFgN0
YTIwHhcNMTgwMzIwMTAyMDUzWhcNMjAxMjE0MTAyMDUzWjBpMQswCQYDVQQGEwJV
UzETMBEGA1UECAwKQ2FsaWZvcm5pYTEUMBIGA1UEBwwLU2FudGEgQ2xhcmExDTAL
BgNVBAoMBHBrZzUxDDAKBgNVBAMMA3RhMjESMBAGCSqGSIb3DQEJARYDdGEyMIIB
IjANBgkqhkiG9w0BAQEFAAOCAQ8AMIIBCgKCAQEAr/gE2D24c+mQcbMKUSJH1++W
mZlaa0cUI7kTtC79Gd+couwHtuKwe0r6OewBEjyJqiRX6gtKq3Gde1aAoYsXFygx
aUDHVS2UjivLxVmOHWOx4eWen2oZd3Owiv0lVf2wLCSvBKQOEzVpYTvqnF/t7Z8J
42ZPFjo53FuJx0O+Z1PqVxtCFO74WEJX9i/pkJ2/DZpEpC+YHWy/XAfM/LB2dS42
Fa0XQCls/I8oL2imgpGwIcPWaehBvayJGTogwTN+St/57AOvLegsj3ARY1FBW9VJ
5nacXBYwqjPgKHh+MccCm+P4FKTyPaGiGK7eyPsgw+BtAM9rlk9eBXqMgNwzCQID
AQABo1AwTjAdBgNVHQ4EFgQUGv685GNxoYcwALpgpwmvR2V94SkwHwYDVR0jBBgw
FoAUGv685GNxoYcwALpgpwmvR2V94SkwDAYDVR0TBAUwAwEB/zANBgkqhkiG9w0B
AQsFAAOCAQEAVQEY82bmFFYiVlLdy8oi5mpEEkeihWcqjcb4scLK+wILZL5sW8cW
aGH2aMbHBRyYwdVX5ORXNo+rKtmzHmvhH5yNpahjEolq8IrT6Lj6/lrSkbpfP1O+
Pl1fXtEaS/EjQZEUZR/wG4qmG9SnmqPjtL6il2CyXZppYooDA/idPvKQ/Atyj+Z2
4rcPRPD/ldqniK+ccXj5Ne1KB6m/LFM74MM5v7IwFn86sn8QapMoDXT0W+k/1gCo
OUJPy+FgNL342ObmNFqIS+jnbmvyLqq6udRFnw3A1I8hrFAU+fnca5IObyAkist7
vv8HSUo1uz6whtqzsxOsH/q4AyHKzTqt4w==
-----END CERTIFICATE-----
