Certificate:
    Data:
        Version: 3 (0x2)
        Serial Number:
            8e:a9:98:3c:a2:57:37:a0
    Signature Algorithm: sha256WithRSAEncryption
        Issuer: C=US, ST=California, L=Santa Clara, O=pkg5, OU=ta10, CN=localhost/emailAddress=ta10
        Validity
            Not Before: Nov 16 10:58:52 2017 GMT
            Not After : Aug 12 10:58:52 2020 GMT
        Subject: C=US, ST=California, L=Santa Clara, O=pkg5, OU=ta10, CN=localhost/emailAddress=ta10
        Subject Public Key Info:
            Public Key Algorithm: rsaEncryption
                Public-Key: (2048 bit)
                Modulus:
                    00:c9:e8:bb:50:88:c8:c1:e0:2c:1b:19:76:ce:5d:
                    30:08:7e:3d:6f:f5:bf:ca:75:d3:32:b6:c6:57:b7:
                    ec:16:ce:db:2e:6e:b5:c9:ab:4f:1d:c9:8f:98:dd:
                    89:8f:57:f4:fb:0b:e5:03:9a:c2:83:5a:49:7a:bc:
                    5e:3c:18:17:4c:d7:32:81:ee:3a:a3:c6:ff:09:c5:
                    82:18:ea:bb:e4:67:20:2f:52:7f:8e:ff:a9:69:d8:
                    32:97:95:83:1f:9b:87:d7:b9:cc:34:88:72:5d:24:
                    83:da:22:34:d5:d6:cd:f8:0e:7a:03:81:56:2f:b8:
                    62:40:14:ce:2f:50:1e:36:0e:dd:bc:f5:98:92:3a:
                    f0:0b:11:06:35:fc:10:b6:fd:24:93:d9:25:aa:c8:
                    4f:f0:f9:58:28:7e:71:88:50:0f:ea:a9:c7:40:4b:
                    49:23:42:f5:76:03:f3:b8:8b:e8:19:bc:d6:91:6c:
                    6f:54:2d:f6:57:07:e5:6e:ed:13:aa:2e:f7:96:a9:
                    05:54:cf:da:21:8d:5b:a9:15:88:a7:44:85:86:75:
                    ae:5f:a3:e6:cf:57:7a:aa:9f:ee:da:ac:11:bc:c4:
                    8c:45:95:f7:c2:6a:dd:a1:4f:e2:59:fe:3d:04:bf:
                    14:35:24:11:88:28:ce:66:ba:46:df:8f:19:96:52:
                    c0:7b
                Exponent: 65537 (0x10001)
        X509v3 extensions:
            X509v3 Subject Key Identifier: 
                FB:8C:F0:BA:BA:59:AE:28:6C:B5:BB:58:2A:63:20:72:9E:18:B5:68
            X509v3 Authority Key Identifier: 
                keyid:FB:8C:F0:BA:BA:59:AE:28:6C:B5:BB:58:2A:63:20:72:9E:18:B5:68

            X509v3 Basic Constraints: 
                CA:TRUE
    Signature Algorithm: sha256WithRSAEncryption
         29:47:1e:c9:14:15:2a:83:84:3e:f5:3f:de:9c:60:bf:cd:d1:
         a8:26:8a:55:3e:f8:27:57:91:0c:15:87:a2:69:c3:80:92:6c:
         9d:b8:37:50:07:97:43:28:5b:b2:45:3f:fb:bb:04:f9:ed:c6:
         be:b3:25:a4:32:41:5d:86:c8:de:ee:13:a0:b2:8a:c4:20:e4:
         7f:af:e0:2d:06:63:03:d7:57:27:51:7b:88:4d:37:13:57:6b:
         92:59:bd:a2:70:c5:7d:9d:cb:b7:23:f5:fb:e4:ef:aa:3d:30:
         5c:c2:ea:77:6e:8f:fb:f5:22:cb:15:8b:b4:87:49:08:08:ce:
         02:ef:82:8c:4c:29:62:66:f8:7b:83:20:50:c3:05:bd:7d:4b:
         2d:57:9e:4f:23:b3:af:c2:cc:31:5b:01:26:f6:a1:3b:c0:45:
         dc:21:22:83:22:41:7f:08:51:e5:43:93:85:f6:a8:9d:9c:9e:
         4d:dc:ff:02:39:be:e6:83:1e:c5:41:d3:6c:9d:d5:56:8d:84:
         a0:fb:35:01:3b:89:c1:d4:b2:26:b8:80:31:d0:55:23:14:c9:
         37:fd:39:a1:d5:1d:27:d3:46:4c:10:10:0f:0b:15:41:88:25:
         0b:d0:40:dd:ab:86:7f:6e:db:6a:71:26:dd:65:09:fc:69:32:
         1e:c4:db:86
-----BEGIN CERTIFICATE-----
MIID0TCCArmgAwIBAgIJAI6pmDyiVzegMA0GCSqGSIb3DQEBCwUAMH8xCzAJBgNV
BAYTAlVTMRMwEQYDVQQIDApDYWxpZm9ybmlhMRQwEgYDVQQHDAtTYW50YSBDbGFy
YTENMAsGA1UECgwEcGtnNTENMAsGA1UECwwEdGExMDESMBAGA1UEAwwJbG9jYWxo
b3N0MRMwEQYJKoZIhvcNAQkBFgR0YTEwMB4XDTE3MTExNjEwNTg1MloXDTIwMDgx
MjEwNTg1MlowfzELMAkGA1UEBhMCVVMxEzARBgNVBAgMCkNhbGlmb3JuaWExFDAS
BgNVBAcMC1NhbnRhIENsYXJhMQ0wCwYDVQQKDARwa2c1MQ0wCwYDVQQLDAR0YTEw
MRIwEAYDVQQDDAlsb2NhbGhvc3QxEzARBgkqhkiG9w0BCQEWBHRhMTAwggEiMA0G
CSqGSIb3DQEBAQUAA4IBDwAwggEKAoIBAQDJ6LtQiMjB4CwbGXbOXTAIfj1v9b/K
ddMytsZXt+wWztsubrXJq08dyY+Y3YmPV/T7C+UDmsKDWkl6vF48GBdM1zKB7jqj
xv8JxYIY6rvkZyAvUn+O/6lp2DKXlYMfm4fXucw0iHJdJIPaIjTV1s34DnoDgVYv
uGJAFM4vUB42Dt289ZiSOvALEQY1/BC2/SST2SWqyE/w+VgofnGIUA/qqcdAS0kj
QvV2A/O4i+gZvNaRbG9ULfZXB+Vu7ROqLveWqQVUz9ohjVupFYinRIWGda5fo+bP
V3qqn+7arBG8xIxFlffCat2hT+JZ/j0EvxQ1JBGIKM5mukbfjxmWUsB7AgMBAAGj
UDBOMB0GA1UdDgQWBBT7jPC6ulmuKGy1u1gqYyBynhi1aDAfBgNVHSMEGDAWgBT7
jPC6ulmuKGy1u1gqYyBynhi1aDAMBgNVHRMEBTADAQH/MA0GCSqGSIb3DQEBCwUA
A4IBAQApRx7JFBUqg4Q+9T/enGC/zdGoJopVPvgnV5EMFYeiacOAkmyduDdQB5dD
KFuyRT/7uwT57ca+syWkMkFdhsje7hOgsorEIOR/r+AtBmMD11cnUXuITTcTV2uS
Wb2icMV9ncu3I/X75O+qPTBcwup3bo/79SLLFYu0h0kICM4C74KMTCliZvh7gyBQ
wwW9fUstV55PI7OvwswxWwEm9qE7wEXcISKDIkF/CFHlQ5OF9qidnJ5N3P8COb7m
gx7FQdNsndVWjYSg+zUBO4nB1LImuIAx0FUjFMk3/Tmh1R0n00ZMEBAPCxVBiCUL
0EDdq4Z/bttqcSbdZQn8aTIexNuG
-----END CERTIFICATE-----
