Certificate:
    Data:
        Version: 3 (0x2)
        Serial Number:
            e0:c2:69:67:12:66:1a:4b
    Signature Algorithm: sha256WithRSAEncryption
        Issuer: C=US, ST=California, L=Santa Clara, O=pkg5, OU=ta10, CN=localhost/emailAddress=ta10
        Validity
            Not Before: Nov 28 22:50:59 2016 GMT
            Not After : Aug 25 22:50:59 2019 GMT
        Subject: C=US, ST=California, L=Santa Clara, O=pkg5, OU=ta10, CN=localhost/emailAddress=ta10
        Subject Public Key Info:
            Public Key Algorithm: rsaEncryption
                Public-Key: (2048 bit)
                Modulus:
                    00:c6:ad:47:a1:53:46:9f:fc:83:71:18:29:38:c2:
                    d0:66:0f:17:ec:fa:81:dd:ec:ed:1d:ff:1a:7a:bd:
                    9e:c3:37:82:5e:30:b3:22:dd:50:a7:b0:6f:a3:d6:
                    75:4a:12:b6:8f:b1:f6:ee:cd:8d:15:8f:83:43:04:
                    d6:3f:fe:c3:09:5a:fa:b3:cd:77:53:16:4f:e1:14:
                    d9:4a:12:3f:a9:86:c1:9f:57:c5:ea:d7:20:d2:5c:
                    93:ba:5d:77:27:e3:6d:65:4d:d7:e1:e1:29:95:87:
                    c1:f4:3f:96:f3:65:94:d3:35:fb:b4:d6:82:3d:3d:
                    f5:8e:04:03:4f:f7:56:95:ca:ae:af:ef:4a:fc:f4:
                    6b:ff:a6:64:62:fa:e2:1d:42:b0:7f:e8:b9:6a:46:
                    c7:0f:b2:86:0a:ba:41:ce:fc:93:5e:a3:9f:ad:31:
                    d1:b3:57:79:9f:95:a0:06:9b:4e:db:e6:b8:11:f2:
                    11:74:f4:5d:e3:41:bf:9f:6b:e8:8c:18:21:a0:b2:
                    09:f2:21:30:e0:2c:67:25:60:89:66:f9:e6:cb:86:
                    24:a7:50:ae:02:25:48:d9:39:7f:dd:9d:6b:01:aa:
                    99:64:b6:51:52:3b:bd:c0:4a:01:42:24:7f:4b:fa:
                    ff:ba:b2:e7:63:7b:0a:62:75:d8:67:7c:77:49:ae:
                    bd:dd
                Exponent: 65537 (0x10001)
        X509v3 extensions:
            X509v3 Subject Key Identifier: 
                AE:E3:20:4C:8B:D0:47:B4:5A:F2:59:0D:04:3E:A1:77:A3:CF:0E:A7
            X509v3 Authority Key Identifier: 
                keyid:AE:E3:20:4C:8B:D0:47:B4:5A:F2:59:0D:04:3E:A1:77:A3:CF:0E:A7

            X509v3 Basic Constraints: 
                CA:TRUE
    Signature Algorithm: sha256WithRSAEncryption
         46:3c:ec:08:2f:8c:e5:98:8c:8b:19:f7:43:ef:d6:e7:4c:f9:
         80:a4:cf:c2:dd:de:d2:4b:3c:99:7b:e9:cd:1e:5e:eb:57:83:
         f9:e4:d0:5b:f9:28:fc:41:a0:1a:78:6a:e3:4a:f6:de:a1:12:
         c0:12:8a:da:59:6b:4d:99:cd:a9:5c:9d:b2:f1:6b:1c:25:8a:
         3c:3a:27:24:a2:49:23:98:77:2e:1b:d8:81:30:b1:7e:39:f7:
         57:bc:b0:33:87:db:48:09:ea:45:0e:32:65:36:37:0f:06:e4:
         14:63:7f:c7:bf:72:5d:4a:08:eb:f9:d2:15:f1:05:55:39:0c:
         c6:fa:07:65:ca:ce:57:88:97:0f:a5:49:13:3a:c5:c3:be:9e:
         2c:e2:93:3c:cd:ae:e2:df:a3:23:1a:93:e4:d8:19:06:3f:5e:
         4a:69:45:42:b9:b8:59:d3:af:dd:54:7d:5b:5b:df:29:5f:27:
         0c:25:01:6e:fa:32:a7:14:89:84:c4:d9:21:53:28:24:27:b2:
         6a:36:1d:21:82:76:70:dd:1b:42:90:cc:f6:4f:33:9d:d3:29:
         c2:2d:f4:68:d3:f6:ae:74:9e:d5:b4:54:21:dd:53:cc:9d:d2:
         89:f0:95:b1:2c:a3:4c:da:d4:de:70:b1:b1:26:13:b1:9d:89:
         38:ce:f8:4d
-----BEGIN CERTIFICATE-----
MIID0TCCArmgAwIBAgIJAODCaWcSZhpLMA0GCSqGSIb3DQEBCwUAMH8xCzAJBgNV
BAYTAlVTMRMwEQYDVQQIDApDYWxpZm9ybmlhMRQwEgYDVQQHDAtTYW50YSBDbGFy
YTENMAsGA1UECgwEcGtnNTENMAsGA1UECwwEdGExMDESMBAGA1UEAwwJbG9jYWxo
b3N0MRMwEQYJKoZIhvcNAQkBFgR0YTEwMB4XDTE2MTEyODIyNTA1OVoXDTE5MDgy
NTIyNTA1OVowfzELMAkGA1UEBhMCVVMxEzARBgNVBAgMCkNhbGlmb3JuaWExFDAS
BgNVBAcMC1NhbnRhIENsYXJhMQ0wCwYDVQQKDARwa2c1MQ0wCwYDVQQLDAR0YTEw
MRIwEAYDVQQDDAlsb2NhbGhvc3QxEzARBgkqhkiG9w0BCQEWBHRhMTAwggEiMA0G
CSqGSIb3DQEBAQUAA4IBDwAwggEKAoIBAQDGrUehU0af/INxGCk4wtBmDxfs+oHd
7O0d/xp6vZ7DN4JeMLMi3VCnsG+j1nVKEraPsfbuzY0Vj4NDBNY//sMJWvqzzXdT
Fk/hFNlKEj+phsGfV8Xq1yDSXJO6XXcn421lTdfh4SmVh8H0P5bzZZTTNfu01oI9
PfWOBANP91aVyq6v70r89Gv/pmRi+uIdQrB/6LlqRscPsoYKukHO/JNeo5+tMdGz
V3mflaAGm07b5rgR8hF09F3jQb+fa+iMGCGgsgnyITDgLGclYIlm+ebLhiSnUK4C
JUjZOX/dnWsBqplktlFSO73ASgFCJH9L+v+6sudjewpiddhnfHdJrr3dAgMBAAGj
UDBOMB0GA1UdDgQWBBSu4yBMi9BHtFryWQ0EPqF3o88OpzAfBgNVHSMEGDAWgBSu
4yBMi9BHtFryWQ0EPqF3o88OpzAMBgNVHRMEBTADAQH/MA0GCSqGSIb3DQEBCwUA
A4IBAQBGPOwIL4zlmIyLGfdD79bnTPmApM/C3d7SSzyZe+nNHl7rV4P55NBb+Sj8
QaAaeGrjSvbeoRLAEoraWWtNmc2pXJ2y8WscJYo8OickokkjmHcuG9iBMLF+OfdX
vLAzh9tICepFDjJlNjcPBuQUY3/Hv3JdSgjr+dIV8QVVOQzG+gdlys5XiJcPpUkT
OsXDvp4s4pM8za7i36MjGpPk2BkGP15KaUVCubhZ06/dVH1bW98pXycMJQFu+jKn
FImExNkhUygkJ7JqNh0hgnZw3RtCkMz2TzOd0ynCLfRo0/audJ7VtFQh3VPMndKJ
8JWxLKNM2tTecLGxJhOxnYk4zvhN
-----END CERTIFICATE-----
