Certificate:
    Data:
        Version: 3 (0x2)
        Serial Number:
            71:41:11:20:9a:6d:8c:e1:d9:c3:39:57:f6:c3:25:ad:d7:db:eb:85
        Signature Algorithm: sha256WithRSAEncryption
        Issuer: C=US, ST=California, L=Santa Clara, O=pkg5, OU=ta10, CN=localhost, emailAddress=ta10
        Validity
            Not Before: Nov 14 14:26:59 2024 GMT
            Not After : Aug 11 14:26:59 2027 GMT
        Subject: C=US, ST=California, L=Santa Clara, O=pkg5, OU=ta10, CN=localhost, emailAddress=ta10
        Subject Public Key Info:
            Public Key Algorithm: rsaEncryption
                Public-Key: (2048 bit)
                Modulus:
                    00:d9:d3:ee:7a:db:33:40:08:9e:4f:27:0d:98:4f:
                    ef:f8:1e:0f:b5:a6:cf:da:f9:bd:a4:70:e9:5e:b9:
                    d8:08:3a:1f:3a:fa:7b:4b:d1:f6:6f:d1:10:53:81:
                    22:a8:76:93:f2:af:46:2c:f1:8b:d4:3c:21:0f:49:
                    aa:10:0b:f0:5a:69:a1:2a:7d:19:d0:dc:14:37:ca:
                    b6:6e:41:8e:13:6b:f8:15:af:b6:a8:d7:91:0e:28:
                    44:59:7d:a3:ba:b1:2c:09:6e:32:50:c5:fa:d8:22:
                    58:a9:ec:ed:92:52:ba:69:c5:7a:70:75:06:8b:9f:
                    a9:10:de:74:dc:d1:be:09:8f:76:3f:08:eb:b0:14:
                    ab:92:81:b6:8c:1b:c4:7b:21:6b:22:04:0b:5c:b9:
                    af:97:39:e3:a6:9a:2c:71:c6:a9:6f:f6:4f:0b:f5:
                    69:46:97:bb:06:1d:7c:30:bd:9b:d9:80:1f:7d:8b:
                    d5:70:93:49:d0:ae:db:59:d6:fd:b2:74:ee:1e:94:
                    38:7d:54:21:e4:a1:e0:f9:a6:d5:00:de:88:fa:73:
                    5b:00:b5:3a:0b:c5:f6:2c:39:d4:af:8c:bc:4d:dc:
                    b5:51:59:72:5f:2f:da:a0:77:b4:7e:dc:d4:1e:1e:
                    0f:b4:58:ea:6d:bc:c6:06:9c:38:d6:f3:3b:fa:ce:
                    ab:45
                Exponent: 65537 (0x10001)
        X509v3 extensions:
            X509v3 Subject Key Identifier: 
                F8:7C:96:9A:77:BC:2E:9B:C5:09:D4:08:D9:E6:31:2E:98:80:89:46
            X509v3 Authority Key Identifier: 
                F8:7C:96:9A:77:BC:2E:9B:C5:09:D4:08:D9:E6:31:2E:98:80:89:46
            X509v3 Basic Constraints: critical
                CA:TRUE
    Signature Algorithm: sha256WithRSAEncryption
    Signature Value:
        5a:cc:bf:23:89:a9:f2:d8:5b:50:40:42:52:f6:61:42:cc:cb:
        2f:57:d4:f5:4d:83:2b:c2:50:84:fe:7a:69:eb:2d:c2:ec:63:
        ff:8b:bf:2b:c0:19:8a:3b:b7:85:b7:c2:c4:19:9f:c7:2d:8b:
        d7:80:2f:10:79:73:24:9b:8b:34:3f:7b:d6:e5:11:41:83:03:
        77:b4:af:0d:b3:ff:35:fd:a2:d3:3f:2d:c9:c2:83:fe:45:7e:
        75:29:02:a7:47:c1:54:3f:1c:fe:cf:bc:b5:8c:69:4c:83:b2:
        ac:b5:4b:56:62:e6:3c:f1:2e:dd:3b:87:fd:8e:49:2c:cc:38:
        1c:3d:9a:f3:ba:e8:1e:d0:7e:56:29:7b:c5:26:3c:83:5b:e1:
        0d:c1:1d:82:c1:cd:a0:ee:fe:32:93:a5:7c:8a:a8:f9:95:53:
        69:a4:d7:7b:73:12:59:85:b1:26:bf:7b:ad:e4:53:b7:f9:0b:
        94:c1:f5:da:ab:6e:8b:c8:f3:cb:ac:8f:e5:8e:6d:4c:dc:9c:
        a9:ed:e4:81:18:2e:c6:f9:eb:65:c8:36:5d:27:df:d9:12:b0:
        ec:e2:2d:15:49:11:4c:0e:51:9e:d4:40:f6:a6:1e:21:a0:eb:
        7e:e0:a1:b2:e0:d1:e7:00:5c:f7:0d:aa:8f:b3:e6:19:b2:e2:
        e6:56:d6:55
-----BEGIN CERTIFICATE-----
MIID3zCCAsegAwIBAgIUcUERIJptjOHZwzlX9sMlrdfb64UwDQYJKoZIhvcNAQEL
BQAwfzELMAkGA1UEBhMCVVMxEzARBgNVBAgMCkNhbGlmb3JuaWExFDASBgNVBAcM
C1NhbnRhIENsYXJhMQ0wCwYDVQQKDARwa2c1MQ0wCwYDVQQLDAR0YTEwMRIwEAYD
VQQDDAlsb2NhbGhvc3QxEzARBgkqhkiG9w0BCQEWBHRhMTAwHhcNMjQxMTE0MTQy
NjU5WhcNMjcwODExMTQyNjU5WjB/MQswCQYDVQQGEwJVUzETMBEGA1UECAwKQ2Fs
aWZvcm5pYTEUMBIGA1UEBwwLU2FudGEgQ2xhcmExDTALBgNVBAoMBHBrZzUxDTAL
BgNVBAsMBHRhMTAxEjAQBgNVBAMMCWxvY2FsaG9zdDETMBEGCSqGSIb3DQEJARYE
dGExMDCCASIwDQYJKoZIhvcNAQEBBQADggEPADCCAQoCggEBANnT7nrbM0AInk8n
DZhP7/geD7Wmz9r5vaRw6V652Ag6Hzr6e0vR9m/REFOBIqh2k/KvRizxi9Q8IQ9J
qhAL8FppoSp9GdDcFDfKtm5BjhNr+BWvtqjXkQ4oRFl9o7qxLAluMlDF+tgiWKns
7ZJSumnFenB1BoufqRDedNzRvgmPdj8I67AUq5KBtowbxHshayIEC1y5r5c546aa
LHHGqW/2Twv1aUaXuwYdfDC9m9mAH32L1XCTSdCu21nW/bJ07h6UOH1UIeSh4Pmm
1QDeiPpzWwC1OgvF9iw51K+MvE3ctVFZcl8v2qB3tH7c1B4eD7RY6m28xgacONbz
O/rOq0UCAwEAAaNTMFEwHQYDVR0OBBYEFPh8lpp3vC6bxQnUCNnmMS6YgIlGMB8G
A1UdIwQYMBaAFPh8lpp3vC6bxQnUCNnmMS6YgIlGMA8GA1UdEwEB/wQFMAMBAf8w
DQYJKoZIhvcNAQELBQADggEBAFrMvyOJqfLYW1BAQlL2YULMyy9X1PVNgyvCUIT+
emnrLcLsY/+LvyvAGYo7t4W3wsQZn8cti9eALxB5cySbizQ/e9blEUGDA3e0rw2z
/zX9otM/LcnCg/5FfnUpAqdHwVQ/HP7PvLWMaUyDsqy1S1Zi5jzxLt07h/2OSSzM
OBw9mvO66B7QflYpe8UmPINb4Q3BHYLBzaDu/jKTpXyKqPmVU2mk13tzElmFsSa/
e63kU7f5C5TB9dqrbovI88usj+WObUzcnKnt5IEYLsb562XINl0n39kSsOziLRVJ
EUwOUZ7UQPamHiGg637gobLg0ecAXPcNqo+z5hmy4uZW1lU=
-----END CERTIFICATE-----
