Certificate:
    Data:
        Version: 3 (0x2)
        Serial Number:
            e0:84:ab:a0:1b:7e:34:f6
    Signature Algorithm: sha256WithRSAEncryption
        Issuer: C=US, ST=California, L=Santa Clara, O=pkg5, OU=ta10, CN=localhost/emailAddress=ta10
        Validity
            Not Before: Mar 20 10:20:56 2018 GMT
            Not After : Dec 14 10:20:56 2020 GMT
        Subject: C=US, ST=California, L=Santa Clara, O=pkg5, OU=ta10, CN=localhost/emailAddress=ta10
        Subject Public Key Info:
            Public Key Algorithm: rsaEncryption
                Public-Key: (2048 bit)
                Modulus:
                    00:b2:a1:f8:ea:53:66:03:f4:02:9e:5c:e0:b8:e8:
                    40:00:ba:fa:13:e0:89:4d:a2:5f:88:b0:19:51:15:
                    58:67:65:68:94:71:23:39:11:53:df:50:87:4d:78:
                    11:2c:cb:d8:cd:c3:93:9f:31:f8:f9:89:e9:cc:15:
                    ec:fc:ea:34:21:47:18:06:3c:ba:81:25:e6:90:d9:
                    d8:40:bc:ab:cd:0b:52:80:78:a2:0c:44:1c:99:6f:
                    c3:a2:ce:e1:2a:10:42:88:f6:b6:9a:c3:64:7d:30:
                    70:36:e4:fc:f1:28:e1:00:a9:14:a9:d5:76:84:c6:
                    55:ab:63:2f:f1:9f:70:a7:11:f0:af:a9:0a:d1:38:
                    fb:84:59:79:ff:4c:a9:12:3a:ba:db:8a:6e:38:8b:
                    4a:5c:31:62:4b:c7:66:93:fc:98:92:36:af:73:c7:
                    6c:72:a0:6e:28:7d:c2:1d:82:09:2f:48:d1:a6:ce:
                    e7:18:c3:aa:01:fd:6c:ee:5d:01:e4:b4:2d:e7:69:
                    59:5e:57:4b:0d:44:9e:84:1f:a0:3a:dd:fe:42:c5:
                    55:1c:31:18:52:39:de:df:1b:2c:c8:42:8d:12:e5:
                    88:8d:a3:7e:e8:f5:dc:82:af:87:02:d0:a5:39:4c:
                    4e:19:11:a3:78:b9:e3:26:3b:91:4b:2d:8c:47:0d:
                    fc:8b
                Exponent: 65537 (0x10001)
        X509v3 extensions:
            X509v3 Subject Key Identifier: 
                F3:78:1C:CB:C2:B4:F2:BD:48:7C:37:83:9E:95:BC:8F:3F:01:5F:4B
            X509v3 Authority Key Identifier: 
                keyid:F3:78:1C:CB:C2:B4:F2:BD:48:7C:37:83:9E:95:BC:8F:3F:01:5F:4B

            X509v3 Basic Constraints: 
                CA:TRUE
    Signature Algorithm: sha256WithRSAEncryption
         71:b4:d9:89:ab:d2:98:bf:36:34:2e:5f:f7:1a:43:f4:4a:fa:
         16:4c:91:1a:88:d9:73:06:8b:aa:0a:db:29:b9:8d:95:df:b8:
         f6:1f:e3:41:8e:dc:9f:22:8a:5d:1b:dd:bc:6b:cb:dc:3f:22:
         dc:04:4b:ba:4a:91:ee:20:2c:c3:7b:99:49:c0:bf:16:25:50:
         e8:64:a8:c4:6a:a4:87:d9:31:02:c7:a9:95:ae:b0:a4:ba:f4:
         77:17:77:55:d3:1e:2d:15:78:37:fd:ec:65:95:2c:78:0d:0e:
         b7:4d:6d:73:48:52:0d:02:5e:1c:33:13:fd:0d:60:9e:a0:19:
         a7:a7:76:95:93:0b:2f:ed:e0:f9:e2:f0:96:0e:8d:75:71:cc:
         e1:7a:d8:73:28:da:7b:7b:a9:cb:6b:1f:d6:93:05:0c:9c:2a:
         7f:07:99:df:a2:ad:78:86:4e:fe:7f:88:30:03:58:47:e7:60:
         ef:79:ad:1d:e4:9f:64:b8:cc:0d:d1:3e:6d:f0:3b:f4:41:18:
         61:48:ea:c5:ed:f6:66:2d:c9:5c:ed:69:8a:d8:c9:a9:bf:55:
         cf:01:35:b2:f7:3f:24:cc:d0:75:99:64:0c:e6:42:30:11:78:
         44:7f:1e:8d:0e:5c:6c:28:4d:73:51:c4:4e:85:60:1f:1d:b6:
         1f:50:18:fa
-----BEGIN CERTIFICATE-----
MIID0TCCArmgAwIBAgIJAOCEq6AbfjT2MA0GCSqGSIb3DQEBCwUAMH8xCzAJBgNV
BAYTAlVTMRMwEQYDVQQIDApDYWxpZm9ybmlhMRQwEgYDVQQHDAtTYW50YSBDbGFy
YTENMAsGA1UECgwEcGtnNTENMAsGA1UECwwEdGExMDESMBAGA1UEAwwJbG9jYWxo
b3N0MRMwEQYJKoZIhvcNAQkBFgR0YTEwMB4XDTE4MDMyMDEwMjA1NloXDTIwMTIx
NDEwMjA1NlowfzELMAkGA1UEBhMCVVMxEzARBgNVBAgMCkNhbGlmb3JuaWExFDAS
BgNVBAcMC1NhbnRhIENsYXJhMQ0wCwYDVQQKDARwa2c1MQ0wCwYDVQQLDAR0YTEw
MRIwEAYDVQQDDAlsb2NhbGhvc3QxEzARBgkqhkiG9w0BCQEWBHRhMTAwggEiMA0G
CSqGSIb3DQEBAQUAA4IBDwAwggEKAoIBAQCyofjqU2YD9AKeXOC46EAAuvoT4IlN
ol+IsBlRFVhnZWiUcSM5EVPfUIdNeBEsy9jNw5OfMfj5ienMFez86jQhRxgGPLqB
JeaQ2dhAvKvNC1KAeKIMRByZb8OizuEqEEKI9raaw2R9MHA25PzxKOEAqRSp1XaE
xlWrYy/xn3CnEfCvqQrROPuEWXn/TKkSOrrbim44i0pcMWJLx2aT/JiSNq9zx2xy
oG4ofcIdggkvSNGmzucYw6oB/WzuXQHktC3naVleV0sNRJ6EH6A63f5CxVUcMRhS
Od7fGyzIQo0S5YiNo37o9dyCr4cC0KU5TE4ZEaN4ueMmO5FLLYxHDfyLAgMBAAGj
UDBOMB0GA1UdDgQWBBTzeBzLwrTyvUh8N4OelbyPPwFfSzAfBgNVHSMEGDAWgBTz
eBzLwrTyvUh8N4OelbyPPwFfSzAMBgNVHRMEBTADAQH/MA0GCSqGSIb3DQEBCwUA
A4IBAQBxtNmJq9KYvzY0Ll/3GkP0SvoWTJEaiNlzBouqCtspuY2V37j2H+NBjtyf
IopdG928a8vcPyLcBEu6SpHuICzDe5lJwL8WJVDoZKjEaqSH2TECx6mVrrCkuvR3
F3dV0x4tFXg3/exllSx4DQ63TW1zSFINAl4cMxP9DWCeoBmnp3aVkwsv7eD54vCW
Do11cczhethzKNp7e6nLax/WkwUMnCp/B5nfoq14hk7+f4gwA1hH52Dvea0d5J9k
uMwN0T5t8Dv0QRhhSOrF7fZmLclc7WmK2Mmpv1XPATWy9z8kzNB1mWQM5kIwEXhE
fx6NDlxsKE1zUcROhWAfHbYfUBj6
-----END CERTIFICATE-----
