Certificate:
    Data:
        Version: 3 (0x2)
        Serial Number:
            73:79:2f:51:ee:39:df:5e:f3:6f:74:91:4d:9e:05:8c:94:7c:43:a7
        Signature Algorithm: sha256WithRSAEncryption
        Issuer: C = US, ST = California, L = Santa Clara, O = pkg5, OU = ta10, CN = localhost, emailAddress = ta10
        Validity
            Not Before: Oct 24 21:43:17 2023 GMT
            Not After : Jul 20 21:43:17 2026 GMT
        Subject: C = US, ST = California, L = Santa Clara, O = pkg5, OU = ta10, CN = localhost, emailAddress = ta10
        Subject Public Key Info:
            Public Key Algorithm: rsaEncryption
                Public-Key: (2048 bit)
                Modulus:
                    00:bc:5c:f1:9d:fb:80:6d:29:8a:41:76:42:24:49:
                    79:63:d7:78:49:97:db:88:76:55:10:aa:85:71:c5:
                    e2:65:e0:33:66:f5:c8:9d:62:ef:bc:d2:8d:1e:70:
                    76:5b:de:4d:da:4c:c0:8b:43:a9:2d:55:1b:ce:c6:
                    46:8f:78:64:ec:a7:34:f9:bc:da:98:ab:40:92:3d:
                    ef:06:19:cf:b0:86:35:a8:77:61:7d:f0:74:02:23:
                    b3:3f:1c:d1:34:42:d6:ae:7e:7c:7a:bf:0f:e1:c9:
                    c1:02:fa:21:52:ee:7f:5f:56:cc:18:ed:ec:6c:e1:
                    0f:3b:b6:b7:69:1a:ab:79:77:8c:3b:3d:a2:c3:ff:
                    2b:bb:c8:70:db:20:3c:b0:6b:b9:f3:0d:4f:6e:bc:
                    82:57:e1:f7:69:55:0e:8b:bb:97:d3:b5:32:eb:94:
                    da:3b:9e:2e:3b:ba:ea:37:70:2b:45:cf:cc:1b:c6:
                    96:ea:b3:50:da:ad:d0:c2:e0:0f:25:bc:ab:a8:9b:
                    83:81:0d:23:ba:f0:77:50:b4:e8:7f:60:04:89:bc:
                    64:4d:95:b7:0f:0c:98:2c:73:8e:1f:fd:77:84:da:
                    b7:93:84:70:52:71:a6:f1:46:70:52:ec:e5:b7:cb:
                    2b:57:40:1a:5b:87:f0:f4:46:ff:61:de:cb:1c:27:
                    8e:21
                Exponent: 65537 (0x10001)
        X509v3 extensions:
            X509v3 Subject Key Identifier: 
                20:47:0F:43:D3:3C:FF:A5:65:A2:36:C4:0B:C6:38:04:10:DE:0A:E9
            X509v3 Authority Key Identifier: 
                20:47:0F:43:D3:3C:FF:A5:65:A2:36:C4:0B:C6:38:04:10:DE:0A:E9
            X509v3 Basic Constraints: critical
                CA:TRUE
    Signature Algorithm: sha256WithRSAEncryption
    Signature Value:
        72:98:4f:b8:d9:dd:2d:c7:e9:8c:9b:1d:83:08:fb:8e:ab:ab:
        c9:97:16:d7:9c:25:60:7c:c5:75:46:de:bb:56:39:35:e1:f2:
        a2:66:68:37:36:15:7e:f4:f6:f7:e2:68:dd:cb:59:50:d9:5f:
        d0:9f:f0:f4:b8:ae:e6:d7:17:3e:50:2c:d4:12:ba:c7:b5:f2:
        c8:19:58:88:88:a0:2a:a6:8d:8d:36:cd:ed:ce:11:e6:bf:55:
        26:20:bd:f2:66:db:86:a3:f3:4e:14:33:d9:71:96:03:68:8d:
        df:33:1b:8d:cd:7c:8e:ef:ea:91:ea:17:30:98:df:20:0b:74:
        b4:23:8c:a1:b0:0c:5c:85:e5:77:d4:cf:f3:ce:7f:5e:83:b4:
        eb:68:cb:42:41:a0:48:59:e2:67:8c:10:36:12:5d:2b:50:1a:
        69:f3:5a:4c:09:db:e2:38:d5:85:dd:61:38:8d:81:bc:bc:2b:
        03:7c:47:64:63:da:14:ef:8c:f2:6f:8b:3c:1c:a9:06:a7:d4:
        cd:72:6b:83:da:9d:5d:5b:d0:40:f2:b5:63:75:44:9b:84:82:
        27:9f:cd:ff:cb:d2:cc:c0:cb:c9:91:4d:84:d9:6b:11:d6:d2:
        38:70:98:9d:86:9a:2d:21:68:a7:9b:5a:cc:c4:78:47:c8:20:
        d3:d3:93:99
-----BEGIN CERTIFICATE-----
MIID3zCCAsegAwIBAgIUc3kvUe45317zb3SRTZ4FjJR8Q6cwDQYJKoZIhvcNAQEL
BQAwfzELMAkGA1UEBhMCVVMxEzARBgNVBAgMCkNhbGlmb3JuaWExFDASBgNVBAcM
C1NhbnRhIENsYXJhMQ0wCwYDVQQKDARwa2c1MQ0wCwYDVQQLDAR0YTEwMRIwEAYD
VQQDDAlsb2NhbGhvc3QxEzARBgkqhkiG9w0BCQEWBHRhMTAwHhcNMjMxMDI0MjE0
MzE3WhcNMjYwNzIwMjE0MzE3WjB/MQswCQYDVQQGEwJVUzETMBEGA1UECAwKQ2Fs
aWZvcm5pYTEUMBIGA1UEBwwLU2FudGEgQ2xhcmExDTALBgNVBAoMBHBrZzUxDTAL
BgNVBAsMBHRhMTAxEjAQBgNVBAMMCWxvY2FsaG9zdDETMBEGCSqGSIb3DQEJARYE
dGExMDCCASIwDQYJKoZIhvcNAQEBBQADggEPADCCAQoCggEBALxc8Z37gG0pikF2
QiRJeWPXeEmX24h2VRCqhXHF4mXgM2b1yJ1i77zSjR5wdlveTdpMwItDqS1VG87G
Ro94ZOynNPm82pirQJI97wYZz7CGNah3YX3wdAIjsz8c0TRC1q5+fHq/D+HJwQL6
IVLuf19WzBjt7GzhDzu2t2kaq3l3jDs9osP/K7vIcNsgPLBrufMNT268glfh92lV
Dou7l9O1MuuU2jueLju66jdwK0XPzBvGluqzUNqt0MLgDyW8q6ibg4ENI7rwd1C0
6H9gBIm8ZE2Vtw8MmCxzjh/9d4Tat5OEcFJxpvFGcFLs5bfLK1dAGluH8PRG/2He
yxwnjiECAwEAAaNTMFEwHQYDVR0OBBYEFCBHD0PTPP+lZaI2xAvGOAQQ3grpMB8G
A1UdIwQYMBaAFCBHD0PTPP+lZaI2xAvGOAQQ3grpMA8GA1UdEwEB/wQFMAMBAf8w
DQYJKoZIhvcNAQELBQADggEBAHKYT7jZ3S3H6YybHYMI+46rq8mXFtecJWB8xXVG
3rtWOTXh8qJmaDc2FX709vfiaN3LWVDZX9Cf8PS4rubXFz5QLNQSuse18sgZWIiI
oCqmjY02ze3OEea/VSYgvfJm24aj804UM9lxlgNojd8zG43NfI7v6pHqFzCY3yAL
dLQjjKGwDFyF5XfUz/POf16DtOtoy0JBoEhZ4meMEDYSXStQGmnzWkwJ2+I41YXd
YTiNgby8KwN8R2Rj2hTvjPJvizwcqQan1M1ya4PanV1b0EDytWN1RJuEgiefzf/L
0szAy8mRTYTZaxHW0jhwmJ2Gmi0haKebWszEeEfIINPTk5k=
-----END CERTIFICATE-----
