Certificate:
    Data:
        Version: 3 (0x2)
        Serial Number:
            18:a5:d7:b7:4e:b8:b5:b9:22:e0:78:8f:0b:62:29:bd:9d:de:0b:6f
        Signature Algorithm: sha256WithRSAEncryption
        Issuer: C = US, ST = California, L = Santa Clara, O = pkg5, OU = ta10, CN = localhost, emailAddress = ta10
        Validity
            Not Before: May 23 15:47:23 2024 GMT
            Not After : Feb 17 15:47:23 2027 GMT
        Subject: C = US, ST = California, L = Santa Clara, O = pkg5, OU = ta10, CN = localhost, emailAddress = ta10
        Subject Public Key Info:
            Public Key Algorithm: rsaEncryption
                Public-Key: (2048 bit)
                Modulus:
                    00:ed:cf:a5:c3:54:f6:e9:34:cd:14:67:98:ce:c0:
                    3f:4a:60:98:e3:f2:37:4a:5e:6b:96:03:c0:9a:57:
                    ff:e6:9e:ad:d6:45:6f:92:86:97:40:60:5f:43:c9:
                    63:f0:07:de:7e:d4:99:1e:ab:8f:18:45:f7:67:87:
                    1a:ee:1c:36:f1:81:22:87:26:7a:86:44:d6:49:00:
                    57:f3:81:6e:dc:1d:80:04:5e:a6:2f:b4:1f:e4:6a:
                    ed:19:60:bd:9a:b3:d6:9c:13:dd:c6:ad:6d:d8:98:
                    35:34:69:21:5f:8a:51:d2:1b:d8:2a:b1:56:6d:d7:
                    90:c5:33:92:d5:c9:f1:b1:bc:09:a2:25:ae:10:5c:
                    13:cc:a8:80:8f:ff:23:ff:ac:b4:b9:db:9d:80:02:
                    4e:63:bd:6f:36:40:4f:99:09:9e:8d:2a:07:84:1e:
                    1b:8b:7c:cd:60:d5:c6:af:ed:41:15:eb:e2:2f:f7:
                    d8:00:cb:40:21:a3:14:bd:85:3b:81:3b:59:65:98:
                    9a:fd:6f:4d:80:cf:57:87:e7:90:5d:c0:ce:36:02:
                    9c:97:f9:fa:23:54:2a:d3:26:0b:47:a6:28:d5:80:
                    29:81:e4:47:18:e4:12:3d:fc:90:55:3c:a5:3a:a7:
                    4c:f9:a8:d6:77:38:f0:16:c0:51:b2:c3:8e:29:48:
                    1b:e9
                Exponent: 65537 (0x10001)
        X509v3 extensions:
            X509v3 Subject Key Identifier: 
                5E:B5:A3:53:50:1E:13:DE:54:37:87:A6:51:B2:A8:EF:0B:CE:30:C7
            X509v3 Authority Key Identifier: 
                5E:B5:A3:53:50:1E:13:DE:54:37:87:A6:51:B2:A8:EF:0B:CE:30:C7
            X509v3 Basic Constraints: critical
                CA:TRUE
    Signature Algorithm: sha256WithRSAEncryption
    Signature Value:
        3e:fa:f2:7d:ca:9f:fa:f2:95:6b:5d:3c:e7:4f:5b:e9:ed:ab:
        a5:c0:27:73:5b:14:8d:b1:40:f3:18:5d:0a:b4:f6:e3:5b:d2:
        22:40:3a:ec:4b:89:b3:fc:36:13:78:cf:1e:36:6e:ce:b0:41:
        5e:10:41:ef:2f:6c:b3:29:37:39:93:f8:82:f2:4c:a3:98:f5:
        0d:06:4e:a6:f3:a7:25:99:87:e8:8f:08:13:2c:13:20:fc:dc:
        5b:be:9d:4e:9d:37:cd:93:7b:a6:60:16:0e:ef:fe:56:b1:64:
        b4:6f:82:00:b7:8c:df:8b:84:4e:5a:f2:c2:59:a2:90:73:24:
        b9:11:fd:dc:ee:d5:48:39:97:e1:40:28:c3:da:ec:ab:4d:8c:
        46:db:cd:28:84:9b:e9:6c:a4:66:f6:15:33:36:cf:2f:ee:16:
        0a:1e:06:4a:c7:0f:d6:a4:54:32:f9:96:df:2f:85:da:93:8d:
        f7:8c:aa:c5:18:3a:5a:94:91:50:61:34:14:cf:9d:fd:32:07:
        56:d8:86:49:d0:2b:ce:6e:f9:74:7c:2d:ce:47:73:cf:34:31:
        2a:33:78:cf:db:43:ac:ca:86:a7:3e:28:0e:6d:2e:de:28:3e:
        60:89:54:9a:85:fa:e3:94:bf:15:16:67:8b:82:3c:bb:6f:aa:
        23:91:81:0c
-----BEGIN CERTIFICATE-----
MIID3zCCAsegAwIBAgIUGKXXt064tbki4HiPC2IpvZ3eC28wDQYJKoZIhvcNAQEL
BQAwfzELMAkGA1UEBhMCVVMxEzARBgNVBAgMCkNhbGlmb3JuaWExFDASBgNVBAcM
C1NhbnRhIENsYXJhMQ0wCwYDVQQKDARwa2c1MQ0wCwYDVQQLDAR0YTEwMRIwEAYD
VQQDDAlsb2NhbGhvc3QxEzARBgkqhkiG9w0BCQEWBHRhMTAwHhcNMjQwNTIzMTU0
NzIzWhcNMjcwMjE3MTU0NzIzWjB/MQswCQYDVQQGEwJVUzETMBEGA1UECAwKQ2Fs
aWZvcm5pYTEUMBIGA1UEBwwLU2FudGEgQ2xhcmExDTALBgNVBAoMBHBrZzUxDTAL
BgNVBAsMBHRhMTAxEjAQBgNVBAMMCWxvY2FsaG9zdDETMBEGCSqGSIb3DQEJARYE
dGExMDCCASIwDQYJKoZIhvcNAQEBBQADggEPADCCAQoCggEBAO3PpcNU9uk0zRRn
mM7AP0pgmOPyN0pea5YDwJpX/+aerdZFb5KGl0BgX0PJY/AH3n7UmR6rjxhF92eH
Gu4cNvGBIocmeoZE1kkAV/OBbtwdgARepi+0H+Rq7RlgvZqz1pwT3catbdiYNTRp
IV+KUdIb2CqxVm3XkMUzktXJ8bG8CaIlrhBcE8yogI//I/+stLnbnYACTmO9bzZA
T5kJno0qB4QeG4t8zWDVxq/tQRXr4i/32ADLQCGjFL2FO4E7WWWYmv1vTYDPV4fn
kF3AzjYCnJf5+iNUKtMmC0emKNWAKYHkRxjkEj38kFU8pTqnTPmo1nc48BbAUbLD
jilIG+kCAwEAAaNTMFEwHQYDVR0OBBYEFF61o1NQHhPeVDeHplGyqO8LzjDHMB8G
A1UdIwQYMBaAFF61o1NQHhPeVDeHplGyqO8LzjDHMA8GA1UdEwEB/wQFMAMBAf8w
DQYJKoZIhvcNAQELBQADggEBAD768n3Kn/rylWtdPOdPW+ntq6XAJ3NbFI2xQPMY
XQq09uNb0iJAOuxLibP8NhN4zx42bs6wQV4QQe8vbLMpNzmT+ILyTKOY9Q0GTqbz
pyWZh+iPCBMsEyD83Fu+nU6dN82Te6ZgFg7v/laxZLRvggC3jN+LhE5a8sJZopBz
JLkR/dzu1Ug5l+FAKMPa7KtNjEbbzSiEm+lspGb2FTM2zy/uFgoeBkrHD9akVDL5
lt8vhdqTjfeMqsUYOlqUkVBhNBTPnf0yB1bYhknQK85u+XR8Lc5Hc880MSozeM/b
Q6zKhqc+KA5tLt4oPmCJVJqF+uOUvxUWZ4uCPLtvqiORgQw=
-----END CERTIFICATE-----
