Certificate:
    Data:
        Version: 3 (0x2)
        Serial Number:
            24:63:71:f4:4c:91:2d:4a:92:42:3b:24:55:57:f5:d3:48:c5:87:0e
        Signature Algorithm: sha256WithRSAEncryption
        Issuer: C = US, ST = California, L = Santa Clara, O = pkg5, OU = ta11, CN = localhost, emailAddress = ta11
        Validity
            Not Before: Dec 15 15:37:35 2022 GMT
            Not After : Sep 10 15:37:35 2025 GMT
        Subject: C = US, ST = California, L = Santa Clara, O = pkg5, OU = ta11, CN = localhost, emailAddress = ta11
        Subject Public Key Info:
            Public Key Algorithm: rsaEncryption
                Public-Key: (2048 bit)
                Modulus:
                    00:ba:83:75:28:09:80:7c:78:df:4c:84:f0:d9:41:
                    3b:09:01:da:3b:0b:bf:0b:94:a3:40:ce:f0:ae:92:
                    d9:d3:a0:5c:b3:85:52:b9:1d:0d:8e:ec:35:20:4e:
                    c5:81:76:5e:01:54:a0:ce:20:5e:a1:11:ca:3e:2a:
                    ab:9f:59:41:88:07:d1:7e:3d:13:56:dd:6b:6e:ac:
                    69:92:87:0c:c9:e1:e0:12:a7:8f:16:56:7e:96:bd:
                    d0:6f:e0:26:0b:30:41:e9:b8:85:8c:5c:c8:c8:7f:
                    12:d1:e0:79:ae:f2:20:63:bb:13:f6:07:89:b7:a8:
                    87:ca:62:b7:e5:83:7c:3b:e4:c4:c3:62:90:a6:36:
                    e0:64:45:e5:1d:58:21:c4:65:31:e7:d6:23:4d:16:
                    47:a5:00:76:2e:65:d5:fe:6c:b5:db:6d:8d:6b:40:
                    78:47:42:6e:4a:c8:f7:07:25:c3:eb:ad:4b:a3:ff:
                    c1:62:96:2f:da:8a:71:5d:e3:b7:e6:f5:05:aa:26:
                    68:07:f3:84:a3:34:b6:0e:5a:86:d0:ad:24:5f:38:
                    e8:33:39:66:46:0d:f8:f3:2a:c1:ae:6e:11:e8:9a:
                    01:a9:ca:47:e8:99:f2:5e:c6:40:e4:97:42:57:66:
                    61:0c:39:10:27:e6:2f:26:3e:d3:58:2a:75:fe:de:
                    1a:7d
                Exponent: 65537 (0x10001)
        X509v3 extensions:
            X509v3 Subject Key Identifier: 
                17:A6:AE:15:21:02:BD:F4:88:7D:EB:A6:CF:CE:B7:2A:12:72:D5:09
            X509v3 Authority Key Identifier: 
                17:A6:AE:15:21:02:BD:F4:88:7D:EB:A6:CF:CE:B7:2A:12:72:D5:09
            X509v3 Basic Constraints: critical
                CA:TRUE
    Signature Algorithm: sha256WithRSAEncryption
    Signature Value:
        b7:23:c2:c2:b0:ab:59:75:93:c5:2b:58:49:a2:92:34:3d:04:
        5d:30:b4:08:cd:24:6c:17:b2:a9:ec:d5:70:f0:ce:c6:ce:ef:
        b5:f8:3b:47:23:bc:f3:a5:4f:5a:16:de:f9:c8:37:34:3f:99:
        d9:94:cf:0f:5a:ce:af:9d:e6:af:ae:b0:af:31:3f:d6:13:91:
        9b:d7:cb:d2:e3:f2:2a:c8:39:4a:ac:6f:97:e4:ca:e5:3b:fd:
        08:2b:5e:0b:ed:18:1e:c7:e4:dd:03:3b:cf:d9:24:f7:25:c9:
        8c:79:cb:74:23:c3:47:a9:1f:67:84:a7:cb:2c:2b:3e:fb:d3:
        72:cc:24:c3:8f:f0:3f:29:41:3b:df:f0:d7:ea:a4:57:d0:79:
        62:9b:1c:51:80:72:f2:51:11:8b:fa:2a:7a:c6:b4:6e:88:13:
        52:45:ff:04:22:2f:ce:7f:b8:52:ce:4e:e7:63:59:8a:95:41:
        2c:b7:fc:b6:e4:f3:80:be:22:72:35:7f:9d:7d:7b:e4:dd:f2:
        bd:73:9d:58:a0:be:20:4c:0d:0d:1e:03:3f:f1:b7:9d:78:de:
        08:31:a5:c3:be:b6:44:a8:b8:7f:24:a5:fe:7c:10:36:8b:b5:
        e5:fd:eb:db:62:69:0c:99:88:53:cf:26:03:a3:d4:a0:2c:14:
        39:e0:f1:8c
-----BEGIN CERTIFICATE-----
MIID3zCCAsegAwIBAgIUJGNx9EyRLUqSQjskVVf100jFhw4wDQYJKoZIhvcNAQEL
BQAwfzELMAkGA1UEBhMCVVMxEzARBgNVBAgMCkNhbGlmb3JuaWExFDASBgNVBAcM
C1NhbnRhIENsYXJhMQ0wCwYDVQQKDARwa2c1MQ0wCwYDVQQLDAR0YTExMRIwEAYD
VQQDDAlsb2NhbGhvc3QxEzARBgkqhkiG9w0BCQEWBHRhMTEwHhcNMjIxMjE1MTUz
NzM1WhcNMjUwOTEwMTUzNzM1WjB/MQswCQYDVQQGEwJVUzETMBEGA1UECAwKQ2Fs
aWZvcm5pYTEUMBIGA1UEBwwLU2FudGEgQ2xhcmExDTALBgNVBAoMBHBrZzUxDTAL
BgNVBAsMBHRhMTExEjAQBgNVBAMMCWxvY2FsaG9zdDETMBEGCSqGSIb3DQEJARYE
dGExMTCCASIwDQYJKoZIhvcNAQEBBQADggEPADCCAQoCggEBALqDdSgJgHx430yE
8NlBOwkB2jsLvwuUo0DO8K6S2dOgXLOFUrkdDY7sNSBOxYF2XgFUoM4gXqERyj4q
q59ZQYgH0X49E1bda26saZKHDMnh4BKnjxZWfpa90G/gJgswQem4hYxcyMh/EtHg
ea7yIGO7E/YHibeoh8pit+WDfDvkxMNikKY24GRF5R1YIcRlMefWI00WR6UAdi5l
1f5stdttjWtAeEdCbkrI9wclw+utS6P/wWKWL9qKcV3jt+b1BaomaAfzhKM0tg5a
htCtJF846DM5ZkYN+PMqwa5uEeiaAanKR+iZ8l7GQOSXQldmYQw5ECfmLyY+01gq
df7eGn0CAwEAAaNTMFEwHQYDVR0OBBYEFBemrhUhAr30iH3rps/OtyoSctUJMB8G
A1UdIwQYMBaAFBemrhUhAr30iH3rps/OtyoSctUJMA8GA1UdEwEB/wQFMAMBAf8w
DQYJKoZIhvcNAQELBQADggEBALcjwsKwq1l1k8UrWEmikjQ9BF0wtAjNJGwXsqns
1XDwzsbO77X4O0cjvPOlT1oW3vnINzQ/mdmUzw9azq+d5q+usK8xP9YTkZvXy9Lj
8irIOUqsb5fkyuU7/QgrXgvtGB7H5N0DO8/ZJPclyYx5y3Qjw0epH2eEp8ssKz77
03LMJMOP8D8pQTvf8NfqpFfQeWKbHFGAcvJREYv6KnrGtG6IE1JF/wQiL85/uFLO
TudjWYqVQSy3/Lbk84C+InI1f519e+Td8r1znVigviBMDQ0eAz/xt5143ggxpcO+
tkSouH8kpf58EDaLteX969tiaQyZiFPPJgOj1KAsFDng8Yw=
-----END CERTIFICATE-----
