Certificate:
    Data:
        Version: 3 (0x2)
        Serial Number:
            ca:78:b7:fe:a1:35:96:a0
    Signature Algorithm: sha256WithRSAEncryption
        Issuer: C=US, ST=California, L=Santa Clara, O=pkg5, OU=ta11, CN=localhost/emailAddress=ta11
        Validity
            Not Before: Nov 28 22:50:59 2016 GMT
            Not After : Aug 25 22:50:59 2019 GMT
        Subject: C=US, ST=California, L=Santa Clara, O=pkg5, OU=ta11, CN=localhost/emailAddress=ta11
        Subject Public Key Info:
            Public Key Algorithm: rsaEncryption
                Public-Key: (2048 bit)
                Modulus:
                    00:98:db:52:7c:e1:31:0a:05:57:29:0c:84:5e:39:
                    35:01:46:59:c7:89:a2:38:94:38:dc:74:c5:4e:ed:
                    55:ed:9d:41:8b:21:94:13:e2:c6:00:1c:ac:ef:fa:
                    ba:a3:3f:53:0d:03:70:32:bc:88:5b:2f:a3:8d:84:
                    86:82:c7:fc:4e:fb:2d:6b:da:79:e0:c6:3c:08:8f:
                    71:cc:47:91:a7:3d:ac:1f:ef:cd:fb:ef:12:c9:b3:
                    53:22:11:44:ec:4e:f3:76:9d:0d:45:b2:5c:2a:c0:
                    50:06:e5:60:2d:f2:79:89:76:9b:42:ce:74:54:32:
                    3c:77:69:9c:67:e5:6f:10:38:a1:99:6a:a7:3b:d4:
                    41:48:1c:10:7c:5a:51:80:df:fe:15:b1:1e:29:fd:
                    b8:58:be:7c:0b:04:09:db:45:2b:d5:8e:af:90:11:
                    c1:f8:2d:8b:35:58:b4:a2:1a:15:fd:e3:60:7a:38:
                    99:21:8b:cc:8e:3b:11:ff:69:9a:58:cb:50:20:30:
                    66:6e:71:4d:98:16:3e:1d:13:48:19:a5:8d:69:ed:
                    b9:6d:ee:5a:70:b8:9e:3f:ab:e5:e7:af:09:5e:3c:
                    7a:ae:a7:ba:03:e9:e4:cb:e7:64:6d:27:ea:aa:36:
                    23:3d:d6:e9:4e:a5:19:65:e8:f3:bf:8f:9e:bd:af:
                    5e:fd
                Exponent: 65537 (0x10001)
        X509v3 extensions:
            X509v3 Subject Key Identifier: 
                4C:0D:C7:6D:5A:A5:D5:FF:DC:12:57:6B:32:E4:0E:26:70:99:84:44
            X509v3 Authority Key Identifier: 
                keyid:4C:0D:C7:6D:5A:A5:D5:FF:DC:12:57:6B:32:E4:0E:26:70:99:84:44

            X509v3 Basic Constraints: 
                CA:TRUE
    Signature Algorithm: sha256WithRSAEncryption
         2b:18:58:6c:61:39:e0:a7:7f:f9:69:c0:a4:56:c3:e1:72:f0:
         c4:30:33:32:b9:37:bb:fc:d9:0b:e4:2a:8f:b5:e7:ae:d6:5e:
         57:2c:76:cf:84:1e:d3:a8:6c:4e:c5:35:77:34:99:f5:46:37:
         5f:98:16:12:28:c1:35:e6:9a:cb:c1:92:f2:1e:d9:57:ae:78:
         94:3c:c5:c6:36:93:94:58:24:b6:16:96:2d:dc:44:02:ea:f9:
         9e:b7:7d:94:3d:13:c6:64:ef:5e:2d:da:48:46:55:ae:54:0f:
         87:67:35:3c:0c:d8:5d:6e:01:fa:2c:d1:8e:ae:b7:73:98:23:
         f8:c3:1a:ef:41:52:13:dd:eb:e6:a5:cc:cc:2e:3d:dd:23:ce:
         25:3e:73:fc:50:95:1a:97:9c:15:ba:3b:a7:00:ad:2a:c8:92:
         41:49:cb:b7:52:fc:78:b7:56:8a:ff:3b:52:10:b1:b3:55:dd:
         df:33:92:eb:5b:56:cd:cd:79:25:1f:25:0c:3e:bc:fa:f7:7f:
         db:94:4c:fa:34:71:e7:38:e6:fc:06:12:fc:80:20:c4:97:14:
         d5:8c:d3:dc:ed:bb:68:ea:7a:51:0c:42:b6:0a:91:5f:b6:a9:
         73:06:35:c8:68:a0:b9:c6:0a:c9:a8:dc:51:89:7f:61:9b:e7:
         dd:f4:8c:17
-----BEGIN CERTIFICATE-----
MIID0TCCArmgAwIBAgIJAMp4t/6hNZagMA0GCSqGSIb3DQEBCwUAMH8xCzAJBgNV
BAYTAlVTMRMwEQYDVQQIDApDYWxpZm9ybmlhMRQwEgYDVQQHDAtTYW50YSBDbGFy
YTENMAsGA1UECgwEcGtnNTENMAsGA1UECwwEdGExMTESMBAGA1UEAwwJbG9jYWxo
b3N0MRMwEQYJKoZIhvcNAQkBFgR0YTExMB4XDTE2MTEyODIyNTA1OVoXDTE5MDgy
NTIyNTA1OVowfzELMAkGA1UEBhMCVVMxEzARBgNVBAgMCkNhbGlmb3JuaWExFDAS
BgNVBAcMC1NhbnRhIENsYXJhMQ0wCwYDVQQKDARwa2c1MQ0wCwYDVQQLDAR0YTEx
MRIwEAYDVQQDDAlsb2NhbGhvc3QxEzARBgkqhkiG9w0BCQEWBHRhMTEwggEiMA0G
CSqGSIb3DQEBAQUAA4IBDwAwggEKAoIBAQCY21J84TEKBVcpDIReOTUBRlnHiaI4
lDjcdMVO7VXtnUGLIZQT4sYAHKzv+rqjP1MNA3AyvIhbL6ONhIaCx/xO+y1r2nng
xjwIj3HMR5GnPawf78377xLJs1MiEUTsTvN2nQ1FslwqwFAG5WAt8nmJdptCznRU
Mjx3aZxn5W8QOKGZaqc71EFIHBB8WlGA3/4VsR4p/bhYvnwLBAnbRSvVjq+QEcH4
LYs1WLSiGhX942B6OJkhi8yOOxH/aZpYy1AgMGZucU2YFj4dE0gZpY1p7blt7lpw
uJ4/q+XnrwlePHqup7oD6eTL52RtJ+qqNiM91ulOpRll6PO/j569r179AgMBAAGj
UDBOMB0GA1UdDgQWBBRMDcdtWqXV/9wSV2sy5A4mcJmERDAfBgNVHSMEGDAWgBRM
DcdtWqXV/9wSV2sy5A4mcJmERDAMBgNVHRMEBTADAQH/MA0GCSqGSIb3DQEBCwUA
A4IBAQArGFhsYTngp3/5acCkVsPhcvDEMDMyuTe7/NkL5CqPteeu1l5XLHbPhB7T
qGxOxTV3NJn1RjdfmBYSKME15prLwZLyHtlXrniUPMXGNpOUWCS2FpYt3EQC6vme
t32UPRPGZO9eLdpIRlWuVA+HZzU8DNhdbgH6LNGOrrdzmCP4wxrvQVIT3evmpczM
Lj3dI84lPnP8UJUal5wVujunAK0qyJJBScu3Uvx4t1aK/ztSELGzVd3fM5LrW1bN
zXklHyUMPrz693/blEz6NHHnOOb8BhL8gCDElxTVjNPc7bto6npRDEK2CpFftqlz
BjXIaKC5xgrJqNxRiX9hm+fd9IwX
-----END CERTIFICATE-----
