Certificate:
    Data:
        Version: 3 (0x2)
        Serial Number:
            0c:ac:e7:6d:46:d2:92:1e:e9:24:ee:c5:f8:a3:33:74:56:79:37:50
        Signature Algorithm: sha256WithRSAEncryption
        Issuer: C = US, ST = California, L = Santa Clara, O = pkg5, OU = ta11, CN = localhost, emailAddress = ta11
        Validity
            Not Before: Oct 22 10:15:25 2021 GMT
            Not After : Jul 18 10:15:25 2024 GMT
        Subject: C = US, ST = California, L = Santa Clara, O = pkg5, OU = ta11, CN = localhost, emailAddress = ta11
        Subject Public Key Info:
            Public Key Algorithm: rsaEncryption
                Public-Key: (2048 bit)
                Modulus:
                    00:cb:ec:54:f9:08:4c:26:4b:3b:6c:82:b2:4d:7a:
                    f7:1c:45:0f:04:85:08:cf:20:bc:94:fd:3b:87:ed:
                    b6:fe:c6:ad:41:63:83:10:6b:4c:93:6d:33:35:27:
                    b0:2f:fe:f9:5a:3d:d1:e4:3f:f7:98:31:93:81:e4:
                    54:9c:c7:d4:c2:bb:7f:4c:ed:8a:68:fe:94:78:ae:
                    12:ca:b9:a9:cc:23:9f:5b:d2:ff:1a:ed:79:32:1a:
                    8c:64:d2:3d:15:42:c8:93:1b:82:d2:77:0c:3d:fc:
                    e7:78:bf:23:8c:b2:94:06:0f:4a:77:86:67:e8:a7:
                    c1:94:df:a9:27:58:ee:c3:c4:0e:52:4e:e4:a1:92:
                    e3:88:a3:99:9c:3d:da:fc:c2:ef:b1:30:d4:a9:83:
                    d4:19:a9:32:7c:1a:ea:e3:68:52:e4:fa:39:63:c7:
                    14:d0:69:a2:40:70:a8:f2:5d:98:3e:d8:2e:db:44:
                    79:98:2b:d1:2e:c6:b7:96:1a:1f:e9:11:fe:32:d0:
                    6a:7c:1b:da:54:de:ec:6b:91:8a:a2:a5:21:8b:81:
                    c6:a1:00:f3:5a:6a:ce:14:21:ad:51:94:32:95:36:
                    c5:b7:11:6c:9a:a1:88:0c:74:6a:44:10:e9:51:7e:
                    47:4f:ba:67:19:90:bf:34:27:2a:ad:7f:70:8d:f2:
                    00:af
                Exponent: 65537 (0x10001)
        X509v3 extensions:
            X509v3 Subject Key Identifier: 
                C1:E6:E9:43:20:DE:E0:59:3F:E3:89:B6:7E:86:00:3A:8C:E1:B0:4F
            X509v3 Authority Key Identifier: 
                C1:E6:E9:43:20:DE:E0:59:3F:E3:89:B6:7E:86:00:3A:8C:E1:B0:4F
            X509v3 Basic Constraints: critical
                CA:TRUE
    Signature Algorithm: sha256WithRSAEncryption
    Signature Value:
        45:e4:53:18:7c:82:f8:f5:f3:03:b6:c8:17:9f:c6:0a:3f:a1:
        f5:dc:78:1d:62:c2:b2:34:55:05:ae:29:d4:91:1a:1d:29:03:
        18:28:e5:e3:c8:bd:33:4d:11:1c:30:9f:d0:7f:fb:1d:9d:a9:
        6c:2d:ef:fc:ce:be:fd:09:ef:8d:6c:99:c0:50:66:4a:5b:d4:
        ab:bc:32:cf:3a:2c:13:c5:12:19:72:c9:73:a4:70:5e:da:13:
        36:60:3e:09:c9:43:3f:3d:cf:52:5e:00:ec:7c:44:f3:cb:66:
        f1:60:f3:e0:91:64:56:30:57:82:cc:aa:91:4d:a7:d1:36:fc:
        a4:f9:11:25:75:f6:4f:71:15:33:d8:7d:84:b7:bc:a9:94:03:
        bb:78:d4:cd:31:4c:32:89:dd:53:2d:35:a9:8c:52:e1:a9:85:
        ce:56:af:09:86:4c:f9:cc:96:28:8d:cf:43:10:20:a7:38:bc:
        3e:83:50:00:56:b2:b5:83:cf:d2:d9:3e:8c:21:e0:39:d2:a5:
        e0:5c:44:5a:2c:6e:54:35:97:06:b3:39:99:ad:53:65:93:a1:
        19:51:de:62:fb:26:36:ea:d2:9b:b0:72:b3:81:ac:c0:42:0f:
        fc:3b:40:9e:75:6e:6e:19:46:32:04:81:a9:06:83:a8:1d:65:
        0a:e6:b1:5a
-----BEGIN CERTIFICATE-----
MIID3zCCAsegAwIBAgIUDKznbUbSkh7pJO7F+KMzdFZ5N1AwDQYJKoZIhvcNAQEL
BQAwfzELMAkGA1UEBhMCVVMxEzARBgNVBAgMCkNhbGlmb3JuaWExFDASBgNVBAcM
C1NhbnRhIENsYXJhMQ0wCwYDVQQKDARwa2c1MQ0wCwYDVQQLDAR0YTExMRIwEAYD
VQQDDAlsb2NhbGhvc3QxEzARBgkqhkiG9w0BCQEWBHRhMTEwHhcNMjExMDIyMTAx
NTI1WhcNMjQwNzE4MTAxNTI1WjB/MQswCQYDVQQGEwJVUzETMBEGA1UECAwKQ2Fs
aWZvcm5pYTEUMBIGA1UEBwwLU2FudGEgQ2xhcmExDTALBgNVBAoMBHBrZzUxDTAL
BgNVBAsMBHRhMTExEjAQBgNVBAMMCWxvY2FsaG9zdDETMBEGCSqGSIb3DQEJARYE
dGExMTCCASIwDQYJKoZIhvcNAQEBBQADggEPADCCAQoCggEBAMvsVPkITCZLO2yC
sk169xxFDwSFCM8gvJT9O4fttv7GrUFjgxBrTJNtMzUnsC/++Vo90eQ/95gxk4Hk
VJzH1MK7f0ztimj+lHiuEsq5qcwjn1vS/xrteTIajGTSPRVCyJMbgtJ3DD3853i/
I4yylAYPSneGZ+inwZTfqSdY7sPEDlJO5KGS44ijmZw92vzC77Ew1KmD1BmpMnwa
6uNoUuT6OWPHFNBpokBwqPJdmD7YLttEeZgr0S7Gt5YaH+kR/jLQanwb2lTe7GuR
iqKlIYuBxqEA81pqzhQhrVGUMpU2xbcRbJqhiAx0akQQ6VF+R0+6ZxmQvzQnKq1/
cI3yAK8CAwEAAaNTMFEwHQYDVR0OBBYEFMHm6UMg3uBZP+OJtn6GADqM4bBPMB8G
A1UdIwQYMBaAFMHm6UMg3uBZP+OJtn6GADqM4bBPMA8GA1UdEwEB/wQFMAMBAf8w
DQYJKoZIhvcNAQELBQADggEBAEXkUxh8gvj18wO2yBefxgo/ofXceB1iwrI0VQWu
KdSRGh0pAxgo5ePIvTNNERwwn9B/+x2dqWwt7/zOvv0J741smcBQZkpb1Ku8Ms86
LBPFEhlyyXOkcF7aEzZgPgnJQz89z1JeAOx8RPPLZvFg8+CRZFYwV4LMqpFNp9E2
/KT5ESV19k9xFTPYfYS3vKmUA7t41M0xTDKJ3VMtNamMUuGphc5WrwmGTPnMliiN
z0MQIKc4vD6DUABWsrWDz9LZPowh4DnSpeBcRFosblQ1lwazOZmtU2WToRlR3mL7
Jjbq0puwcrOBrMBCD/w7QJ51bm4ZRjIEgakGg6gdZQrmsVo=
-----END CERTIFICATE-----
