Certificate:
    Data:
        Version: 3 (0x2)
        Serial Number:
            51:e2:06:9d:4c:80:12:2a:dc:8b:96:f6:f4:4c:54:97:4b:ec:79:6a
        Signature Algorithm: sha256WithRSAEncryption
        Issuer: C = US, ST = California, L = Santa Clara, O = pkg5, OU = ta11, CN = localhost, emailAddress = ta11
        Validity
            Not Before: May 23 15:47:23 2024 GMT
            Not After : Feb 17 15:47:23 2027 GMT
        Subject: C = US, ST = California, L = Santa Clara, O = pkg5, OU = ta11, CN = localhost, emailAddress = ta11
        Subject Public Key Info:
            Public Key Algorithm: rsaEncryption
                Public-Key: (2048 bit)
                Modulus:
                    00:d7:8d:d3:61:e1:da:13:91:e3:a9:33:64:44:1a:
                    fb:25:14:ee:de:23:46:70:0d:ad:74:da:df:98:3c:
                    fe:ee:21:d6:a3:c3:2e:e7:d2:d3:fd:60:2c:00:54:
                    5d:57:dd:43:f5:52:c7:9b:97:0b:22:0e:f0:9b:bc:
                    f1:b0:d3:49:5d:ea:2d:68:83:23:82:4d:a8:91:0d:
                    0a:0c:09:1b:4f:b8:99:11:99:de:eb:e1:e9:e3:c9:
                    2c:11:4f:ab:c7:f0:92:cc:9a:ae:f0:f7:58:82:52:
                    31:e1:3d:f3:fd:1a:15:9a:dd:2c:04:b3:e4:62:cb:
                    10:0b:78:58:1f:6f:20:5f:61:67:59:c5:17:cf:d8:
                    79:1a:cd:fa:d0:6c:db:d1:eb:e3:5a:4c:db:95:5c:
                    1c:41:c8:d2:e9:2f:75:29:83:84:24:7d:d4:1e:4e:
                    5b:18:8f:5c:bd:ee:34:03:c9:de:1d:01:aa:9b:8c:
                    76:54:c5:b0:18:be:ce:a6:d3:0d:be:ed:96:26:f5:
                    c5:2b:6d:61:31:9b:c5:94:c3:e1:ab:f5:13:51:52:
                    66:8b:50:0a:03:2a:86:de:66:45:2a:10:48:dc:43:
                    7c:93:41:38:df:8d:5e:a7:1d:e1:25:7c:c5:8a:14:
                    b0:43:d8:81:9f:a2:40:f4:54:27:24:41:ac:3a:91:
                    b1:f3
                Exponent: 65537 (0x10001)
        X509v3 extensions:
            X509v3 Subject Key Identifier: 
                68:76:50:71:1A:6C:AB:DC:E9:B3:C7:C0:4E:28:D5:D8:28:D7:EE:48
            X509v3 Authority Key Identifier: 
                68:76:50:71:1A:6C:AB:DC:E9:B3:C7:C0:4E:28:D5:D8:28:D7:EE:48
            X509v3 Basic Constraints: critical
                CA:TRUE
    Signature Algorithm: sha256WithRSAEncryption
    Signature Value:
        0d:12:43:f8:61:1d:a7:3a:f9:e5:82:25:ab:ba:54:cb:97:96:
        5c:6b:5e:40:d5:8a:33:c7:b0:3c:14:20:71:18:35:92:36:b8:
        7f:58:3d:53:32:17:a7:67:42:27:76:71:2c:e3:84:ad:ba:74:
        04:9e:60:d5:15:07:71:e5:d6:6d:9c:b6:c4:11:47:b4:b8:a5:
        e3:9c:20:ba:f6:ae:4a:ef:dd:d5:e7:88:0c:76:74:26:8e:47:
        eb:37:74:12:cf:75:00:21:95:dc:9d:3b:94:82:c7:7b:84:23:
        3f:3e:1a:b5:36:62:ca:32:1a:29:ab:91:db:e9:65:4e:93:33:
        28:89:ef:2a:5c:96:cc:17:2c:e2:49:3b:7b:4f:a4:2f:be:4e:
        f9:8f:6c:5c:16:d4:db:59:01:46:1a:5e:cd:01:03:0b:14:1d:
        5e:e0:c3:56:e8:03:b2:6d:73:3c:e7:85:08:92:c7:eb:d7:6f:
        2b:03:5e:03:ae:6c:1c:10:7a:9c:7e:c5:59:ff:fe:d3:07:e6:
        84:30:c7:94:3b:f9:49:1d:46:98:a6:73:f4:47:4d:db:46:56:
        3d:07:e9:83:75:a7:a3:76:ca:92:3f:a1:e3:a2:7a:dd:99:a2:
        ce:f9:4c:fd:ae:93:54:b4:cc:00:72:20:62:bc:c3:9f:03:93:
        3e:0a:7b:65
-----BEGIN CERTIFICATE-----
MIID3zCCAsegAwIBAgIUUeIGnUyAEirci5b29ExUl0vseWowDQYJKoZIhvcNAQEL
BQAwfzELMAkGA1UEBhMCVVMxEzARBgNVBAgMCkNhbGlmb3JuaWExFDASBgNVBAcM
C1NhbnRhIENsYXJhMQ0wCwYDVQQKDARwa2c1MQ0wCwYDVQQLDAR0YTExMRIwEAYD
VQQDDAlsb2NhbGhvc3QxEzARBgkqhkiG9w0BCQEWBHRhMTEwHhcNMjQwNTIzMTU0
NzIzWhcNMjcwMjE3MTU0NzIzWjB/MQswCQYDVQQGEwJVUzETMBEGA1UECAwKQ2Fs
aWZvcm5pYTEUMBIGA1UEBwwLU2FudGEgQ2xhcmExDTALBgNVBAoMBHBrZzUxDTAL
BgNVBAsMBHRhMTExEjAQBgNVBAMMCWxvY2FsaG9zdDETMBEGCSqGSIb3DQEJARYE
dGExMTCCASIwDQYJKoZIhvcNAQEBBQADggEPADCCAQoCggEBANeN02Hh2hOR46kz
ZEQa+yUU7t4jRnANrXTa35g8/u4h1qPDLufS0/1gLABUXVfdQ/VSx5uXCyIO8Ju8
8bDTSV3qLWiDI4JNqJENCgwJG0+4mRGZ3uvh6ePJLBFPq8fwksyarvD3WIJSMeE9
8/0aFZrdLASz5GLLEAt4WB9vIF9hZ1nFF8/YeRrN+tBs29Hr41pM25VcHEHI0ukv
dSmDhCR91B5OWxiPXL3uNAPJ3h0BqpuMdlTFsBi+zqbTDb7tlib1xSttYTGbxZTD
4av1E1FSZotQCgMqht5mRSoQSNxDfJNBON+NXqcd4SV8xYoUsEPYgZ+iQPRUJyRB
rDqRsfMCAwEAAaNTMFEwHQYDVR0OBBYEFGh2UHEabKvc6bPHwE4o1dgo1+5IMB8G
A1UdIwQYMBaAFGh2UHEabKvc6bPHwE4o1dgo1+5IMA8GA1UdEwEB/wQFMAMBAf8w
DQYJKoZIhvcNAQELBQADggEBAA0SQ/hhHac6+eWCJau6VMuXllxrXkDVijPHsDwU
IHEYNZI2uH9YPVMyF6dnQid2cSzjhK26dASeYNUVB3Hl1m2ctsQRR7S4peOcILr2
rkrv3dXniAx2dCaOR+s3dBLPdQAhldydO5SCx3uEIz8+GrU2YsoyGimrkdvpZU6T
MyiJ7ypclswXLOJJO3tPpC++TvmPbFwW1NtZAUYaXs0BAwsUHV7gw1boA7Jtczzn
hQiSx+vXbysDXgOubBwQepx+xVn//tMH5oQwx5Q7+UkdRpimc/RHTdtGVj0H6YN1
p6N2ypI/oeOiet2Zos75TP2uk1S0zAByIGK8w58Dkz4Ke2U=
-----END CERTIFICATE-----
