Certificate:
    Data:
        Version: 3 (0x2)
        Serial Number: 12694121422338659297 (0xb02a942d622c13e1)
    Signature Algorithm: sha256WithRSAEncryption
        Issuer: C=US, ST=California, L=Santa Clara, O=pkg5, CN=ta1/emailAddress=ta1
        Validity
            Not Before: Dec  6 03:06:42 2014 GMT
            Not After : Sep  1 03:06:42 2017 GMT
        Subject: C=US, ST=California, L=Santa Clara, O=pkg5, CN=ta1/emailAddress=ta1
        Subject Public Key Info:
            Public Key Algorithm: rsaEncryption
                Public-Key: (1024 bit)
                Modulus:
                    00:cc:49:fc:e7:7f:75:12:0f:e3:47:71:5b:75:31:
                    e4:be:a7:23:a6:62:1a:dd:86:ef:58:bf:6e:59:6d:
                    0f:22:83:77:6f:21:8f:19:e5:86:36:8b:e7:8d:2c:
                    b8:80:be:2b:ab:21:06:22:d8:51:5e:5c:c5:e4:f3:
                    3b:76:d8:0a:d2:cb:a3:cd:9f:2f:7c:15:b2:2f:f2:
                    2b:76:d1:5a:e9:4c:cb:2b:a1:11:60:de:d0:1f:77:
                    86:ed:88:6a:38:fb:97:26:0a:73:25:07:f0:9f:1f:
                    23:69:6e:2f:70:33:0f:56:51:18:d7:96:70:ec:40:
                    ab:3f:c7:48:3c:f5:e0:37:63
                Exponent: 65537 (0x10001)
        X509v3 extensions:
            X509v3 Subject Key Identifier: 
                EE:10:3C:75:59:B1:40:56:AF:48:E1:DE:8D:D1:E0:D9:F0:FA:1C:A7
            X509v3 Authority Key Identifier: 
                keyid:EE:10:3C:75:59:B1:40:56:AF:48:E1:DE:8D:D1:E0:D9:F0:FA:1C:A7

            X509v3 Basic Constraints: 
                CA:TRUE
    Signature Algorithm: sha256WithRSAEncryption
         5f:10:0e:75:69:5d:cf:5b:b6:9b:25:21:bf:78:0f:68:b1:cd:
         3e:6c:76:f4:7b:31:a3:c4:ee:df:72:bf:42:22:10:ca:0c:36:
         89:69:77:69:cc:48:4f:ae:5f:61:c2:ef:b3:17:16:a2:0f:3d:
         3b:40:02:ab:57:13:98:f1:23:7f:8b:56:7e:90:fa:f9:3c:cf:
         f1:8c:fc:6b:92:5d:55:94:83:2a:59:32:bb:33:03:0b:fb:eb:
         2e:27:dd:83:86:40:60:b1:a2:cb:1c:05:66:db:3e:6f:21:32:
         5f:15:68:5a:7f:27:b9:7f:5c:ad:dd:a3:7e:7a:f3:45:09:ea:
         3c:5a
-----BEGIN CERTIFICATE-----
MIICoDCCAgmgAwIBAgIJALAqlC1iLBPhMA0GCSqGSIb3DQEBCwUAMGkxCzAJBgNV
BAYTAlVTMRMwEQYDVQQIDApDYWxpZm9ybmlhMRQwEgYDVQQHDAtTYW50YSBDbGFy
YTENMAsGA1UECgwEcGtnNTEMMAoGA1UEAwwDdGExMRIwEAYJKoZIhvcNAQkBFgN0
YTEwHhcNMTQxMjA2MDMwNjQyWhcNMTcwOTAxMDMwNjQyWjBpMQswCQYDVQQGEwJV
UzETMBEGA1UECAwKQ2FsaWZvcm5pYTEUMBIGA1UEBwwLU2FudGEgQ2xhcmExDTAL
BgNVBAoMBHBrZzUxDDAKBgNVBAMMA3RhMTESMBAGCSqGSIb3DQEJARYDdGExMIGf
MA0GCSqGSIb3DQEBAQUAA4GNADCBiQKBgQDMSfznf3USD+NHcVt1MeS+pyOmYhrd
hu9Yv25ZbQ8ig3dvIY8Z5YY2i+eNLLiAviurIQYi2FFeXMXk8zt22ArSy6PNny98
FbIv8it20VrpTMsroRFg3tAfd4btiGo4+5cmCnMlB/CfHyNpbi9wMw9WURjXlnDs
QKs/x0g89eA3YwIDAQABo1AwTjAdBgNVHQ4EFgQU7hA8dVmxQFavSOHejdHg2fD6
HKcwHwYDVR0jBBgwFoAU7hA8dVmxQFavSOHejdHg2fD6HKcwDAYDVR0TBAUwAwEB
/zANBgkqhkiG9w0BAQsFAAOBgQBfEA51aV3PW7abJSG/eA9osc0+bHb0ezGjxO7f
cr9CIhDKDDaJaXdpzEhPrl9hwu+zFxaiDz07QAKrVxOY8SN/i1Z+kPr5PM/xjPxr
kl1VlIMqWTK7MwML++suJ92DhkBgsaLLHAVm2z5vITJfFWhafye5f1yt3aN+evNF
Ceo8Wg==
-----END CERTIFICATE-----
