Certificate:
    Data:
        Version: 3 (0x2)
        Serial Number:
            6a:cc:95:0f:ec:75:01:12:f8:0f:4f:b8:21:74:a5:3c:4c:dc:9e:ab
        Signature Algorithm: sha256WithRSAEncryption
        Issuer: C = US, ST = California, L = Santa Clara, O = pkg5, CN = ta1, emailAddress = ta1
        Validity
            Not Before: May 23 15:47:14 2024 GMT
            Not After : Feb 17 15:47:14 2027 GMT
        Subject: C = US, ST = California, L = Santa Clara, O = pkg5, CN = ta1, emailAddress = ta1
        Subject Public Key Info:
            Public Key Algorithm: rsaEncryption
                Public-Key: (2048 bit)
                Modulus:
                    00:85:71:98:68:1d:c4:11:a2:24:ba:2d:0a:ed:d0:
                    d5:71:d2:bc:4e:a3:40:a7:57:8b:4c:5e:ee:91:e1:
                    00:9c:a5:4d:43:f5:13:32:e1:9c:bf:a0:50:12:04:
                    e1:f7:2d:cb:64:4a:79:76:ad:10:c3:60:06:fc:ae:
                    c6:86:8c:ec:32:a8:21:9d:36:1a:2d:b2:fd:2f:c0:
                    b3:41:14:ea:91:5b:bf:b0:a9:fe:bd:2a:86:34:45:
                    3b:7e:23:bd:7b:ce:75:ae:8a:67:2d:f2:4a:c6:3d:
                    2a:c9:bf:ba:20:a1:04:52:da:be:6f:bb:82:ee:95:
                    72:1c:44:c9:01:2f:14:12:59:30:48:29:d7:22:d3:
                    f7:72:f6:46:cf:29:77:7b:38:0b:8a:df:7a:54:c9:
                    5b:2a:25:1c:2f:94:19:60:85:16:85:3d:b1:16:d7:
                    70:f0:f6:8b:b5:75:d5:80:92:c6:e1:1f:ca:88:0a:
                    05:5b:88:0b:47:c3:9f:33:a9:98:4e:ae:58:c4:62:
                    0e:1a:77:1a:88:67:1c:b0:cb:15:01:ad:f3:8e:15:
                    11:cd:13:11:3b:fe:7f:b2:57:37:70:15:02:3e:e7:
                    3a:9b:a0:40:f2:74:7b:e5:68:2f:6f:ca:9f:d5:61:
                    89:8b:96:a1:27:52:0c:3b:3b:b2:65:3a:fc:63:66:
                    0f:d9
                Exponent: 65537 (0x10001)
        X509v3 extensions:
            X509v3 Subject Key Identifier: 
                C3:56:EC:5B:73:9E:EB:BA:54:5D:93:DD:D7:36:A8:FA:6B:16:5A:1A
            X509v3 Authority Key Identifier: 
                C3:56:EC:5B:73:9E:EB:BA:54:5D:93:DD:D7:36:A8:FA:6B:16:5A:1A
            X509v3 Basic Constraints: critical
                CA:TRUE
    Signature Algorithm: sha256WithRSAEncryption
    Signature Value:
        35:3f:15:a6:51:ce:8f:da:3f:55:dd:d3:46:25:c4:cd:54:a8:
        e4:fd:7e:15:c3:e8:03:61:03:84:b8:d9:04:45:37:30:51:a5:
        23:10:db:95:4f:6e:e7:ee:c1:90:69:c4:c9:b8:f2:ab:86:53:
        d0:02:a2:9d:7d:53:c8:98:7c:15:3f:93:fe:e7:3a:ac:e6:2e:
        86:34:c1:fe:fc:0d:9b:fc:c9:a0:35:70:e8:36:f2:a8:a9:d5:
        ec:8b:a0:93:1d:57:06:82:f1:a9:86:08:86:b4:a5:76:74:50:
        5a:c4:8b:14:df:29:ec:8a:4e:3d:29:51:73:93:63:f6:9c:5a:
        56:68:da:0d:2e:fe:f5:1b:96:42:9b:ee:7d:e5:68:d2:8f:e1:
        f3:f9:e4:51:7c:c3:0c:2b:58:26:12:c6:c9:cc:2b:51:2d:5f:
        f6:11:f7:ee:c9:d3:9e:66:45:33:18:4e:49:32:ba:ba:15:a0:
        90:a8:72:74:c9:b1:29:62:5c:2c:dc:2f:73:1f:3f:04:ca:dd:
        09:de:4a:80:b2:d8:42:b8:98:94:29:7b:b6:c0:da:a9:51:da:
        7f:42:78:82:29:07:df:05:24:f9:ea:bc:a0:0c:2c:72:09:1e:
        11:ff:57:5d:3a:a8:97:78:86:94:2c:77:2a:21:08:7d:66:64:
        50:76:00:f1
-----BEGIN CERTIFICATE-----
MIIDszCCApugAwIBAgIUasyVD+x1ARL4D0+4IXSlPEzcnqswDQYJKoZIhvcNAQEL
BQAwaTELMAkGA1UEBhMCVVMxEzARBgNVBAgMCkNhbGlmb3JuaWExFDASBgNVBAcM
C1NhbnRhIENsYXJhMQ0wCwYDVQQKDARwa2c1MQwwCgYDVQQDDAN0YTExEjAQBgkq
hkiG9w0BCQEWA3RhMTAeFw0yNDA1MjMxNTQ3MTRaFw0yNzAyMTcxNTQ3MTRaMGkx
CzAJBgNVBAYTAlVTMRMwEQYDVQQIDApDYWxpZm9ybmlhMRQwEgYDVQQHDAtTYW50
YSBDbGFyYTENMAsGA1UECgwEcGtnNTEMMAoGA1UEAwwDdGExMRIwEAYJKoZIhvcN
AQkBFgN0YTEwggEiMA0GCSqGSIb3DQEBAQUAA4IBDwAwggEKAoIBAQCFcZhoHcQR
oiS6LQrt0NVx0rxOo0CnV4tMXu6R4QCcpU1D9RMy4Zy/oFASBOH3LctkSnl2rRDD
YAb8rsaGjOwyqCGdNhotsv0vwLNBFOqRW7+wqf69KoY0RTt+I717znWuimct8krG
PSrJv7ogoQRS2r5vu4LulXIcRMkBLxQSWTBIKdci0/dy9kbPKXd7OAuK33pUyVsq
JRwvlBlghRaFPbEW13Dw9ou1ddWAksbhH8qICgVbiAtHw58zqZhOrljEYg4adxqI
ZxywyxUBrfOOFRHNExE7/n+yVzdwFQI+5zqboEDydHvlaC9vyp/VYYmLlqEnUgw7
O7JlOvxjZg/ZAgMBAAGjUzBRMB0GA1UdDgQWBBTDVuxbc57rulRdk93XNqj6axZa
GjAfBgNVHSMEGDAWgBTDVuxbc57rulRdk93XNqj6axZaGjAPBgNVHRMBAf8EBTAD
AQH/MA0GCSqGSIb3DQEBCwUAA4IBAQA1PxWmUc6P2j9V3dNGJcTNVKjk/X4Vw+gD
YQOEuNkERTcwUaUjENuVT27n7sGQacTJuPKrhlPQAqKdfVPImHwVP5P+5zqs5i6G
NMH+/A2b/MmgNXDoNvKoqdXsi6CTHVcGgvGphgiGtKV2dFBaxIsU3ynsik49KVFz
k2P2nFpWaNoNLv71G5ZCm+595WjSj+Hz+eRRfMMMK1gmEsbJzCtRLV/2EffuydOe
ZkUzGE5JMrq6FaCQqHJ0ybEpYlws3C9zHz8Eyt0J3kqAsthCuJiUKXu2wNqpUdp/
QniCKQffBST56rygDCxyCR4R/1ddOqiXeIaULHcqIQh9ZmRQdgDx
-----END CERTIFICATE-----
