Certificate:
    Data:
        Version: 3 (0x2)
        Serial Number:
            e1:4c:f2:a6:25:ca:3e:e4
    Signature Algorithm: sha256WithRSAEncryption
        Issuer: C=US, ST=California, L=Santa Clara, O=pkg5, CN=ta1/emailAddress=ta1
        Validity
            Not Before: Nov 16 10:58:46 2017 GMT
            Not After : Aug 12 10:58:46 2020 GMT
        Subject: C=US, ST=California, L=Santa Clara, O=pkg5, CN=ta1/emailAddress=ta1
        Subject Public Key Info:
            Public Key Algorithm: rsaEncryption
                Public-Key: (2048 bit)
                Modulus:
                    00:bf:97:e6:a1:bc:8a:c2:25:26:bb:06:6d:6e:b5:
                    04:03:da:4d:df:53:82:e8:34:65:2f:97:e6:b4:08:
                    0d:34:f3:5a:c0:02:0b:f4:bb:6d:97:cb:8f:b0:38:
                    57:bd:e0:78:39:55:bd:43:b6:83:f9:94:22:54:e4:
                    bb:c2:b8:cd:f7:23:c8:ba:bc:40:e4:98:e7:fe:76:
                    02:06:19:d5:cc:a1:3d:a2:f5:71:00:56:b9:18:15:
                    07:28:7d:18:b5:53:cd:30:b1:46:dc:99:f2:78:ac:
                    c0:aa:4b:4c:ae:2c:ec:e7:be:a1:13:83:b2:cd:25:
                    ed:e9:b1:13:8d:d3:f6:00:c1:76:4a:dd:51:70:03:
                    44:38:ca:2d:52:47:d8:84:08:74:0f:f3:5b:98:75:
                    e5:67:a4:4a:cc:a6:2a:9b:b1:75:98:e5:48:81:c7:
                    c4:e4:b3:9b:c7:7c:d4:da:04:50:70:2e:b5:bd:5f:
                    62:9b:ad:87:e6:83:e9:0d:a3:a4:75:08:10:62:3b:
                    ae:d3:40:f0:82:de:fd:a5:e2:3b:d3:37:ac:ac:18:
                    51:52:88:5b:5f:bd:b6:0a:5d:0f:8e:f0:90:50:bb:
                    94:67:ae:bb:2b:86:08:36:db:a5:11:84:82:fb:dc:
                    d6:45:15:05:56:aa:34:5d:ef:ed:78:39:3c:c7:4c:
                    79:57
                Exponent: 65537 (0x10001)
        X509v3 extensions:
            X509v3 Subject Key Identifier: 
                86:C6:6D:7A:29:0E:FC:4D:1B:3A:F0:85:6E:FC:59:A4:FE:9F:D7:01
            X509v3 Authority Key Identifier: 
                keyid:86:C6:6D:7A:29:0E:FC:4D:1B:3A:F0:85:6E:FC:59:A4:FE:9F:D7:01

            X509v3 Basic Constraints: 
                CA:TRUE
    Signature Algorithm: sha256WithRSAEncryption
         65:a5:33:09:94:52:86:2c:1d:88:d0:c7:84:8d:2a:8a:79:34:
         2e:37:a9:42:55:03:e9:ba:fe:69:38:50:e7:63:0c:5a:a6:e5:
         33:25:16:17:b5:0b:36:f4:64:3b:eb:8e:8f:34:c3:7d:f9:e2:
         f5:fe:85:40:b5:bb:cb:f5:b5:bc:71:cc:c1:f7:38:75:2b:7a:
         0a:dd:2f:3c:99:46:a0:b0:2b:8f:86:5e:d8:fe:1b:20:eb:70:
         91:be:fd:3c:bd:d0:46:a8:76:d5:cc:3a:59:53:28:b7:55:62:
         3b:88:09:5e:84:3b:b8:1d:8a:03:68:44:d2:63:1e:b4:ab:12:
         d4:4c:c8:fe:8f:28:57:13:16:fd:35:45:32:3f:57:57:a0:5c:
         83:18:2a:7e:d1:e3:09:7a:5b:b5:7e:a1:de:c5:bf:b3:e3:88:
         26:3d:ba:15:37:d3:b8:e4:7b:f3:6a:81:c6:57:f3:1d:e1:d5:
         f5:06:b8:c0:f1:9c:ac:e8:eb:bf:69:92:4d:1b:d2:7c:c9:88:
         8b:fe:27:dd:1f:c6:6b:b7:ef:af:5d:27:cf:e7:9b:f5:0a:05:
         fb:ff:e0:f4:22:c3:e7:0f:8d:ae:f8:42:57:af:53:d4:83:63:
         7f:23:61:74:c2:c0:54:b1:32:9a:85:a2:b8:15:e1:1e:98:88:
         c1:c8:46:88
-----BEGIN CERTIFICATE-----
MIIDpTCCAo2gAwIBAgIJAOFM8qYlyj7kMA0GCSqGSIb3DQEBCwUAMGkxCzAJBgNV
BAYTAlVTMRMwEQYDVQQIDApDYWxpZm9ybmlhMRQwEgYDVQQHDAtTYW50YSBDbGFy
YTENMAsGA1UECgwEcGtnNTEMMAoGA1UEAwwDdGExMRIwEAYJKoZIhvcNAQkBFgN0
YTEwHhcNMTcxMTE2MTA1ODQ2WhcNMjAwODEyMTA1ODQ2WjBpMQswCQYDVQQGEwJV
UzETMBEGA1UECAwKQ2FsaWZvcm5pYTEUMBIGA1UEBwwLU2FudGEgQ2xhcmExDTAL
BgNVBAoMBHBrZzUxDDAKBgNVBAMMA3RhMTESMBAGCSqGSIb3DQEJARYDdGExMIIB
IjANBgkqhkiG9w0BAQEFAAOCAQ8AMIIBCgKCAQEAv5fmobyKwiUmuwZtbrUEA9pN
31OC6DRlL5fmtAgNNPNawAIL9Lttl8uPsDhXveB4OVW9Q7aD+ZQiVOS7wrjN9yPI
urxA5Jjn/nYCBhnVzKE9ovVxAFa5GBUHKH0YtVPNMLFG3JnyeKzAqktMrizs576h
E4OyzSXt6bETjdP2AMF2St1RcANEOMotUkfYhAh0D/NbmHXlZ6RKzKYqm7F1mOVI
gcfE5LObx3zU2gRQcC61vV9im62H5oPpDaOkdQgQYjuu00Dwgt79peI70zesrBhR
UohbX722Cl0PjvCQULuUZ667K4YINtulEYSC+9zWRRUFVqo0Xe/teDk8x0x5VwID
AQABo1AwTjAdBgNVHQ4EFgQUhsZteikO/E0bOvCFbvxZpP6f1wEwHwYDVR0jBBgw
FoAUhsZteikO/E0bOvCFbvxZpP6f1wEwDAYDVR0TBAUwAwEB/zANBgkqhkiG9w0B
AQsFAAOCAQEAZaUzCZRShiwdiNDHhI0qink0LjepQlUD6br+aThQ52MMWqblMyUW
F7ULNvRkO+uOjzTDffni9f6FQLW7y/W1vHHMwfc4dSt6Ct0vPJlGoLArj4Ze2P4b
IOtwkb79PL3QRqh21cw6WVMot1ViO4gJXoQ7uB2KA2hE0mMetKsS1EzI/o8oVxMW
/TVFMj9XV6BcgxgqftHjCXpbtX6h3sW/s+OIJj26FTfTuOR782qBxlfzHeHV9Qa4
wPGcrOjrv2mSTRvSfMmIi/4n3R/Ga7fvr10nz+eb9QoF+//g9CLD5w+NrvhCV69T
1INjfyNhdMLAVLEymoWiuBXhHpiIwchGiA==
-----END CERTIFICATE-----
