Certificate:
    Data:
        Version: 3 (0x2)
        Serial Number:
            38:60:4f:38:99:e9:4e:84:30:61:a1:0b:d8:e7:bd:6d:1a:35:7f:52
        Signature Algorithm: sha256WithRSAEncryption
        Issuer: C = US, ST = California, L = Santa Clara, O = pkg5, CN = ta1, emailAddress = ta1
        Validity
            Not Before: Oct 22 10:15:04 2021 GMT
            Not After : Jul 18 10:15:04 2024 GMT
        Subject: C = US, ST = California, L = Santa Clara, O = pkg5, CN = ta1, emailAddress = ta1
        Subject Public Key Info:
            Public Key Algorithm: rsaEncryption
                Public-Key: (2048 bit)
                Modulus:
                    00:bc:d2:e5:83:f5:e9:0f:cf:20:8a:ce:2d:79:1e:
                    92:3a:22:24:c7:db:d7:d5:1e:b3:f2:46:dc:03:9e:
                    8f:a4:2f:4f:18:3f:25:50:8d:54:0b:47:6b:cf:d9:
                    1b:59:51:ec:0f:ac:9d:a8:a0:51:81:94:17:60:52:
                    69:22:f4:80:e7:c3:54:fc:d1:a4:8d:73:93:03:01:
                    28:4a:c3:f2:cf:7a:f7:a1:dc:31:1a:51:10:f2:6d:
                    98:70:cf:73:b7:86:00:4b:79:5d:f1:bf:48:2d:ae:
                    27:05:3f:7e:69:06:7a:36:72:cf:ed:ce:d5:2c:4a:
                    0f:b0:96:61:f0:d7:12:92:4e:46:46:9c:88:38:af:
                    19:b6:7a:b2:5c:b3:5d:1e:ce:2b:55:79:2b:1c:61:
                    ff:b2:b2:62:c5:ec:2c:1d:e0:55:67:b5:cd:56:4c:
                    94:3a:99:eb:99:ef:7e:a0:c6:4b:53:89:35:97:5e:
                    36:b4:db:54:23:32:1f:3c:9d:8e:d8:4b:e9:19:0d:
                    12:c7:56:e8:6d:6b:65:63:62:72:25:b0:6b:54:37:
                    dc:34:94:26:3b:a4:fa:5e:75:d5:34:c4:e4:35:2b:
                    bb:00:67:05:ab:1f:76:c1:eb:0b:28:2d:fc:ec:eb:
                    5f:18:ed:42:79:6c:64:21:bf:55:59:8a:63:f9:00:
                    f0:51
                Exponent: 65537 (0x10001)
        X509v3 extensions:
            X509v3 Subject Key Identifier: 
                B7:44:60:F4:4D:97:53:D6:64:0A:EC:10:0B:0A:18:58:31:62:88:59
            X509v3 Authority Key Identifier: 
                B7:44:60:F4:4D:97:53:D6:64:0A:EC:10:0B:0A:18:58:31:62:88:59
            X509v3 Basic Constraints: critical
                CA:TRUE
    Signature Algorithm: sha256WithRSAEncryption
    Signature Value:
        9a:91:a8:bc:07:49:d1:b6:a8:db:91:63:12:d3:be:cc:73:83:
        76:1c:eb:67:de:ed:cf:63:3d:22:85:45:9b:2a:57:71:9f:8b:
        cb:a4:c4:cd:61:00:46:75:24:2e:48:cb:27:ab:16:fa:bf:5a:
        8e:92:b0:ad:af:a7:32:e7:bf:bb:6b:4d:88:3d:1e:33:62:11:
        84:81:56:c2:eb:4e:3c:de:bc:0d:fb:52:6c:c1:88:52:3d:e8:
        6f:8b:a3:3f:61:7d:54:c6:09:db:29:26:92:30:d8:e1:d7:b4:
        8f:99:c9:15:f8:7e:ff:51:a5:91:63:8d:bc:b8:1d:be:84:39:
        c3:9c:59:e8:54:07:1c:9a:f0:45:30:d5:cf:da:99:bb:d5:96:
        3e:a3:80:78:49:7d:fe:77:f3:a8:9a:a5:16:03:41:e0:e1:fa:
        b1:22:34:5d:b0:db:29:b0:d8:71:11:f5:28:a2:ef:fc:30:e2:
        27:ec:b6:56:75:38:c2:ff:7a:1d:1b:df:4c:2b:6f:ec:e3:32:
        3e:7a:da:0b:69:42:9b:9e:86:07:dd:23:34:1b:ac:7d:60:dd:
        95:cd:32:e8:50:32:5e:95:ad:4e:91:2b:d4:74:de:b1:f6:79:
        98:a2:92:b5:fb:87:fb:fc:68:ab:24:a2:b6:96:ea:b1:18:11:
        94:d5:e9:26
-----BEGIN CERTIFICATE-----
MIIDszCCApugAwIBAgIUOGBPOJnpToQwYaEL2Oe9bRo1f1IwDQYJKoZIhvcNAQEL
BQAwaTELMAkGA1UEBhMCVVMxEzARBgNVBAgMCkNhbGlmb3JuaWExFDASBgNVBAcM
C1NhbnRhIENsYXJhMQ0wCwYDVQQKDARwa2c1MQwwCgYDVQQDDAN0YTExEjAQBgkq
hkiG9w0BCQEWA3RhMTAeFw0yMTEwMjIxMDE1MDRaFw0yNDA3MTgxMDE1MDRaMGkx
CzAJBgNVBAYTAlVTMRMwEQYDVQQIDApDYWxpZm9ybmlhMRQwEgYDVQQHDAtTYW50
YSBDbGFyYTENMAsGA1UECgwEcGtnNTEMMAoGA1UEAwwDdGExMRIwEAYJKoZIhvcN
AQkBFgN0YTEwggEiMA0GCSqGSIb3DQEBAQUAA4IBDwAwggEKAoIBAQC80uWD9ekP
zyCKzi15HpI6IiTH29fVHrPyRtwDno+kL08YPyVQjVQLR2vP2RtZUewPrJ2ooFGB
lBdgUmki9IDnw1T80aSNc5MDAShKw/LPeveh3DEaURDybZhwz3O3hgBLeV3xv0gt
ricFP35pBno2cs/tztUsSg+wlmHw1xKSTkZGnIg4rxm2erJcs10ezitVeSscYf+y
smLF7Cwd4FVntc1WTJQ6meuZ736gxktTiTWXXja021QjMh88nY7YS+kZDRLHVuht
a2VjYnIlsGtUN9w0lCY7pPpeddU0xOQ1K7sAZwWrH3bB6wsoLfzs618Y7UJ5bGQh
v1VZimP5APBRAgMBAAGjUzBRMB0GA1UdDgQWBBS3RGD0TZdT1mQK7BALChhYMWKI
WTAfBgNVHSMEGDAWgBS3RGD0TZdT1mQK7BALChhYMWKIWTAPBgNVHRMBAf8EBTAD
AQH/MA0GCSqGSIb3DQEBCwUAA4IBAQCakai8B0nRtqjbkWMS077Mc4N2HOtn3u3P
Yz0ihUWbKldxn4vLpMTNYQBGdSQuSMsnqxb6v1qOkrCtr6cy57+7a02IPR4zYhGE
gVbC60483rwN+1JswYhSPehvi6M/YX1UxgnbKSaSMNjh17SPmckV+H7/UaWRY428
uB2+hDnDnFnoVAccmvBFMNXP2pm71ZY+o4B4SX3+d/OomqUWA0Hg4fqxIjRdsNsp
sNhxEfUoou/8MOIn7LZWdTjC/3odG99MK2/s4zI+etoLaUKbnoYH3SM0G6x9YN2V
zTLoUDJela1OkSvUdN6x9nmYopK1+4f7/GirJKK2luqxGBGU1ekm
-----END CERTIFICATE-----
