Certificate:
    Data:
        Version: 3 (0x2)
        Serial Number:
            1f:9f:79:31:5c:f0:a0:db:43:4b:04:5f:f9:45:57:bf:51:c8:6f:e7
        Signature Algorithm: sha256WithRSAEncryption
        Issuer: C = US, ST = California, L = Santa Clara, O = pkg5, CN = ta2, emailAddress = ta2
        Validity
            Not Before: Oct 24 21:43:03 2023 GMT
            Not After : Jul 20 21:43:03 2026 GMT
        Subject: C = US, ST = California, L = Santa Clara, O = pkg5, CN = ta2, emailAddress = ta2
        Subject Public Key Info:
            Public Key Algorithm: rsaEncryption
                Public-Key: (2048 bit)
                Modulus:
                    00:bd:7d:c8:5e:41:60:e3:be:91:00:c9:2d:c1:b1:
                    2a:87:b6:0f:a7:2c:c9:25:bb:ec:ea:8e:16:30:8c:
                    a8:53:4e:5c:4f:28:f9:07:f8:71:69:52:ef:f0:98:
                    90:a8:01:49:73:be:7b:d5:d3:49:30:82:eb:9f:f6:
                    4a:c0:84:1e:66:a1:43:5b:98:8a:a3:ee:dd:1e:c3:
                    9e:4d:60:66:66:03:03:c7:06:1a:6b:ca:89:15:28:
                    78:3c:e0:75:c7:95:b1:fd:04:95:df:20:1e:ea:35:
                    11:f7:4d:1c:aa:13:2e:4d:b0:31:06:1b:2f:d3:36:
                    8f:c9:fb:cd:5c:7d:9c:d8:0b:95:a0:93:b2:91:89:
                    29:ea:8f:0b:36:89:b1:98:61:13:3e:e0:b8:bb:c0:
                    bd:6f:77:6f:fe:f4:ce:08:ee:40:34:7a:d3:72:8c:
                    7e:00:94:61:fb:dd:b0:05:31:d2:62:f5:dd:7d:80:
                    d4:1a:cb:36:26:d4:c0:31:d2:fa:42:2a:50:57:4a:
                    d8:55:62:e9:f1:63:a0:8a:dd:7a:14:5b:85:c4:b3:
                    8d:a9:3b:2e:09:36:a0:06:a1:e4:1c:d1:7a:50:34:
                    83:50:6d:7a:5d:85:0a:3f:b9:12:97:d8:4f:06:af:
                    62:1d:cb:16:21:ff:00:7e:93:a3:c4:64:da:6f:5a:
                    25:83
                Exponent: 65537 (0x10001)
        X509v3 extensions:
            X509v3 Subject Key Identifier: 
                93:D3:8A:01:9D:95:31:75:F9:B0:67:5A:C2:44:E9:D6:00:1B:74:DC
            X509v3 Authority Key Identifier: 
                93:D3:8A:01:9D:95:31:75:F9:B0:67:5A:C2:44:E9:D6:00:1B:74:DC
            X509v3 Basic Constraints: critical
                CA:TRUE
    Signature Algorithm: sha256WithRSAEncryption
    Signature Value:
        78:c5:90:fa:2c:50:db:09:be:1e:60:d5:4f:3b:fa:43:e4:d7:
        d7:2f:78:03:cc:9a:76:b4:af:00:cd:11:29:b9:6e:6d:f4:02:
        ef:ce:45:16:53:cc:b0:03:9b:16:21:b0:90:85:a2:98:21:6b:
        64:69:7b:1d:81:2a:bc:31:20:15:54:f8:af:32:6d:48:09:df:
        0c:e3:53:72:74:31:d3:ff:e7:9e:0e:b7:03:9f:e2:2e:c2:50:
        a3:92:cb:b2:f6:2a:b2:36:1e:00:f0:70:0c:5a:18:f9:28:14:
        16:db:41:41:44:e1:46:9a:11:77:35:87:fc:e9:e6:58:ee:ff:
        26:42:63:ee:6c:7f:fd:c1:bb:55:aa:ab:74:cf:d5:cd:ce:b8:
        c0:6f:21:0b:bb:de:36:d6:3a:2a:da:f6:e9:ea:d5:dd:ab:58:
        0d:f3:64:bc:f2:a4:af:89:2b:d4:c1:33:7d:90:4a:91:65:4b:
        f7:bf:35:0b:8c:7b:50:23:d1:0e:c7:45:37:e4:c9:d3:16:88:
        50:fd:46:0b:dd:78:16:45:57:92:60:77:c6:b8:13:42:c0:38:
        63:c2:b6:d8:1e:86:37:99:47:c6:be:d7:8f:32:0e:cc:7d:a4:
        a3:b2:e8:d4:ed:97:45:5e:07:4d:4f:6b:13:7d:64:cb:2e:cf:
        cf:f5:cc:bb
-----BEGIN CERTIFICATE-----
MIIDszCCApugAwIBAgIUH595MVzwoNtDSwRf+UVXv1HIb+cwDQYJKoZIhvcNAQEL
BQAwaTELMAkGA1UEBhMCVVMxEzARBgNVBAgMCkNhbGlmb3JuaWExFDASBgNVBAcM
C1NhbnRhIENsYXJhMQ0wCwYDVQQKDARwa2c1MQwwCgYDVQQDDAN0YTIxEjAQBgkq
hkiG9w0BCQEWA3RhMjAeFw0yMzEwMjQyMTQzMDNaFw0yNjA3MjAyMTQzMDNaMGkx
CzAJBgNVBAYTAlVTMRMwEQYDVQQIDApDYWxpZm9ybmlhMRQwEgYDVQQHDAtTYW50
YSBDbGFyYTENMAsGA1UECgwEcGtnNTEMMAoGA1UEAwwDdGEyMRIwEAYJKoZIhvcN
AQkBFgN0YTIwggEiMA0GCSqGSIb3DQEBAQUAA4IBDwAwggEKAoIBAQC9fcheQWDj
vpEAyS3BsSqHtg+nLMklu+zqjhYwjKhTTlxPKPkH+HFpUu/wmJCoAUlzvnvV00kw
guuf9krAhB5moUNbmIqj7t0ew55NYGZmAwPHBhpryokVKHg84HXHlbH9BJXfIB7q
NRH3TRyqEy5NsDEGGy/TNo/J+81cfZzYC5Wgk7KRiSnqjws2ibGYYRM+4Li7wL1v
d2/+9M4I7kA0etNyjH4AlGH73bAFMdJi9d19gNQayzYm1MAx0vpCKlBXSthVYunx
Y6CK3XoUW4XEs42pOy4JNqAGoeQc0XpQNINQbXpdhQo/uRKX2E8Gr2IdyxYh/wB+
k6PEZNpvWiWDAgMBAAGjUzBRMB0GA1UdDgQWBBST04oBnZUxdfmwZ1rCROnWABt0
3DAfBgNVHSMEGDAWgBST04oBnZUxdfmwZ1rCROnWABt03DAPBgNVHRMBAf8EBTAD
AQH/MA0GCSqGSIb3DQEBCwUAA4IBAQB4xZD6LFDbCb4eYNVPO/pD5NfXL3gDzJp2
tK8AzREpuW5t9ALvzkUWU8ywA5sWIbCQhaKYIWtkaXsdgSq8MSAVVPivMm1ICd8M
41NydDHT/+eeDrcDn+IuwlCjksuy9iqyNh4A8HAMWhj5KBQW20FBROFGmhF3NYf8
6eZY7v8mQmPubH/9wbtVqqt0z9XNzrjAbyELu9421joq2vbp6tXdq1gN82S88qSv
iSvUwTN9kEqRZUv3vzULjHtQI9EOx0U35MnTFohQ/UYL3XgWRVeSYHfGuBNCwDhj
wrbYHoY3mUfGvtePMg7MfaSjsujU7ZdFXgdNT2sTfWTLLs/P9cy7
-----END CERTIFICATE-----
