Certificate:
    Data:
        Version: 3 (0x2)
        Serial Number:
            34:ba:e8:04:0d:5d:4b:6f:03:43:e0:9a:c4:17:d0:a7:c0:ba:a6:49
        Signature Algorithm: sha256WithRSAEncryption
        Issuer: C = US, ST = California, L = Santa Clara, O = pkg5, CN = ta2, emailAddress = ta2
        Validity
            Not Before: Nov 17 23:01:29 2020 GMT
            Not After : Aug 14 23:01:29 2023 GMT
        Subject: C = US, ST = California, L = Santa Clara, O = pkg5, CN = ta2, emailAddress = ta2
        Subject Public Key Info:
            Public Key Algorithm: rsaEncryption
                RSA Public-Key: (2048 bit)
                Modulus:
                    00:b9:33:69:44:29:65:5c:01:39:1e:27:56:c7:ba:
                    ed:da:20:5d:59:8f:52:10:3a:4f:d7:ee:5b:3f:1b:
                    41:34:8c:88:76:a4:dc:25:f6:22:47:40:a6:06:ba:
                    bb:a6:c8:02:a0:20:47:92:40:de:e4:1b:6b:d4:b1:
                    ee:f7:cb:14:b3:17:d4:10:cd:48:7b:f0:6a:f7:5f:
                    b6:08:cd:10:5f:31:50:6a:0e:78:a9:e3:b8:92:de:
                    df:3b:ab:4d:d6:f7:d0:76:8e:a2:db:59:53:83:0c:
                    66:0a:f8:13:92:8d:04:bd:36:d6:b7:27:3a:3b:72:
                    e3:f1:d3:b2:ed:ad:92:21:b5:09:83:d2:00:eb:48:
                    d2:fb:3e:48:2f:70:db:3d:a6:3f:f3:bc:39:fb:8b:
                    7d:62:be:be:4f:9e:43:89:e2:de:46:f1:95:63:2a:
                    08:1d:22:f2:0b:03:9d:0a:d4:41:b2:90:3a:ea:3d:
                    4c:30:43:e9:1c:fa:21:d0:d1:dd:95:39:a4:26:0b:
                    47:3f:2b:5b:52:1d:06:cc:a3:f5:8f:ca:5a:eb:95:
                    74:6b:cf:0a:eb:41:03:44:9b:28:a3:62:c0:fd:fd:
                    d7:cf:cb:f5:43:2a:1e:65:1f:04:49:5d:40:b0:51:
                    d7:5e:38:03:96:20:28:4b:84:1a:01:24:77:2c:d7:
                    49:07
                Exponent: 65537 (0x10001)
        X509v3 extensions:
            X509v3 Subject Key Identifier: 
                0B:4F:8B:02:78:E6:BB:16:FB:30:88:2B:46:20:16:9C:A9:0E:E8:95
            X509v3 Authority Key Identifier: 
                keyid:0B:4F:8B:02:78:E6:BB:16:FB:30:88:2B:46:20:16:9C:A9:0E:E8:95

            X509v3 Basic Constraints: critical
                CA:TRUE
    Signature Algorithm: sha256WithRSAEncryption
         07:20:dc:d5:e2:95:e2:cb:27:64:fa:4c:cc:ac:17:a1:e6:17:
         97:fa:3e:a8:a6:14:6e:ce:b1:c4:4b:d3:07:b1:05:64:82:2e:
         e1:4d:0d:53:10:ba:93:85:56:5a:b7:e3:2f:80:66:b0:f8:cf:
         88:69:3f:9e:e4:89:76:14:b4:47:2e:b0:c9:5f:66:43:16:0d:
         c8:bf:c4:25:c4:5a:c4:1b:66:cf:cd:d7:4d:c8:fc:06:37:8c:
         27:c0:71:67:7a:64:29:52:05:15:47:77:65:b3:de:39:df:6d:
         24:08:88:84:86:10:aa:d8:b0:a4:36:b8:fa:b6:32:a9:29:3d:
         59:ae:1c:8f:dc:ea:77:69:5e:df:27:6f:c3:32:24:eb:ac:69:
         af:d7:81:71:e6:55:83:61:65:62:16:9b:d4:7c:ab:50:83:3c:
         21:54:04:55:f5:00:ae:40:0d:f9:c4:fa:9e:15:36:37:b5:f9:
         0a:db:82:d1:d8:6d:5f:08:07:25:b6:39:96:96:a3:69:03:26:
         be:5e:4e:ca:57:2d:0f:a2:2f:74:52:a0:1f:d4:ad:f9:63:55:
         f1:41:eb:ca:4c:11:62:59:a6:2d:64:db:b6:80:6b:79:83:ae:
         dc:2a:aa:ca:12:60:78:c1:7f:44:20:47:de:e5:31:dc:ef:60:
         e3:e9:e9:0b
-----BEGIN CERTIFICATE-----
MIIDszCCApugAwIBAgIUNLroBA1dS28DQ+CaxBfQp8C6pkkwDQYJKoZIhvcNAQEL
BQAwaTELMAkGA1UEBhMCVVMxEzARBgNVBAgMCkNhbGlmb3JuaWExFDASBgNVBAcM
C1NhbnRhIENsYXJhMQ0wCwYDVQQKDARwa2c1MQwwCgYDVQQDDAN0YTIxEjAQBgkq
hkiG9w0BCQEWA3RhMjAeFw0yMDExMTcyMzAxMjlaFw0yMzA4MTQyMzAxMjlaMGkx
CzAJBgNVBAYTAlVTMRMwEQYDVQQIDApDYWxpZm9ybmlhMRQwEgYDVQQHDAtTYW50
YSBDbGFyYTENMAsGA1UECgwEcGtnNTEMMAoGA1UEAwwDdGEyMRIwEAYJKoZIhvcN
AQkBFgN0YTIwggEiMA0GCSqGSIb3DQEBAQUAA4IBDwAwggEKAoIBAQC5M2lEKWVc
ATkeJ1bHuu3aIF1Zj1IQOk/X7ls/G0E0jIh2pNwl9iJHQKYGurumyAKgIEeSQN7k
G2vUse73yxSzF9QQzUh78Gr3X7YIzRBfMVBqDnip47iS3t87q03W99B2jqLbWVOD
DGYK+BOSjQS9Nta3Jzo7cuPx07LtrZIhtQmD0gDrSNL7PkgvcNs9pj/zvDn7i31i
vr5PnkOJ4t5G8ZVjKggdIvILA50K1EGykDrqPUwwQ+kc+iHQ0d2VOaQmC0c/K1tS
HQbMo/WPylrrlXRrzwrrQQNEmyijYsD9/dfPy/VDKh5lHwRJXUCwUddeOAOWIChL
hBoBJHcs10kHAgMBAAGjUzBRMB0GA1UdDgQWBBQLT4sCeOa7FvswiCtGIBacqQ7o
lTAfBgNVHSMEGDAWgBQLT4sCeOa7FvswiCtGIBacqQ7olTAPBgNVHRMBAf8EBTAD
AQH/MA0GCSqGSIb3DQEBCwUAA4IBAQAHINzV4pXiyydk+kzMrBeh5heX+j6ophRu
zrHES9MHsQVkgi7hTQ1TELqThVZat+MvgGaw+M+IaT+e5Il2FLRHLrDJX2ZDFg3I
v8QlxFrEG2bPzddNyPwGN4wnwHFnemQpUgUVR3dls945320kCIiEhhCq2LCkNrj6
tjKpKT1ZrhyP3Op3aV7fJ2/DMiTrrGmv14Fx5lWDYWViFpvUfKtQgzwhVARV9QCu
QA35xPqeFTY3tfkK24LR2G1fCAcltjmWlqNpAya+Xk7KVy0Poi90UqAf1K35Y1Xx
QevKTBFiWaYtZNu2gGt5g67cKqrKEmB4wX9EIEfe5THc72Dj6ekL
-----END CERTIFICATE-----
