Certificate:
    Data:
        Version: 3 (0x2)
        Serial Number:
            d7:f8:79:26:7d:ec:28:05
    Signature Algorithm: sha256WithRSAEncryption
        Issuer: C=US, ST=California, L=Santa Clara, O=pkg5, CN=ta2/emailAddress=ta2
        Validity
            Not Before: Nov 16 10:58:48 2017 GMT
            Not After : Aug 12 10:58:48 2020 GMT
        Subject: C=US, ST=California, L=Santa Clara, O=pkg5, CN=ta2/emailAddress=ta2
        Subject Public Key Info:
            Public Key Algorithm: rsaEncryption
                Public-Key: (2048 bit)
                Modulus:
                    00:d3:34:87:53:c1:8b:1c:98:96:5d:50:01:e8:24:
                    74:fc:72:86:14:d6:21:b6:1d:3e:9a:02:34:8b:3e:
                    96:a1:12:0d:e7:91:77:17:5a:6b:c1:e6:d5:ac:b7:
                    09:0b:b7:a9:0f:5d:e3:b0:c0:f7:cc:82:b3:21:16:
                    50:ec:81:71:ba:ef:e1:69:fe:56:c9:76:c1:d9:9c:
                    f0:da:74:2f:3a:27:d2:34:62:f9:49:ca:91:db:f2:
                    ec:73:ae:03:3d:73:03:66:67:30:f0:1f:6d:57:cc:
                    c9:3c:51:b5:05:6d:5e:c3:f4:46:2f:cc:4a:f4:4f:
                    bb:5f:c7:87:0a:d0:22:12:13:90:dc:eb:09:d9:ef:
                    f6:1b:d8:c5:d8:a8:c6:02:84:cd:80:b8:e7:48:60:
                    04:5d:60:49:00:fc:66:35:a2:b2:a9:20:c2:a5:f8:
                    14:3e:1b:b1:97:68:83:a4:f0:17:da:ff:7f:20:ba:
                    be:fe:21:03:7c:54:15:14:ec:75:2a:a7:82:0b:5c:
                    2f:3b:96:f2:7c:b9:a3:40:af:5a:ae:dd:e3:07:1c:
                    d1:38:f1:2b:b8:2b:22:96:80:07:27:a5:73:9f:e1:
                    f6:d0:19:e1:07:47:23:2f:4c:e4:a6:15:05:7b:ca:
                    d6:02:34:12:e2:ec:31:b0:db:ad:5f:21:78:59:27:
                    27:49
                Exponent: 65537 (0x10001)
        X509v3 extensions:
            X509v3 Subject Key Identifier: 
                29:5D:71:30:45:41:DF:62:17:4B:33:E9:19:C2:28:A2:84:90:AB:F9
            X509v3 Authority Key Identifier: 
                keyid:29:5D:71:30:45:41:DF:62:17:4B:33:E9:19:C2:28:A2:84:90:AB:F9

            X509v3 Basic Constraints: 
                CA:TRUE
    Signature Algorithm: sha256WithRSAEncryption
         81:f2:1f:b8:29:5a:cf:2e:ac:8a:56:db:cb:c8:25:3f:6e:e6:
         ff:68:6e:e9:3d:80:dc:37:c2:ab:0c:e8:69:68:28:0e:4d:15:
         d3:e0:04:1c:fc:d6:7a:bf:ca:39:2c:8f:ae:bb:6a:d6:a0:a2:
         d6:f6:15:b1:0b:8e:20:32:78:dd:cd:49:4c:f0:57:bc:5a:41:
         91:37:3c:43:da:2c:89:7f:09:21:57:e0:82:bf:5a:62:ff:af:
         51:22:c0:4f:04:e7:8e:80:45:87:c1:f2:7f:05:83:f7:42:11:
         14:71:e4:e5:b0:71:b5:33:a7:a0:3b:f5:94:50:d3:e8:84:fc:
         f5:74:bc:28:5e:89:46:9d:be:7c:8f:21:a1:e0:c1:b8:58:d9:
         ed:51:47:1d:29:46:0d:80:f4:3e:a0:4f:07:0b:d6:80:b8:85:
         56:97:9c:3b:8b:2a:99:26:f6:c5:dd:70:65:e8:5f:99:6f:d0:
         41:c0:f4:a7:c3:73:36:3b:22:3a:8f:9e:c0:49:f3:b3:b7:4f:
         d8:4a:54:3c:6c:7f:be:4d:8f:9e:d8:ff:9f:73:8f:16:24:c8:
         b8:ef:e3:bc:12:d1:89:fa:bd:34:6e:65:49:d1:63:9a:b3:e6:
         23:6d:6d:fb:5d:6b:06:52:11:f8:e9:6d:ed:eb:f0:97:f5:61:
         d8:0e:95:ed
-----BEGIN CERTIFICATE-----
MIIDpTCCAo2gAwIBAgIJANf4eSZ97CgFMA0GCSqGSIb3DQEBCwUAMGkxCzAJBgNV
BAYTAlVTMRMwEQYDVQQIDApDYWxpZm9ybmlhMRQwEgYDVQQHDAtTYW50YSBDbGFy
YTENMAsGA1UECgwEcGtnNTEMMAoGA1UEAwwDdGEyMRIwEAYJKoZIhvcNAQkBFgN0
YTIwHhcNMTcxMTE2MTA1ODQ4WhcNMjAwODEyMTA1ODQ4WjBpMQswCQYDVQQGEwJV
UzETMBEGA1UECAwKQ2FsaWZvcm5pYTEUMBIGA1UEBwwLU2FudGEgQ2xhcmExDTAL
BgNVBAoMBHBrZzUxDDAKBgNVBAMMA3RhMjESMBAGCSqGSIb3DQEJARYDdGEyMIIB
IjANBgkqhkiG9w0BAQEFAAOCAQ8AMIIBCgKCAQEA0zSHU8GLHJiWXVAB6CR0/HKG
FNYhth0+mgI0iz6WoRIN55F3F1prwebVrLcJC7epD13jsMD3zIKzIRZQ7IFxuu/h
af5WyXbB2Zzw2nQvOifSNGL5ScqR2/Lsc64DPXMDZmcw8B9tV8zJPFG1BW1ew/RG
L8xK9E+7X8eHCtAiEhOQ3OsJ2e/2G9jF2KjGAoTNgLjnSGAEXWBJAPxmNaKyqSDC
pfgUPhuxl2iDpPAX2v9/ILq+/iEDfFQVFOx1KqeCC1wvO5byfLmjQK9art3jBxzR
OPEruCsiloAHJ6Vzn+H20BnhB0cjL0zkphUFe8rWAjQS4uwxsNutXyF4WScnSQID
AQABo1AwTjAdBgNVHQ4EFgQUKV1xMEVB32IXSzPpGcIoooSQq/kwHwYDVR0jBBgw
FoAUKV1xMEVB32IXSzPpGcIoooSQq/kwDAYDVR0TBAUwAwEB/zANBgkqhkiG9w0B
AQsFAAOCAQEAgfIfuClazy6silbby8glP27m/2hu6T2A3DfCqwzoaWgoDk0V0+AE
HPzWer/KOSyPrrtq1qCi1vYVsQuOIDJ43c1JTPBXvFpBkTc8Q9osiX8JIVfggr9a
Yv+vUSLATwTnjoBFh8HyfwWD90IRFHHk5bBxtTOnoDv1lFDT6IT89XS8KF6JRp2+
fI8hoeDBuFjZ7VFHHSlGDYD0PqBPBwvWgLiFVpecO4sqmSb2xd1wZehfmW/QQcD0
p8NzNjsiOo+ewEnzs7dP2EpUPGx/vk2Pntj/n3OPFiTIuO/jvBLRifq9NG5lSdFj
mrPmI21t+11rBlIR+Olt7evwl/Vh2A6V7Q==
-----END CERTIFICATE-----
