Certificate:
    Data:
        Version: 3 (0x2)
        Serial Number:
            7f:48:5d:df:59:67:b4:71:a2:bd:af:46:00:c2:91:56:67:ed:fc:e7
        Signature Algorithm: sha256WithRSAEncryption
        Issuer: C = US, ST = California, L = Santa Clara, O = pkg5, CN = ta2, emailAddress = ta2
        Validity
            Not Before: May 23 15:47:16 2024 GMT
            Not After : Feb 17 15:47:16 2027 GMT
        Subject: C = US, ST = California, L = Santa Clara, O = pkg5, CN = ta2, emailAddress = ta2
        Subject Public Key Info:
            Public Key Algorithm: rsaEncryption
                Public-Key: (2048 bit)
                Modulus:
                    00:c1:b7:73:0d:3e:04:2e:0b:95:91:f2:06:9c:01:
                    ed:20:06:12:19:f7:7b:c0:6a:7c:46:f2:87:dd:87:
                    a7:2b:e1:f3:fa:95:78:05:57:5f:a5:05:08:cc:71:
                    ca:f8:54:8f:8b:9f:a5:74:60:a0:98:b3:99:c7:48:
                    ea:76:49:fd:3e:fc:6e:82:c0:86:e9:89:1b:65:88:
                    4f:91:c8:9c:f2:27:55:83:4f:a1:51:b6:8e:6f:a0:
                    24:8c:1f:e1:f7:de:a5:2b:30:12:5b:b0:11:93:6a:
                    99:3d:16:15:2c:ba:fa:44:28:8e:dd:8c:a9:dd:35:
                    70:22:be:fd:c6:27:6d:b8:9d:93:6c:77:ef:84:c2:
                    1b:5d:51:26:d7:1f:65:7b:f5:bf:5f:af:7a:9e:2f:
                    77:44:f9:f5:34:a9:6f:3f:5e:9c:60:dc:49:0a:28:
                    39:3d:55:c5:7e:f8:65:ec:c0:cf:fd:04:bb:8c:e0:
                    f2:36:6d:c8:a7:7a:3f:54:b1:de:86:72:1a:67:71:
                    63:7d:ac:b5:4a:73:1e:c8:64:15:11:56:94:b9:bd:
                    9c:53:25:ca:ac:d9:a1:ae:89:06:7c:04:24:27:72:
                    f4:93:28:c8:a0:f2:f2:c3:45:0d:aa:60:8e:73:bf:
                    7c:2a:ee:15:1f:8e:0f:82:6d:e9:9b:93:0a:4b:3c:
                    46:b3
                Exponent: 65537 (0x10001)
        X509v3 extensions:
            X509v3 Subject Key Identifier: 
                45:53:B8:41:6D:F8:F3:8E:92:DD:70:49:F4:EF:9E:D9:AA:D7:51:A3
            X509v3 Authority Key Identifier: 
                45:53:B8:41:6D:F8:F3:8E:92:DD:70:49:F4:EF:9E:D9:AA:D7:51:A3
            X509v3 Basic Constraints: critical
                CA:TRUE
    Signature Algorithm: sha256WithRSAEncryption
    Signature Value:
        25:c6:5b:a2:d9:72:67:d6:55:cb:64:2b:62:95:37:cf:a6:4d:
        0b:2f:d4:0e:46:df:3a:a0:9b:3c:b7:1a:f3:30:2f:32:0e:78:
        b6:c0:7f:21:f7:ef:14:34:24:2d:ea:c0:8e:21:92:d4:d2:40:
        10:f4:cd:b1:26:d8:ca:2a:c0:64:92:69:fb:96:36:9c:6b:34:
        73:47:ec:85:f6:ea:99:5e:95:17:1c:3c:14:15:f9:80:6e:33:
        fc:5c:0c:86:76:20:2e:cf:37:8f:e1:c7:19:63:25:f1:d9:d3:
        37:69:cf:4b:97:c6:fa:b8:b0:8d:fd:c1:b4:44:c9:a7:db:42:
        71:20:59:23:6b:7d:ae:7d:13:c4:99:20:c1:db:82:7d:64:62:
        62:8f:69:7d:8c:a9:fc:b0:95:9c:c5:4d:d4:32:ca:3d:10:23:
        7f:21:90:a6:dc:b1:df:a5:d5:ef:73:5a:bc:83:a3:74:c0:ed:
        98:c8:2b:1a:49:b9:07:42:7b:b2:ae:64:0b:b5:9c:e0:f5:c7:
        7a:31:fb:15:77:9c:f2:42:85:87:eb:e6:2f:a6:2d:e0:e8:f5:
        11:1d:59:37:21:2f:c4:b7:3d:c6:6f:c6:7b:c3:78:d0:95:f5:
        96:8a:fb:b9:6e:05:83:5e:68:b9:9c:fe:b6:c2:d3:59:ee:3e:
        6a:ad:68:3f
-----BEGIN CERTIFICATE-----
MIIDszCCApugAwIBAgIUf0hd31lntHGiva9GAMKRVmft/OcwDQYJKoZIhvcNAQEL
BQAwaTELMAkGA1UEBhMCVVMxEzARBgNVBAgMCkNhbGlmb3JuaWExFDASBgNVBAcM
C1NhbnRhIENsYXJhMQ0wCwYDVQQKDARwa2c1MQwwCgYDVQQDDAN0YTIxEjAQBgkq
hkiG9w0BCQEWA3RhMjAeFw0yNDA1MjMxNTQ3MTZaFw0yNzAyMTcxNTQ3MTZaMGkx
CzAJBgNVBAYTAlVTMRMwEQYDVQQIDApDYWxpZm9ybmlhMRQwEgYDVQQHDAtTYW50
YSBDbGFyYTENMAsGA1UECgwEcGtnNTEMMAoGA1UEAwwDdGEyMRIwEAYJKoZIhvcN
AQkBFgN0YTIwggEiMA0GCSqGSIb3DQEBAQUAA4IBDwAwggEKAoIBAQDBt3MNPgQu
C5WR8gacAe0gBhIZ93vAanxG8ofdh6cr4fP6lXgFV1+lBQjMccr4VI+Ln6V0YKCY
s5nHSOp2Sf0+/G6CwIbpiRtliE+RyJzyJ1WDT6FRto5voCSMH+H33qUrMBJbsBGT
apk9FhUsuvpEKI7djKndNXAivv3GJ224nZNsd++EwhtdUSbXH2V79b9fr3qeL3dE
+fU0qW8/Xpxg3EkKKDk9VcV++GXswM/9BLuM4PI2bcinej9Usd6GchpncWN9rLVK
cx7IZBURVpS5vZxTJcqs2aGuiQZ8BCQncvSTKMig8vLDRQ2qYI5zv3wq7hUfjg+C
bembkwpLPEazAgMBAAGjUzBRMB0GA1UdDgQWBBRFU7hBbfjzjpLdcEn0757ZqtdR
ozAfBgNVHSMEGDAWgBRFU7hBbfjzjpLdcEn0757ZqtdRozAPBgNVHRMBAf8EBTAD
AQH/MA0GCSqGSIb3DQEBCwUAA4IBAQAlxlui2XJn1lXLZCtilTfPpk0LL9QORt86
oJs8txrzMC8yDni2wH8h9+8UNCQt6sCOIZLU0kAQ9M2xJtjKKsBkkmn7ljacazRz
R+yF9uqZXpUXHDwUFfmAbjP8XAyGdiAuzzeP4ccZYyXx2dM3ac9Ll8b6uLCN/cG0
RMmn20JxIFkja32ufRPEmSDB24J9ZGJij2l9jKn8sJWcxU3UMso9ECN/IZCm3LHf
pdXvc1q8g6N0wO2YyCsaSbkHQnuyrmQLtZzg9cd6MfsVd5zyQoWH6+Yvpi3g6PUR
HVk3IS/Etz3Gb8Z7w3jQlfWWivu5bgWDXmi5nP62wtNZ7j5qrWg/
-----END CERTIFICATE-----
