Certificate:
    Data:
        Version: 3 (0x2)
        Serial Number:
            2c:1a:47:db:f0:62:47:7c:45:c7:60:8c:fe:88:79:69:ed:48:75:9c
        Signature Algorithm: sha256WithRSAEncryption
        Issuer: C = US, ST = California, L = Santa Clara, O = pkg5, CN = ta2, emailAddress = ta2
        Validity
            Not Before: Dec 15 15:37:19 2022 GMT
            Not After : Sep 10 15:37:19 2025 GMT
        Subject: C = US, ST = California, L = Santa Clara, O = pkg5, CN = ta2, emailAddress = ta2
        Subject Public Key Info:
            Public Key Algorithm: rsaEncryption
                Public-Key: (2048 bit)
                Modulus:
                    00:99:e5:2c:94:d8:ca:a5:9d:e4:7c:ba:f4:c9:18:
                    51:74:55:c7:a5:6c:51:03:23:eb:a9:00:d8:fd:b7:
                    33:5e:02:40:87:9e:dc:3c:9d:78:59:77:52:ca:8a:
                    cd:2b:58:c2:63:ce:c1:bd:df:eb:2c:a9:75:01:5c:
                    f2:01:78:26:27:22:9b:4b:50:fe:2f:d5:ec:46:42:
                    80:00:9c:66:45:70:f8:3c:82:41:bd:c3:6f:3c:1d:
                    5a:e7:b4:99:88:55:4e:3f:bf:f4:db:a4:a3:26:ca:
                    ea:17:06:72:ea:c5:d4:de:4b:76:4c:7b:70:12:fc:
                    2b:65:fd:d9:91:b5:c5:7b:78:48:0e:bb:9b:49:db:
                    f8:8a:4e:1f:23:e5:ec:d6:13:22:04:09:f8:98:a4:
                    7a:55:96:14:6a:91:25:bc:ff:47:ab:23:c2:ed:94:
                    d4:b1:9a:d0:1b:04:a4:0c:99:45:07:53:77:d1:b3:
                    ce:7a:cb:09:e6:e0:f6:c7:52:e8:16:8e:5e:77:df:
                    d1:d3:9e:f5:16:1f:18:9e:08:50:d6:0f:d2:58:20:
                    ca:c4:ba:e3:93:14:fc:de:6f:39:17:be:14:21:df:
                    9e:2f:6e:7a:23:6d:55:ee:91:7a:f3:03:d9:97:21:
                    69:55:db:f8:a0:5f:ab:ae:46:2c:f8:45:47:f0:e7:
                    ad:c7
                Exponent: 65537 (0x10001)
        X509v3 extensions:
            X509v3 Subject Key Identifier: 
                3A:6E:21:7D:E5:7B:17:4A:F0:17:E9:98:90:73:FE:D2:4C:AF:48:82
            X509v3 Authority Key Identifier: 
                3A:6E:21:7D:E5:7B:17:4A:F0:17:E9:98:90:73:FE:D2:4C:AF:48:82
            X509v3 Basic Constraints: critical
                CA:TRUE
    Signature Algorithm: sha256WithRSAEncryption
    Signature Value:
        93:5c:e5:43:33:15:b3:db:22:90:7c:5f:db:d9:ef:97:05:c5:
        3f:3f:d8:98:69:7d:c8:00:54:7a:f4:90:43:9c:2b:3a:bf:56:
        d7:0c:60:0c:5f:fa:18:4d:59:90:12:5c:84:bd:d3:04:dc:a1:
        1f:f2:ad:e5:8a:29:c4:05:b3:f6:5c:fa:31:e5:d7:12:92:bd:
        47:9f:cd:ad:6e:0c:ed:96:e3:a6:a3:7c:7e:dd:48:43:c7:fc:
        a2:e7:1b:c5:d0:53:39:80:b0:54:90:39:50:5e:a6:7d:14:6a:
        68:6e:01:86:29:43:4a:8a:68:28:3a:06:98:6b:29:8a:e0:5c:
        33:1e:f7:07:3b:b4:8a:f6:8c:d7:53:86:e1:31:b4:bc:bc:ab:
        25:c3:8e:3e:4c:d2:62:cf:b8:aa:b2:fe:ef:55:78:c9:4a:b4:
        f4:b8:d1:49:9f:e2:76:f3:50:38:cd:64:6d:db:c9:85:9b:25:
        7f:a0:c2:f1:f2:a7:20:73:b4:31:c6:d6:3d:24:49:1c:c9:f7:
        bc:b2:e5:bb:ec:7c:c9:70:c0:49:47:2d:82:01:07:37:3d:b1:
        bb:41:01:30:10:44:90:b8:23:7f:0c:64:b3:dd:c4:a1:a0:7b:
        16:2b:4a:f9:f9:29:8e:e3:bd:6c:8d:d7:0c:72:6d:e0:6d:b0:
        10:0e:72:2f
-----BEGIN CERTIFICATE-----
MIIDszCCApugAwIBAgIULBpH2/BiR3xFx2CM/oh5ae1IdZwwDQYJKoZIhvcNAQEL
BQAwaTELMAkGA1UEBhMCVVMxEzARBgNVBAgMCkNhbGlmb3JuaWExFDASBgNVBAcM
C1NhbnRhIENsYXJhMQ0wCwYDVQQKDARwa2c1MQwwCgYDVQQDDAN0YTIxEjAQBgkq
hkiG9w0BCQEWA3RhMjAeFw0yMjEyMTUxNTM3MTlaFw0yNTA5MTAxNTM3MTlaMGkx
CzAJBgNVBAYTAlVTMRMwEQYDVQQIDApDYWxpZm9ybmlhMRQwEgYDVQQHDAtTYW50
YSBDbGFyYTENMAsGA1UECgwEcGtnNTEMMAoGA1UEAwwDdGEyMRIwEAYJKoZIhvcN
AQkBFgN0YTIwggEiMA0GCSqGSIb3DQEBAQUAA4IBDwAwggEKAoIBAQCZ5SyU2Mql
neR8uvTJGFF0VcelbFEDI+upANj9tzNeAkCHntw8nXhZd1LKis0rWMJjzsG93+ss
qXUBXPIBeCYnIptLUP4v1exGQoAAnGZFcPg8gkG9w288HVrntJmIVU4/v/TbpKMm
yuoXBnLqxdTeS3ZMe3AS/Ctl/dmRtcV7eEgOu5tJ2/iKTh8j5ezWEyIECfiYpHpV
lhRqkSW8/0erI8LtlNSxmtAbBKQMmUUHU3fRs856ywnm4PbHUugWjl5339HTnvUW
HxieCFDWD9JYIMrEuuOTFPzebzkXvhQh354vbnojbVXukXrzA9mXIWlV2/igX6uu
Riz4RUfw563HAgMBAAGjUzBRMB0GA1UdDgQWBBQ6biF95XsXSvAX6ZiQc/7STK9I
gjAfBgNVHSMEGDAWgBQ6biF95XsXSvAX6ZiQc/7STK9IgjAPBgNVHRMBAf8EBTAD
AQH/MA0GCSqGSIb3DQEBCwUAA4IBAQCTXOVDMxWz2yKQfF/b2e+XBcU/P9iYaX3I
AFR69JBDnCs6v1bXDGAMX/oYTVmQElyEvdME3KEf8q3liinEBbP2XPox5dcSkr1H
n82tbgztluOmo3x+3UhDx/yi5xvF0FM5gLBUkDlQXqZ9FGpobgGGKUNKimgoOgaY
aymK4FwzHvcHO7SK9ozXU4bhMbS8vKslw44+TNJiz7iqsv7vVXjJSrT0uNFJn+J2
81A4zWRt28mFmyV/oMLx8qcgc7QxxtY9JEkcyfe8suW77HzJcMBJRy2CAQc3PbG7
QQEwEESQuCN/DGSz3cShoHsWK0r5+SmO471sjdcMcm3gbbAQDnIv
-----END CERTIFICATE-----
