Certificate:
    Data:
        Version: 3 (0x2)
        Serial Number:
            d0:98:04:8b:f6:5f:34:a8
    Signature Algorithm: sha256WithRSAEncryption
        Issuer: C=US, ST=California, L=Santa Clara, O=pkg5, CN=ta2/emailAddress=ta2
        Validity
            Not Before: Nov 28 22:50:56 2016 GMT
            Not After : Aug 25 22:50:56 2019 GMT
        Subject: C=US, ST=California, L=Santa Clara, O=pkg5, CN=ta2/emailAddress=ta2
        Subject Public Key Info:
            Public Key Algorithm: rsaEncryption
                Public-Key: (2048 bit)
                Modulus:
                    00:b3:d5:e6:02:a9:c7:85:23:49:6a:5d:33:2a:c9:
                    ec:ad:33:3b:fa:d1:2f:49:77:b2:bf:7b:02:86:0b:
                    ec:fc:b9:8e:16:0f:21:9d:bc:de:9d:fb:d3:c0:c5:
                    21:91:34:fa:34:fa:fe:e8:c0:4e:89:64:41:f3:93:
                    60:81:31:c7:4f:40:bf:a1:ea:97:24:ad:3f:40:94:
                    8b:db:23:2e:e6:88:19:c7:e6:56:dd:2d:4b:a4:3d:
                    cc:2b:0c:19:5e:89:8d:27:7d:72:b3:3f:6b:9e:52:
                    60:75:c7:86:22:b2:97:66:0c:d0:ce:6b:7d:63:c3:
                    c8:d8:38:d7:e0:b4:9a:33:67:d9:d3:85:17:7d:d3:
                    c6:ef:e3:07:cf:b8:d6:93:82:b3:d6:a3:36:52:6b:
                    5d:06:26:ff:cb:d6:a0:61:ec:82:c0:77:df:63:7b:
                    95:99:99:4a:73:d7:49:d0:8c:df:01:19:e1:71:e9:
                    e9:4d:2a:9c:88:b7:fe:48:cb:c7:4f:c4:9d:50:5f:
                    6a:83:58:36:35:8d:ae:f6:28:03:3d:04:db:4a:b0:
                    70:30:31:9c:cd:3b:79:2f:d3:fe:43:b3:78:9c:95:
                    2e:4a:4b:36:09:96:ef:cc:99:d9:38:be:d4:ff:d4:
                    3d:cf:e2:d0:8f:50:83:b7:34:63:4a:bd:f6:eb:4a:
                    e2:b5
                Exponent: 65537 (0x10001)
        X509v3 extensions:
            X509v3 Subject Key Identifier: 
                6E:6B:41:B6:35:4C:25:6A:06:68:41:81:98:AF:72:27:89:CB:2C:90
            X509v3 Authority Key Identifier: 
                keyid:6E:6B:41:B6:35:4C:25:6A:06:68:41:81:98:AF:72:27:89:CB:2C:90

            X509v3 Basic Constraints: 
                CA:TRUE
    Signature Algorithm: sha256WithRSAEncryption
         4e:70:1f:e2:08:9d:b5:30:82:ad:58:63:c7:4f:e7:68:28:68:
         18:bc:b1:64:ac:6e:67:2e:e3:7b:3a:57:33:64:51:a6:03:b2:
         9a:e2:3e:31:b4:d7:52:bc:95:eb:24:f2:e4:9c:f4:57:66:ef:
         3d:41:b3:7e:3a:29:67:4f:9f:cd:33:c4:44:b3:db:91:d8:ad:
         7e:f8:63:db:02:8e:8a:3c:d8:78:71:ff:ed:ac:0e:96:f9:49:
         b6:96:36:2a:db:c2:89:65:0f:5a:0e:47:0c:10:0a:1d:e5:56:
         76:65:55:91:dc:cc:b2:a2:12:15:93:45:81:dd:f3:6a:92:0e:
         1b:7c:61:f8:55:39:e0:0c:e2:8c:48:8e:4d:b1:36:11:3e:49:
         2c:f9:5b:1d:23:a7:c0:ac:5f:fd:f0:fd:5f:2c:b7:c4:39:a1:
         e5:67:ed:6a:38:57:73:e4:c8:97:a9:cd:7c:05:0b:26:29:ac:
         f9:46:24:f2:10:5e:34:f3:1c:bd:6e:30:28:10:00:33:5d:07:
         7e:aa:27:0c:19:1f:91:01:1b:79:8d:7a:d0:ac:d5:02:94:f9:
         07:13:6c:13:f4:2a:42:c5:bd:1e:33:06:59:39:4d:81:ef:83:
         8b:8c:8a:40:30:37:5d:53:7d:ca:89:8a:91:6c:d5:91:ac:09:
         35:b9:be:30
-----BEGIN CERTIFICATE-----
MIIDpTCCAo2gAwIBAgIJANCYBIv2XzSoMA0GCSqGSIb3DQEBCwUAMGkxCzAJBgNV
BAYTAlVTMRMwEQYDVQQIDApDYWxpZm9ybmlhMRQwEgYDVQQHDAtTYW50YSBDbGFy
YTENMAsGA1UECgwEcGtnNTEMMAoGA1UEAwwDdGEyMRIwEAYJKoZIhvcNAQkBFgN0
YTIwHhcNMTYxMTI4MjI1MDU2WhcNMTkwODI1MjI1MDU2WjBpMQswCQYDVQQGEwJV
UzETMBEGA1UECAwKQ2FsaWZvcm5pYTEUMBIGA1UEBwwLU2FudGEgQ2xhcmExDTAL
BgNVBAoMBHBrZzUxDDAKBgNVBAMMA3RhMjESMBAGCSqGSIb3DQEJARYDdGEyMIIB
IjANBgkqhkiG9w0BAQEFAAOCAQ8AMIIBCgKCAQEAs9XmAqnHhSNJal0zKsnsrTM7
+tEvSXeyv3sChgvs/LmOFg8hnbzenfvTwMUhkTT6NPr+6MBOiWRB85NggTHHT0C/
oeqXJK0/QJSL2yMu5ogZx+ZW3S1LpD3MKwwZXomNJ31ysz9rnlJgdceGIrKXZgzQ
zmt9Y8PI2DjX4LSaM2fZ04UXfdPG7+MHz7jWk4Kz1qM2UmtdBib/y9agYeyCwHff
Y3uVmZlKc9dJ0IzfARnhcenpTSqciLf+SMvHT8SdUF9qg1g2NY2u9igDPQTbSrBw
MDGczTt5L9P+Q7N4nJUuSks2CZbvzJnZOL7U/9Q9z+LQj1CDtzRjSr3260ritQID
AQABo1AwTjAdBgNVHQ4EFgQUbmtBtjVMJWoGaEGBmK9yJ4nLLJAwHwYDVR0jBBgw
FoAUbmtBtjVMJWoGaEGBmK9yJ4nLLJAwDAYDVR0TBAUwAwEB/zANBgkqhkiG9w0B
AQsFAAOCAQEATnAf4gidtTCCrVhjx0/naChoGLyxZKxuZy7jezpXM2RRpgOymuI+
MbTXUryV6yTy5Jz0V2bvPUGzfjopZ0+fzTPERLPbkditfvhj2wKOijzYeHH/7awO
lvlJtpY2KtvCiWUPWg5HDBAKHeVWdmVVkdzMsqISFZNFgd3zapIOG3xh+FU54Azi
jEiOTbE2ET5JLPlbHSOnwKxf/fD9Xyy3xDmh5WftajhXc+TIl6nNfAULJims+UYk
8hBeNPMcvW4wKBAAM10HfqonDBkfkQEbeY160KzVApT5BxNsE/QqQsW9HjMGWTlN
ge+Di4yKQDA3XVN9yomKkWzVkawJNbm+MA==
-----END CERTIFICATE-----
