Certificate:
    Data:
        Version: 3 (0x2)
        Serial Number: 14372886552181459917 (0xc776c02b1bc3cbcd)
    Signature Algorithm: sha256WithRSAEncryption
        Issuer: C=US, ST=California, L=Santa Clara, O=pkg5, CN=ta2/emailAddress=ta2
        Validity
            Not Before: Dec  6 03:06:42 2014 GMT
            Not After : Sep  1 03:06:42 2017 GMT
        Subject: C=US, ST=California, L=Santa Clara, O=pkg5, CN=ta2/emailAddress=ta2
        Subject Public Key Info:
            Public Key Algorithm: rsaEncryption
                Public-Key: (1024 bit)
                Modulus:
                    00:de:91:cf:6d:7a:cb:37:98:d0:09:1c:af:89:ee:
                    16:36:95:1f:c1:28:2a:a3:2e:fc:a8:46:28:d0:8a:
                    24:9b:e9:92:23:81:a2:35:02:07:3a:d0:f1:11:15:
                    5d:2c:de:7f:d2:a4:0a:de:37:c8:52:85:3a:42:63:
                    33:2d:49:f5:7a:0d:48:98:80:17:dd:7b:a1:93:00:
                    59:34:72:58:68:2c:5c:2e:b5:8e:8c:36:06:aa:59:
                    be:55:53:8f:ab:43:97:cd:48:e1:5a:90:7b:6d:60:
                    5f:78:61:4d:b9:ec:b7:ed:f7:09:05:c7:1b:b8:a8:
                    ce:07:e5:ab:25:33:16:1c:53
                Exponent: 65537 (0x10001)
        X509v3 extensions:
            X509v3 Subject Key Identifier: 
                B9:A9:E8:B7:AC:83:A3:C5:D4:A1:BE:A3:9D:EE:29:DC:B5:75:52:49
            X509v3 Authority Key Identifier: 
                keyid:B9:A9:E8:B7:AC:83:A3:C5:D4:A1:BE:A3:9D:EE:29:DC:B5:75:52:49

            X509v3 Basic Constraints: 
                CA:TRUE
    Signature Algorithm: sha256WithRSAEncryption
         9d:64:c7:ec:de:08:5f:66:e0:55:6e:a2:8e:0f:82:66:1f:10:
         d1:e4:b5:48:8b:01:f9:dd:3e:93:bf:14:de:a3:6b:4e:a8:b9:
         88:92:23:32:87:0b:d3:1e:12:a9:e5:73:26:52:c3:28:5e:7e:
         44:23:94:cc:0f:f1:36:1c:78:29:de:40:c3:e6:dc:f1:f5:68:
         63:3d:2a:bd:10:41:ce:c8:f4:fa:02:e9:65:af:18:63:fe:a0:
         de:88:fb:ed:04:36:b3:b4:fa:c7:d4:e8:a1:f5:c9:a0:ab:54:
         34:df:64:b7:dc:c9:c2:43:70:24:d1:44:c0:48:7e:ef:4c:6a:
         33:e9
-----BEGIN CERTIFICATE-----
MIICoDCCAgmgAwIBAgIJAMd2wCsbw8vNMA0GCSqGSIb3DQEBCwUAMGkxCzAJBgNV
BAYTAlVTMRMwEQYDVQQIDApDYWxpZm9ybmlhMRQwEgYDVQQHDAtTYW50YSBDbGFy
YTENMAsGA1UECgwEcGtnNTEMMAoGA1UEAwwDdGEyMRIwEAYJKoZIhvcNAQkBFgN0
YTIwHhcNMTQxMjA2MDMwNjQyWhcNMTcwOTAxMDMwNjQyWjBpMQswCQYDVQQGEwJV
UzETMBEGA1UECAwKQ2FsaWZvcm5pYTEUMBIGA1UEBwwLU2FudGEgQ2xhcmExDTAL
BgNVBAoMBHBrZzUxDDAKBgNVBAMMA3RhMjESMBAGCSqGSIb3DQEJARYDdGEyMIGf
MA0GCSqGSIb3DQEBAQUAA4GNADCBiQKBgQDekc9tess3mNAJHK+J7hY2lR/BKCqj
LvyoRijQiiSb6ZIjgaI1Agc60PERFV0s3n/SpAreN8hShTpCYzMtSfV6DUiYgBfd
e6GTAFk0clhoLFwutY6MNgaqWb5VU4+rQ5fNSOFakHttYF94YU257Lft9wkFxxu4
qM4H5aslMxYcUwIDAQABo1AwTjAdBgNVHQ4EFgQUuanot6yDo8XUob6jne4p3LV1
UkkwHwYDVR0jBBgwFoAUuanot6yDo8XUob6jne4p3LV1UkkwDAYDVR0TBAUwAwEB
/zANBgkqhkiG9w0BAQsFAAOBgQCdZMfs3ghfZuBVbqKOD4JmHxDR5LVIiwH53T6T
vxTeo2tOqLmIkiMyhwvTHhKp5XMmUsMoXn5EI5TMD/E2HHgp3kDD5tzx9WhjPSq9
EEHOyPT6Aullrxhj/qDeiPvtBDaztPrH1Oih9cmgq1Q032S33MnCQ3Ak0UTASH7v
TGoz6Q==
-----END CERTIFICATE-----
