Certificate:
    Data:
        Version: 3 (0x2)
        Serial Number: 10657657889350254047 (0x93e79b62385c7ddf)
    Signature Algorithm: sha256WithRSAEncryption
        Issuer: C=US, ST=California, L=Santa Clara, O=pkg5, CN=ta3/emailAddress=ta3
        Validity
            Not Before: Dec  6 03:06:42 2014 GMT
            Not After : Sep  1 03:06:42 2017 GMT
        Subject: C=US, ST=California, L=Santa Clara, O=pkg5, CN=ta3/emailAddress=ta3
        Subject Public Key Info:
            Public Key Algorithm: rsaEncryption
                Public-Key: (1024 bit)
                Modulus:
                    00:ad:bf:8d:31:30:e2:76:59:ae:fe:8b:b7:2c:bb:
                    fa:66:51:b5:3d:c2:c3:05:d3:c9:45:e1:87:f0:0d:
                    f6:f9:84:a2:c4:9a:5f:c9:02:7c:6c:bb:23:b1:8c:
                    fc:6c:a6:0a:70:32:74:4f:4e:ae:8f:c9:a1:3a:ee:
                    74:de:55:09:d9:d3:a5:fb:ba:3c:27:dc:f6:6a:1e:
                    4a:3e:a5:7f:25:ee:f9:c2:a3:10:0d:e8:9f:5c:f6:
                    b3:46:c9:6a:90:7e:5f:e2:4c:0c:f0:17:f7:10:2b:
                    67:45:82:78:8c:dd:d7:a7:5d:55:9b:32:3c:e8:49:
                    48:85:67:7f:d7:8e:c4:61:39
                Exponent: 65537 (0x10001)
        X509v3 extensions:
            X509v3 Subject Key Identifier: 
                96:DC:B7:E9:9F:4E:3E:E7:7D:6D:D3:FC:4D:AA:7B:32:A1:2B:5A:6C
            X509v3 Authority Key Identifier: 
                keyid:96:DC:B7:E9:9F:4E:3E:E7:7D:6D:D3:FC:4D:AA:7B:32:A1:2B:5A:6C

            X509v3 Basic Constraints: 
                CA:TRUE
    Signature Algorithm: sha256WithRSAEncryption
         7b:49:b3:d5:51:a1:8e:2a:6d:d5:9f:64:31:c9:e6:25:41:be:
         3e:82:9f:5b:fe:fa:97:73:00:52:fd:0c:96:c6:87:31:58:e0:
         fb:4d:cb:04:c4:6c:60:8c:c3:c3:6b:d0:9e:1f:26:fd:6a:1b:
         77:e8:c5:81:7b:a0:b3:dd:5e:2c:6b:c9:ba:85:f3:4c:cb:0d:
         5d:ca:8c:a2:1f:fd:03:6d:f4:0c:1e:76:da:ca:8e:cb:b2:eb:
         de:db:d9:cc:05:c2:8b:7d:e9:30:3d:c3:74:d5:17:21:ff:af:
         10:8d:38:4d:8a:cf:6a:b2:bb:51:79:36:66:32:98:e1:c9:1f:
         6c:d8
-----BEGIN CERTIFICATE-----
MIICoDCCAgmgAwIBAgIJAJPnm2I4XH3fMA0GCSqGSIb3DQEBCwUAMGkxCzAJBgNV
BAYTAlVTMRMwEQYDVQQIDApDYWxpZm9ybmlhMRQwEgYDVQQHDAtTYW50YSBDbGFy
YTENMAsGA1UECgwEcGtnNTEMMAoGA1UEAwwDdGEzMRIwEAYJKoZIhvcNAQkBFgN0
YTMwHhcNMTQxMjA2MDMwNjQyWhcNMTcwOTAxMDMwNjQyWjBpMQswCQYDVQQGEwJV
UzETMBEGA1UECAwKQ2FsaWZvcm5pYTEUMBIGA1UEBwwLU2FudGEgQ2xhcmExDTAL
BgNVBAoMBHBrZzUxDDAKBgNVBAMMA3RhMzESMBAGCSqGSIb3DQEJARYDdGEzMIGf
MA0GCSqGSIb3DQEBAQUAA4GNADCBiQKBgQCtv40xMOJ2Wa7+i7csu/pmUbU9wsMF
08lF4YfwDfb5hKLEml/JAnxsuyOxjPxspgpwMnRPTq6PyaE67nTeVQnZ06X7ujwn
3PZqHko+pX8l7vnCoxAN6J9c9rNGyWqQfl/iTAzwF/cQK2dFgniM3denXVWbMjzo
SUiFZ3/XjsRhOQIDAQABo1AwTjAdBgNVHQ4EFgQUlty36Z9OPud9bdP8Tap7MqEr
WmwwHwYDVR0jBBgwFoAUlty36Z9OPud9bdP8Tap7MqErWmwwDAYDVR0TBAUwAwEB
/zANBgkqhkiG9w0BAQsFAAOBgQB7SbPVUaGOKm3Vn2QxyeYlQb4+gp9b/vqXcwBS
/QyWxocxWOD7TcsExGxgjMPDa9CeHyb9aht36MWBe6Cz3V4sa8m6hfNMyw1dyoyi
H/0DbfQMHnbayo7Lsuve29nMBcKLfekwPcN01Rch/68QjThNis9qsrtReTZmMpjh
yR9s2A==
-----END CERTIFICATE-----
