Certificate:
    Data:
        Version: 3 (0x2)
        Serial Number:
            70:54:33:33:9c:17:fd:93:68:f1:0a:eb:10:cd:3a:50:23:fd:b2:9b
        Signature Algorithm: sha256WithRSAEncryption
        Issuer: C = US, ST = California, L = Santa Clara, O = pkg5, CN = ta4, emailAddress = ta4
        Validity
            Not Before: Dec 15 15:37:28 2022 GMT
            Not After : Sep 10 15:37:28 2025 GMT
        Subject: C = US, ST = California, L = Santa Clara, O = pkg5, CN = ta4, emailAddress = ta4
        Subject Public Key Info:
            Public Key Algorithm: rsaEncryption
                Public-Key: (2048 bit)
                Modulus:
                    00:9e:21:8d:84:48:47:4b:76:2f:fe:41:c8:11:93:
                    b7:00:6e:7f:71:c7:13:4a:5a:3f:c4:cb:3a:cb:4d:
                    e5:65:4a:13:65:37:a4:3e:5e:69:17:54:36:84:8e:
                    b1:29:b6:12:13:0b:7a:41:dd:3a:47:ee:20:86:b1:
                    28:78:b8:44:13:dc:c2:98:3d:58:37:9b:cf:3a:2d:
                    22:21:11:61:d4:29:de:68:50:65:17:88:c6:7c:e1:
                    5b:4d:61:09:42:83:0b:b0:67:c1:c5:98:a5:e8:5a:
                    fd:1a:3a:6b:8e:67:5e:9f:3c:78:2e:b7:5a:3a:1f:
                    39:6f:cb:52:8e:a1:cc:f1:22:9a:15:3f:09:47:9c:
                    c7:00:7c:3b:a8:2b:85:3f:48:fd:de:b9:40:0a:bd:
                    8c:94:b8:47:fc:2b:8b:e5:63:53:70:35:0b:b1:95:
                    8b:0f:f9:ad:d0:28:b5:ac:bf:b7:67:20:7d:c4:e9:
                    1f:53:5c:15:b8:15:e8:02:cd:91:3f:16:c9:91:ac:
                    11:aa:ae:7d:77:a5:25:ac:dd:59:e6:77:6b:95:e7:
                    34:00:4b:93:b7:20:31:af:a0:a7:a6:75:f0:e6:93:
                    5d:f8:ba:13:6f:16:18:05:33:56:fc:6c:7a:5f:44:
                    87:7e:ec:0f:81:76:1f:9b:5d:49:4c:15:e4:69:6d:
                    b0:e1
                Exponent: 65537 (0x10001)
        X509v3 extensions:
            X509v3 Subject Key Identifier: 
                16:00:FB:AE:07:0A:2C:AE:C3:F8:0D:63:40:B3:F4:17:7E:A5:68:1C
            X509v3 Authority Key Identifier: 
                16:00:FB:AE:07:0A:2C:AE:C3:F8:0D:63:40:B3:F4:17:7E:A5:68:1C
            X509v3 Basic Constraints: critical
                CA:TRUE
    Signature Algorithm: sha256WithRSAEncryption
    Signature Value:
        34:d5:76:14:92:61:8b:a5:7c:8d:d1:47:2e:5c:46:52:2c:7d:
        67:a2:8a:55:40:94:7a:6b:2f:dc:19:41:9f:ef:71:18:10:d7:
        0f:6b:e5:3c:e6:d8:6a:30:52:0b:31:8e:03:8a:f3:77:ee:89:
        d7:38:69:9c:b3:a4:00:db:71:98:93:15:51:11:6b:53:c3:74:
        ec:e4:72:27:9a:c1:d0:05:b9:cc:ff:7b:1e:7d:1f:80:70:fe:
        4a:4c:d1:41:a4:de:5c:9d:a4:57:25:8f:c9:70:0a:5c:1c:53:
        52:56:4e:74:95:3f:46:da:33:4e:4b:cc:4d:ca:c4:39:02:ad:
        79:69:11:c4:75:c2:a5:6f:e3:48:b1:1a:2e:52:71:bb:89:f9:
        5e:00:5b:e2:5a:5f:97:77:7a:b2:fd:35:01:87:ad:46:4e:3f:
        af:d0:fa:da:7e:14:3b:74:d1:5f:df:dc:9b:75:55:bc:2e:62:
        31:c0:7e:a6:35:f9:aa:df:88:ca:aa:a7:52:83:17:89:9b:7d:
        89:e7:60:8d:73:26:c8:49:37:a2:74:e5:55:df:49:87:26:ba:
        49:ce:07:5a:0c:08:22:5a:5b:4e:84:2d:aa:18:0a:0e:8f:f5:
        77:d1:b7:ad:82:11:02:54:b9:b8:b4:f6:ef:5c:63:f0:f3:e3:
        08:e5:1a:55
-----BEGIN CERTIFICATE-----
MIIDszCCApugAwIBAgIUcFQzM5wX/ZNo8QrrEM06UCP9spswDQYJKoZIhvcNAQEL
BQAwaTELMAkGA1UEBhMCVVMxEzARBgNVBAgMCkNhbGlmb3JuaWExFDASBgNVBAcM
C1NhbnRhIENsYXJhMQ0wCwYDVQQKDARwa2c1MQwwCgYDVQQDDAN0YTQxEjAQBgkq
hkiG9w0BCQEWA3RhNDAeFw0yMjEyMTUxNTM3MjhaFw0yNTA5MTAxNTM3MjhaMGkx
CzAJBgNVBAYTAlVTMRMwEQYDVQQIDApDYWxpZm9ybmlhMRQwEgYDVQQHDAtTYW50
YSBDbGFyYTENMAsGA1UECgwEcGtnNTEMMAoGA1UEAwwDdGE0MRIwEAYJKoZIhvcN
AQkBFgN0YTQwggEiMA0GCSqGSIb3DQEBAQUAA4IBDwAwggEKAoIBAQCeIY2ESEdL
di/+QcgRk7cAbn9xxxNKWj/EyzrLTeVlShNlN6Q+XmkXVDaEjrEpthITC3pB3TpH
7iCGsSh4uEQT3MKYPVg3m886LSIhEWHUKd5oUGUXiMZ84VtNYQlCgwuwZ8HFmKXo
Wv0aOmuOZ16fPHgut1o6Hzlvy1KOoczxIpoVPwlHnMcAfDuoK4U/SP3euUAKvYyU
uEf8K4vlY1NwNQuxlYsP+a3QKLWsv7dnIH3E6R9TXBW4FegCzZE/FsmRrBGqrn13
pSWs3Vnmd2uV5zQAS5O3IDGvoKemdfDmk134uhNvFhgFM1b8bHpfRId+7A+Bdh+b
XUlMFeRpbbDhAgMBAAGjUzBRMB0GA1UdDgQWBBQWAPuuBwosrsP4DWNAs/QXfqVo
HDAfBgNVHSMEGDAWgBQWAPuuBwosrsP4DWNAs/QXfqVoHDAPBgNVHRMBAf8EBTAD
AQH/MA0GCSqGSIb3DQEBCwUAA4IBAQA01XYUkmGLpXyN0UcuXEZSLH1noopVQJR6
ay/cGUGf73EYENcPa+U85thqMFILMY4DivN37onXOGmcs6QA23GYkxVREWtTw3Ts
5HInmsHQBbnM/3sefR+AcP5KTNFBpN5cnaRXJY/JcApcHFNSVk50lT9G2jNOS8xN
ysQ5Aq15aRHEdcKlb+NIsRouUnG7ifleAFviWl+Xd3qy/TUBh61GTj+v0PrafhQ7
dNFf39ybdVW8LmIxwH6mNfmq34jKqqdSgxeJm32J52CNcybISTeidOVV30mHJrpJ
zgdaDAgiWltOhC2qGAoOj/V30betghECVLm4tPbvXGPw8+MI5RpV
-----END CERTIFICATE-----
