Certificate:
    Data:
        Version: 3 (0x2)
        Serial Number:
            44:8d:6d:fa:01:ea:6d:bb:42:71:59:89:b7:e5:86:94:71:be:4f:71
        Signature Algorithm: sha256WithRSAEncryption
        Issuer: C = US, ST = California, L = Santa Clara, O = pkg5, CN = ta4, emailAddress = ta4
        Validity
            Not Before: Oct 24 21:43:11 2023 GMT
            Not After : Jul 20 21:43:11 2026 GMT
        Subject: C = US, ST = California, L = Santa Clara, O = pkg5, CN = ta4, emailAddress = ta4
        Subject Public Key Info:
            Public Key Algorithm: rsaEncryption
                Public-Key: (2048 bit)
                Modulus:
                    00:be:78:63:b2:e7:ef:cb:c6:3c:cb:10:89:c4:dc:
                    e9:f9:b6:85:68:8d:86:15:8b:75:06:60:25:11:37:
                    70:22:fd:38:02:22:c9:98:b5:76:3e:b0:29:a9:76:
                    9f:0a:21:81:74:9d:2b:29:e6:e7:7f:b2:8b:7f:13:
                    d6:9e:80:bb:dc:3f:5a:bc:6b:45:39:82:2b:c7:94:
                    d3:e1:12:cd:f3:50:40:02:47:08:0a:1b:a9:7e:9d:
                    5b:59:c8:f0:95:42:ea:9d:a9:ad:5f:10:61:06:44:
                    73:0f:e1:9c:9b:68:7d:06:8e:3e:ca:23:83:6a:13:
                    db:33:e1:20:b8:63:ce:9c:29:f7:6f:75:af:c2:ce:
                    9a:73:4e:02:f3:8e:6c:9a:f2:15:be:47:9b:75:12:
                    d9:9b:fb:81:fe:c1:5c:8b:68:27:ec:f9:a0:92:25:
                    15:3d:50:ae:89:06:15:db:bf:51:a0:c0:81:b8:0c:
                    e6:5e:77:d1:43:de:65:c5:06:88:42:42:4f:2d:05:
                    ab:97:42:35:78:c0:6b:03:53:63:13:c1:65:ad:af:
                    3c:bc:44:81:b5:07:84:5d:c5:09:ba:6d:b9:6d:5b:
                    af:fd:11:4f:5c:ba:7d:af:82:35:51:b0:8c:d9:64:
                    ca:7b:b3:6f:2e:16:84:2e:02:5d:c8:46:ff:a4:6f:
                    74:0b
                Exponent: 65537 (0x10001)
        X509v3 extensions:
            X509v3 Subject Key Identifier: 
                F9:34:31:B4:C9:89:D9:09:9B:52:1A:F6:B2:15:7E:7D:B2:99:88:CB
            X509v3 Authority Key Identifier: 
                F9:34:31:B4:C9:89:D9:09:9B:52:1A:F6:B2:15:7E:7D:B2:99:88:CB
            X509v3 Basic Constraints: critical
                CA:TRUE
    Signature Algorithm: sha256WithRSAEncryption
    Signature Value:
        8e:3e:02:3d:c2:4c:00:b4:d8:87:66:c9:ca:85:d8:20:2d:ff:
        bd:1f:be:ad:ad:38:4b:e5:e9:df:5b:55:1d:9e:43:d1:0a:9c:
        8f:3e:1f:a8:5a:b6:73:ad:70:90:80:9f:6b:a4:54:2d:24:6c:
        da:a6:e8:48:7d:9a:4b:27:1b:67:83:31:f9:69:c7:e3:7c:ee:
        1b:50:77:f0:3c:7c:b9:a0:7f:08:bb:0f:8f:29:d0:0b:fb:9e:
        ea:68:b5:67:36:b4:85:dd:da:3d:10:10:4f:f9:cf:3c:a1:a5:
        b2:41:68:d7:fc:83:74:2d:ef:cd:16:2f:35:ad:a6:fd:66:93:
        21:8b:69:37:71:e3:ea:b5:3a:57:07:f1:7e:e1:a7:2c:88:3c:
        06:fe:3a:c9:d0:1b:7f:d2:36:91:90:26:5f:7a:bf:8d:68:66:
        85:ec:cc:de:6f:dc:25:68:14:9f:f6:0d:d1:a2:73:02:67:26:
        02:70:c4:72:bd:5c:c3:28:81:96:37:46:f9:85:d5:4b:7c:7e:
        6f:de:4d:c6:43:aa:af:9b:b7:1f:e0:67:cc:76:96:f6:96:92:
        bb:90:4f:b2:08:02:27:a4:d9:81:d1:b3:c7:7d:42:9c:e6:2a:
        45:7a:95:30:26:d8:97:38:32:dc:be:a8:5c:a5:9c:12:e1:80:
        7f:76:a9:09
-----BEGIN CERTIFICATE-----
MIIDszCCApugAwIBAgIURI1t+gHqbbtCcVmJt+WGlHG+T3EwDQYJKoZIhvcNAQEL
BQAwaTELMAkGA1UEBhMCVVMxEzARBgNVBAgMCkNhbGlmb3JuaWExFDASBgNVBAcM
C1NhbnRhIENsYXJhMQ0wCwYDVQQKDARwa2c1MQwwCgYDVQQDDAN0YTQxEjAQBgkq
hkiG9w0BCQEWA3RhNDAeFw0yMzEwMjQyMTQzMTFaFw0yNjA3MjAyMTQzMTFaMGkx
CzAJBgNVBAYTAlVTMRMwEQYDVQQIDApDYWxpZm9ybmlhMRQwEgYDVQQHDAtTYW50
YSBDbGFyYTENMAsGA1UECgwEcGtnNTEMMAoGA1UEAwwDdGE0MRIwEAYJKoZIhvcN
AQkBFgN0YTQwggEiMA0GCSqGSIb3DQEBAQUAA4IBDwAwggEKAoIBAQC+eGOy5+/L
xjzLEInE3On5toVojYYVi3UGYCURN3Ai/TgCIsmYtXY+sCmpdp8KIYF0nSsp5ud/
sot/E9aegLvcP1q8a0U5givHlNPhEs3zUEACRwgKG6l+nVtZyPCVQuqdqa1fEGEG
RHMP4ZybaH0Gjj7KI4NqE9sz4SC4Y86cKfdvda/CzppzTgLzjmya8hW+R5t1Etmb
+4H+wVyLaCfs+aCSJRU9UK6JBhXbv1GgwIG4DOZed9FD3mXFBohCQk8tBauXQjV4
wGsDU2MTwWWtrzy8RIG1B4RdxQm6bbltW6/9EU9cun2vgjVRsIzZZMp7s28uFoQu
Al3IRv+kb3QLAgMBAAGjUzBRMB0GA1UdDgQWBBT5NDG0yYnZCZtSGvayFX59spmI
yzAfBgNVHSMEGDAWgBT5NDG0yYnZCZtSGvayFX59spmIyzAPBgNVHRMBAf8EBTAD
AQH/MA0GCSqGSIb3DQEBCwUAA4IBAQCOPgI9wkwAtNiHZsnKhdggLf+9H76trThL
5enfW1UdnkPRCpyPPh+oWrZzrXCQgJ9rpFQtJGzapuhIfZpLJxtngzH5acfjfO4b
UHfwPHy5oH8Iuw+PKdAL+57qaLVnNrSF3do9EBBP+c88oaWyQWjX/IN0Le/NFi81
rab9ZpMhi2k3cePqtTpXB/F+4acsiDwG/jrJ0Bt/0jaRkCZfer+NaGaF7Mzeb9wl
aBSf9g3RonMCZyYCcMRyvVzDKIGWN0b5hdVLfH5v3k3GQ6qvm7cf4GfMdpb2lpK7
kE+yCAInpNmB0bPHfUKc5ipFepUwJtiXODLcvqhcpZwS4YB/dqkJ
-----END CERTIFICATE-----
