Certificate:
    Data:
        Version: 3 (0x2)
        Serial Number:
            5b:f2:1b:2d:f0:c5:49:84:c6:92:b5:70:cd:a3:78:2a:8d:07:25:e6
        Signature Algorithm: sha256WithRSAEncryption
        Issuer: C = US, ST = California, L = Santa Clara, O = pkg5, CN = ta4, emailAddress = ta4
        Validity
            Not Before: Nov 17 23:01:32 2020 GMT
            Not After : Aug 14 23:01:32 2023 GMT
        Subject: C = US, ST = California, L = Santa Clara, O = pkg5, CN = ta4, emailAddress = ta4
        Subject Public Key Info:
            Public Key Algorithm: rsaEncryption
                RSA Public-Key: (2048 bit)
                Modulus:
                    00:cd:97:fb:9c:4f:08:04:7a:32:fb:44:40:f0:af:
                    dc:c4:2d:75:76:f1:ad:86:67:e3:47:7f:09:2a:e8:
                    51:33:15:1a:93:65:12:77:d2:ad:36:32:82:35:78:
                    81:b6:05:ae:c1:ab:01:70:f7:91:5b:51:6d:55:2a:
                    ea:7e:3c:b9:d4:19:6f:66:a6:1a:9c:7c:18:76:73:
                    32:5c:3e:0d:50:d9:be:11:ea:9e:85:43:06:f8:4d:
                    16:be:84:45:74:8b:02:48:28:76:e5:9b:58:1d:12:
                    14:08:a9:d7:26:74:52:c9:f3:7d:74:b8:86:cd:e8:
                    3d:19:ea:16:7c:04:8a:1e:4d:97:88:90:81:eb:e8:
                    9e:13:4b:c9:48:da:a5:eb:08:3d:1d:12:cc:a5:6d:
                    97:24:06:1f:c5:89:d9:f1:8b:a3:4e:b1:a7:ab:d0:
                    bc:03:fd:af:c9:c8:ea:83:8b:6f:59:5e:bc:b5:6d:
                    16:fe:ac:fe:23:5d:57:b6:75:33:a8:dd:d5:7f:d7:
                    06:ba:c3:d1:56:ea:a0:50:4d:f4:c7:c9:fd:60:3f:
                    d6:11:55:dc:21:f7:5e:39:e7:24:5c:6e:8d:ee:1b:
                    64:5f:a7:91:ae:f4:b5:58:79:44:43:19:49:c9:03:
                    57:2f:63:57:a6:c4:ea:5e:9c:50:e1:9b:c5:04:98:
                    b3:a1
                Exponent: 65537 (0x10001)
        X509v3 extensions:
            X509v3 Subject Key Identifier: 
                74:B8:C3:9D:47:62:31:59:00:3C:E9:99:3B:7F:18:B1:D7:A9:62:DE
            X509v3 Authority Key Identifier: 
                keyid:74:B8:C3:9D:47:62:31:59:00:3C:E9:99:3B:7F:18:B1:D7:A9:62:DE

            X509v3 Basic Constraints: critical
                CA:TRUE
    Signature Algorithm: sha256WithRSAEncryption
         bf:01:51:42:72:f5:71:e0:ef:61:1f:ab:4f:11:4d:4d:d7:1c:
         bd:12:b7:73:bc:4a:2c:0c:b4:0b:0f:e3:9d:8c:44:f4:2f:66:
         a4:72:30:08:2e:af:41:ef:d1:3d:ec:9e:7c:d5:42:5f:28:37:
         57:af:9a:0f:24:a6:df:ac:78:6b:d6:1b:60:97:8f:4b:da:9f:
         7b:d9:f1:7e:ad:b6:8e:ae:b2:15:11:39:83:4d:91:16:e7:e1:
         33:57:9a:55:fe:f4:ea:19:2c:0a:e6:2a:83:ee:00:1b:5f:d2:
         57:59:d1:4d:91:d3:35:35:72:12:28:b6:c5:3e:d1:71:84:7e:
         69:a0:fa:73:a1:ab:b0:9a:82:ec:4f:e7:16:64:13:d4:58:59:
         ba:8c:93:4f:49:4d:fc:32:c9:b9:e2:70:d3:ea:a8:20:f5:e0:
         83:a4:a8:40:90:93:a4:64:8b:95:3e:a3:57:87:76:30:bf:d3:
         86:f0:a2:a2:c5:d6:9b:f0:74:c4:a8:46:c3:ca:24:10:1f:44:
         ed:a3:9b:eb:0f:f0:77:e4:2c:5c:ee:46:5f:7d:9b:b2:3c:2d:
         bc:db:f8:58:8b:df:d4:b4:98:71:49:48:c6:fb:5f:0a:f1:88:
         ae:0b:bb:ca:00:48:78:3d:55:b8:12:3f:d0:86:c6:c8:8c:bf:
         5f:2a:a7:82
-----BEGIN CERTIFICATE-----
MIIDszCCApugAwIBAgIUW/IbLfDFSYTGkrVwzaN4Ko0HJeYwDQYJKoZIhvcNAQEL
BQAwaTELMAkGA1UEBhMCVVMxEzARBgNVBAgMCkNhbGlmb3JuaWExFDASBgNVBAcM
C1NhbnRhIENsYXJhMQ0wCwYDVQQKDARwa2c1MQwwCgYDVQQDDAN0YTQxEjAQBgkq
hkiG9w0BCQEWA3RhNDAeFw0yMDExMTcyMzAxMzJaFw0yMzA4MTQyMzAxMzJaMGkx
CzAJBgNVBAYTAlVTMRMwEQYDVQQIDApDYWxpZm9ybmlhMRQwEgYDVQQHDAtTYW50
YSBDbGFyYTENMAsGA1UECgwEcGtnNTEMMAoGA1UEAwwDdGE0MRIwEAYJKoZIhvcN
AQkBFgN0YTQwggEiMA0GCSqGSIb3DQEBAQUAA4IBDwAwggEKAoIBAQDNl/ucTwgE
ejL7REDwr9zELXV28a2GZ+NHfwkq6FEzFRqTZRJ30q02MoI1eIG2Ba7BqwFw95Fb
UW1VKup+PLnUGW9mphqcfBh2czJcPg1Q2b4R6p6FQwb4TRa+hEV0iwJIKHblm1gd
EhQIqdcmdFLJ8310uIbN6D0Z6hZ8BIoeTZeIkIHr6J4TS8lI2qXrCD0dEsylbZck
Bh/Fidnxi6NOsaer0LwD/a/JyOqDi29ZXry1bRb+rP4jXVe2dTOo3dV/1wa6w9FW
6qBQTfTHyf1gP9YRVdwh91455yRcbo3uG2Rfp5Gu9LVYeURDGUnJA1cvY1emxOpe
nFDhm8UEmLOhAgMBAAGjUzBRMB0GA1UdDgQWBBR0uMOdR2IxWQA86Zk7fxix16li
3jAfBgNVHSMEGDAWgBR0uMOdR2IxWQA86Zk7fxix16li3jAPBgNVHRMBAf8EBTAD
AQH/MA0GCSqGSIb3DQEBCwUAA4IBAQC/AVFCcvVx4O9hH6tPEU1N1xy9ErdzvEos
DLQLD+OdjET0L2akcjAILq9B79E97J581UJfKDdXr5oPJKbfrHhr1htgl49L2p97
2fF+rbaOrrIVETmDTZEW5+EzV5pV/vTqGSwK5iqD7gAbX9JXWdFNkdM1NXISKLbF
PtFxhH5poPpzoauwmoLsT+cWZBPUWFm6jJNPSU38Msm54nDT6qgg9eCDpKhAkJOk
ZIuVPqNXh3Ywv9OG8KKixdab8HTEqEbDyiQQH0Tto5vrD/B35Cxc7kZffZuyPC28
2/hYi9/UtJhxSUjG+18K8YiuC7vKAEh4PVW4Ej/QhsbIjL9fKqeC
-----END CERTIFICATE-----
