Certificate:
    Data:
        Version: 3 (0x2)
        Serial Number:
            b9:0a:8b:10:c0:23:41:3b
    Signature Algorithm: sha256WithRSAEncryption
        Issuer: C=US, ST=California, L=Santa Clara, O=pkg5, CN=ta4/emailAddress=ta4
        Validity
            Not Before: Nov 28 22:50:57 2016 GMT
            Not After : Aug 25 22:50:57 2019 GMT
        Subject: C=US, ST=California, L=Santa Clara, O=pkg5, CN=ta4/emailAddress=ta4
        Subject Public Key Info:
            Public Key Algorithm: rsaEncryption
                Public-Key: (2048 bit)
                Modulus:
                    00:b6:0f:e2:51:68:60:cd:19:e2:e5:5e:d5:38:25:
                    d4:ac:43:cf:4e:a7:d3:73:8c:ae:46:07:b6:3f:45:
                    5d:88:5f:63:c5:95:b2:13:8f:55:b1:69:be:ef:72:
                    f4:8b:39:79:73:68:e8:f3:fa:47:0a:67:06:e9:d5:
                    c4:10:24:fc:54:a5:d0:fc:24:30:2d:8e:a7:b0:18:
                    48:89:f8:39:c3:e7:6d:a6:b5:15:46:40:22:c6:c6:
                    c5:ec:9a:d0:75:16:a9:d0:29:9e:f6:8f:26:2b:61:
                    98:5d:b9:f4:29:37:ab:1a:45:e0:b8:f1:b2:1f:ff:
                    96:0a:2c:59:81:da:66:91:7f:41:41:2e:92:5b:ad:
                    7b:ef:62:03:13:bd:af:f9:b2:c9:ee:ac:f6:85:df:
                    b6:3d:0e:15:07:1c:d7:cc:f5:d1:20:6e:3c:c6:df:
                    37:d3:54:6e:67:06:f0:10:2d:96:0c:05:8d:24:0b:
                    4d:da:52:24:c3:3d:63:de:c2:46:85:7d:e5:80:ab:
                    48:cd:49:c1:e7:12:ea:fd:f5:66:4e:ef:15:2e:a3:
                    cb:41:7f:26:90:9a:4a:91:2a:1d:23:1b:b1:22:07:
                    3f:a5:fe:61:80:94:fc:c8:b8:d4:11:da:dd:b1:ac:
                    63:7d:07:02:d2:fb:a0:b7:1a:f7:c9:d3:53:90:68:
                    92:59
                Exponent: 65537 (0x10001)
        X509v3 extensions:
            X509v3 Subject Key Identifier: 
                62:C2:65:B3:DB:1A:71:0E:7C:1C:ED:A7:DF:75:3B:D8:DE:BB:4A:E7
            X509v3 Authority Key Identifier: 
                keyid:62:C2:65:B3:DB:1A:71:0E:7C:1C:ED:A7:DF:75:3B:D8:DE:BB:4A:E7

            X509v3 Basic Constraints: 
                CA:TRUE
    Signature Algorithm: sha256WithRSAEncryption
         49:eb:3b:a3:9e:f1:ce:59:53:80:99:43:e1:46:92:92:0b:f5:
         da:45:4b:76:54:54:43:49:57:dd:2f:f3:3b:da:b1:7c:24:9d:
         60:05:91:d2:31:a1:69:66:36:28:a6:1e:16:8d:96:ad:f9:6b:
         a3:43:cc:24:fc:3c:4c:14:90:34:46:4c:71:fd:34:3f:5e:90:
         fe:e8:35:35:99:03:0f:6c:42:ce:ec:2d:bb:18:6f:14:f3:89:
         d0:75:ef:e4:6b:a4:91:de:8b:05:4d:7c:f8:0b:70:2e:6b:c2:
         ac:bf:dc:49:5e:e7:93:e2:78:4f:db:26:a9:d8:34:d3:ee:26:
         ba:1f:be:bd:4f:7c:be:f7:d2:75:2c:f3:24:bf:1c:0a:f8:1d:
         be:17:cc:ee:af:78:4f:b6:df:e6:9d:7f:0a:e1:db:cd:a9:8d:
         42:fc:22:a2:13:b6:d0:a5:fb:dc:4d:81:e2:7a:b4:80:6d:67:
         a6:f0:b4:65:de:d0:d6:17:e0:99:72:ee:ad:f4:e4:0f:06:53:
         be:d7:03:c4:04:e9:15:e5:4a:30:e5:61:9a:10:52:e3:c5:dc:
         60:ac:b8:88:91:13:1e:a5:99:a6:90:81:b7:d0:10:84:04:97:
         b7:14:0c:1f:62:17:41:3e:20:32:64:9f:db:74:d6:31:0e:2c:
         2d:2f:a7:26
-----BEGIN CERTIFICATE-----
MIIDpTCCAo2gAwIBAgIJALkKixDAI0E7MA0GCSqGSIb3DQEBCwUAMGkxCzAJBgNV
BAYTAlVTMRMwEQYDVQQIDApDYWxpZm9ybmlhMRQwEgYDVQQHDAtTYW50YSBDbGFy
YTENMAsGA1UECgwEcGtnNTEMMAoGA1UEAwwDdGE0MRIwEAYJKoZIhvcNAQkBFgN0
YTQwHhcNMTYxMTI4MjI1MDU3WhcNMTkwODI1MjI1MDU3WjBpMQswCQYDVQQGEwJV
UzETMBEGA1UECAwKQ2FsaWZvcm5pYTEUMBIGA1UEBwwLU2FudGEgQ2xhcmExDTAL
BgNVBAoMBHBrZzUxDDAKBgNVBAMMA3RhNDESMBAGCSqGSIb3DQEJARYDdGE0MIIB
IjANBgkqhkiG9w0BAQEFAAOCAQ8AMIIBCgKCAQEAtg/iUWhgzRni5V7VOCXUrEPP
TqfTc4yuRge2P0VdiF9jxZWyE49VsWm+73L0izl5c2jo8/pHCmcG6dXEECT8VKXQ
/CQwLY6nsBhIifg5w+dtprUVRkAixsbF7JrQdRap0Cme9o8mK2GYXbn0KTerGkXg
uPGyH/+WCixZgdpmkX9BQS6SW61772IDE72v+bLJ7qz2hd+2PQ4VBxzXzPXRIG48
xt8301RuZwbwEC2WDAWNJAtN2lIkwz1j3sJGhX3lgKtIzUnB5xLq/fVmTu8VLqPL
QX8mkJpKkSodIxuxIgc/pf5hgJT8yLjUEdrdsaxjfQcC0vugtxr3ydNTkGiSWQID
AQABo1AwTjAdBgNVHQ4EFgQUYsJls9sacQ58HO2n33U72N67SucwHwYDVR0jBBgw
FoAUYsJls9sacQ58HO2n33U72N67SucwDAYDVR0TBAUwAwEB/zANBgkqhkiG9w0B
AQsFAAOCAQEASes7o57xzllTgJlD4UaSkgv12kVLdlRUQ0lX3S/zO9qxfCSdYAWR
0jGhaWY2KKYeFo2Wrflro0PMJPw8TBSQNEZMcf00P16Q/ug1NZkDD2xCzuwtuxhv
FPOJ0HXv5Gukkd6LBU18+AtwLmvCrL/cSV7nk+J4T9smqdg00+4muh++vU98vvfS
dSzzJL8cCvgdvhfM7q94T7bf5p1/CuHbzamNQvwiohO20KX73E2B4nq0gG1npvC0
Zd7Q1hfgmXLurfTkDwZTvtcDxATpFeVKMOVhmhBS48XcYKy4iJETHqWZppCBt9AQ
hASXtxQMH2IXQT4gMmSf23TWMQ4sLS+nJg==
-----END CERTIFICATE-----
