Certificate:
    Data:
        Version: 3 (0x2)
        Serial Number:
            67:38:f1:e4:a8:b4:58:f1:e9:b2:52:25:74:52:60:2d:ab:73:97:0c
        Signature Algorithm: sha256WithRSAEncryption
        Issuer: C = US, ST = California, L = Santa Clara, O = pkg5, CN = ta4, emailAddress = ta4
        Validity
            Not Before: May 23 15:47:20 2024 GMT
            Not After : Feb 17 15:47:20 2027 GMT
        Subject: C = US, ST = California, L = Santa Clara, O = pkg5, CN = ta4, emailAddress = ta4
        Subject Public Key Info:
            Public Key Algorithm: rsaEncryption
                Public-Key: (2048 bit)
                Modulus:
                    00:aa:34:f0:cf:a9:ef:10:cc:fb:92:b6:26:7d:96:
                    36:96:be:09:5a:bd:bc:e0:5f:dc:40:5d:22:88:ce:
                    10:25:c4:3c:68:d6:52:57:e3:02:e0:dc:bf:26:4e:
                    18:76:c7:ac:4d:b2:7c:22:c9:cd:5e:a0:83:c5:5a:
                    cb:1c:70:5d:4c:3a:ad:fa:ff:25:0b:06:67:c6:61:
                    bd:8c:90:be:a4:36:0e:b9:96:19:dd:43:f5:fc:63:
                    1d:75:86:f5:86:66:ab:71:d1:6a:a2:01:18:49:e1:
                    b9:05:52:d9:6e:ef:85:5a:72:75:01:6c:20:34:73:
                    0a:53:b4:d6:ab:86:a3:9f:d9:da:f1:42:e5:76:74:
                    61:58:85:68:96:5b:11:f6:d3:bb:96:23:22:67:0b:
                    c2:09:18:92:5c:b1:70:98:e7:ea:75:f6:c1:34:c9:
                    3d:07:3a:55:77:36:b3:65:59:1b:61:22:d3:d6:53:
                    21:c7:84:dc:09:21:28:bf:aa:c9:37:64:3a:e2:14:
                    0f:c2:92:39:58:cd:78:b5:d4:af:b2:26:2b:f3:d1:
                    f6:7b:d0:3d:c4:58:0e:82:30:f3:34:cd:0a:51:10:
                    76:a0:90:b8:23:a8:e7:58:1c:6c:3c:d7:f3:6e:f7:
                    eb:15:78:f5:ad:22:85:b3:69:01:1f:10:21:f9:52:
                    1e:03
                Exponent: 65537 (0x10001)
        X509v3 extensions:
            X509v3 Subject Key Identifier: 
                97:23:60:F3:63:83:D7:5A:DE:23:0B:96:76:BD:BA:76:B2:76:E1:E6
            X509v3 Authority Key Identifier: 
                97:23:60:F3:63:83:D7:5A:DE:23:0B:96:76:BD:BA:76:B2:76:E1:E6
            X509v3 Basic Constraints: critical
                CA:TRUE
    Signature Algorithm: sha256WithRSAEncryption
    Signature Value:
        60:e5:1e:cf:33:99:22:f5:fe:ac:9b:61:0f:2c:50:37:7b:b6:
        e8:1e:54:6f:a6:9a:e7:6d:a3:6d:22:87:4f:ab:96:ef:13:3e:
        12:1d:96:3f:99:f1:95:10:d2:1d:02:69:7a:e3:a5:f8:70:43:
        27:93:4a:6b:e8:68:29:9a:02:35:e4:59:f5:00:68:1d:54:ac:
        9c:18:f3:a8:2c:cd:05:61:ab:3d:8d:42:c5:41:2f:8a:b2:e4:
        1d:2f:09:64:5f:b3:55:98:5b:9f:0f:7a:cd:00:8c:b6:bc:62:
        d1:44:9e:cd:a3:cf:bd:7a:3a:4a:8b:38:35:a6:0c:a7:fe:61:
        04:43:a7:a9:9d:ec:1a:0f:56:45:20:41:0f:d7:b7:98:71:d3:
        ec:6d:33:f6:7a:16:8b:47:5e:a0:a5:57:ac:0a:3d:8a:ab:9e:
        9d:72:6c:55:0e:17:12:20:69:57:4b:47:b4:9e:d5:e9:c1:2a:
        5a:01:8a:76:04:90:98:90:75:3e:fe:9d:fa:0f:e3:d4:86:6a:
        e6:e9:19:45:c2:26:73:20:ae:00:09:e2:c2:47:b7:1c:2f:20:
        40:58:da:ce:98:a0:1a:18:93:e0:5c:65:4b:fb:8e:34:aa:b1:
        73:f2:f2:a2:58:ac:aa:08:81:3a:d7:ed:f7:a9:28:46:0b:b5:
        40:7c:89:cf
-----BEGIN CERTIFICATE-----
MIIDszCCApugAwIBAgIUZzjx5Ki0WPHpslIldFJgLatzlwwwDQYJKoZIhvcNAQEL
BQAwaTELMAkGA1UEBhMCVVMxEzARBgNVBAgMCkNhbGlmb3JuaWExFDASBgNVBAcM
C1NhbnRhIENsYXJhMQ0wCwYDVQQKDARwa2c1MQwwCgYDVQQDDAN0YTQxEjAQBgkq
hkiG9w0BCQEWA3RhNDAeFw0yNDA1MjMxNTQ3MjBaFw0yNzAyMTcxNTQ3MjBaMGkx
CzAJBgNVBAYTAlVTMRMwEQYDVQQIDApDYWxpZm9ybmlhMRQwEgYDVQQHDAtTYW50
YSBDbGFyYTENMAsGA1UECgwEcGtnNTEMMAoGA1UEAwwDdGE0MRIwEAYJKoZIhvcN
AQkBFgN0YTQwggEiMA0GCSqGSIb3DQEBAQUAA4IBDwAwggEKAoIBAQCqNPDPqe8Q
zPuStiZ9ljaWvglavbzgX9xAXSKIzhAlxDxo1lJX4wLg3L8mThh2x6xNsnwiyc1e
oIPFWssccF1MOq36/yULBmfGYb2MkL6kNg65lhndQ/X8Yx11hvWGZqtx0WqiARhJ
4bkFUtlu74VacnUBbCA0cwpTtNarhqOf2drxQuV2dGFYhWiWWxH207uWIyJnC8IJ
GJJcsXCY5+p19sE0yT0HOlV3NrNlWRthItPWUyHHhNwJISi/qsk3ZDriFA/CkjlY
zXi11K+yJivz0fZ70D3EWA6CMPM0zQpREHagkLgjqOdYHGw81/Nu9+sVePWtIoWz
aQEfECH5Uh4DAgMBAAGjUzBRMB0GA1UdDgQWBBSXI2DzY4PXWt4jC5Z2vbp2snbh
5jAfBgNVHSMEGDAWgBSXI2DzY4PXWt4jC5Z2vbp2snbh5jAPBgNVHRMBAf8EBTAD
AQH/MA0GCSqGSIb3DQEBCwUAA4IBAQBg5R7PM5ki9f6sm2EPLFA3e7boHlRvpprn
baNtIodPq5bvEz4SHZY/mfGVENIdAml646X4cEMnk0pr6GgpmgI15Fn1AGgdVKyc
GPOoLM0FYas9jULFQS+KsuQdLwlkX7NVmFufD3rNAIy2vGLRRJ7No8+9ejpKizg1
pgyn/mEEQ6epnewaD1ZFIEEP17eYcdPsbTP2ehaLR16gpVesCj2Kq56dcmxVDhcS
IGlXS0e0ntXpwSpaAYp2BJCYkHU+/p36D+PUhmrm6RlFwiZzIK4ACeLCR7ccLyBA
WNrOmKAaGJPgXGVL+440qrFz8vKiWKyqCIE61+33qShGC7VAfInP
-----END CERTIFICATE-----
