Certificate:
    Data:
        Version: 3 (0x2)
        Serial Number:
            da:25:68:ee:f5:a5:d5:ce
    Signature Algorithm: sha256WithRSAEncryption
        Issuer: C=US, ST=California, L=Santa Clara, O=pkg5, CN=ta5/emailAddress=ta5
        Validity
            Not Before: Nov 28 22:50:58 2016 GMT
            Not After : Aug 25 22:50:58 2019 GMT
        Subject: C=US, ST=California, L=Santa Clara, O=pkg5, CN=ta5/emailAddress=ta5
        Subject Public Key Info:
            Public Key Algorithm: rsaEncryption
                Public-Key: (2048 bit)
                Modulus:
                    00:ba:43:09:68:3a:c2:a1:ea:af:7c:63:1b:5e:f0:
                    26:96:75:13:43:1e:89:d4:b7:48:67:6f:1a:78:21:
                    71:34:3a:01:42:99:0b:92:e1:86:ce:ba:15:be:28:
                    2d:54:42:31:6e:3f:c3:3f:c9:e5:8d:54:97:96:bf:
                    ec:c2:85:40:0b:0a:27:cd:4e:2d:5f:63:65:b0:4d:
                    e9:6d:8b:9f:ee:55:5f:80:5a:db:72:da:7a:14:46:
                    bd:cf:54:b9:89:b8:c6:10:89:9b:c0:62:da:a2:1e:
                    f5:37:d4:4e:d6:50:51:d5:58:67:e4:e0:5c:d7:f0:
                    30:aa:13:8f:98:dc:eb:8a:1e:cd:cc:44:98:c2:ac:
                    f7:79:26:18:50:53:39:89:da:33:0f:27:55:98:68:
                    f1:3c:d5:f6:48:e2:60:75:b6:a7:df:dd:f3:9b:df:
                    e5:ba:9c:f7:27:b2:93:b3:99:04:5b:bd:11:04:e2:
                    05:6b:c1:59:5f:47:b7:98:b5:d3:0d:48:fc:ab:b9:
                    0b:c3:12:41:b1:f4:fb:aa:06:2c:01:cf:52:03:df:
                    cf:0e:e9:cc:d0:a9:30:64:e3:f9:77:f0:ad:5c:31:
                    6b:2a:a0:e5:2c:e9:ff:c9:99:73:9b:bd:a3:d1:8a:
                    cf:4c:a9:99:5a:aa:b4:1c:aa:9b:db:d6:29:75:a9:
                    b7:21
                Exponent: 65537 (0x10001)
        X509v3 extensions:
            X509v3 Subject Key Identifier: 
                43:30:60:FF:37:8A:EA:29:59:64:9D:D1:64:CF:12:5C:B0:B6:E1:15
            X509v3 Authority Key Identifier: 
                keyid:43:30:60:FF:37:8A:EA:29:59:64:9D:D1:64:CF:12:5C:B0:B6:E1:15

            X509v3 Basic Constraints: 
                CA:TRUE
    Signature Algorithm: sha256WithRSAEncryption
         91:dc:f2:86:fc:f7:b6:68:29:ea:a9:26:0d:98:86:3e:24:86:
         88:c5:2a:ac:f5:d8:31:70:84:e3:ae:ac:c0:34:67:bf:e2:cf:
         65:57:c9:d2:8d:df:82:d5:31:73:ee:a6:29:6a:c2:d1:5b:ea:
         fa:a2:03:7c:51:31:9d:92:f0:4e:ed:62:1d:f8:e5:2a:eb:d4:
         af:79:98:e9:d2:9b:5a:db:dd:86:e6:52:fb:21:b0:4f:4a:b5:
         5a:72:a4:ea:9d:aa:c2:4c:e8:1c:4b:20:f2:1c:fa:21:b2:ab:
         c9:64:c1:73:75:f2:10:81:59:b0:92:33:69:e5:2e:8b:50:fd:
         3c:f5:26:db:eb:5a:6e:5b:71:b4:e5:0a:3b:87:04:f4:24:ca:
         fc:db:8e:37:90:81:5b:a5:5a:77:b1:52:66:1f:24:3b:3e:d9:
         5a:95:99:a9:4c:df:fe:74:20:87:e1:4a:c7:a8:e4:c9:ec:b2:
         88:26:96:a0:c6:7a:55:57:c9:a8:8b:a1:40:f3:e4:30:3a:c2:
         1d:1c:e9:1c:4e:7b:43:e4:1d:d4:4b:a1:2a:d5:5a:a8:10:ed:
         82:79:00:cf:74:af:33:40:ae:0a:4e:0b:28:4d:d0:a4:5e:61:
         b0:fc:a0:b7:46:f2:14:75:17:2c:97:93:6b:5a:98:68:c4:a4:
         2d:39:58:70
-----BEGIN CERTIFICATE-----
MIIDpTCCAo2gAwIBAgIJANolaO71pdXOMA0GCSqGSIb3DQEBCwUAMGkxCzAJBgNV
BAYTAlVTMRMwEQYDVQQIDApDYWxpZm9ybmlhMRQwEgYDVQQHDAtTYW50YSBDbGFy
YTENMAsGA1UECgwEcGtnNTEMMAoGA1UEAwwDdGE1MRIwEAYJKoZIhvcNAQkBFgN0
YTUwHhcNMTYxMTI4MjI1MDU4WhcNMTkwODI1MjI1MDU4WjBpMQswCQYDVQQGEwJV
UzETMBEGA1UECAwKQ2FsaWZvcm5pYTEUMBIGA1UEBwwLU2FudGEgQ2xhcmExDTAL
BgNVBAoMBHBrZzUxDDAKBgNVBAMMA3RhNTESMBAGCSqGSIb3DQEJARYDdGE1MIIB
IjANBgkqhkiG9w0BAQEFAAOCAQ8AMIIBCgKCAQEAukMJaDrCoeqvfGMbXvAmlnUT
Qx6J1LdIZ28aeCFxNDoBQpkLkuGGzroVvigtVEIxbj/DP8nljVSXlr/swoVACwon
zU4tX2NlsE3pbYuf7lVfgFrbctp6FEa9z1S5ibjGEImbwGLaoh71N9RO1lBR1Vhn
5OBc1/AwqhOPmNzrih7NzESYwqz3eSYYUFM5idozDydVmGjxPNX2SOJgdban393z
m9/lupz3J7KTs5kEW70RBOIFa8FZX0e3mLXTDUj8q7kLwxJBsfT7qgYsAc9SA9/P
DunM0KkwZOP5d/CtXDFrKqDlLOn/yZlzm72j0YrPTKmZWqq0HKqb29Ypdam3IQID
AQABo1AwTjAdBgNVHQ4EFgQUQzBg/zeK6ilZZJ3RZM8SXLC24RUwHwYDVR0jBBgw
FoAUQzBg/zeK6ilZZJ3RZM8SXLC24RUwDAYDVR0TBAUwAwEB/zANBgkqhkiG9w0B
AQsFAAOCAQEAkdzyhvz3tmgp6qkmDZiGPiSGiMUqrPXYMXCE466swDRnv+LPZVfJ
0o3fgtUxc+6mKWrC0Vvq+qIDfFExnZLwTu1iHfjlKuvUr3mY6dKbWtvdhuZS+yGw
T0q1WnKk6p2qwkzoHEsg8hz6IbKryWTBc3XyEIFZsJIzaeUui1D9PPUm2+tabltx
tOUKO4cE9CTK/NuON5CBW6Vad7FSZh8kOz7ZWpWZqUzf/nQgh+FKx6jkyeyyiCaW
oMZ6VVfJqIuhQPPkMDrCHRzpHE57Q+Qd1EuhKtVaqBDtgnkAz3SvM0CuCk4LKE3Q
pF5hsPygt0byFHUXLJeTa1qYaMSkLTlYcA==
-----END CERTIFICATE-----
