Certificate:
    Data:
        Version: 3 (0x2)
        Serial Number: 10816182450255407275 (0x961acca1c549a8ab)
    Signature Algorithm: sha256WithRSAEncryption
        Issuer: C=US, ST=California, L=Santa Clara, O=pkg5, CN=ta5/emailAddress=ta5
        Validity
            Not Before: Dec  6 03:06:43 2014 GMT
            Not After : Sep  1 03:06:43 2017 GMT
        Subject: C=US, ST=California, L=Santa Clara, O=pkg5, CN=ta5/emailAddress=ta5
        Subject Public Key Info:
            Public Key Algorithm: rsaEncryption
                Public-Key: (1024 bit)
                Modulus:
                    00:c8:6d:80:77:eb:ce:46:f9:e3:ca:a0:85:91:77:
                    03:21:78:5d:16:ae:37:fa:f5:e0:37:17:3e:68:2a:
                    ec:b7:a0:92:71:e8:d3:91:57:77:a6:b9:4b:23:6d:
                    bb:d3:12:13:f4:93:08:7e:27:eb:d0:87:30:6e:4a:
                    9a:9e:6d:70:c9:47:23:34:3e:07:73:15:09:d7:c9:
                    e7:3f:63:51:b1:dc:76:43:fe:1c:a5:a4:b9:9c:55:
                    8e:8a:6a:ae:5c:31:3e:db:69:f7:be:e5:40:e9:62:
                    a7:9d:de:0a:5f:fb:41:a5:58:37:f0:5c:08:89:3e:
                    d2:86:77:e4:f2:81:ea:2d:a7
                Exponent: 65537 (0x10001)
        X509v3 extensions:
            X509v3 Subject Key Identifier: 
                0E:C5:6E:E1:5F:98:ED:D6:82:E4:E1:85:22:3F:4C:81:00:9E:45:49
            X509v3 Authority Key Identifier: 
                keyid:0E:C5:6E:E1:5F:98:ED:D6:82:E4:E1:85:22:3F:4C:81:00:9E:45:49

            X509v3 Basic Constraints: 
                CA:TRUE
    Signature Algorithm: sha256WithRSAEncryption
         a9:e0:de:37:22:11:63:ba:c1:c4:6c:f2:a4:f9:12:23:e1:ac:
         2b:b8:da:db:bc:30:94:8d:51:42:07:aa:f0:e2:87:8a:ef:9b:
         e0:49:1c:f0:79:3a:7f:41:77:50:11:e6:b8:c6:a2:0f:31:e6:
         f0:55:24:62:31:b8:19:ca:ad:0f:a3:40:2f:f8:6e:93:d9:0c:
         2a:52:34:33:e6:d6:b6:86:f1:cc:b2:d8:99:8e:45:23:27:2a:
         f9:f7:35:83:4d:2b:4c:62:b2:53:f4:7c:98:f6:a8:5f:ab:38:
         e0:16:79:66:8a:9f:51:59:13:da:fc:df:8f:6d:ad:80:44:aa:
         55:0e
-----BEGIN CERTIFICATE-----
MIICoDCCAgmgAwIBAgIJAJYazKHFSairMA0GCSqGSIb3DQEBCwUAMGkxCzAJBgNV
BAYTAlVTMRMwEQYDVQQIDApDYWxpZm9ybmlhMRQwEgYDVQQHDAtTYW50YSBDbGFy
YTENMAsGA1UECgwEcGtnNTEMMAoGA1UEAwwDdGE1MRIwEAYJKoZIhvcNAQkBFgN0
YTUwHhcNMTQxMjA2MDMwNjQzWhcNMTcwOTAxMDMwNjQzWjBpMQswCQYDVQQGEwJV
UzETMBEGA1UECAwKQ2FsaWZvcm5pYTEUMBIGA1UEBwwLU2FudGEgQ2xhcmExDTAL
BgNVBAoMBHBrZzUxDDAKBgNVBAMMA3RhNTESMBAGCSqGSIb3DQEJARYDdGE1MIGf
MA0GCSqGSIb3DQEBAQUAA4GNADCBiQKBgQDIbYB3685G+ePKoIWRdwMheF0Wrjf6
9eA3Fz5oKuy3oJJx6NORV3emuUsjbbvTEhP0kwh+J+vQhzBuSpqebXDJRyM0Pgdz
FQnXyec/Y1Gx3HZD/hylpLmcVY6Kaq5cMT7bafe+5UDpYqed3gpf+0GlWDfwXAiJ
PtKGd+TygeotpwIDAQABo1AwTjAdBgNVHQ4EFgQUDsVu4V+Y7daC5OGFIj9MgQCe
RUkwHwYDVR0jBBgwFoAUDsVu4V+Y7daC5OGFIj9MgQCeRUkwDAYDVR0TBAUwAwEB
/zANBgkqhkiG9w0BAQsFAAOBgQCp4N43IhFjusHEbPKk+RIj4awruNrbvDCUjVFC
B6rw4oeK75vgSRzweTp/QXdQEea4xqIPMebwVSRiMbgZyq0Po0Av+G6T2QwqUjQz
5ta2hvHMstiZjkUjJyr59zWDTStMYrJT9HyY9qhfqzjgFnlmip9RWRPa/N+Pba2A
RKpVDg==
-----END CERTIFICATE-----
