Certificate:
    Data:
        Version: 3 (0x2)
        Serial Number:
            87:12:05:fe:3e:60:f4:17
    Signature Algorithm: sha256WithRSAEncryption
        Issuer: C=US, ST=California, L=Santa Clara, O=pkg5, CN=ta5/emailAddress=ta5
        Validity
            Not Before: Nov 16 10:58:51 2017 GMT
            Not After : Aug 12 10:58:51 2020 GMT
        Subject: C=US, ST=California, L=Santa Clara, O=pkg5, CN=ta5/emailAddress=ta5
        Subject Public Key Info:
            Public Key Algorithm: rsaEncryption
                Public-Key: (2048 bit)
                Modulus:
                    00:ca:c7:71:ee:6c:42:3f:b2:41:ab:59:9a:66:d3:
                    ab:62:e7:45:d2:93:93:7a:23:53:9f:3b:5d:82:ab:
                    b0:12:bd:8f:c5:64:c5:7b:ad:56:87:59:f7:cf:90:
                    7a:ab:fb:0f:8d:8a:f7:de:1d:fe:89:72:e7:27:ad:
                    ea:24:2a:ff:ba:fb:2a:b4:81:6e:89:69:df:b5:b7:
                    c7:f1:bd:2f:ea:59:17:60:86:b1:1f:b8:03:51:16:
                    b6:22:a1:23:43:7c:80:4e:06:1e:50:a3:d7:87:b7:
                    f2:b8:7a:3d:01:7c:a2:2a:bd:0b:08:e4:c5:e8:6d:
                    49:a6:68:58:f8:fe:f2:30:75:c4:84:2d:b1:05:e9:
                    32:bd:db:55:a2:b4:60:74:de:7d:01:b4:21:f4:83:
                    33:e6:77:8c:05:12:7b:52:bd:5b:03:76:b9:fd:22:
                    b1:b6:f9:d7:e6:ab:08:63:a0:bb:6f:9e:58:b8:68:
                    7b:50:29:b2:67:9f:4d:4e:f7:ca:56:d4:40:8d:5a:
                    5b:69:56:c9:ee:14:f1:01:a1:8e:ef:9d:b5:ba:1a:
                    52:79:ba:80:66:36:ee:1f:47:6a:28:80:93:9f:f8:
                    c1:45:e1:1c:55:8a:ea:9a:af:5a:f8:24:27:e9:f7:
                    00:ed:59:29:6c:34:c7:3f:f3:a6:c4:74:fb:ae:09:
                    21:6d
                Exponent: 65537 (0x10001)
        X509v3 extensions:
            X509v3 Subject Key Identifier: 
                49:6F:A1:10:0A:7E:35:50:5B:C1:28:A4:E2:9F:D5:82:4F:20:B4:8C
            X509v3 Authority Key Identifier: 
                keyid:49:6F:A1:10:0A:7E:35:50:5B:C1:28:A4:E2:9F:D5:82:4F:20:B4:8C

            X509v3 Basic Constraints: 
                CA:TRUE
    Signature Algorithm: sha256WithRSAEncryption
         14:06:19:ee:7c:df:56:7d:de:cf:5c:bd:d9:8c:9a:f8:7f:c1:
         12:20:c6:20:4c:b6:64:39:4a:11:1f:76:c6:b1:a8:c0:6b:f7:
         a0:36:b2:6b:14:0c:f4:7f:9c:d2:54:3f:6b:47:c1:d0:01:90:
         84:a1:e6:35:ca:aa:6c:ca:8f:80:72:aa:68:25:5f:ef:8d:83:
         f8:f4:06:ca:0b:cf:89:47:37:8e:0b:e7:cf:8b:56:96:a2:ed:
         74:d4:22:f7:cb:c0:2f:b5:9c:9f:6c:75:e1:7a:3d:e3:41:03:
         fa:35:1a:30:cb:33:e9:0a:80:cb:00:92:b9:51:e5:83:02:c9:
         5c:f7:43:dc:c4:c8:9b:0c:4b:71:2c:aa:b3:ed:af:ec:00:0a:
         2c:da:e9:33:99:2c:4c:7e:da:0d:20:c4:af:90:29:9b:5a:32:
         4c:f0:d2:94:99:6d:cb:13:26:ef:44:a9:2a:45:ca:af:44:c0:
         5c:14:e9:43:a1:0f:f6:aa:2f:69:99:8c:0d:a9:d4:8d:c7:2a:
         53:07:16:2d:f0:84:96:05:f0:82:20:44:ec:49:ec:86:64:c7:
         30:2a:3b:2b:5e:8e:04:80:3e:68:db:81:29:17:ed:ca:7b:a1:
         d5:b1:af:cb:5a:76:a6:a4:8a:90:6a:39:b7:c9:e7:8e:ad:ce:
         38:be:d4:b8
-----BEGIN CERTIFICATE-----
MIIDpTCCAo2gAwIBAgIJAIcSBf4+YPQXMA0GCSqGSIb3DQEBCwUAMGkxCzAJBgNV
BAYTAlVTMRMwEQYDVQQIDApDYWxpZm9ybmlhMRQwEgYDVQQHDAtTYW50YSBDbGFy
YTENMAsGA1UECgwEcGtnNTEMMAoGA1UEAwwDdGE1MRIwEAYJKoZIhvcNAQkBFgN0
YTUwHhcNMTcxMTE2MTA1ODUxWhcNMjAwODEyMTA1ODUxWjBpMQswCQYDVQQGEwJV
UzETMBEGA1UECAwKQ2FsaWZvcm5pYTEUMBIGA1UEBwwLU2FudGEgQ2xhcmExDTAL
BgNVBAoMBHBrZzUxDDAKBgNVBAMMA3RhNTESMBAGCSqGSIb3DQEJARYDdGE1MIIB
IjANBgkqhkiG9w0BAQEFAAOCAQ8AMIIBCgKCAQEAysdx7mxCP7JBq1maZtOrYudF
0pOTeiNTnztdgquwEr2PxWTFe61Wh1n3z5B6q/sPjYr33h3+iXLnJ63qJCr/uvsq
tIFuiWnftbfH8b0v6lkXYIaxH7gDURa2IqEjQ3yATgYeUKPXh7fyuHo9AXyiKr0L
COTF6G1JpmhY+P7yMHXEhC2xBekyvdtVorRgdN59AbQh9IMz5neMBRJ7Ur1bA3a5
/SKxtvnX5qsIY6C7b55YuGh7UCmyZ59NTvfKVtRAjVpbaVbJ7hTxAaGO7521uhpS
ebqAZjbuH0dqKICTn/jBReEcVYrqmq9a+CQn6fcA7VkpbDTHP/OmxHT7rgkhbQID
AQABo1AwTjAdBgNVHQ4EFgQUSW+hEAp+NVBbwSik4p/Vgk8gtIwwHwYDVR0jBBgw
FoAUSW+hEAp+NVBbwSik4p/Vgk8gtIwwDAYDVR0TBAUwAwEB/zANBgkqhkiG9w0B
AQsFAAOCAQEAFAYZ7nzfVn3ez1y92Yya+H/BEiDGIEy2ZDlKER92xrGowGv3oDay
axQM9H+c0lQ/a0fB0AGQhKHmNcqqbMqPgHKqaCVf742D+PQGygvPiUc3jgvnz4tW
lqLtdNQi98vAL7Wcn2x14Xo940ED+jUaMMsz6QqAywCSuVHlgwLJXPdD3MTImwxL
cSyqs+2v7AAKLNrpM5ksTH7aDSDEr5Apm1oyTPDSlJltyxMm70SpKkXKr0TAXBTp
Q6EP9qovaZmMDanUjccqUwcWLfCElgXwgiBE7EnshmTHMCo7K16OBIA+aNuBKRft
ynuh1bGvy1p2pqSKkGo5t8nnjq3OOL7UuA==
-----END CERTIFICATE-----
