Certificate:
    Data:
        Version: 3 (0x2)
        Serial Number:
            78:d6:bb:e1:91:28:78:bf:0a:65:76:fa:94:9e:54:37:89:e3:ec:1f
        Signature Algorithm: sha256WithRSAEncryption
        Issuer: C = US, ST = California, L = Santa Clara, O = pkg5, CN = ta5, emailAddress = ta5
        Validity
            Not Before: Oct 22 10:15:20 2021 GMT
            Not After : Jul 18 10:15:20 2024 GMT
        Subject: C = US, ST = California, L = Santa Clara, O = pkg5, CN = ta5, emailAddress = ta5
        Subject Public Key Info:
            Public Key Algorithm: rsaEncryption
                Public-Key: (2048 bit)
                Modulus:
                    00:bb:f6:4a:e0:39:23:82:85:da:e9:e3:d9:6a:f9:
                    49:a7:d0:af:c2:f4:ad:6c:74:2c:b3:a8:93:fd:14:
                    8e:fd:bd:d9:d1:4c:98:7d:d6:1b:e7:a5:63:98:71:
                    2d:ba:2a:9c:b3:6d:5f:24:c5:4a:e3:79:39:09:3d:
                    7c:9e:5f:48:3f:d8:80:bc:20:36:1e:cd:67:9b:37:
                    e6:e7:7f:46:60:8c:2c:cc:8a:5e:51:69:32:12:f5:
                    49:41:b8:69:b4:32:f2:ac:0f:7f:02:19:12:a4:07:
                    fe:b9:31:33:a3:e9:f4:70:06:b2:d2:c0:d5:ef:32:
                    92:d5:00:0b:d9:67:29:4a:68:c4:6d:e4:22:02:05:
                    cf:97:3e:0a:99:93:2a:47:f5:7f:f9:76:e7:9a:f6:
                    cc:63:01:75:ec:47:13:85:97:16:77:88:e5:1c:8e:
                    92:80:7b:ad:c7:a0:60:25:cd:35:ab:27:f2:ce:e0:
                    a3:68:d0:b5:3a:59:63:47:0f:7a:83:f1:ad:a1:84:
                    8b:4f:eb:9f:49:1d:40:9f:cc:d3:25:9c:7c:89:f4:
                    95:d5:bb:03:08:94:c7:a7:0f:4e:00:ed:73:c2:33:
                    b0:86:eb:ae:48:1b:d3:c4:d4:b5:50:a7:c1:e5:7d:
                    3c:43:a4:4d:32:34:a1:fe:71:f9:6d:dd:d9:e7:81:
                    f8:83
                Exponent: 65537 (0x10001)
        X509v3 extensions:
            X509v3 Subject Key Identifier: 
                C1:AF:FD:B2:68:2B:17:ED:10:35:5E:BE:0B:D7:57:B1:6F:EC:16:37
            X509v3 Authority Key Identifier: 
                C1:AF:FD:B2:68:2B:17:ED:10:35:5E:BE:0B:D7:57:B1:6F:EC:16:37
            X509v3 Basic Constraints: critical
                CA:TRUE
    Signature Algorithm: sha256WithRSAEncryption
    Signature Value:
        5d:9d:8f:5a:1f:cb:30:34:5b:1a:27:a0:d7:c9:42:b9:06:70:
        ec:10:b4:16:40:43:06:4d:8f:62:bc:60:29:8f:06:b9:a8:db:
        00:61:2c:92:ae:8d:bb:3e:0e:37:d1:04:3d:68:7c:3c:23:39:
        be:c1:b8:27:94:cf:cc:33:8a:fa:07:14:8b:52:2d:fc:9e:3f:
        48:94:c4:cf:60:56:d0:6e:b3:92:ad:87:84:7c:20:51:6d:13:
        0d:36:b4:98:7a:6f:26:03:18:bc:44:ed:df:79:b1:41:5b:8e:
        e1:85:e4:ea:60:47:e1:e7:6d:74:05:3e:18:ba:bd:92:55:79:
        10:e8:44:35:55:98:a9:b9:98:ae:d8:77:a3:2f:7b:7e:17:a4:
        93:13:e8:cd:ff:67:4e:cf:40:2b:10:74:26:12:8a:07:d8:f6:
        8f:12:00:fc:30:5a:72:05:65:80:b3:06:ef:19:86:2a:c1:84:
        27:f8:38:90:e6:47:c8:79:cf:14:1b:ac:ae:05:8d:55:35:b6:
        01:23:8f:d7:1a:7c:aa:f0:13:82:d2:40:ae:2b:4f:99:2b:9e:
        86:45:f2:54:87:41:7b:a7:d7:80:a2:75:d4:82:5b:db:de:6f:
        e5:09:47:c9:d9:c0:59:b4:8d:b5:28:45:ad:fa:8d:9d:65:cc:
        13:b4:52:d4
-----BEGIN CERTIFICATE-----
MIIDszCCApugAwIBAgIUeNa74ZEoeL8KZXb6lJ5UN4nj7B8wDQYJKoZIhvcNAQEL
BQAwaTELMAkGA1UEBhMCVVMxEzARBgNVBAgMCkNhbGlmb3JuaWExFDASBgNVBAcM
C1NhbnRhIENsYXJhMQ0wCwYDVQQKDARwa2c1MQwwCgYDVQQDDAN0YTUxEjAQBgkq
hkiG9w0BCQEWA3RhNTAeFw0yMTEwMjIxMDE1MjBaFw0yNDA3MTgxMDE1MjBaMGkx
CzAJBgNVBAYTAlVTMRMwEQYDVQQIDApDYWxpZm9ybmlhMRQwEgYDVQQHDAtTYW50
YSBDbGFyYTENMAsGA1UECgwEcGtnNTEMMAoGA1UEAwwDdGE1MRIwEAYJKoZIhvcN
AQkBFgN0YTUwggEiMA0GCSqGSIb3DQEBAQUAA4IBDwAwggEKAoIBAQC79krgOSOC
hdrp49lq+Umn0K/C9K1sdCyzqJP9FI79vdnRTJh91hvnpWOYcS26KpyzbV8kxUrj
eTkJPXyeX0g/2IC8IDYezWebN+bnf0ZgjCzMil5RaTIS9UlBuGm0MvKsD38CGRKk
B/65MTOj6fRwBrLSwNXvMpLVAAvZZylKaMRt5CICBc+XPgqZkypH9X/5duea9sxj
AXXsRxOFlxZ3iOUcjpKAe63HoGAlzTWrJ/LO4KNo0LU6WWNHD3qD8a2hhItP659J
HUCfzNMlnHyJ9JXVuwMIlMenD04A7XPCM7CG665IG9PE1LVQp8HlfTxDpE0yNKH+
cflt3dnngfiDAgMBAAGjUzBRMB0GA1UdDgQWBBTBr/2yaCsX7RA1Xr4L11exb+wW
NzAfBgNVHSMEGDAWgBTBr/2yaCsX7RA1Xr4L11exb+wWNzAPBgNVHRMBAf8EBTAD
AQH/MA0GCSqGSIb3DQEBCwUAA4IBAQBdnY9aH8swNFsaJ6DXyUK5BnDsELQWQEMG
TY9ivGApjwa5qNsAYSySro27Pg430QQ9aHw8Izm+wbgnlM/MM4r6BxSLUi38nj9I
lMTPYFbQbrOSrYeEfCBRbRMNNrSYem8mAxi8RO3febFBW47hheTqYEfh5210BT4Y
ur2SVXkQ6EQ1VZipuZiu2HejL3t+F6STE+jN/2dOz0ArEHQmEooH2PaPEgD8MFpy
BWWAswbvGYYqwYQn+DiQ5kfIec8UG6yuBY1VNbYBI4/XGnyq8BOC0kCuK0+ZK56G
RfJUh0F7p9eAonXUglvb3m/lCUfJ2cBZtI21KEWt+o2dZcwTtFLU
-----END CERTIFICATE-----
