Certificate:
    Data:
        Version: 3 (0x2)
        Serial Number:
            12:5e:56:c3:71:07:fd:24:a2:d9:20:b7:6c:b9:2d:da:9e:f5:c2:ca
        Signature Algorithm: sha256WithRSAEncryption
        Issuer: C = US, ST = California, L = Santa Clara, O = pkg5, OU = ta6, CN = localhost, emailAddress = ta6
        Validity
            Not Before: Nov 17 23:01:34 2020 GMT
            Not After : Aug 14 23:01:34 2023 GMT
        Subject: C = US, ST = California, L = Santa Clara, O = pkg5, OU = ta6, CN = localhost, emailAddress = ta6
        Subject Public Key Info:
            Public Key Algorithm: rsaEncryption
                RSA Public-Key: (2048 bit)
                Modulus:
                    00:a4:a3:a0:eb:44:0d:cb:a9:25:ec:34:0f:ae:b5:
                    1c:2b:23:4e:8e:57:e6:3c:2c:1c:6b:c3:b9:61:eb:
                    b1:39:b9:40:71:ba:4c:60:c1:e3:8b:c8:1c:a6:d7:
                    af:d4:7e:fc:68:04:c4:cd:cb:5e:02:4d:3a:fd:15:
                    f8:49:5e:10:35:91:e9:78:dc:0f:02:de:ab:43:38:
                    8d:65:6e:d4:af:90:da:77:15:83:0d:95:cf:f5:f3:
                    40:bb:1a:98:bd:ae:5e:6b:05:5b:1b:3c:b0:39:f0:
                    7b:be:48:fa:70:42:50:e4:2a:0f:58:fd:da:ff:87:
                    44:d0:c4:9b:fa:49:6a:ca:60:c6:33:7f:a8:01:6d:
                    6c:a8:9f:cc:16:9d:aa:ce:be:ff:04:14:cb:bb:7e:
                    f5:56:d6:86:7e:77:cb:7e:d9:c0:c8:75:42:38:38:
                    4e:0b:a8:ab:99:76:b6:15:c5:62:fd:5b:7f:34:d2:
                    07:64:18:73:49:12:87:53:22:0d:3f:e6:08:3f:e3:
                    3b:77:eb:3d:48:80:28:aa:da:a9:38:50:d6:c6:0b:
                    53:0e:1b:9f:04:bc:15:fe:7b:67:b3:dc:a2:0b:1b:
                    62:cd:db:da:ac:93:55:9f:62:98:62:4f:09:83:9f:
                    ee:ff:d4:19:22:5a:a9:03:90:a1:78:c9:e5:98:15:
                    19:c3
                Exponent: 65537 (0x10001)
        X509v3 extensions:
            X509v3 Subject Key Identifier: 
                61:30:F2:AE:B7:84:E4:18:B9:AA:F4:AD:B1:6F:E6:97:07:4B:EF:73
            X509v3 Authority Key Identifier: 
                keyid:61:30:F2:AE:B7:84:E4:18:B9:AA:F4:AD:B1:6F:E6:97:07:4B:EF:73

            X509v3 Basic Constraints: critical
                CA:TRUE
    Signature Algorithm: sha256WithRSAEncryption
         03:d8:ca:15:18:63:d0:53:5a:b0:67:90:02:d2:47:40:ee:50:
         b9:34:21:5c:25:43:51:9b:c5:2a:7b:a7:83:50:c5:2d:5a:a5:
         d1:23:a2:f8:e0:bb:ab:2c:ae:8d:64:ed:ff:b7:54:1e:2d:4a:
         cd:f7:46:f5:34:75:84:65:d8:df:b3:70:01:c4:19:84:a0:9c:
         64:af:49:14:2d:34:d3:63:3e:5d:5d:b8:b8:fc:65:18:86:4a:
         ff:15:8f:61:08:83:da:7b:4e:7e:a1:a2:ea:78:e8:98:4f:83:
         1b:39:ec:12:89:87:ae:22:e4:4d:7b:05:18:d4:7c:53:a7:bb:
         00:c1:52:6c:7c:97:39:4b:ef:c5:2e:a0:ec:c2:17:49:f5:25:
         b7:18:f4:21:3c:51:e2:e2:a7:fc:4e:23:bc:fa:14:2a:f0:c5:
         92:83:d7:a1:3d:8e:ce:44:07:b6:2d:32:ec:71:e1:1c:f8:12:
         3b:ea:43:7e:0a:4d:41:fb:f8:3d:0d:88:05:85:34:2d:b4:c6:
         c4:7f:ff:00:97:a1:f7:a1:e8:42:7c:e5:c4:64:19:9f:cc:2e:
         96:df:49:5b:b4:60:98:fd:9b:b1:ba:4c:77:a0:ce:39:40:e8:
         c9:10:7f:34:8d:5e:2a:2d:c5:ff:a8:e8:82:71:45:b1:1f:17:
         b3:55:c3:ad
-----BEGIN CERTIFICATE-----
MIID2zCCAsOgAwIBAgIUEl5Ww3EH/SSi2SC3bLkt2p71wsowDQYJKoZIhvcNAQEL
BQAwfTELMAkGA1UEBhMCVVMxEzARBgNVBAgMCkNhbGlmb3JuaWExFDASBgNVBAcM
C1NhbnRhIENsYXJhMQ0wCwYDVQQKDARwa2c1MQwwCgYDVQQLDAN0YTYxEjAQBgNV
BAMMCWxvY2FsaG9zdDESMBAGCSqGSIb3DQEJARYDdGE2MB4XDTIwMTExNzIzMDEz
NFoXDTIzMDgxNDIzMDEzNFowfTELMAkGA1UEBhMCVVMxEzARBgNVBAgMCkNhbGlm
b3JuaWExFDASBgNVBAcMC1NhbnRhIENsYXJhMQ0wCwYDVQQKDARwa2c1MQwwCgYD
VQQLDAN0YTYxEjAQBgNVBAMMCWxvY2FsaG9zdDESMBAGCSqGSIb3DQEJARYDdGE2
MIIBIjANBgkqhkiG9w0BAQEFAAOCAQ8AMIIBCgKCAQEApKOg60QNy6kl7DQPrrUc
KyNOjlfmPCwca8O5YeuxOblAcbpMYMHji8gcptev1H78aATEzcteAk06/RX4SV4Q
NZHpeNwPAt6rQziNZW7Ur5DadxWDDZXP9fNAuxqYva5eawVbGzywOfB7vkj6cEJQ
5CoPWP3a/4dE0MSb+klqymDGM3+oAW1sqJ/MFp2qzr7/BBTLu371VtaGfnfLftnA
yHVCODhOC6irmXa2FcVi/Vt/NNIHZBhzSRKHUyINP+YIP+M7d+s9SIAoqtqpOFDW
xgtTDhufBLwV/ntns9yiCxtizdvarJNVn2KYYk8Jg5/u/9QZIlqpA5CheMnlmBUZ
wwIDAQABo1MwUTAdBgNVHQ4EFgQUYTDyrreE5Bi5qvStsW/mlwdL73MwHwYDVR0j
BBgwFoAUYTDyrreE5Bi5qvStsW/mlwdL73MwDwYDVR0TAQH/BAUwAwEB/zANBgkq
hkiG9w0BAQsFAAOCAQEAA9jKFRhj0FNasGeQAtJHQO5QuTQhXCVDUZvFKnung1DF
LVql0SOi+OC7qyyujWTt/7dUHi1KzfdG9TR1hGXY37NwAcQZhKCcZK9JFC0002M+
XV24uPxlGIZK/xWPYQiD2ntOfqGi6njomE+DGznsEomHriLkTXsFGNR8U6e7AMFS
bHyXOUvvxS6g7MIXSfUltxj0ITxR4uKn/E4jvPoUKvDFkoPXoT2OzkQHti0y7HHh
HPgSO+pDfgpNQfv4PQ2IBYU0LbTGxH//AJeh96HoQnzlxGQZn8wult9JW7RgmP2b
sbpMd6DOOUDoyRB/NI1eKi3F/6jognFFsR8Xs1XDrQ==
-----END CERTIFICATE-----
