Certificate:
    Data:
        Version: 3 (0x2)
        Serial Number:
            08:38:6c:11:b9:cd:f8:a3:42:21:02:c0:f5:a9:af:65:90:f4:34:f0
        Signature Algorithm: sha256WithRSAEncryption
        Issuer: C = US, ST = California, L = Santa Clara, O = pkg5, OU = ta6, CN = localhost, emailAddress = ta6
        Validity
            Not Before: Dec 15 15:37:32 2022 GMT
            Not After : Sep 10 15:37:32 2025 GMT
        Subject: C = US, ST = California, L = Santa Clara, O = pkg5, OU = ta6, CN = localhost, emailAddress = ta6
        Subject Public Key Info:
            Public Key Algorithm: rsaEncryption
                Public-Key: (2048 bit)
                Modulus:
                    00:a1:e3:92:a8:01:a6:12:f2:4d:4c:ac:ae:61:5c:
                    d7:74:fe:37:72:48:df:a5:25:c5:6d:6d:0d:20:88:
                    53:9f:93:4f:a2:cd:43:c9:5b:48:1b:39:0c:f0:d6:
                    34:44:77:5d:7b:57:aa:e3:be:cb:37:a1:7d:6e:98:
                    32:51:f3:01:be:83:be:4a:fe:cf:60:0b:30:b3:91:
                    54:d2:b5:82:15:29:0e:9b:be:93:3c:fa:d1:5b:f8:
                    2c:ad:d6:9c:27:84:17:af:67:73:29:13:51:84:f1:
                    33:d8:f2:08:de:af:78:93:35:78:3c:21:25:95:6a:
                    35:dc:d3:b4:56:e6:d2:e6:6e:55:de:16:e3:d8:ef:
                    e9:88:20:b2:ea:0b:d7:5e:fa:c4:56:6e:61:b5:0c:
                    01:db:4c:2e:1b:85:ff:1a:5a:3d:4c:5a:d2:61:52:
                    15:de:ff:e1:56:c1:a6:87:d1:e9:52:55:ee:ae:e6:
                    68:d4:cf:eb:26:82:14:56:ce:80:b3:62:fe:46:28:
                    32:d5:a7:75:d1:a5:bd:2e:da:10:12:bf:1a:fa:fa:
                    42:5e:86:d0:4d:a2:e5:94:8f:3f:13:32:5f:03:54:
                    05:b4:ca:98:37:d9:2f:00:cf:7e:0b:d1:d6:c3:e4:
                    cd:b9:9e:d0:fe:69:88:b5:02:4b:76:a9:9a:07:f8:
                    94:cb
                Exponent: 65537 (0x10001)
        X509v3 extensions:
            X509v3 Subject Key Identifier: 
                96:C0:7F:20:80:13:7E:48:F2:86:AE:DA:06:2F:41:2C:E5:93:D3:BF
            X509v3 Authority Key Identifier: 
                96:C0:7F:20:80:13:7E:48:F2:86:AE:DA:06:2F:41:2C:E5:93:D3:BF
            X509v3 Basic Constraints: critical
                CA:TRUE
    Signature Algorithm: sha256WithRSAEncryption
    Signature Value:
        24:74:ab:76:69:c6:3f:de:e5:1a:d1:ae:7e:ce:d4:36:8d:c8:
        e6:24:1b:26:14:f9:ff:e5:d5:9f:6d:37:16:88:df:1e:9a:4e:
        d8:39:33:e1:08:82:6c:8f:1b:b7:f5:24:54:5e:54:37:e0:93:
        2b:92:0f:5e:88:e9:66:64:fa:fd:84:43:b6:8c:77:29:c8:1d:
        93:e3:14:c4:8c:d7:b1:ea:2c:3b:3b:b0:cf:06:de:61:23:bf:
        28:9a:b9:9c:36:3e:f6:dd:aa:05:1a:a7:b4:2c:d2:89:56:e1:
        03:fa:7a:1a:c0:0a:34:90:6b:71:03:28:24:b0:2c:c7:85:a9:
        60:e5:31:2a:11:c8:28:9e:5d:c7:e5:4c:a9:27:7a:21:f4:60:
        52:3d:2e:84:4d:af:e5:aa:a6:e7:47:39:23:ff:e2:46:a5:2e:
        fc:b0:f2:bd:aa:f2:19:05:4b:85:c6:c9:2a:28:fd:f9:69:12:
        71:27:cc:ef:29:41:59:43:a6:cc:ee:65:79:1d:80:f2:3f:49:
        eb:92:c7:7a:94:62:f8:74:43:82:2e:98:5e:d4:77:f5:5e:73:
        cb:77:5a:9f:a3:10:7f:0f:40:ae:37:27:45:cc:90:ce:fa:1d:
        ba:23:2e:3d:34:3b:d1:af:fa:24:ca:a0:b2:c0:e0:63:a3:ca:
        6b:0f:0f:c6
-----BEGIN CERTIFICATE-----
MIID2zCCAsOgAwIBAgIUCDhsEbnN+KNCIQLA9amvZZD0NPAwDQYJKoZIhvcNAQEL
BQAwfTELMAkGA1UEBhMCVVMxEzARBgNVBAgMCkNhbGlmb3JuaWExFDASBgNVBAcM
C1NhbnRhIENsYXJhMQ0wCwYDVQQKDARwa2c1MQwwCgYDVQQLDAN0YTYxEjAQBgNV
BAMMCWxvY2FsaG9zdDESMBAGCSqGSIb3DQEJARYDdGE2MB4XDTIyMTIxNTE1Mzcz
MloXDTI1MDkxMDE1MzczMlowfTELMAkGA1UEBhMCVVMxEzARBgNVBAgMCkNhbGlm
b3JuaWExFDASBgNVBAcMC1NhbnRhIENsYXJhMQ0wCwYDVQQKDARwa2c1MQwwCgYD
VQQLDAN0YTYxEjAQBgNVBAMMCWxvY2FsaG9zdDESMBAGCSqGSIb3DQEJARYDdGE2
MIIBIjANBgkqhkiG9w0BAQEFAAOCAQ8AMIIBCgKCAQEAoeOSqAGmEvJNTKyuYVzX
dP43ckjfpSXFbW0NIIhTn5NPos1DyVtIGzkM8NY0RHdde1eq477LN6F9bpgyUfMB
voO+Sv7PYAsws5FU0rWCFSkOm76TPPrRW/gsrdacJ4QXr2dzKRNRhPEz2PII3q94
kzV4PCEllWo13NO0VubS5m5V3hbj2O/piCCy6gvXXvrEVm5htQwB20wuG4X/Glo9
TFrSYVIV3v/hVsGmh9HpUlXuruZo1M/rJoIUVs6As2L+Rigy1ad10aW9LtoQEr8a
+vpCXobQTaLllI8/EzJfA1QFtMqYN9kvAM9+C9HWw+TNuZ7Q/mmItQJLdqmaB/iU
ywIDAQABo1MwUTAdBgNVHQ4EFgQUlsB/IIATfkjyhq7aBi9BLOWT078wHwYDVR0j
BBgwFoAUlsB/IIATfkjyhq7aBi9BLOWT078wDwYDVR0TAQH/BAUwAwEB/zANBgkq
hkiG9w0BAQsFAAOCAQEAJHSrdmnGP97lGtGufs7UNo3I5iQbJhT5/+XVn203Fojf
HppO2Dkz4QiCbI8bt/UkVF5UN+CTK5IPXojpZmT6/YRDtox3Kcgdk+MUxIzXseos
OzuwzwbeYSO/KJq5nDY+9t2qBRqntCzSiVbhA/p6GsAKNJBrcQMoJLAsx4WpYOUx
KhHIKJ5dx+VMqSd6IfRgUj0uhE2v5aqm50c5I//iRqUu/LDyvaryGQVLhcbJKij9
+WkScSfM7ylBWUOmzO5leR2A8j9J65LHepRi+HRDgi6YXtR39V5zy3dan6MQfw9A
rjcnRcyQzvoduiMuPTQ70a/6JMqgssDgY6PKaw8Pxg==
-----END CERTIFICATE-----
