Certificate:
    Data:
        Version: 3 (0x2)
        Serial Number:
            2e:ef:8b:66:ae:4f:55:33:2c:e3:87:51:f7:8c:36:ad:e9:32:b8:07
        Signature Algorithm: sha256WithRSAEncryption
        Issuer: C = US, ST = California, L = Santa Clara, O = pkg5, OU = ta7, CN = localhost, emailAddress = ta7
        Validity
            Not Before: Oct 24 21:43:15 2023 GMT
            Not After : Jul 20 21:43:15 2026 GMT
        Subject: C = US, ST = California, L = Santa Clara, O = pkg5, OU = ta7, CN = localhost, emailAddress = ta7
        Subject Public Key Info:
            Public Key Algorithm: rsaEncryption
                Public-Key: (2048 bit)
                Modulus:
                    00:e6:87:35:e1:68:34:7e:2a:60:2f:c0:af:02:02:
                    d2:d7:38:98:d5:52:45:8f:d4:6e:45:63:76:60:11:
                    1a:47:a6:ad:ce:b7:73:45:cc:91:d1:01:ab:89:38:
                    8d:a3:ea:4b:c5:66:56:cf:6b:67:91:eb:6e:d2:14:
                    99:a6:a9:b0:61:66:26:9a:41:b6:24:35:2c:53:15:
                    99:e4:66:ba:4f:ba:a0:58:12:e6:54:61:87:ba:71:
                    b8:f0:8c:23:c4:17:a4:69:91:e2:77:54:60:65:a7:
                    86:ef:56:05:2a:ca:74:63:af:72:73:fc:af:63:d3:
                    07:f9:fb:3b:d4:2d:46:23:56:b6:43:fd:ad:cd:78:
                    10:9f:9c:6b:68:fa:ae:5b:d6:f6:d5:67:cf:82:32:
                    d3:0f:eb:b3:cf:1f:1f:7c:ef:31:18:0c:b3:71:87:
                    f0:a3:a0:55:ec:97:47:1e:0f:bd:11:29:00:96:cb:
                    6b:db:bf:b2:f9:22:58:ce:68:77:a3:98:67:8e:26:
                    9a:82:5b:94:d9:1d:8e:e3:11:53:6e:60:79:ba:2f:
                    44:bf:1b:8a:f5:7c:58:56:f3:8b:fc:6e:66:a8:fa:
                    1f:64:87:92:15:20:0b:e4:9d:de:27:7e:0e:5e:bc:
                    69:f2:dd:d7:72:23:d4:7b:9e:56:af:83:ae:53:78:
                    8a:f9
                Exponent: 65537 (0x10001)
        X509v3 extensions:
            X509v3 Subject Key Identifier: 
                1B:C3:39:5D:C8:15:07:DC:38:83:65:76:0A:82:CC:BD:4A:6A:6C:6C
            X509v3 Authority Key Identifier: 
                1B:C3:39:5D:C8:15:07:DC:38:83:65:76:0A:82:CC:BD:4A:6A:6C:6C
            X509v3 Basic Constraints: critical
                CA:TRUE
    Signature Algorithm: sha256WithRSAEncryption
    Signature Value:
        71:3a:88:80:cd:56:ee:c3:59:06:c9:d9:e6:10:82:45:9f:d5:
        45:8c:70:bf:c5:3c:36:8d:1a:28:6b:33:32:34:e3:07:92:08:
        e6:95:46:98:cd:9d:4c:29:d0:28:5d:fb:ae:32:73:f8:8b:36:
        d1:9f:98:98:c2:6a:70:33:0f:e5:35:ba:3c:50:59:4e:de:15:
        26:e9:0d:5b:95:7a:fe:13:68:d6:0d:84:d9:89:4c:04:8c:73:
        67:a3:27:2e:4e:44:51:7f:3a:49:c9:6a:9d:56:60:c1:30:54:
        2f:41:0f:f8:d1:0e:48:2b:7b:6d:16:bb:d6:a3:20:4a:a0:7c:
        21:c5:a8:f7:7d:a9:46:c7:4f:21:4f:ed:8e:c0:ca:0d:41:a1:
        70:c7:a5:42:e2:6a:33:f7:e5:a0:31:e6:3a:c8:31:81:aa:bd:
        00:48:36:f7:75:ba:e6:d2:5a:6e:7d:12:2e:34:b0:05:f7:b6:
        2c:6f:3d:f5:b6:42:6c:13:e4:86:22:7a:35:78:d4:b3:74:2c:
        f8:82:ef:cd:0a:72:4f:f6:7b:d0:be:c6:6d:10:92:c0:6c:3d:
        00:13:1f:61:25:00:96:0d:a9:ff:1e:f0:7f:47:79:02:7c:b1:
        b0:8c:1d:b7:d0:38:8d:ba:e3:5a:36:c4:17:0a:6c:ca:25:14:
        89:12:f4:6e
-----BEGIN CERTIFICATE-----
MIID2zCCAsOgAwIBAgIULu+LZq5PVTMs44dR94w2rekyuAcwDQYJKoZIhvcNAQEL
BQAwfTELMAkGA1UEBhMCVVMxEzARBgNVBAgMCkNhbGlmb3JuaWExFDASBgNVBAcM
C1NhbnRhIENsYXJhMQ0wCwYDVQQKDARwa2c1MQwwCgYDVQQLDAN0YTcxEjAQBgNV
BAMMCWxvY2FsaG9zdDESMBAGCSqGSIb3DQEJARYDdGE3MB4XDTIzMTAyNDIxNDMx
NVoXDTI2MDcyMDIxNDMxNVowfTELMAkGA1UEBhMCVVMxEzARBgNVBAgMCkNhbGlm
b3JuaWExFDASBgNVBAcMC1NhbnRhIENsYXJhMQ0wCwYDVQQKDARwa2c1MQwwCgYD
VQQLDAN0YTcxEjAQBgNVBAMMCWxvY2FsaG9zdDESMBAGCSqGSIb3DQEJARYDdGE3
MIIBIjANBgkqhkiG9w0BAQEFAAOCAQ8AMIIBCgKCAQEA5oc14Wg0fipgL8CvAgLS
1ziY1VJFj9RuRWN2YBEaR6atzrdzRcyR0QGriTiNo+pLxWZWz2tnketu0hSZpqmw
YWYmmkG2JDUsUxWZ5Ga6T7qgWBLmVGGHunG48IwjxBekaZHid1RgZaeG71YFKsp0
Y69yc/yvY9MH+fs71C1GI1a2Q/2tzXgQn5xraPquW9b21WfPgjLTD+uzzx8ffO8x
GAyzcYfwo6BV7JdHHg+9ESkAlstr27+y+SJYzmh3o5hnjiaagluU2R2O4xFTbmB5
ui9EvxuK9XxYVvOL/G5mqPofZIeSFSAL5J3eJ34OXrxp8t3XciPUe55Wr4OuU3iK
+QIDAQABo1MwUTAdBgNVHQ4EFgQUG8M5XcgVB9w4g2V2CoLMvUpqbGwwHwYDVR0j
BBgwFoAUG8M5XcgVB9w4g2V2CoLMvUpqbGwwDwYDVR0TAQH/BAUwAwEB/zANBgkq
hkiG9w0BAQsFAAOCAQEAcTqIgM1W7sNZBsnZ5hCCRZ/VRYxwv8U8No0aKGszMjTj
B5II5pVGmM2dTCnQKF37rjJz+Is20Z+YmMJqcDMP5TW6PFBZTt4VJukNW5V6/hNo
1g2E2YlMBIxzZ6MnLk5EUX86SclqnVZgwTBUL0EP+NEOSCt7bRa71qMgSqB8IcWo
932pRsdPIU/tjsDKDUGhcMelQuJqM/floDHmOsgxgaq9AEg293W65tJabn0SLjSw
Bfe2LG899bZCbBPkhiJ6NXjUs3Qs+ILvzQpyT/Z70L7GbRCSwGw9ABMfYSUAlg2p
/x7wf0d5AnyxsIwdt9A4jbrjWjbEFwpsyiUUiRL0bg==
-----END CERTIFICATE-----
