Certificate:
    Data:
        Version: 3 (0x2)
        Serial Number: 16943755789411326461 (0xeb24501e5cd499fd)
    Signature Algorithm: sha256WithRSAEncryption
        Issuer: C=US, ST=California, L=Santa Clara, O=pkg5, OU=ta7, CN=localhost/emailAddress=ta7
        Validity
            Not Before: Dec  6 03:06:44 2014 GMT
            Not After : Sep  1 03:06:44 2017 GMT
        Subject: C=US, ST=California, L=Santa Clara, O=pkg5, OU=ta7, CN=localhost/emailAddress=ta7
        Subject Public Key Info:
            Public Key Algorithm: rsaEncryption
                Public-Key: (1024 bit)
                Modulus:
                    00:aa:eb:c5:b4:c2:db:91:f9:0f:76:df:84:ef:c4:
                    38:b9:50:1e:33:e2:94:da:03:18:f5:8b:58:51:c0:
                    ff:fd:b6:36:cf:b2:49:59:b7:e3:53:ec:a4:66:35:
                    d3:74:02:42:fe:c0:a0:a1:7f:ff:b8:39:57:f2:4a:
                    41:9e:9b:8a:df:fd:32:67:72:45:70:72:94:f9:ca:
                    6f:8e:8b:26:51:63:02:7d:b6:75:0d:81:6b:4e:de:
                    61:a0:e4:4a:de:66:c2:c5:f6:53:a3:50:bd:df:1c:
                    61:c1:0f:21:99:20:02:3d:73:e9:d8:f6:90:67:a7:
                    2b:8c:11:17:d0:4d:a7:ef:a3
                Exponent: 65537 (0x10001)
        X509v3 extensions:
            X509v3 Subject Key Identifier: 
                9C:B7:60:E2:27:11:0C:AE:15:52:24:17:90:6A:76:8A:F6:E6:A7:A2
            X509v3 Authority Key Identifier: 
                keyid:9C:B7:60:E2:27:11:0C:AE:15:52:24:17:90:6A:76:8A:F6:E6:A7:A2

            X509v3 Basic Constraints: 
                CA:TRUE
    Signature Algorithm: sha256WithRSAEncryption
         22:fa:46:99:b8:f2:c9:a0:09:78:28:35:c1:d8:eb:6b:44:26:
         93:f0:9b:56:5e:ea:a4:39:b6:81:b0:4f:63:16:c5:03:58:aa:
         ec:dd:0a:2e:03:95:c0:9f:28:94:7a:9d:4b:12:aa:fe:57:c3:
         e7:d7:db:dd:e3:5a:2d:1f:d1:61:6c:20:3f:af:56:14:24:cf:
         3d:73:da:b4:c3:cc:2c:b1:d7:bb:a8:5b:d1:80:f1:88:22:9d:
         04:85:64:b0:60:2f:3e:1e:79:9c:a7:02:ba:a0:78:41:f1:a7:
         54:ff:0a:4d:e2:6d:bb:95:6a:2f:4e:dc:3a:5e:4c:4a:3d:8a:
         64:b3
-----BEGIN CERTIFICATE-----
MIICyDCCAjGgAwIBAgIJAOskUB5c1Jn9MA0GCSqGSIb3DQEBCwUAMH0xCzAJBgNV
BAYTAlVTMRMwEQYDVQQIDApDYWxpZm9ybmlhMRQwEgYDVQQHDAtTYW50YSBDbGFy
YTENMAsGA1UECgwEcGtnNTEMMAoGA1UECwwDdGE3MRIwEAYDVQQDDAlsb2NhbGhv
c3QxEjAQBgkqhkiG9w0BCQEWA3RhNzAeFw0xNDEyMDYwMzA2NDRaFw0xNzA5MDEw
MzA2NDRaMH0xCzAJBgNVBAYTAlVTMRMwEQYDVQQIDApDYWxpZm9ybmlhMRQwEgYD
VQQHDAtTYW50YSBDbGFyYTENMAsGA1UECgwEcGtnNTEMMAoGA1UECwwDdGE3MRIw
EAYDVQQDDAlsb2NhbGhvc3QxEjAQBgkqhkiG9w0BCQEWA3RhNzCBnzANBgkqhkiG
9w0BAQEFAAOBjQAwgYkCgYEAquvFtMLbkfkPdt+E78Q4uVAeM+KU2gMY9YtYUcD/
/bY2z7JJWbfjU+ykZjXTdAJC/sCgoX//uDlX8kpBnpuK3/0yZ3JFcHKU+cpvjosm
UWMCfbZ1DYFrTt5hoORK3mbCxfZTo1C93xxhwQ8hmSACPXPp2PaQZ6crjBEX0E2n
76MCAwEAAaNQME4wHQYDVR0OBBYEFJy3YOInEQyuFVIkF5Bqdor25qeiMB8GA1Ud
IwQYMBaAFJy3YOInEQyuFVIkF5Bqdor25qeiMAwGA1UdEwQFMAMBAf8wDQYJKoZI
hvcNAQELBQADgYEAIvpGmbjyyaAJeCg1wdjra0Qmk/CbVl7qpDm2gbBPYxbFA1iq
7N0KLgOVwJ8olHqdSxKq/lfD59fb3eNaLR/RYWwgP69WFCTPPXPatMPMLLHXu6hb
0YDxiCKdBIVksGAvPh55nKcCuqB4QfGnVP8KTeJtu5VqL07cOl5MSj2KZLM=
-----END CERTIFICATE-----
