Certificate:
    Data:
        Version: 3 (0x2)
        Serial Number:
            43:3e:12:52:43:d5:b6:25:56:f8:0a:fa:19:d8:3e:28:e2:43:6b:f1
        Signature Algorithm: sha256WithRSAEncryption
        Issuer: C = US, ST = California, L = Santa Clara, O = pkg5, OU = ta7, CN = localhost, emailAddress = ta7
        Validity
            Not Before: Dec 15 15:37:32 2022 GMT
            Not After : Sep 10 15:37:32 2025 GMT
        Subject: C = US, ST = California, L = Santa Clara, O = pkg5, OU = ta7, CN = localhost, emailAddress = ta7
        Subject Public Key Info:
            Public Key Algorithm: rsaEncryption
                Public-Key: (2048 bit)
                Modulus:
                    00:d8:02:84:3b:da:68:23:be:8a:b0:94:62:05:b7:
                    60:25:38:65:bf:0f:d4:7c:92:6d:29:8d:2f:48:90:
                    e4:1d:af:49:97:7e:d0:c8:1b:9e:37:d7:93:3c:6c:
                    e7:9b:13:54:c4:71:74:a2:f8:31:49:78:c6:55:f1:
                    e7:3f:40:b3:13:2f:65:2f:a7:13:58:8e:16:fa:a0:
                    dc:7e:a6:89:0e:e3:78:51:22:a5:f5:35:4c:7b:15:
                    01:b1:e5:54:d0:bf:83:5a:28:22:be:4a:3c:6e:86:
                    08:e4:a5:24:12:6c:39:e4:37:9d:0f:6d:81:18:db:
                    bb:6d:57:b8:4d:8a:4c:dd:72:4c:b0:0e:ea:e0:89:
                    57:8b:cc:cc:f4:41:4d:7a:c6:d6:f1:56:2c:a9:b5:
                    88:44:24:33:33:b9:97:63:91:6a:99:02:71:a6:8d:
                    a8:ea:f1:dc:c3:b3:e4:7e:52:1f:35:7a:4d:36:8d:
                    d0:86:b1:cd:dd:e9:6f:fa:11:18:ca:a8:e4:06:10:
                    3c:a1:88:f4:19:ea:a8:24:7e:fd:dd:c4:6c:2c:39:
                    b5:53:e9:a7:38:a5:f5:a5:f4:76:74:7b:e6:c5:89:
                    7d:8d:d6:74:1f:c2:2e:7f:53:f1:c0:5f:89:9c:fc:
                    55:a8:99:e2:49:a5:5a:92:bf:08:99:bc:c0:78:46:
                    ad:e3
                Exponent: 65537 (0x10001)
        X509v3 extensions:
            X509v3 Subject Key Identifier: 
                1C:1E:BC:CD:40:DF:CC:15:FA:A1:9C:08:E1:19:5E:8D:1D:47:5A:7A
            X509v3 Authority Key Identifier: 
                1C:1E:BC:CD:40:DF:CC:15:FA:A1:9C:08:E1:19:5E:8D:1D:47:5A:7A
            X509v3 Basic Constraints: critical
                CA:TRUE
    Signature Algorithm: sha256WithRSAEncryption
    Signature Value:
        35:40:5a:d9:36:d0:07:df:5b:e4:f0:9d:de:f5:ef:00:be:1d:
        cf:55:9c:ef:81:3c:2a:58:ce:33:14:9b:75:68:7e:a3:00:19:
        28:a5:a8:8b:5a:30:b3:f4:3e:f1:db:0d:8f:5f:07:b2:4b:de:
        f3:97:78:d3:11:41:85:0d:05:82:97:f6:c2:e8:d6:70:2c:fc:
        09:1c:98:ea:8d:b7:dc:43:95:5a:e9:3b:38:4f:9c:53:57:9e:
        a0:95:3a:b2:20:31:c4:28:a0:f3:9d:ea:c4:e1:69:43:15:d5:
        5f:e6:00:20:47:0f:6e:fb:7f:43:5d:61:76:81:01:fc:ec:d7:
        e9:b3:0a:a2:fd:a2:2e:9e:7c:11:96:a3:e1:15:bc:c3:b4:62:
        48:ec:03:7d:79:ad:ce:77:63:28:77:f9:24:53:ed:bb:af:a9:
        a6:72:38:29:37:80:d2:62:9c:92:7f:ab:22:42:59:ba:d2:5b:
        d6:2c:ae:02:25:7c:88:70:4e:85:0e:b3:fd:61:cb:ab:fc:20:
        e4:e8:6a:04:33:cc:54:f4:7e:e5:01:7f:c6:58:be:3d:5b:f5:
        86:48:d3:28:c5:0a:2a:12:92:a8:8e:29:0d:8f:b6:df:64:b0:
        d4:5b:92:83:87:72:ae:10:5f:5c:65:4b:5c:e1:a4:d1:a9:46:
        c4:39:ce:63
-----BEGIN CERTIFICATE-----
MIID2zCCAsOgAwIBAgIUQz4SUkPVtiVW+Ar6Gdg+KOJDa/EwDQYJKoZIhvcNAQEL
BQAwfTELMAkGA1UEBhMCVVMxEzARBgNVBAgMCkNhbGlmb3JuaWExFDASBgNVBAcM
C1NhbnRhIENsYXJhMQ0wCwYDVQQKDARwa2c1MQwwCgYDVQQLDAN0YTcxEjAQBgNV
BAMMCWxvY2FsaG9zdDESMBAGCSqGSIb3DQEJARYDdGE3MB4XDTIyMTIxNTE1Mzcz
MloXDTI1MDkxMDE1MzczMlowfTELMAkGA1UEBhMCVVMxEzARBgNVBAgMCkNhbGlm
b3JuaWExFDASBgNVBAcMC1NhbnRhIENsYXJhMQ0wCwYDVQQKDARwa2c1MQwwCgYD
VQQLDAN0YTcxEjAQBgNVBAMMCWxvY2FsaG9zdDESMBAGCSqGSIb3DQEJARYDdGE3
MIIBIjANBgkqhkiG9w0BAQEFAAOCAQ8AMIIBCgKCAQEA2AKEO9poI76KsJRiBbdg
JThlvw/UfJJtKY0vSJDkHa9Jl37QyBueN9eTPGznmxNUxHF0ovgxSXjGVfHnP0Cz
Ey9lL6cTWI4W+qDcfqaJDuN4USKl9TVMexUBseVU0L+DWigivko8boYI5KUkEmw5
5DedD22BGNu7bVe4TYpM3XJMsA7q4IlXi8zM9EFNesbW8VYsqbWIRCQzM7mXY5Fq
mQJxpo2o6vHcw7PkflIfNXpNNo3QhrHN3elv+hEYyqjkBhA8oYj0GeqoJH793cRs
LDm1U+mnOKX1pfR2dHvmxYl9jdZ0H8Iuf1PxwF+JnPxVqJniSaVakr8ImbzAeEat
4wIDAQABo1MwUTAdBgNVHQ4EFgQUHB68zUDfzBX6oZwI4RlejR1HWnowHwYDVR0j
BBgwFoAUHB68zUDfzBX6oZwI4RlejR1HWnowDwYDVR0TAQH/BAUwAwEB/zANBgkq
hkiG9w0BAQsFAAOCAQEANUBa2TbQB99b5PCd3vXvAL4dz1Wc74E8KljOMxSbdWh+
owAZKKWoi1ows/Q+8dsNj18Hskve85d40xFBhQ0Fgpf2wujWcCz8CRyY6o233EOV
Wuk7OE+cU1eeoJU6siAxxCig853qxOFpQxXVX+YAIEcPbvt/Q11hdoEB/OzX6bMK
ov2iLp58EZaj4RW8w7RiSOwDfXmtzndjKHf5JFPtu6+ppnI4KTeA0mKckn+rIkJZ
utJb1iyuAiV8iHBOhQ6z/WHLq/wg5OhqBDPMVPR+5QF/xli+PVv1hkjTKMUKKhKS
qI4pDY+232Sw1FuSg4dyrhBfXGVLXOGk0alGxDnOYw==
-----END CERTIFICATE-----
