Certificate:
    Data:
        Version: 3 (0x2)
        Serial Number:
            90:64:02:01:10:d3:37:9a
    Signature Algorithm: sha256WithRSAEncryption
        Issuer: C=US, ST=California, L=Santa Clara, O=pkg5, OU=ta7, CN=localhost/emailAddress=ta7
        Validity
            Not Before: Mar 20 10:20:56 2018 GMT
            Not After : Dec 14 10:20:56 2020 GMT
        Subject: C=US, ST=California, L=Santa Clara, O=pkg5, OU=ta7, CN=localhost/emailAddress=ta7
        Subject Public Key Info:
            Public Key Algorithm: rsaEncryption
                Public-Key: (2048 bit)
                Modulus:
                    00:ca:90:b9:07:10:f4:d7:a1:d1:46:84:f4:50:15:
                    45:58:1d:e5:5f:fe:28:e4:ab:72:c2:2e:1c:a8:83:
                    1f:b2:67:be:9c:3f:a5:31:be:38:89:6a:e6:63:62:
                    43:d2:ec:b3:b2:85:d0:5b:da:15:ec:d5:d7:bf:51:
                    75:26:cf:6b:64:4a:08:39:1a:a3:5e:cc:1f:2b:14:
                    cb:a6:bd:25:ea:01:94:7d:d3:01:75:be:43:08:a3:
                    44:2b:f8:4a:81:96:d8:e8:a8:f8:ed:ea:fc:37:cf:
                    ad:89:a0:a9:69:7d:39:7b:48:a4:a6:8e:12:42:cb:
                    4e:22:1c:0e:2e:b5:ec:63:af:15:e7:68:b0:98:ab:
                    d9:f1:3d:b0:55:dd:dd:6f:5a:7e:b2:d1:04:98:ec:
                    63:0e:4b:b0:01:86:ba:f1:f5:b5:10:8b:a8:1d:62:
                    27:67:88:d1:4f:a8:82:38:a7:ab:f3:cb:d8:61:ae:
                    3a:8e:7c:20:5e:2e:68:d3:a4:b6:ec:9e:33:47:53:
                    6f:d9:c8:2b:2d:ef:ea:d2:0f:27:09:64:e7:7f:a8:
                    df:2d:42:13:fd:a9:46:ab:0f:33:33:66:81:3b:59:
                    33:c4:41:b5:1c:da:21:37:ae:ad:e4:bd:0c:7f:f4:
                    af:2b:f0:6c:98:ff:00:2f:9c:ec:f2:15:da:d6:b8:
                    d4:8d
                Exponent: 65537 (0x10001)
        X509v3 extensions:
            X509v3 Subject Key Identifier: 
                30:8A:18:39:48:D6:20:D3:03:F0:60:7E:50:9A:C4:30:25:E9:52:D0
            X509v3 Authority Key Identifier: 
                keyid:30:8A:18:39:48:D6:20:D3:03:F0:60:7E:50:9A:C4:30:25:E9:52:D0

            X509v3 Basic Constraints: 
                CA:TRUE
    Signature Algorithm: sha256WithRSAEncryption
         a2:42:25:c4:10:f2:ed:da:b1:29:c3:29:9d:44:44:ca:d3:48:
         b3:29:f0:ad:68:c1:64:be:2b:17:5b:76:16:8e:a8:ae:e2:34:
         ed:99:c1:32:3d:d9:54:73:41:69:f4:32:c3:a1:77:f9:ee:e6:
         d0:8d:d7:55:3d:1e:cd:14:fe:19:f6:ae:de:7a:18:bf:96:35:
         21:de:52:d6:fe:27:37:53:43:77:bb:ab:f1:87:9d:af:81:96:
         1f:bd:39:9d:5a:c6:c5:e1:ca:ae:5f:31:1b:f3:79:dc:14:3f:
         de:62:64:c5:84:48:b7:3a:32:7e:e6:43:4e:c0:0c:52:a1:4e:
         72:ce:df:67:80:14:84:27:1d:79:7c:5a:fb:ca:eb:7f:77:c7:
         c3:64:6c:23:a4:07:67:28:5b:32:c1:be:01:3e:84:5b:4b:16:
         ba:e4:f4:d5:ea:50:f1:1c:6a:7c:c0:31:42:22:b8:33:d8:f4:
         6b:61:c7:2c:6c:9f:da:05:ff:b0:e1:fa:64:dd:88:68:d2:f3:
         86:d4:82:43:36:31:1e:8e:81:a8:cf:0e:e7:6a:20:8f:d2:b2:
         a5:1d:c6:8f:10:77:1e:02:0f:87:c2:d1:dd:21:ba:8b:f2:19:
         8f:cc:d0:2a:62:e0:03:b0:13:bc:45:41:a4:43:fb:fe:6d:ea:
         01:20:13:3d
-----BEGIN CERTIFICATE-----
MIIDzTCCArWgAwIBAgIJAJBkAgEQ0zeaMA0GCSqGSIb3DQEBCwUAMH0xCzAJBgNV
BAYTAlVTMRMwEQYDVQQIDApDYWxpZm9ybmlhMRQwEgYDVQQHDAtTYW50YSBDbGFy
YTENMAsGA1UECgwEcGtnNTEMMAoGA1UECwwDdGE3MRIwEAYDVQQDDAlsb2NhbGhv
c3QxEjAQBgkqhkiG9w0BCQEWA3RhNzAeFw0xODAzMjAxMDIwNTZaFw0yMDEyMTQx
MDIwNTZaMH0xCzAJBgNVBAYTAlVTMRMwEQYDVQQIDApDYWxpZm9ybmlhMRQwEgYD
VQQHDAtTYW50YSBDbGFyYTENMAsGA1UECgwEcGtnNTEMMAoGA1UECwwDdGE3MRIw
EAYDVQQDDAlsb2NhbGhvc3QxEjAQBgkqhkiG9w0BCQEWA3RhNzCCASIwDQYJKoZI
hvcNAQEBBQADggEPADCCAQoCggEBAMqQuQcQ9Neh0UaE9FAVRVgd5V/+KOSrcsIu
HKiDH7Jnvpw/pTG+OIlq5mNiQ9Lss7KF0FvaFezV179RdSbPa2RKCDkao17MHysU
y6a9JeoBlH3TAXW+QwijRCv4SoGW2Oio+O3q/DfPrYmgqWl9OXtIpKaOEkLLTiIc
Di617GOvFedosJir2fE9sFXd3W9afrLRBJjsYw5LsAGGuvH1tRCLqB1iJ2eI0U+o
gjinq/PL2GGuOo58IF4uaNOktuyeM0dTb9nIKy3v6tIPJwlk53+o3y1CE/2pRqsP
MzNmgTtZM8RBtRzaITeureS9DH/0ryvwbJj/AC+c7PIV2ta41I0CAwEAAaNQME4w
HQYDVR0OBBYEFDCKGDlI1iDTA/BgflCaxDAl6VLQMB8GA1UdIwQYMBaAFDCKGDlI
1iDTA/BgflCaxDAl6VLQMAwGA1UdEwQFMAMBAf8wDQYJKoZIhvcNAQELBQADggEB
AKJCJcQQ8u3asSnDKZ1ERMrTSLMp8K1owWS+KxdbdhaOqK7iNO2ZwTI92VRzQWn0
MsOhd/nu5tCN11U9Hs0U/hn2rt56GL+WNSHeUtb+JzdTQ3e7q/GHna+Blh+9OZ1a
xsXhyq5fMRvzedwUP95iZMWESLc6Mn7mQ07ADFKhTnLO32eAFIQnHXl8WvvK6393
x8NkbCOkB2coWzLBvgE+hFtLFrrk9NXqUPEcanzAMUIiuDPY9Gthxyxsn9oF/7Dh
+mTdiGjS84bUgkM2MR6OgajPDudqII/SsqUdxo8Qdx4CD4fC0d0huovyGY/M0Cpi
4AOwE7xFQaRD+/5t6gEgEz0=
-----END CERTIFICATE-----
