Certificate:
    Data:
        Version: 3 (0x2)
        Serial Number:
            f9:3a:cd:b5:a6:32:9c:14
    Signature Algorithm: sha256WithRSAEncryption
        Issuer: C=US, ST=California, L=Santa Clara, O=pkg5, OU=ta7, CN=localhost/emailAddress=ta7
        Validity
            Not Before: Nov 28 22:50:58 2016 GMT
            Not After : Aug 25 22:50:58 2019 GMT
        Subject: C=US, ST=California, L=Santa Clara, O=pkg5, OU=ta7, CN=localhost/emailAddress=ta7
        Subject Public Key Info:
            Public Key Algorithm: rsaEncryption
                Public-Key: (2048 bit)
                Modulus:
                    00:b1:72:1d:00:c0:2b:38:6e:3f:4d:b4:e1:7f:f6:
                    1c:bf:fc:7a:7c:d2:b5:51:59:a0:32:40:89:27:a8:
                    52:2a:16:b9:4e:1a:3f:e0:1e:e3:2b:dc:17:40:1b:
                    6e:07:6c:fc:39:70:a4:71:4a:41:1f:70:46:29:9a:
                    64:ef:52:4b:3a:00:89:b8:59:4b:2c:a8:73:2c:64:
                    f0:a6:2b:91:09:7c:f1:95:9b:a9:d3:3a:28:92:2b:
                    b5:7c:37:78:00:6a:f9:48:df:89:2e:54:14:4f:1c:
                    54:3e:64:46:83:a8:58:1a:cf:d5:94:77:c9:d5:4c:
                    5d:b1:e0:2f:b7:25:6b:2b:b4:5c:d1:4b:56:dc:45:
                    20:68:18:74:3b:c4:77:37:a8:be:0c:00:e5:36:ca:
                    13:52:7b:3f:05:a5:f8:dc:7c:ac:51:ca:c4:5c:68:
                    77:34:04:98:07:37:8f:60:22:15:1d:cc:a8:2b:f6:
                    35:43:f4:bc:7e:2e:81:42:1c:10:ac:c9:95:f1:1b:
                    ac:55:b2:ca:56:7d:34:93:a5:8c:21:af:ad:95:aa:
                    60:80:3b:31:4c:79:ff:e2:c8:5e:45:99:dc:9f:ee:
                    c1:ba:98:4d:ba:ca:31:a4:40:59:bd:67:b8:9e:cd:
                    b9:93:21:b0:44:1e:0e:f8:b5:ad:ac:c7:35:a4:2a:
                    eb:97
                Exponent: 65537 (0x10001)
        X509v3 extensions:
            X509v3 Subject Key Identifier: 
                EF:BB:6B:B8:EF:3F:0B:0A:8F:16:B2:8A:B0:E6:23:37:7F:E8:67:15
            X509v3 Authority Key Identifier: 
                keyid:EF:BB:6B:B8:EF:3F:0B:0A:8F:16:B2:8A:B0:E6:23:37:7F:E8:67:15

            X509v3 Basic Constraints: 
                CA:TRUE
    Signature Algorithm: sha256WithRSAEncryption
         0c:26:c3:87:6c:66:4e:ee:8f:c1:61:d8:a5:1b:dc:c9:bd:74:
         69:c0:25:2e:7d:3e:81:61:72:82:31:49:cc:63:02:70:02:92:
         15:2d:cd:b1:d2:1d:f1:9e:fe:eb:84:d5:af:a3:81:e0:b4:e1:
         27:16:7b:23:5b:90:be:5b:fd:96:76:1b:d5:68:e0:63:00:13:
         08:0d:be:0f:b6:4d:72:59:81:4d:4a:5c:d7:d1:77:4c:83:0e:
         ff:c5:21:c1:68:d4:4d:f6:35:f4:1b:ca:ed:05:2e:d9:f6:c5:
         77:e9:4f:50:18:62:07:8d:2c:63:47:c9:10:f7:91:ee:5e:f8:
         ab:31:d0:72:c7:11:e3:e0:fc:d0:8a:90:10:cc:38:07:08:15:
         c2:69:f2:7c:a1:6a:08:b1:b6:05:0a:bd:1a:0f:63:77:d4:f9:
         85:2c:eb:04:4e:3a:49:ae:4e:83:2e:59:61:fe:07:94:8b:2b:
         45:ee:e5:d2:c3:42:b7:f1:86:df:3a:cf:6f:39:69:f1:f2:03:
         0e:1d:00:3e:df:4d:2d:fd:ee:e7:bb:49:29:2f:b3:94:48:e7:
         6d:ff:19:64:9f:a2:ac:d3:61:a7:2f:f5:ae:e9:95:69:27:43:
         ed:29:3e:b8:12:a2:12:85:0d:ef:38:e4:07:f4:3a:44:51:c4:
         68:30:c3:bc
-----BEGIN CERTIFICATE-----
MIIDzTCCArWgAwIBAgIJAPk6zbWmMpwUMA0GCSqGSIb3DQEBCwUAMH0xCzAJBgNV
BAYTAlVTMRMwEQYDVQQIDApDYWxpZm9ybmlhMRQwEgYDVQQHDAtTYW50YSBDbGFy
YTENMAsGA1UECgwEcGtnNTEMMAoGA1UECwwDdGE3MRIwEAYDVQQDDAlsb2NhbGhv
c3QxEjAQBgkqhkiG9w0BCQEWA3RhNzAeFw0xNjExMjgyMjUwNThaFw0xOTA4MjUy
MjUwNThaMH0xCzAJBgNVBAYTAlVTMRMwEQYDVQQIDApDYWxpZm9ybmlhMRQwEgYD
VQQHDAtTYW50YSBDbGFyYTENMAsGA1UECgwEcGtnNTEMMAoGA1UECwwDdGE3MRIw
EAYDVQQDDAlsb2NhbGhvc3QxEjAQBgkqhkiG9w0BCQEWA3RhNzCCASIwDQYJKoZI
hvcNAQEBBQADggEPADCCAQoCggEBALFyHQDAKzhuP0204X/2HL/8enzStVFZoDJA
iSeoUioWuU4aP+Ae4yvcF0Abbgds/DlwpHFKQR9wRimaZO9SSzoAibhZSyyocyxk
8KYrkQl88ZWbqdM6KJIrtXw3eABq+UjfiS5UFE8cVD5kRoOoWBrP1ZR3ydVMXbHg
L7clayu0XNFLVtxFIGgYdDvEdzeovgwA5TbKE1J7PwWl+Nx8rFHKxFxodzQEmAc3
j2AiFR3MqCv2NUP0vH4ugUIcEKzJlfEbrFWyylZ9NJOljCGvrZWqYIA7MUx5/+LI
XkWZ3J/uwbqYTbrKMaRAWb1nuJ7NuZMhsEQeDvi1razHNaQq65cCAwEAAaNQME4w
HQYDVR0OBBYEFO+7a7jvPwsKjxayirDmIzd/6GcVMB8GA1UdIwQYMBaAFO+7a7jv
PwsKjxayirDmIzd/6GcVMAwGA1UdEwQFMAMBAf8wDQYJKoZIhvcNAQELBQADggEB
AAwmw4dsZk7uj8Fh2KUb3Mm9dGnAJS59PoFhcoIxScxjAnACkhUtzbHSHfGe/uuE
1a+jgeC04ScWeyNbkL5b/ZZ2G9Vo4GMAEwgNvg+2TXJZgU1KXNfRd0yDDv/FIcFo
1E32NfQbyu0FLtn2xXfpT1AYYgeNLGNHyRD3ke5e+Ksx0HLHEePg/NCKkBDMOAcI
FcJp8nyhagixtgUKvRoPY3fU+YUs6wROOkmuToMuWWH+B5SLK0Xu5dLDQrfxht86
z285afHyAw4dAD7fTS397ue7SSkvs5RI523/GWSfoqzTYacv9a7plWknQ+0pPrgS
ohKFDe845Af0OkRRxGgww7w=
-----END CERTIFICATE-----
