Certificate:
    Data:
        Version: 3 (0x2)
        Serial Number:
            7e:32:0a:37:7a:06:16:d5:35:7d:bc:d8:02:c6:9b:d2:e9:43:72:53
        Signature Algorithm: sha256WithRSAEncryption
        Issuer: C = US, ST = California, L = Santa Clara, O = pkg5, OU = ta7, CN = localhost, emailAddress = ta7
        Validity
            Not Before: May 23 15:47:22 2024 GMT
            Not After : Feb 17 15:47:22 2027 GMT
        Subject: C = US, ST = California, L = Santa Clara, O = pkg5, OU = ta7, CN = localhost, emailAddress = ta7
        Subject Public Key Info:
            Public Key Algorithm: rsaEncryption
                Public-Key: (2048 bit)
                Modulus:
                    00:f8:3e:5b:b7:99:e7:b1:17:9f:0d:69:95:e5:0c:
                    23:0a:55:59:d8:f0:01:fe:c2:c2:95:22:a5:49:3b:
                    bd:2a:62:0a:08:d9:01:ff:1f:0a:3c:f2:2a:68:45:
                    c7:4f:27:fa:82:b0:0f:d4:9c:7c:28:f1:bf:d6:59:
                    0d:6e:97:b7:54:59:23:83:7a:dc:91:74:25:b2:21:
                    2e:17:82:5c:fc:4c:96:6c:06:94:54:20:88:82:75:
                    a1:9a:75:5f:4d:5c:4e:96:f4:f7:cd:3a:1f:62:73:
                    22:13:01:81:35:13:73:dc:ff:48:a8:24:af:01:a2:
                    0d:57:d7:ba:fc:17:64:39:29:b0:da:10:8c:1b:d8:
                    2f:9a:05:4a:23:35:f3:45:40:60:7e:9e:d1:8f:21:
                    20:02:d5:74:4c:d2:cf:22:54:cf:23:84:85:8a:a5:
                    c2:aa:54:cf:18:a8:c7:5a:74:15:6c:55:f9:ab:ae:
                    41:76:69:04:7b:8d:12:ec:30:49:33:a8:ae:01:6d:
                    4f:06:cc:58:de:cc:74:39:45:46:d1:ec:48:ef:cd:
                    8a:76:cb:3c:a3:23:55:53:68:a6:50:d4:39:f1:59:
                    a5:bf:fa:c4:5f:e0:65:36:0d:2c:a6:88:7e:12:51:
                    18:ee:ad:c8:51:3b:48:22:40:24:58:29:87:a2:39:
                    40:b1
                Exponent: 65537 (0x10001)
        X509v3 extensions:
            X509v3 Subject Key Identifier: 
                B7:31:47:3C:69:93:53:76:BD:C5:91:F1:20:96:C9:65:AE:93:89:B3
            X509v3 Authority Key Identifier: 
                B7:31:47:3C:69:93:53:76:BD:C5:91:F1:20:96:C9:65:AE:93:89:B3
            X509v3 Basic Constraints: critical
                CA:TRUE
    Signature Algorithm: sha256WithRSAEncryption
    Signature Value:
        d9:1f:ce:53:f6:04:27:40:ca:f2:76:87:d4:82:d6:68:41:36:
        58:9b:52:9a:4d:85:ae:b2:ee:ba:4b:7c:f9:db:44:32:48:fe:
        3f:fc:c2:bf:05:45:61:88:f1:db:7c:7d:bc:cf:de:cb:73:0f:
        81:10:f7:fb:35:3a:a4:32:69:fb:9e:cb:a8:54:f5:31:32:2e:
        44:b7:cf:d1:a6:92:db:9b:7b:93:1a:08:5b:4c:66:e1:e0:b9:
        32:7a:75:83:8e:93:da:2a:7e:15:56:a7:db:b3:7d:af:43:e6:
        64:e9:fd:d0:32:47:bc:5d:49:45:84:28:fd:94:ea:62:cd:d2:
        78:53:1b:62:55:a8:33:fb:f8:87:07:85:f6:cf:f0:11:9d:70:
        89:0f:50:c8:5b:18:a0:df:e7:08:83:e5:a8:d6:0c:6d:7f:c4:
        18:2c:df:39:f7:9e:b8:24:cc:75:ee:8e:72:5a:e3:31:51:d1:
        37:be:1c:fa:56:b1:23:1a:ab:c4:a3:4b:a5:91:78:25:75:1b:
        b5:06:a2:c6:a5:70:a4:d8:d8:7d:c3:10:b1:c1:2a:d1:e8:a6:
        28:5e:89:5c:8f:94:19:c0:d7:9f:c9:e6:fa:05:14:33:38:9a:
        75:9a:26:ab:6d:9d:df:cb:69:e2:2b:b4:5c:a6:55:d8:e0:79:
        9e:87:6f:cd
-----BEGIN CERTIFICATE-----
MIID2zCCAsOgAwIBAgIUfjIKN3oGFtU1fbzYAsab0ulDclMwDQYJKoZIhvcNAQEL
BQAwfTELMAkGA1UEBhMCVVMxEzARBgNVBAgMCkNhbGlmb3JuaWExFDASBgNVBAcM
C1NhbnRhIENsYXJhMQ0wCwYDVQQKDARwa2c1MQwwCgYDVQQLDAN0YTcxEjAQBgNV
BAMMCWxvY2FsaG9zdDESMBAGCSqGSIb3DQEJARYDdGE3MB4XDTI0MDUyMzE1NDcy
MloXDTI3MDIxNzE1NDcyMlowfTELMAkGA1UEBhMCVVMxEzARBgNVBAgMCkNhbGlm
b3JuaWExFDASBgNVBAcMC1NhbnRhIENsYXJhMQ0wCwYDVQQKDARwa2c1MQwwCgYD
VQQLDAN0YTcxEjAQBgNVBAMMCWxvY2FsaG9zdDESMBAGCSqGSIb3DQEJARYDdGE3
MIIBIjANBgkqhkiG9w0BAQEFAAOCAQ8AMIIBCgKCAQEA+D5bt5nnsRefDWmV5Qwj
ClVZ2PAB/sLClSKlSTu9KmIKCNkB/x8KPPIqaEXHTyf6grAP1Jx8KPG/1lkNbpe3
VFkjg3rckXQlsiEuF4Jc/EyWbAaUVCCIgnWhmnVfTVxOlvT3zTofYnMiEwGBNRNz
3P9IqCSvAaINV9e6/BdkOSmw2hCMG9gvmgVKIzXzRUBgfp7RjyEgAtV0TNLPIlTP
I4SFiqXCqlTPGKjHWnQVbFX5q65BdmkEe40S7DBJM6iuAW1PBsxY3sx0OUVG0exI
782Kdss8oyNVU2imUNQ58Vmlv/rEX+BlNg0spoh+ElEY7q3IUTtIIkAkWCmHojlA
sQIDAQABo1MwUTAdBgNVHQ4EFgQUtzFHPGmTU3a9xZHxIJbJZa6TibMwHwYDVR0j
BBgwFoAUtzFHPGmTU3a9xZHxIJbJZa6TibMwDwYDVR0TAQH/BAUwAwEB/zANBgkq
hkiG9w0BAQsFAAOCAQEA2R/OU/YEJ0DK8naH1ILWaEE2WJtSmk2FrrLuukt8+dtE
Mkj+P/zCvwVFYYjx23x9vM/ey3MPgRD3+zU6pDJp+57LqFT1MTIuRLfP0aaS25t7
kxoIW0xm4eC5Mnp1g46T2ip+FVan27N9r0PmZOn90DJHvF1JRYQo/ZTqYs3SeFMb
YlWoM/v4hweF9s/wEZ1wiQ9QyFsYoN/nCIPlqNYMbX/EGCzfOfeeuCTMde6Oclrj
MVHRN74c+laxIxqrxKNLpZF4JXUbtQaixqVwpNjYfcMQscEq0eimKF6JXI+UGcDX
n8nm+gUUMziadZomq22d38tp4iu0XKZV2OB5nodvzQ==
-----END CERTIFICATE-----
