Certificate:
    Data:
        Version: 3 (0x2)
        Serial Number:
            50:54:43:e0:36:15:35:10:23:ea:c1:39:58:24:a3:72:d7:e5:f5:d9
        Signature Algorithm: sha256WithRSAEncryption
        Issuer: C=US, ST=California, L=Santa Clara, O=pkg5, OU=ta8, CN=localhost, emailAddress=ta8
        Validity
            Not Before: Nov 14 14:26:58 2024 GMT
            Not After : Aug 11 14:26:58 2027 GMT
        Subject: C=US, ST=California, L=Santa Clara, O=pkg5, OU=ta8, CN=localhost, emailAddress=ta8
        Subject Public Key Info:
            Public Key Algorithm: rsaEncryption
                Public-Key: (2048 bit)
                Modulus:
                    00:ec:f8:73:04:e0:76:5a:a9:30:2c:f2:8e:74:28:
                    68:8d:8b:39:10:9b:b7:be:2f:d2:2b:a2:f2:28:37:
                    77:5a:e5:c8:fe:50:5c:bc:de:60:12:e7:37:6f:9a:
                    12:86:bf:ad:5c:6c:3a:a9:4a:d1:c1:5c:29:25:ec:
                    66:00:ed:b9:75:00:77:c4:09:1f:91:be:c2:df:27:
                    7b:02:13:d6:c8:22:63:ea:fe:de:57:ba:07:52:df:
                    c5:28:ef:ed:33:88:fb:cc:06:d1:16:29:2d:5d:89:
                    53:bc:92:80:b6:22:37:c6:1e:62:72:30:8f:24:b4:
                    8f:1f:b6:38:34:8f:01:a9:f8:09:20:51:35:1a:0f:
                    41:84:99:1a:53:98:da:22:df:c3:53:a3:62:a0:e2:
                    97:03:6a:90:78:b8:fc:54:5f:59:81:1f:e9:0f:96:
                    1e:6f:d5:c1:d7:c1:34:5d:d5:7b:6c:68:05:e8:e9:
                    9d:30:12:16:d3:cc:fc:fa:65:0e:51:b6:2d:47:a2:
                    00:46:07:85:b3:f0:0f:c3:66:21:c3:8d:35:3d:ae:
                    af:22:92:d8:86:b8:67:b7:c0:0d:de:e1:41:2e:13:
                    1c:1b:ac:5a:7c:1c:72:a1:ba:45:a4:a7:b5:aa:f2:
                    c9:96:78:f0:4d:a4:9a:e9:fd:20:c0:60:f4:00:c7:
                    ad:d1
                Exponent: 65537 (0x10001)
        X509v3 extensions:
            X509v3 Subject Key Identifier: 
                E3:10:28:82:9A:2B:55:B9:7E:36:A8:AE:AF:FD:FF:C6:61:C2:F3:80
            X509v3 Authority Key Identifier: 
                E3:10:28:82:9A:2B:55:B9:7E:36:A8:AE:AF:FD:FF:C6:61:C2:F3:80
            X509v3 Basic Constraints: critical
                CA:TRUE
    Signature Algorithm: sha256WithRSAEncryption
    Signature Value:
        4e:28:c5:52:b8:2e:5c:25:f0:c9:be:83:b3:3e:1a:53:bf:a6:
        e6:a8:b8:7a:36:5e:a7:3a:cf:ce:81:96:26:9b:3f:37:f4:52:
        60:67:1d:64:05:fc:5b:6f:2a:04:de:ed:11:6f:68:05:71:22:
        f2:de:d9:6c:90:94:6c:de:ca:26:51:32:1a:08:5b:a7:5d:b5:
        71:d0:ca:0a:a5:ed:b5:83:23:85:cc:ac:0d:f4:ca:76:bd:ce:
        1f:6c:43:50:f7:86:57:b6:cf:a9:1f:a5:ca:1e:9f:40:9d:76:
        d3:5c:aa:1c:8f:0a:e5:cc:c3:00:da:5d:2a:a6:5d:65:5f:8c:
        28:2f:0a:33:86:98:11:9b:f0:08:3f:70:ad:dd:f4:15:48:b7:
        4a:42:54:1e:5b:f8:2d:80:84:7f:42:a0:ba:a5:b7:c6:0d:33:
        35:1e:7a:d3:67:ca:52:a4:61:44:25:69:4a:1c:4b:9c:88:42:
        7b:a4:44:fb:19:4a:ea:96:b9:a3:77:20:2f:7e:39:1c:c0:2f:
        b5:67:c5:c0:95:da:2d:33:49:f9:44:0d:43:87:31:2c:38:c6:
        6b:2a:20:ed:38:ba:c1:42:ff:7f:69:01:0e:4a:ca:69:ac:f4:
        87:93:64:11:ab:e0:53:aa:59:93:bf:15:b7:89:33:a7:a6:5c:
        99:39:97:0b
-----BEGIN CERTIFICATE-----
MIID2zCCAsOgAwIBAgIUUFRD4DYVNRAj6sE5WCSjctfl9dkwDQYJKoZIhvcNAQEL
BQAwfTELMAkGA1UEBhMCVVMxEzARBgNVBAgMCkNhbGlmb3JuaWExFDASBgNVBAcM
C1NhbnRhIENsYXJhMQ0wCwYDVQQKDARwa2c1MQwwCgYDVQQLDAN0YTgxEjAQBgNV
BAMMCWxvY2FsaG9zdDESMBAGCSqGSIb3DQEJARYDdGE4MB4XDTI0MTExNDE0MjY1
OFoXDTI3MDgxMTE0MjY1OFowfTELMAkGA1UEBhMCVVMxEzARBgNVBAgMCkNhbGlm
b3JuaWExFDASBgNVBAcMC1NhbnRhIENsYXJhMQ0wCwYDVQQKDARwa2c1MQwwCgYD
VQQLDAN0YTgxEjAQBgNVBAMMCWxvY2FsaG9zdDESMBAGCSqGSIb3DQEJARYDdGE4
MIIBIjANBgkqhkiG9w0BAQEFAAOCAQ8AMIIBCgKCAQEA7PhzBOB2WqkwLPKOdCho
jYs5EJu3vi/SK6LyKDd3WuXI/lBcvN5gEuc3b5oShr+tXGw6qUrRwVwpJexmAO25
dQB3xAkfkb7C3yd7AhPWyCJj6v7eV7oHUt/FKO/tM4j7zAbRFiktXYlTvJKAtiI3
xh5icjCPJLSPH7Y4NI8BqfgJIFE1Gg9BhJkaU5jaIt/DU6NioOKXA2qQeLj8VF9Z
gR/pD5Yeb9XB18E0XdV7bGgF6OmdMBIW08z8+mUOUbYtR6IARgeFs/APw2Yhw401
Pa6vIpLYhrhnt8AN3uFBLhMcG6xafBxyobpFpKe1qvLJlnjwTaSa6f0gwGD0AMet
0QIDAQABo1MwUTAdBgNVHQ4EFgQU4xAogporVbl+Nqiur/3/xmHC84AwHwYDVR0j
BBgwFoAU4xAogporVbl+Nqiur/3/xmHC84AwDwYDVR0TAQH/BAUwAwEB/zANBgkq
hkiG9w0BAQsFAAOCAQEATijFUrguXCXwyb6Dsz4aU7+m5qi4ejZepzrPzoGWJps/
N/RSYGcdZAX8W28qBN7tEW9oBXEi8t7ZbJCUbN7KJlEyGghbp121cdDKCqXttYMj
hcysDfTKdr3OH2xDUPeGV7bPqR+lyh6fQJ1201yqHI8K5czDANpdKqZdZV+MKC8K
M4aYEZvwCD9wrd30FUi3SkJUHlv4LYCEf0KguqW3xg0zNR5602fKUqRhRCVpShxL
nIhCe6RE+xlK6pa5o3cgL345HMAvtWfFwJXaLTNJ+UQNQ4cxLDjGayog7Ti6wUL/
f2kBDkrKaaz0h5NkEavgU6pZk78Vt4kzp6ZcmTmXCw==
-----END CERTIFICATE-----
