Certificate:
    Data:
        Version: 3 (0x2)
        Serial Number:
            bd:e8:95:fd:a2:fd:72:b4
    Signature Algorithm: sha256WithRSAEncryption
        Issuer: C=US, ST=California, L=Santa Clara, O=pkg5, OU=ta8, CN=localhost/emailAddress=ta8
        Validity
            Not Before: Nov 16 10:58:51 2017 GMT
            Not After : Aug 12 10:58:51 2020 GMT
        Subject: C=US, ST=California, L=Santa Clara, O=pkg5, OU=ta8, CN=localhost/emailAddress=ta8
        Subject Public Key Info:
            Public Key Algorithm: rsaEncryption
                Public-Key: (2048 bit)
                Modulus:
                    00:e3:85:98:86:de:2e:bb:f7:8d:0a:4f:4b:51:9b:
                    39:34:16:58:66:f7:02:f6:2e:51:1d:95:2d:10:2f:
                    9c:ab:94:68:40:f3:00:50:a3:54:bd:df:7b:36:d0:
                    bc:34:d6:c0:a0:e7:8d:1c:b2:36:a2:8b:9f:de:d8:
                    82:88:9c:c5:79:d3:de:ba:1f:83:f2:f5:2e:aa:52:
                    f1:05:f6:6f:b0:b4:bd:22:2b:a7:61:8f:94:f2:ee:
                    bb:76:13:d0:1c:d1:df:2f:f7:98:79:8b:66:de:bc:
                    20:ec:52:5a:3e:3b:94:aa:d9:ed:90:9c:52:c0:5d:
                    88:04:77:a1:88:ce:7d:69:a8:68:af:b4:af:b5:05:
                    5c:4e:d7:01:f4:8c:f5:1e:19:95:af:d4:58:ec:f8:
                    e1:05:30:e0:b4:3d:f5:30:1a:2a:45:f5:17:c6:6e:
                    25:c0:6a:38:0b:19:78:b3:b1:22:53:6d:4f:5f:a4:
                    6e:6d:04:88:f1:f2:d5:d5:46:bc:90:49:b0:e3:17:
                    20:48:a9:82:2d:72:06:6a:a7:2c:90:ed:e3:a1:bf:
                    68:26:ab:1b:29:ac:21:8e:c0:cd:f2:f1:7c:d8:ec:
                    10:4e:9b:e8:15:8f:3c:75:63:70:70:b6:cd:87:67:
                    32:8d:c2:df:d4:26:3a:40:71:8d:d4:f1:f7:93:57:
                    1b:4f
                Exponent: 65537 (0x10001)
        X509v3 extensions:
            X509v3 Subject Key Identifier: 
                A5:11:82:C1:55:9D:E8:08:3B:5B:7B:DB:86:A9:D2:72:A8:33:F0:F6
            X509v3 Authority Key Identifier: 
                keyid:A5:11:82:C1:55:9D:E8:08:3B:5B:7B:DB:86:A9:D2:72:A8:33:F0:F6

            X509v3 Basic Constraints: 
                CA:TRUE
    Signature Algorithm: sha256WithRSAEncryption
         62:a2:d1:da:4a:2d:e6:67:70:f8:6a:2c:f1:de:72:ac:65:cd:
         db:7d:47:b6:82:fa:ba:a2:a4:75:38:58:8b:9e:57:97:5a:56:
         9b:72:a6:90:89:81:d2:cf:81:be:fc:d9:d6:57:24:2e:fd:b2:
         42:45:e1:5b:46:ca:a4:f2:50:90:c1:31:7d:35:c4:0c:c3:77:
         00:d3:c3:df:3f:4e:ce:2d:64:30:a6:81:00:56:30:6a:28:0b:
         8c:f1:fe:45:91:62:84:8b:9d:18:98:e1:8e:8d:d1:5e:84:78:
         70:c3:59:f9:32:97:35:8a:f1:b2:9f:db:9c:89:63:bf:6b:0c:
         9b:3a:d6:84:bd:32:98:87:9e:82:39:a9:4c:b9:4b:44:c8:53:
         18:45:50:a3:1b:40:0d:c7:c1:cc:37:96:c3:64:6e:0c:3e:a7:
         1b:c4:ff:cc:25:3b:0b:ea:03:44:90:03:30:61:0d:42:1c:90:
         57:64:3b:ca:e3:5d:a5:ca:ab:66:f4:57:82:3f:68:d6:9a:62:
         59:6f:f2:d8:c7:6b:71:90:98:28:5a:52:ef:24:69:19:16:c8:
         dc:a9:7d:07:40:de:55:97:cd:de:31:c2:00:84:a8:92:24:39:
         5c:f7:81:8e:8b:09:1a:57:9c:a9:23:44:c5:bb:2e:7f:fa:7d:
         0c:cb:35:03
-----BEGIN CERTIFICATE-----
MIIDzTCCArWgAwIBAgIJAL3olf2i/XK0MA0GCSqGSIb3DQEBCwUAMH0xCzAJBgNV
BAYTAlVTMRMwEQYDVQQIDApDYWxpZm9ybmlhMRQwEgYDVQQHDAtTYW50YSBDbGFy
YTENMAsGA1UECgwEcGtnNTEMMAoGA1UECwwDdGE4MRIwEAYDVQQDDAlsb2NhbGhv
c3QxEjAQBgkqhkiG9w0BCQEWA3RhODAeFw0xNzExMTYxMDU4NTFaFw0yMDA4MTIx
MDU4NTFaMH0xCzAJBgNVBAYTAlVTMRMwEQYDVQQIDApDYWxpZm9ybmlhMRQwEgYD
VQQHDAtTYW50YSBDbGFyYTENMAsGA1UECgwEcGtnNTEMMAoGA1UECwwDdGE4MRIw
EAYDVQQDDAlsb2NhbGhvc3QxEjAQBgkqhkiG9w0BCQEWA3RhODCCASIwDQYJKoZI
hvcNAQEBBQADggEPADCCAQoCggEBAOOFmIbeLrv3jQpPS1GbOTQWWGb3AvYuUR2V
LRAvnKuUaEDzAFCjVL3fezbQvDTWwKDnjRyyNqKLn97YgoicxXnT3rofg/L1LqpS
8QX2b7C0vSIrp2GPlPLuu3YT0BzR3y/3mHmLZt68IOxSWj47lKrZ7ZCcUsBdiAR3
oYjOfWmoaK+0r7UFXE7XAfSM9R4Zla/UWOz44QUw4LQ99TAaKkX1F8ZuJcBqOAsZ
eLOxIlNtT1+kbm0EiPHy1dVGvJBJsOMXIEipgi1yBmqnLJDt46G/aCarGymsIY7A
zfLxfNjsEE6b6BWPPHVjcHC2zYdnMo3C39QmOkBxjdTx95NXG08CAwEAAaNQME4w
HQYDVR0OBBYEFKURgsFVnegIO1t724ap0nKoM/D2MB8GA1UdIwQYMBaAFKURgsFV
negIO1t724ap0nKoM/D2MAwGA1UdEwQFMAMBAf8wDQYJKoZIhvcNAQELBQADggEB
AGKi0dpKLeZncPhqLPHecqxlzdt9R7aC+rqipHU4WIueV5daVptyppCJgdLPgb78
2dZXJC79skJF4VtGyqTyUJDBMX01xAzDdwDTw98/Ts4tZDCmgQBWMGooC4zx/kWR
YoSLnRiY4Y6N0V6EeHDDWfkylzWK8bKf25yJY79rDJs61oS9MpiHnoI5qUy5S0TI
UxhFUKMbQA3Hwcw3lsNkbgw+pxvE/8wlOwvqA0SQAzBhDUIckFdkO8rjXaXKq2b0
V4I/aNaaYllv8tjHa3GQmChaUu8kaRkWyNypfQdA3lWXzd4xwgCEqJIkOVz3gY6L
CRpXnKkjRMW7Ln/6fQzLNQM=
-----END CERTIFICATE-----
