Certificate:
    Data:
        Version: 3 (0x2)
        Serial Number:
            4c:63:e3:2c:3d:59:86:b7:f2:fd:cb:ff:b3:a7:c5:57:25:6e:fb:f2
        Signature Algorithm: sha256WithRSAEncryption
        Issuer: C = US, ST = California, L = Santa Clara, O = pkg5, OU = ta8, CN = localhost, emailAddress = ta8
        Validity
            Not Before: Oct 22 10:15:23 2021 GMT
            Not After : Jul 18 10:15:23 2024 GMT
        Subject: C = US, ST = California, L = Santa Clara, O = pkg5, OU = ta8, CN = localhost, emailAddress = ta8
        Subject Public Key Info:
            Public Key Algorithm: rsaEncryption
                Public-Key: (2048 bit)
                Modulus:
                    00:df:f3:c3:a5:7b:0b:3c:e5:f0:a4:03:bd:99:d9:
                    da:0e:19:96:f9:8b:b2:af:85:56:13:a5:ba:2b:7b:
                    47:74:dd:4a:16:9e:bb:56:d4:e4:05:b4:81:cb:69:
                    ba:95:10:49:08:88:99:a1:0f:b5:c2:16:66:9f:30:
                    f4:18:3a:82:53:56:9a:eb:5b:37:0c:9a:38:13:42:
                    65:d9:49:19:f8:00:6c:a5:d5:19:f4:5d:55:5d:26:
                    f4:b2:ed:08:78:de:d8:9b:1f:c3:68:29:d9:00:82:
                    8b:da:66:4b:9a:f4:cd:93:b9:c2:6c:95:5e:ed:b7:
                    ae:00:d1:0d:13:14:9a:0d:2f:96:69:72:11:95:a2:
                    71:f2:03:22:9f:c4:87:63:46:76:59:4e:1e:50:00:
                    40:eb:7a:88:e7:64:a3:c7:57:54:d5:7a:5c:91:b0:
                    86:8e:f2:5c:25:bc:11:68:2f:86:94:24:10:e7:d4:
                    b5:49:0e:98:15:12:62:ed:dc:9a:a6:59:6f:a6:c7:
                    cd:4e:16:b4:fc:03:a9:94:2b:32:20:8d:84:35:64:
                    b3:93:9d:05:8a:50:cc:da:49:e4:c4:30:73:01:18:
                    fe:5b:53:5a:51:84:f0:d8:27:7b:3c:25:31:02:97:
                    15:38:6a:bd:16:ef:80:aa:27:da:54:70:7b:e4:c5:
                    b7:b9
                Exponent: 65537 (0x10001)
        X509v3 extensions:
            X509v3 Subject Key Identifier: 
                9A:FF:E0:E4:48:68:B0:3D:02:28:44:84:34:B0:DE:8E:6F:86:CC:79
            X509v3 Authority Key Identifier: 
                9A:FF:E0:E4:48:68:B0:3D:02:28:44:84:34:B0:DE:8E:6F:86:CC:79
            X509v3 Basic Constraints: critical
                CA:TRUE
    Signature Algorithm: sha256WithRSAEncryption
    Signature Value:
        2f:3b:e6:a1:92:3e:f0:b5:67:c2:38:da:70:3c:e0:14:ad:e6:
        7c:ee:aa:8c:83:f4:39:17:f7:ae:f1:f2:0a:c3:d9:03:b3:7a:
        fc:ca:71:15:20:90:80:f3:3c:23:11:c5:f3:5f:77:5a:3b:ed:
        22:8d:c1:8c:ba:71:d2:58:6b:2b:1e:a8:ab:ae:0d:7a:6b:da:
        e3:38:9d:d5:10:e9:02:75:56:c7:59:c5:d2:f9:d3:81:8e:5f:
        60:1f:20:82:e7:3b:31:97:7f:70:46:ab:81:e9:b6:63:9f:48:
        b9:21:ad:e9:16:33:d1:3f:88:50:64:a4:33:82:4f:9f:cf:d4:
        8b:40:68:b7:1d:b3:bd:3f:b2:0d:5e:c9:00:39:db:fa:0f:5a:
        c7:e8:79:36:5e:ba:3d:e2:8a:4c:e9:d5:b5:20:8e:1e:e4:8a:
        b8:32:3b:45:bb:06:6a:0b:13:d4:b3:eb:bf:96:71:38:b4:80:
        61:11:87:ea:9d:b0:60:c0:5f:db:13:65:49:29:d0:bf:0c:c7:
        0b:9e:d8:13:15:68:22:b1:11:7a:18:eb:06:6d:55:61:31:3a:
        50:29:c9:b1:c2:cd:00:1a:79:2b:81:c3:4b:22:89:29:04:b3:
        46:d2:da:9a:41:3e:b8:6b:a9:a9:d5:e6:a4:72:d1:5a:2d:a1:
        0e:e4:ff:30
-----BEGIN CERTIFICATE-----
MIID2zCCAsOgAwIBAgIUTGPjLD1Zhrfy/cv/s6fFVyVu+/IwDQYJKoZIhvcNAQEL
BQAwfTELMAkGA1UEBhMCVVMxEzARBgNVBAgMCkNhbGlmb3JuaWExFDASBgNVBAcM
C1NhbnRhIENsYXJhMQ0wCwYDVQQKDARwa2c1MQwwCgYDVQQLDAN0YTgxEjAQBgNV
BAMMCWxvY2FsaG9zdDESMBAGCSqGSIb3DQEJARYDdGE4MB4XDTIxMTAyMjEwMTUy
M1oXDTI0MDcxODEwMTUyM1owfTELMAkGA1UEBhMCVVMxEzARBgNVBAgMCkNhbGlm
b3JuaWExFDASBgNVBAcMC1NhbnRhIENsYXJhMQ0wCwYDVQQKDARwa2c1MQwwCgYD
VQQLDAN0YTgxEjAQBgNVBAMMCWxvY2FsaG9zdDESMBAGCSqGSIb3DQEJARYDdGE4
MIIBIjANBgkqhkiG9w0BAQEFAAOCAQ8AMIIBCgKCAQEA3/PDpXsLPOXwpAO9mdna
DhmW+Yuyr4VWE6W6K3tHdN1KFp67VtTkBbSBy2m6lRBJCIiZoQ+1whZmnzD0GDqC
U1aa61s3DJo4E0Jl2UkZ+ABspdUZ9F1VXSb0su0IeN7Ymx/DaCnZAIKL2mZLmvTN
k7nCbJVe7beuANENExSaDS+WaXIRlaJx8gMin8SHY0Z2WU4eUABA63qI52Sjx1dU
1XpckbCGjvJcJbwRaC+GlCQQ59S1SQ6YFRJi7dyapllvpsfNTha0/AOplCsyII2E
NWSzk50FilDM2knkxDBzARj+W1NaUYTw2Cd7PCUxApcVOGq9Fu+AqifaVHB75MW3
uQIDAQABo1MwUTAdBgNVHQ4EFgQUmv/g5EhosD0CKESENLDejm+GzHkwHwYDVR0j
BBgwFoAUmv/g5EhosD0CKESENLDejm+GzHkwDwYDVR0TAQH/BAUwAwEB/zANBgkq
hkiG9w0BAQsFAAOCAQEALzvmoZI+8LVnwjjacDzgFK3mfO6qjIP0ORf3rvHyCsPZ
A7N6/MpxFSCQgPM8IxHF8193WjvtIo3BjLpx0lhrKx6oq64Nemva4zid1RDpAnVW
x1nF0vnTgY5fYB8gguc7MZd/cEargem2Y59IuSGt6RYz0T+IUGSkM4JPn8/Ui0Bo
tx2zvT+yDV7JADnb+g9ax+h5Nl66PeKKTOnVtSCOHuSKuDI7RbsGagsT1LPrv5Zx
OLSAYRGH6p2wYMBf2xNlSSnQvwzHC57YExVoIrERehjrBm1VYTE6UCnJscLNABp5
K4HDSyKJKQSzRtLamkE+uGupqdXmpHLRWi2hDuT/MA==
-----END CERTIFICATE-----
