Certificate:
    Data:
        Version: 3 (0x2)
        Serial Number:
            6b:7f:22:b8:30:dd:71:ce:87:6c:8e:6e:03:e1:85:2f:a3:01:da:ec
        Signature Algorithm: sha256WithRSAEncryption
        Issuer: C = US, ST = California, L = Santa Clara, O = pkg5, OU = ta8, CN = localhost, emailAddress = ta8
        Validity
            Not Before: May 23 15:47:23 2024 GMT
            Not After : Feb 17 15:47:23 2027 GMT
        Subject: C = US, ST = California, L = Santa Clara, O = pkg5, OU = ta8, CN = localhost, emailAddress = ta8
        Subject Public Key Info:
            Public Key Algorithm: rsaEncryption
                Public-Key: (2048 bit)
                Modulus:
                    00:86:b8:97:d9:7f:e4:d2:c2:f1:aa:0e:40:1a:01:
                    80:3b:77:e8:73:ac:09:cd:05:9b:bb:76:74:b5:14:
                    e5:d8:e7:bb:3d:d3:f9:81:b8:51:04:5e:40:0d:fa:
                    ef:37:87:c2:7d:9f:c2:73:54:39:8d:45:60:94:c5:
                    c4:6f:6b:f6:2b:99:fc:35:70:e4:8f:0d:01:ff:28:
                    56:b4:29:90:78:05:5f:93:a7:88:c9:95:8b:f6:53:
                    29:cc:62:5e:8c:29:41:5a:84:b8:ad:2c:13:10:bd:
                    59:18:e2:ac:85:99:73:49:07:2b:b1:e9:f6:b4:78:
                    40:06:30:0c:f3:7d:29:af:8f:03:21:6c:2e:4a:ff:
                    a7:c2:41:46:ed:38:05:20:66:b5:c6:00:87:64:ce:
                    0c:de:b0:07:e8:11:42:c5:4d:13:c6:28:6e:b3:3f:
                    0b:6f:15:07:ea:fa:35:22:20:82:90:7a:3d:5c:4a:
                    3a:4f:d3:55:32:15:e2:56:a2:2e:ea:58:11:a0:4a:
                    f6:59:91:ff:c5:d5:57:87:d5:99:a2:0e:6f:bf:36:
                    8c:97:8b:e3:6e:9b:1f:ca:f6:04:5e:3d:28:12:c6:
                    f4:07:f5:44:12:e7:b6:c8:9f:f7:d8:ac:24:5a:e4:
                    b5:00:60:04:e9:d3:7a:95:40:d0:e4:1e:01:cc:0b:
                    f1:d3
                Exponent: 65537 (0x10001)
        X509v3 extensions:
            X509v3 Subject Key Identifier: 
                51:3B:59:7C:85:01:2C:11:FC:E8:DB:12:B3:C5:66:72:5E:E0:F6:4B
            X509v3 Authority Key Identifier: 
                51:3B:59:7C:85:01:2C:11:FC:E8:DB:12:B3:C5:66:72:5E:E0:F6:4B
            X509v3 Basic Constraints: critical
                CA:TRUE
    Signature Algorithm: sha256WithRSAEncryption
    Signature Value:
        72:e3:a2:93:63:22:d6:7d:2c:02:4d:67:6a:9b:61:fb:f9:7c:
        a7:74:1e:33:a7:0d:e3:b3:ad:3b:2f:b2:e7:30:dc:62:c2:93:
        32:b1:bb:6e:ab:76:03:3d:6a:f2:d2:cd:bb:f2:9b:43:f9:bb:
        0c:f2:49:0e:ab:f5:ec:11:23:5f:c5:08:3f:95:7d:a5:1f:2b:
        4b:7a:e0:6e:67:c6:64:26:25:e5:bc:6e:5e:2d:d7:8b:09:a4:
        99:98:17:2f:56:00:8a:7a:4a:ee:61:95:39:71:3c:13:fe:65:
        3a:d4:6f:a1:39:43:11:d7:67:45:7b:51:ba:47:75:d0:ab:2b:
        4f:a4:d2:79:35:fd:be:05:36:43:78:d8:89:30:82:38:0f:69:
        b6:b7:c7:73:cf:d6:ea:3d:7a:0e:7a:0c:6d:6d:51:ec:35:5c:
        9c:85:f2:0c:60:d6:2b:69:6d:62:87:5e:1d:c0:56:80:21:fc:
        01:d4:a2:b4:d3:98:b4:38:87:5a:6f:b4:b5:c2:70:41:64:99:
        87:df:b5:95:84:16:64:b4:9b:06:76:4b:2a:79:61:44:57:99:
        dc:7e:cb:6e:e8:87:bb:95:88:81:7c:b3:9c:61:c3:79:32:68:
        dd:da:d1:e7:9b:5b:9e:de:84:74:1b:9c:97:7d:4e:8a:1e:35:
        73:39:e1:13
-----BEGIN CERTIFICATE-----
MIID2zCCAsOgAwIBAgIUa38iuDDdcc6HbI5uA+GFL6MB2uwwDQYJKoZIhvcNAQEL
BQAwfTELMAkGA1UEBhMCVVMxEzARBgNVBAgMCkNhbGlmb3JuaWExFDASBgNVBAcM
C1NhbnRhIENsYXJhMQ0wCwYDVQQKDARwa2c1MQwwCgYDVQQLDAN0YTgxEjAQBgNV
BAMMCWxvY2FsaG9zdDESMBAGCSqGSIb3DQEJARYDdGE4MB4XDTI0MDUyMzE1NDcy
M1oXDTI3MDIxNzE1NDcyM1owfTELMAkGA1UEBhMCVVMxEzARBgNVBAgMCkNhbGlm
b3JuaWExFDASBgNVBAcMC1NhbnRhIENsYXJhMQ0wCwYDVQQKDARwa2c1MQwwCgYD
VQQLDAN0YTgxEjAQBgNVBAMMCWxvY2FsaG9zdDESMBAGCSqGSIb3DQEJARYDdGE4
MIIBIjANBgkqhkiG9w0BAQEFAAOCAQ8AMIIBCgKCAQEAhriX2X/k0sLxqg5AGgGA
O3foc6wJzQWbu3Z0tRTl2Oe7PdP5gbhRBF5ADfrvN4fCfZ/Cc1Q5jUVglMXEb2v2
K5n8NXDkjw0B/yhWtCmQeAVfk6eIyZWL9lMpzGJejClBWoS4rSwTEL1ZGOKshZlz
SQcrsen2tHhABjAM830pr48DIWwuSv+nwkFG7TgFIGa1xgCHZM4M3rAH6BFCxU0T
xihusz8LbxUH6vo1IiCCkHo9XEo6T9NVMhXiVqIu6lgRoEr2WZH/xdVXh9WZog5v
vzaMl4vjbpsfyvYEXj0oEsb0B/VEEue2yJ/32KwkWuS1AGAE6dN6lUDQ5B4BzAvx
0wIDAQABo1MwUTAdBgNVHQ4EFgQUUTtZfIUBLBH86NsSs8Vmcl7g9kswHwYDVR0j
BBgwFoAUUTtZfIUBLBH86NsSs8Vmcl7g9kswDwYDVR0TAQH/BAUwAwEB/zANBgkq
hkiG9w0BAQsFAAOCAQEAcuOik2Mi1n0sAk1napth+/l8p3QeM6cN47OtOy+y5zDc
YsKTMrG7bqt2Az1q8tLNu/KbQ/m7DPJJDqv17BEjX8UIP5V9pR8rS3rgbmfGZCYl
5bxuXi3XiwmkmZgXL1YAinpK7mGVOXE8E/5lOtRvoTlDEddnRXtRukd10KsrT6TS
eTX9vgU2Q3jYiTCCOA9ptrfHc8/W6j16DnoMbW1R7DVcnIXyDGDWK2ltYodeHcBW
gCH8AdSitNOYtDiHWm+0tcJwQWSZh9+1lYQWZLSbBnZLKnlhRFeZ3H7LbuiHu5WI
gXyznGHDeTJo3drR55tbnt6EdBucl31Oih41cznhEw==
-----END CERTIFICATE-----
