Certificate:
    Data:
        Version: 3 (0x2)
        Serial Number:
            4c:c8:9f:f8:f0:bf:48:13:b6:f8:40:88:2d:74:10:8e:d2:cb:5b:75
        Signature Algorithm: sha256WithRSAEncryption
        Issuer: C = US, ST = California, L = Santa Clara, O = pkg5, OU = ta8, CN = localhost, emailAddress = ta8
        Validity
            Not Before: Dec 15 15:37:33 2022 GMT
            Not After : Sep 10 15:37:33 2025 GMT
        Subject: C = US, ST = California, L = Santa Clara, O = pkg5, OU = ta8, CN = localhost, emailAddress = ta8
        Subject Public Key Info:
            Public Key Algorithm: rsaEncryption
                Public-Key: (2048 bit)
                Modulus:
                    00:cb:b5:f5:4b:88:5b:26:51:74:53:55:bb:84:89:
                    c8:46:2c:28:9d:6c:d1:9f:d6:b7:1a:53:8c:af:bb:
                    15:54:b8:60:d3:ee:ac:ec:24:6e:31:2b:89:9e:13:
                    cd:05:46:1d:4e:14:b8:90:40:51:12:83:45:e9:f1:
                    15:75:06:b3:00:ea:e8:dd:db:16:a7:b2:b7:80:90:
                    6f:fd:f8:43:e4:72:89:cc:2f:0e:15:71:bb:b2:0c:
                    95:23:10:a8:3e:79:e9:de:db:b9:8e:ab:16:1e:d9:
                    2e:1f:55:32:cb:55:e9:a4:9e:61:91:7c:ac:81:cd:
                    93:83:bc:87:bf:cd:22:99:80:dd:19:df:bb:71:b2:
                    f0:fa:3e:1a:63:53:80:42:8b:1a:bf:3b:31:0b:da:
                    eb:73:59:75:8d:1a:2c:ee:fa:64:04:cd:ef:08:c0:
                    82:7a:0d:1b:46:fc:da:13:47:99:75:83:34:0d:61:
                    df:66:78:58:4f:77:06:ed:50:52:05:36:eb:71:98:
                    27:7f:0c:e2:a4:9d:76:a6:a9:27:38:aa:b4:6e:07:
                    df:69:c4:27:8b:92:2a:db:79:ad:9d:64:57:45:6f:
                    3d:9b:3b:39:c1:18:e2:64:4a:87:10:ee:21:ee:6c:
                    25:01:5b:83:84:d3:8f:68:ba:0f:6e:cc:41:0f:a6:
                    98:97
                Exponent: 65537 (0x10001)
        X509v3 extensions:
            X509v3 Subject Key Identifier: 
                33:3E:95:FE:F8:ED:7D:9A:E9:08:93:B0:C7:9D:30:6C:A4:A3:AC:7D
            X509v3 Authority Key Identifier: 
                33:3E:95:FE:F8:ED:7D:9A:E9:08:93:B0:C7:9D:30:6C:A4:A3:AC:7D
            X509v3 Basic Constraints: critical
                CA:TRUE
    Signature Algorithm: sha256WithRSAEncryption
    Signature Value:
        7e:8f:b2:d9:53:45:26:67:e3:73:b6:bf:4c:e7:d8:09:1e:8f:
        6d:3d:8c:cc:91:d4:44:6d:a8:20:c5:91:09:76:a6:35:c0:5c:
        75:23:2e:06:41:fe:3b:b4:b4:8f:d4:95:d0:6b:83:1f:25:b1:
        a0:f4:a2:2b:41:3b:37:4c:19:2f:9d:05:e7:74:78:73:b9:8e:
        ef:54:51:cf:cb:93:34:d6:6d:b0:13:33:81:f6:74:83:81:ac:
        5b:f4:fe:c5:00:cb:70:b3:9d:85:96:ab:72:eb:e8:96:c9:49:
        18:b6:5b:19:c3:1e:2a:4f:8a:6d:21:4b:db:43:00:f2:f6:f9:
        b2:b6:69:a7:1d:22:5d:08:81:63:36:9f:69:5b:5a:8d:9d:3e:
        28:37:c0:e6:f9:ea:7f:ab:c9:aa:4e:f7:5b:4d:fc:0c:eb:27:
        c8:95:3f:8b:c1:aa:81:a2:1b:f9:cf:28:08:b8:ae:60:80:18:
        a4:cb:de:dd:87:b9:4e:0f:6c:37:18:5f:ea:1e:91:19:c8:9d:
        e3:ac:f9:59:05:bc:15:74:9b:a1:27:da:be:a5:26:a9:bc:c3:
        36:ed:f4:44:6d:3e:09:7b:2a:d8:7f:87:4c:0f:26:ee:75:2c:
        74:0a:52:f7:00:32:95:42:7d:b4:e0:dd:d0:2a:15:23:ed:19:
        2d:2a:d2:ed
-----BEGIN CERTIFICATE-----
MIID2zCCAsOgAwIBAgIUTMif+PC/SBO2+ECILXQQjtLLW3UwDQYJKoZIhvcNAQEL
BQAwfTELMAkGA1UEBhMCVVMxEzARBgNVBAgMCkNhbGlmb3JuaWExFDASBgNVBAcM
C1NhbnRhIENsYXJhMQ0wCwYDVQQKDARwa2c1MQwwCgYDVQQLDAN0YTgxEjAQBgNV
BAMMCWxvY2FsaG9zdDESMBAGCSqGSIb3DQEJARYDdGE4MB4XDTIyMTIxNTE1Mzcz
M1oXDTI1MDkxMDE1MzczM1owfTELMAkGA1UEBhMCVVMxEzARBgNVBAgMCkNhbGlm
b3JuaWExFDASBgNVBAcMC1NhbnRhIENsYXJhMQ0wCwYDVQQKDARwa2c1MQwwCgYD
VQQLDAN0YTgxEjAQBgNVBAMMCWxvY2FsaG9zdDESMBAGCSqGSIb3DQEJARYDdGE4
MIIBIjANBgkqhkiG9w0BAQEFAAOCAQ8AMIIBCgKCAQEAy7X1S4hbJlF0U1W7hInI
RiwonWzRn9a3GlOMr7sVVLhg0+6s7CRuMSuJnhPNBUYdThS4kEBREoNF6fEVdQaz
AOro3dsWp7K3gJBv/fhD5HKJzC8OFXG7sgyVIxCoPnnp3tu5jqsWHtkuH1Uyy1Xp
pJ5hkXysgc2Tg7yHv80imYDdGd+7cbLw+j4aY1OAQosavzsxC9rrc1l1jRos7vpk
BM3vCMCCeg0bRvzaE0eZdYM0DWHfZnhYT3cG7VBSBTbrcZgnfwzipJ12pqknOKq0
bgffacQni5Iq23mtnWRXRW89mzs5wRjiZEqHEO4h7mwlAVuDhNOPaLoPbsxBD6aY
lwIDAQABo1MwUTAdBgNVHQ4EFgQUMz6V/vjtfZrpCJOwx50wbKSjrH0wHwYDVR0j
BBgwFoAUMz6V/vjtfZrpCJOwx50wbKSjrH0wDwYDVR0TAQH/BAUwAwEB/zANBgkq
hkiG9w0BAQsFAAOCAQEAfo+y2VNFJmfjc7a/TOfYCR6PbT2MzJHURG2oIMWRCXam
NcBcdSMuBkH+O7S0j9SV0GuDHyWxoPSiK0E7N0wZL50F53R4c7mO71RRz8uTNNZt
sBMzgfZ0g4GsW/T+xQDLcLOdhZarcuvolslJGLZbGcMeKk+KbSFL20MA8vb5srZp
px0iXQiBYzafaVtajZ0+KDfA5vnqf6vJqk73W038DOsnyJU/i8GqgaIb+c8oCLiu
YIAYpMve3Ye5Tg9sNxhf6h6RGcid46z5WQW8FXSboSfavqUmqbzDNu30RG0+CXsq
2H+HTA8m7nUsdApS9wAylUJ9tODd0CoVI+0ZLSrS7Q==
-----END CERTIFICATE-----
