Certificate:
    Data:
        Version: 3 (0x2)
        Serial Number: 12893894471905587549 (0xb2f050b5194e315d)
    Signature Algorithm: sha256WithRSAEncryption
        Issuer: C=US, ST=California, L=Santa Clara, O=pkg5, OU=ta8, CN=localhost/emailAddress=ta8
        Validity
            Not Before: Dec  6 03:06:44 2014 GMT
            Not After : Sep  1 03:06:44 2017 GMT
        Subject: C=US, ST=California, L=Santa Clara, O=pkg5, OU=ta8, CN=localhost/emailAddress=ta8
        Subject Public Key Info:
            Public Key Algorithm: rsaEncryption
                Public-Key: (1024 bit)
                Modulus:
                    00:b2:dc:33:fb:ba:a9:d2:f7:ab:a6:a1:1c:95:17:
                    a1:45:b8:24:c2:65:70:a1:b5:7d:6e:68:92:c3:14:
                    8d:85:5a:1b:55:ae:d4:b3:1c:34:36:ff:85:ca:f5:
                    4d:7b:2d:ed:dc:ff:e3:e7:32:ed:86:7a:9b:01:93:
                    b6:48:d8:74:3d:d4:d9:66:e3:c0:64:ae:fa:b9:0c:
                    ba:0e:01:e8:ef:93:08:02:25:af:f0:8a:21:f6:8e:
                    74:f7:9a:98:40:42:00:de:7f:30:f5:c4:2d:a7:8a:
                    81:6e:3d:0e:42:6a:8e:63:da:9e:3f:5a:69:5a:a8:
                    8a:43:89:8e:02:d2:5e:90:71
                Exponent: 65537 (0x10001)
        X509v3 extensions:
            X509v3 Subject Key Identifier: 
                04:36:08:9B:36:2F:22:C8:43:3A:37:D4:4C:46:6B:E1:9B:E7:F1:2A
            X509v3 Authority Key Identifier: 
                keyid:04:36:08:9B:36:2F:22:C8:43:3A:37:D4:4C:46:6B:E1:9B:E7:F1:2A

            X509v3 Basic Constraints: 
                CA:TRUE
    Signature Algorithm: sha256WithRSAEncryption
         6e:ae:85:65:3e:dd:2d:53:2d:6f:8d:ab:ab:b0:77:f2:c4:9c:
         df:b8:a4:01:5c:ca:5e:9a:4d:58:dd:d0:dd:01:33:4c:6d:5c:
         e5:96:82:6d:e4:ce:f7:a2:b7:5c:f3:e2:2e:e2:e5:8f:73:61:
         68:9a:c5:0f:82:20:b5:97:fd:f6:57:e3:5e:81:bc:f4:62:cd:
         7f:61:95:b7:62:1e:03:c8:aa:91:c6:56:cf:4e:ee:49:be:78:
         9c:5a:f7:58:75:71:fb:cf:91:91:99:5e:70:88:d7:3e:0b:a2:
         d9:f5:4e:e3:10:e7:99:83:2c:8f:c6:ff:9e:83:47:29:05:83:
         4f:0f
-----BEGIN CERTIFICATE-----
MIICyDCCAjGgAwIBAgIJALLwULUZTjFdMA0GCSqGSIb3DQEBCwUAMH0xCzAJBgNV
BAYTAlVTMRMwEQYDVQQIDApDYWxpZm9ybmlhMRQwEgYDVQQHDAtTYW50YSBDbGFy
YTENMAsGA1UECgwEcGtnNTEMMAoGA1UECwwDdGE4MRIwEAYDVQQDDAlsb2NhbGhv
c3QxEjAQBgkqhkiG9w0BCQEWA3RhODAeFw0xNDEyMDYwMzA2NDRaFw0xNzA5MDEw
MzA2NDRaMH0xCzAJBgNVBAYTAlVTMRMwEQYDVQQIDApDYWxpZm9ybmlhMRQwEgYD
VQQHDAtTYW50YSBDbGFyYTENMAsGA1UECgwEcGtnNTEMMAoGA1UECwwDdGE4MRIw
EAYDVQQDDAlsb2NhbGhvc3QxEjAQBgkqhkiG9w0BCQEWA3RhODCBnzANBgkqhkiG
9w0BAQEFAAOBjQAwgYkCgYEAstwz+7qp0verpqEclRehRbgkwmVwobV9bmiSwxSN
hVobVa7Usxw0Nv+FyvVNey3t3P/j5zLthnqbAZO2SNh0PdTZZuPAZK76uQy6DgHo
75MIAiWv8Ioh9o5095qYQEIA3n8w9cQtp4qBbj0OQmqOY9qeP1ppWqiKQ4mOAtJe
kHECAwEAAaNQME4wHQYDVR0OBBYEFAQ2CJs2LyLIQzo31ExGa+Gb5/EqMB8GA1Ud
IwQYMBaAFAQ2CJs2LyLIQzo31ExGa+Gb5/EqMAwGA1UdEwQFMAMBAf8wDQYJKoZI
hvcNAQELBQADgYEAbq6FZT7dLVMtb42rq7B38sSc37ikAVzKXppNWN3Q3QEzTG1c
5ZaCbeTO96K3XPPiLuLlj3NhaJrFD4IgtZf99lfjXoG89GLNf2GVt2IeA8iqkcZW
z07uSb54nFr3WHVx+8+RkZlecIjXPgui2fVO4xDnmYMsj8b/noNHKQWDTw8=
-----END CERTIFICATE-----
