Certificate:
    Data:
        Version: 3 (0x2)
        Serial Number:
            d9:72:54:87:3d:18:97:e7
    Signature Algorithm: sha256WithRSAEncryption
        Issuer: C=US, ST=California, L=Santa Clara, O=pkg5, OU=ta9, CN=localhost/emailAddress=ta9
        Validity
            Not Before: Nov 28 22:50:59 2016 GMT
            Not After : Aug 25 22:50:59 2019 GMT
        Subject: C=US, ST=California, L=Santa Clara, O=pkg5, OU=ta9, CN=localhost/emailAddress=ta9
        Subject Public Key Info:
            Public Key Algorithm: rsaEncryption
                Public-Key: (2048 bit)
                Modulus:
                    00:dc:7a:73:ea:99:f0:d2:96:5f:b3:77:e0:f9:c5:
                    5a:55:4f:9a:9c:48:6d:8b:b6:8e:b5:5d:74:55:f1:
                    d2:69:3d:3e:78:e1:45:ee:41:ce:ec:ec:6a:8f:e5:
                    01:e3:47:bd:3d:a2:14:a6:74:df:f5:71:e1:7e:da:
                    97:a7:35:3f:b7:23:ec:15:8e:45:97:16:55:b0:ca:
                    19:54:6e:ed:22:96:85:71:52:52:14:d9:9d:c8:9d:
                    af:e3:57:13:77:93:40:d8:a4:c5:b9:84:52:8c:bc:
                    77:bd:94:f9:1d:75:c7:13:26:fe:7f:3f:63:9c:86:
                    47:49:56:b1:2b:dd:6a:1a:4d:00:bb:36:e0:c9:e2:
                    c3:fe:4c:f3:f8:64:1f:10:c5:c4:3c:f0:6f:0e:a4:
                    27:06:a7:60:7b:23:09:c9:69:cd:fc:f5:36:c8:7d:
                    2c:53:bf:02:74:5e:68:81:c5:9c:e4:a9:75:2e:55:
                    30:f1:72:1d:6e:f6:a5:5a:cd:e4:36:f6:50:9f:bb:
                    b8:9d:23:fa:c7:7e:ef:00:c9:aa:39:e0:0d:45:c7:
                    09:b4:cf:ec:74:b0:94:e9:d0:21:1a:ac:89:7b:d9:
                    71:76:36:be:e1:5a:42:c7:71:27:b5:54:19:3f:65:
                    57:8b:b8:f3:51:bb:d5:ea:cc:55:7d:34:ac:d8:f2:
                    2b:21
                Exponent: 65537 (0x10001)
        X509v3 extensions:
            X509v3 Subject Key Identifier: 
                2D:1A:38:91:8F:AE:89:F6:BD:41:E1:02:A9:06:8E:90:7F:84:8D:23
            X509v3 Authority Key Identifier: 
                keyid:2D:1A:38:91:8F:AE:89:F6:BD:41:E1:02:A9:06:8E:90:7F:84:8D:23

            X509v3 Basic Constraints: 
                CA:TRUE
    Signature Algorithm: sha256WithRSAEncryption
         93:85:5d:6a:32:fd:f4:8f:ff:0b:2a:9a:39:d7:f6:1e:55:c7:
         84:da:20:f8:52:ba:19:1d:6b:42:9d:66:60:df:d9:87:d6:55:
         22:f6:ba:0f:87:68:83:f0:eb:4a:94:b7:7d:7a:97:a0:11:1e:
         e0:69:d8:ab:a7:f9:87:f2:a7:a4:c1:11:5a:9d:2d:31:34:af:
         d3:0e:13:99:8c:ee:c0:33:4c:b1:bb:79:32:99:84:b7:ac:7e:
         e2:22:03:8f:fb:23:fd:d2:07:2d:a4:8a:d5:c4:39:05:e8:88:
         c2:0e:0a:61:ea:16:ec:f8:60:91:7d:dc:72:eb:a8:d6:5d:a8:
         b9:ef:22:d8:e6:05:63:82:e7:87:dc:b9:a3:5d:0f:6d:93:59:
         35:50:b7:33:4a:36:a0:93:f7:5f:94:60:5a:fb:94:2c:6f:3b:
         1d:c3:89:ba:eb:4b:0a:fa:af:18:d1:b9:88:9e:83:29:69:7e:
         f3:21:03:e3:a4:b3:df:83:0a:2e:5f:89:9d:1c:24:6e:6b:1b:
         2d:dc:0f:d8:59:65:94:e5:7e:97:77:a4:63:97:40:b2:d9:bf:
         14:52:28:eb:4d:f8:21:d5:ae:9a:e6:ed:80:70:31:d9:44:b7:
         f2:9c:bc:b7:a3:25:08:7f:76:5d:16:ec:13:41:be:79:86:84:
         03:8d:65:f6
-----BEGIN CERTIFICATE-----
MIIDzTCCArWgAwIBAgIJANlyVIc9GJfnMA0GCSqGSIb3DQEBCwUAMH0xCzAJBgNV
BAYTAlVTMRMwEQYDVQQIDApDYWxpZm9ybmlhMRQwEgYDVQQHDAtTYW50YSBDbGFy
YTENMAsGA1UECgwEcGtnNTEMMAoGA1UECwwDdGE5MRIwEAYDVQQDDAlsb2NhbGhv
c3QxEjAQBgkqhkiG9w0BCQEWA3RhOTAeFw0xNjExMjgyMjUwNTlaFw0xOTA4MjUy
MjUwNTlaMH0xCzAJBgNVBAYTAlVTMRMwEQYDVQQIDApDYWxpZm9ybmlhMRQwEgYD
VQQHDAtTYW50YSBDbGFyYTENMAsGA1UECgwEcGtnNTEMMAoGA1UECwwDdGE5MRIw
EAYDVQQDDAlsb2NhbGhvc3QxEjAQBgkqhkiG9w0BCQEWA3RhOTCCASIwDQYJKoZI
hvcNAQEBBQADggEPADCCAQoCggEBANx6c+qZ8NKWX7N34PnFWlVPmpxIbYu2jrVd
dFXx0mk9PnjhRe5Bzuzsao/lAeNHvT2iFKZ03/Vx4X7al6c1P7cj7BWORZcWVbDK
GVRu7SKWhXFSUhTZncidr+NXE3eTQNikxbmEUoy8d72U+R11xxMm/n8/Y5yGR0lW
sSvdahpNALs24Mniw/5M8/hkHxDFxDzwbw6kJwanYHsjCclpzfz1Nsh9LFO/AnRe
aIHFnOSpdS5VMPFyHW72pVrN5Db2UJ+7uJ0j+sd+7wDJqjngDUXHCbTP7HSwlOnQ
IRqsiXvZcXY2vuFaQsdxJ7VUGT9lV4u481G71erMVX00rNjyKyECAwEAAaNQME4w
HQYDVR0OBBYEFC0aOJGPron2vUHhAqkGjpB/hI0jMB8GA1UdIwQYMBaAFC0aOJGP
ron2vUHhAqkGjpB/hI0jMAwGA1UdEwQFMAMBAf8wDQYJKoZIhvcNAQELBQADggEB
AJOFXWoy/fSP/wsqmjnX9h5Vx4TaIPhSuhkda0KdZmDf2YfWVSL2ug+HaIPw60qU
t316l6ARHuBp2Kun+Yfyp6TBEVqdLTE0r9MOE5mM7sAzTLG7eTKZhLesfuIiA4/7
I/3SBy2kitXEOQXoiMIOCmHqFuz4YJF93HLrqNZdqLnvItjmBWOC54fcuaNdD22T
WTVQtzNKNqCT91+UYFr7lCxvOx3DibrrSwr6rxjRuYiegylpfvMhA+Oks9+DCi5f
iZ0cJG5rGy3cD9hZZZTlfpd3pGOXQLLZvxRSKOtN+CHVrprm7YBwMdlEt/KcvLej
JQh/dl0W7BNBvnmGhAONZfY=
-----END CERTIFICATE-----
