Certificate:
    Data:
        Version: 3 (0x2)
        Serial Number:
            48:9a:05:cc:09:5d:b8:5f:81:3c:43:6d:05:ad:e5:5d:f4:9d:00:7d
        Signature Algorithm: sha256WithRSAEncryption
        Issuer: C = US, ST = California, L = Santa Clara, O = pkg5, OU = ta9, CN = localhost, emailAddress = ta9
        Validity
            Not Before: Nov 17 23:01:34 2020 GMT
            Not After : Aug 14 23:01:34 2023 GMT
        Subject: C = US, ST = California, L = Santa Clara, O = pkg5, OU = ta9, CN = localhost, emailAddress = ta9
        Subject Public Key Info:
            Public Key Algorithm: rsaEncryption
                RSA Public-Key: (2048 bit)
                Modulus:
                    00:a5:db:cc:c5:7b:05:e7:4b:0a:0e:ee:71:05:ee:
                    b3:6d:48:1c:5a:b5:f6:2e:5c:6a:3e:b5:5d:b6:16:
                    73:e4:9c:c6:cb:5c:58:fd:dc:37:37:2d:d2:c7:ec:
                    1c:f6:c0:10:14:17:3e:f3:23:b5:6c:2a:f5:b0:0e:
                    05:4b:b4:4c:48:e0:84:49:1c:cc:60:4a:cb:29:4c:
                    dc:21:98:19:42:7c:e7:bc:11:f8:04:bb:c5:4b:0c:
                    30:3d:a3:00:62:62:db:d4:e7:be:f3:c6:ea:8d:61:
                    d4:63:d8:93:45:84:8d:dc:93:d5:58:72:51:59:45:
                    34:fd:b3:1d:78:b6:6e:ba:3d:3a:e9:b7:a4:be:e4:
                    6d:ae:42:24:3e:4b:ba:33:6a:4c:0e:fb:b1:cd:cd:
                    67:cf:af:25:0e:3b:a7:d8:56:aa:c8:44:40:30:00:
                    8f:fd:6e:f9:46:20:b9:bc:fc:29:2a:a1:ac:4b:9e:
                    e0:77:e9:4b:0f:3c:a2:be:28:fa:ee:29:45:20:15:
                    0c:7e:30:d6:42:44:64:89:30:1a:b2:29:4e:ae:ca:
                    5f:ad:50:ca:b9:ee:7a:5a:0d:ce:3c:7d:13:96:94:
                    20:ab:b6:f9:90:ca:47:1d:0e:aa:a3:e5:fc:39:8c:
                    14:4c:db:17:41:f3:8e:62:a8:14:a6:38:90:bb:e6:
                    48:71
                Exponent: 65537 (0x10001)
        X509v3 extensions:
            X509v3 Subject Key Identifier: 
                BC:39:5D:F8:DD:DD:1C:E3:0D:A2:B5:ED:D1:D6:3F:B2:C2:3B:C8:5D
            X509v3 Authority Key Identifier: 
                keyid:BC:39:5D:F8:DD:DD:1C:E3:0D:A2:B5:ED:D1:D6:3F:B2:C2:3B:C8:5D

            X509v3 Basic Constraints: critical
                CA:TRUE
    Signature Algorithm: sha256WithRSAEncryption
         9d:a7:64:2c:7b:a4:20:24:92:65:ec:90:53:4f:53:8f:30:2a:
         0e:47:79:5b:ac:ae:97:28:5d:df:59:a2:1b:84:7c:f3:be:6c:
         f4:48:4a:23:e3:37:ae:37:3a:3e:d0:18:c5:a6:44:65:56:b8:
         5b:89:05:01:b1:0b:38:a8:30:b7:32:63:b5:8b:0b:b9:3a:14:
         6b:07:34:4f:30:3f:b0:47:2b:82:38:91:14:0a:4e:9f:55:2f:
         53:a0:33:a2:6d:82:2e:28:d6:0f:ae:56:85:f1:84:bf:42:47:
         2f:72:24:9c:5c:40:b4:3d:cb:12:2e:af:0b:55:c8:ae:bf:03:
         ad:cb:03:a8:56:c3:50:fe:3f:ed:e5:5e:a1:e3:c9:e7:31:23:
         1b:99:12:24:1f:3b:c0:19:e7:f3:99:a1:13:ac:15:20:a6:d8:
         21:40:ce:28:11:4a:35:78:3e:b4:76:ac:ba:31:e1:58:7b:9e:
         79:f4:f4:76:cc:da:85:d5:0e:24:c1:eb:a5:0d:a4:6b:de:3d:
         79:fd:0c:ed:c2:df:07:10:f8:28:f8:0d:4c:4c:c0:3c:f1:75:
         7f:2f:ff:89:33:1d:de:c9:26:f1:18:55:34:ce:d7:22:03:03:
         d9:6e:29:19:46:17:97:74:c4:1a:11:4c:fe:b2:62:80:34:9f:
         03:d1:2c:8c
-----BEGIN CERTIFICATE-----
MIID2zCCAsOgAwIBAgIUSJoFzAlduF+BPENtBa3lXfSdAH0wDQYJKoZIhvcNAQEL
BQAwfTELMAkGA1UEBhMCVVMxEzARBgNVBAgMCkNhbGlmb3JuaWExFDASBgNVBAcM
C1NhbnRhIENsYXJhMQ0wCwYDVQQKDARwa2c1MQwwCgYDVQQLDAN0YTkxEjAQBgNV
BAMMCWxvY2FsaG9zdDESMBAGCSqGSIb3DQEJARYDdGE5MB4XDTIwMTExNzIzMDEz
NFoXDTIzMDgxNDIzMDEzNFowfTELMAkGA1UEBhMCVVMxEzARBgNVBAgMCkNhbGlm
b3JuaWExFDASBgNVBAcMC1NhbnRhIENsYXJhMQ0wCwYDVQQKDARwa2c1MQwwCgYD
VQQLDAN0YTkxEjAQBgNVBAMMCWxvY2FsaG9zdDESMBAGCSqGSIb3DQEJARYDdGE5
MIIBIjANBgkqhkiG9w0BAQEFAAOCAQ8AMIIBCgKCAQEApdvMxXsF50sKDu5xBe6z
bUgcWrX2LlxqPrVdthZz5JzGy1xY/dw3Ny3Sx+wc9sAQFBc+8yO1bCr1sA4FS7RM
SOCESRzMYErLKUzcIZgZQnznvBH4BLvFSwwwPaMAYmLb1Oe+88bqjWHUY9iTRYSN
3JPVWHJRWUU0/bMdeLZuuj066bekvuRtrkIkPku6M2pMDvuxzc1nz68lDjun2Faq
yERAMACP/W75RiC5vPwpKqGsS57gd+lLDzyivij67ilFIBUMfjDWQkRkiTAasilO
rspfrVDKue56Wg3OPH0TlpQgq7b5kMpHHQ6qo+X8OYwUTNsXQfOOYqgUpjiQu+ZI
cQIDAQABo1MwUTAdBgNVHQ4EFgQUvDld+N3dHOMNorXt0dY/ssI7yF0wHwYDVR0j
BBgwFoAUvDld+N3dHOMNorXt0dY/ssI7yF0wDwYDVR0TAQH/BAUwAwEB/zANBgkq
hkiG9w0BAQsFAAOCAQEAnadkLHukICSSZeyQU09TjzAqDkd5W6yulyhd31miG4R8
875s9EhKI+M3rjc6PtAYxaZEZVa4W4kFAbELOKgwtzJjtYsLuToUawc0TzA/sEcr
gjiRFApOn1UvU6Azom2CLijWD65WhfGEv0JHL3IknFxAtD3LEi6vC1XIrr8DrcsD
qFbDUP4/7eVeoePJ5zEjG5kSJB87wBnn85mhE6wVIKbYIUDOKBFKNXg+tHasujHh
WHueefT0dszahdUOJMHrpQ2ka949ef0M7cLfBxD4KPgNTEzAPPF1fy//iTMd3skm
8RhVNM7XIgMD2W4pGUYXl3TEGhFM/rJigDSfA9EsjA==
-----END CERTIFICATE-----
