Certificate:
    Data:
        Version: 3 (0x2)
        Serial Number:
            57:f0:33:29:67:d0:37:43:20:b1:9c:3a:96:fd:be:b1:b5:ff:39:88
        Signature Algorithm: sha256WithRSAEncryption
        Issuer: C=US, ST=California, L=Santa Clara, O=pkg5, OU=ta9, CN=localhost, emailAddress=ta9
        Validity
            Not Before: Nov 14 14:26:59 2024 GMT
            Not After : Aug 11 14:26:59 2027 GMT
        Subject: C=US, ST=California, L=Santa Clara, O=pkg5, OU=ta9, CN=localhost, emailAddress=ta9
        Subject Public Key Info:
            Public Key Algorithm: rsaEncryption
                Public-Key: (2048 bit)
                Modulus:
                    00:bf:3f:1d:fd:14:3b:de:0d:c1:1e:4c:11:0d:56:
                    89:93:ea:e6:a7:0d:6e:9b:57:21:b5:88:ed:49:08:
                    a7:38:c1:c2:0b:06:ce:c8:4a:02:1a:43:3e:ec:33:
                    4d:6c:ca:b0:a5:63:6d:f0:ba:78:d3:1b:da:25:ca:
                    b3:76:de:22:53:8a:f6:d1:0d:57:1d:bc:3c:1f:d3:
                    c9:3d:c8:fa:1f:9a:93:e0:38:c3:8b:26:ae:67:ee:
                    3c:9b:27:ec:cf:ba:2f:62:d0:7c:39:59:14:b9:36:
                    ca:c6:3d:78:0c:9c:75:6c:3d:bb:a2:3f:bd:84:71:
                    df:f3:2d:03:68:c6:e2:47:52:7d:af:83:ad:e3:c3:
                    98:37:c1:16:6d:a8:3d:57:93:68:b6:83:ee:ee:51:
                    99:25:cf:7d:85:b7:da:36:98:a5:53:c8:c0:64:9a:
                    a4:c7:ac:8d:f7:c8:3c:ba:1a:ca:3a:70:f8:27:51:
                    b5:06:94:d5:6b:20:b5:99:aa:57:44:19:1f:cb:7f:
                    4c:ea:02:81:d8:ec:5c:ee:6f:9a:0d:c2:dd:3d:9a:
                    9c:a0:be:a9:23:16:a3:53:d7:03:b5:2d:7e:c8:b6:
                    2d:f6:99:a7:3b:91:d2:d2:1f:20:76:54:4b:2b:c9:
                    78:0c:e6:08:df:b5:04:c7:48:4a:7c:b5:18:32:36:
                    75:51
                Exponent: 65537 (0x10001)
        X509v3 extensions:
            X509v3 Subject Key Identifier: 
                3A:05:F9:04:EE:10:DA:84:B3:69:85:0E:67:45:8F:27:21:2D:AF:54
            X509v3 Authority Key Identifier: 
                3A:05:F9:04:EE:10:DA:84:B3:69:85:0E:67:45:8F:27:21:2D:AF:54
            X509v3 Basic Constraints: critical
                CA:TRUE
    Signature Algorithm: sha256WithRSAEncryption
    Signature Value:
        90:8f:29:d7:99:b5:39:a0:35:a5:30:b9:4b:6e:cd:8b:9e:53:
        7d:34:ec:df:5f:1f:dd:3f:00:e8:4a:7c:a7:ec:0f:e5:3e:bb:
        df:6a:a9:e3:79:9a:37:e4:e2:4b:ba:f6:07:ed:71:f0:af:25:
        d6:17:85:9d:bd:17:31:9f:3c:73:fb:8f:80:15:de:9a:de:f9:
        cb:0f:21:d7:3d:9d:c9:3c:48:8a:03:31:ab:be:d8:8a:7f:97:
        a8:ce:38:c0:03:c4:d5:0b:15:bf:6c:55:a3:19:eb:9d:2a:2c:
        62:fd:7f:5b:e6:e5:27:e3:9a:87:f4:e1:91:71:d7:c1:38:d0:
        70:64:47:0f:ff:90:74:ca:c5:13:e8:b0:ff:a3:42:68:05:d6:
        6f:88:a2:0c:98:ea:f7:e5:2f:68:4f:96:23:7b:51:2f:fc:48:
        27:be:5a:66:1d:81:46:26:da:91:af:f9:0f:61:eb:4b:e0:e2:
        8a:2c:93:a7:ff:87:bb:aa:37:fb:57:c2:74:aa:0d:5a:e3:4c:
        9d:e2:28:3e:97:50:cd:03:79:46:52:e4:a0:bf:01:d6:d0:b6:
        86:67:65:36:cb:80:e9:4a:35:e1:de:0d:97:94:31:3f:85:88:
        49:8e:42:70:75:20:8e:b8:07:ce:0a:bd:13:ed:52:53:09:46:
        9f:30:f2:f6
-----BEGIN CERTIFICATE-----
MIID2zCCAsOgAwIBAgIUV/AzKWfQN0MgsZw6lv2+sbX/OYgwDQYJKoZIhvcNAQEL
BQAwfTELMAkGA1UEBhMCVVMxEzARBgNVBAgMCkNhbGlmb3JuaWExFDASBgNVBAcM
C1NhbnRhIENsYXJhMQ0wCwYDVQQKDARwa2c1MQwwCgYDVQQLDAN0YTkxEjAQBgNV
BAMMCWxvY2FsaG9zdDESMBAGCSqGSIb3DQEJARYDdGE5MB4XDTI0MTExNDE0MjY1
OVoXDTI3MDgxMTE0MjY1OVowfTELMAkGA1UEBhMCVVMxEzARBgNVBAgMCkNhbGlm
b3JuaWExFDASBgNVBAcMC1NhbnRhIENsYXJhMQ0wCwYDVQQKDARwa2c1MQwwCgYD
VQQLDAN0YTkxEjAQBgNVBAMMCWxvY2FsaG9zdDESMBAGCSqGSIb3DQEJARYDdGE5
MIIBIjANBgkqhkiG9w0BAQEFAAOCAQ8AMIIBCgKCAQEAvz8d/RQ73g3BHkwRDVaJ
k+rmpw1um1chtYjtSQinOMHCCwbOyEoCGkM+7DNNbMqwpWNt8Lp40xvaJcqzdt4i
U4r20Q1XHbw8H9PJPcj6H5qT4DjDiyauZ+48myfsz7ovYtB8OVkUuTbKxj14DJx1
bD27oj+9hHHf8y0DaMbiR1J9r4Ot48OYN8EWbag9V5NotoPu7lGZJc99hbfaNpil
U8jAZJqkx6yN98g8uhrKOnD4J1G1BpTVayC1mapXRBkfy39M6gKB2Oxc7m+aDcLd
PZqcoL6pIxajU9cDtS1+yLYt9pmnO5HS0h8gdlRLK8l4DOYI37UEx0hKfLUYMjZ1
UQIDAQABo1MwUTAdBgNVHQ4EFgQUOgX5BO4Q2oSzaYUOZ0WPJyEtr1QwHwYDVR0j
BBgwFoAUOgX5BO4Q2oSzaYUOZ0WPJyEtr1QwDwYDVR0TAQH/BAUwAwEB/zANBgkq
hkiG9w0BAQsFAAOCAQEAkI8p15m1OaA1pTC5S27Ni55TfTTs318f3T8A6Ep8p+wP
5T6732qp43maN+TiS7r2B+1x8K8l1heFnb0XMZ88c/uPgBXemt75yw8h1z2dyTxI
igMxq77Yin+XqM44wAPE1QsVv2xVoxnrnSosYv1/W+blJ+Oah/ThkXHXwTjQcGRH
D/+QdMrFE+iw/6NCaAXWb4iiDJjq9+UvaE+WI3tRL/xIJ75aZh2BRibaka/5D2Hr
S+DiiiyTp/+Hu6o3+1fCdKoNWuNMneIoPpdQzQN5RlLkoL8B1tC2hmdlNsuA6Uo1
4d4Nl5QxP4WISY5CcHUgjrgHzgq9E+1SUwlGnzDy9g==
-----END CERTIFICATE-----
