Certificate:
    Data:
        Version: 3 (0x2)
        Serial Number:
            4b:e7:c3:96:00:27:c4:a6:e4:b1:f8:8f:79:9a:e5:ee:02:2f:ea:fb
        Signature Algorithm: sha256WithRSAEncryption
        Issuer: C = US, ST = California, L = Santa Clara, O = pkg5, OU = ta9, CN = localhost, emailAddress = ta9
        Validity
            Not Before: Oct 24 21:43:17 2023 GMT
            Not After : Jul 20 21:43:17 2026 GMT
        Subject: C = US, ST = California, L = Santa Clara, O = pkg5, OU = ta9, CN = localhost, emailAddress = ta9
        Subject Public Key Info:
            Public Key Algorithm: rsaEncryption
                Public-Key: (2048 bit)
                Modulus:
                    00:9f:ce:22:d0:6b:b4:52:f2:e1:9e:b3:80:45:07:
                    56:0b:69:c6:0c:0d:68:f0:2b:04:44:c0:1f:63:ab:
                    1a:4a:95:17:ca:c3:ff:a5:c9:48:e4:c9:bd:cd:cd:
                    ff:cc:75:18:1e:ba:30:82:1a:47:fe:f3:18:5d:eb:
                    43:e3:75:0d:4a:da:bf:81:8a:fd:d4:69:9f:f9:87:
                    23:22:1d:1a:e3:e3:bf:c7:95:4c:2e:76:66:a0:34:
                    7d:30:7c:cb:26:49:0c:df:12:90:a3:5f:dd:cb:78:
                    35:14:99:b0:2c:56:21:bc:63:04:ee:69:90:6b:d1:
                    c5:dd:e9:c9:4c:08:9c:ee:30:8a:4c:fb:aa:a8:8e:
                    56:dc:be:b6:71:8a:2d:25:86:76:04:46:e0:67:3e:
                    2c:55:ff:e9:3e:a4:35:6e:31:17:53:0e:f2:1d:bb:
                    de:81:ad:31:30:e9:8e:c9:5d:89:ba:47:24:af:79:
                    c2:32:4a:44:fa:49:36:29:50:2c:f8:f7:73:69:4a:
                    db:df:0a:28:b2:58:db:83:af:f3:19:01:cb:c0:ec:
                    dd:ee:1c:61:9a:fb:57:e6:7c:52:08:83:ee:21:6e:
                    e3:1f:02:5b:b1:f3:4f:70:f0:b5:fa:86:89:cc:7c:
                    5f:58:ba:05:db:93:de:55:0e:84:8e:68:b9:a1:3c:
                    2c:f9
                Exponent: 65537 (0x10001)
        X509v3 extensions:
            X509v3 Subject Key Identifier: 
                39:D5:47:93:CB:A5:97:77:94:7B:81:90:5A:10:C3:07:F1:2E:1F:6E
            X509v3 Authority Key Identifier: 
                39:D5:47:93:CB:A5:97:77:94:7B:81:90:5A:10:C3:07:F1:2E:1F:6E
            X509v3 Basic Constraints: critical
                CA:TRUE
    Signature Algorithm: sha256WithRSAEncryption
    Signature Value:
        2a:68:b2:87:0b:be:b1:92:de:33:11:08:b9:85:bb:66:65:00:
        d0:ec:0f:cc:15:2c:5c:28:88:d1:86:69:28:25:3f:90:e7:5a:
        d4:63:10:26:ab:bd:72:81:5e:f3:f0:22:13:75:6f:2a:f0:13:
        46:30:aa:c1:2a:09:37:19:35:f8:79:14:f6:3f:0b:50:b2:da:
        c5:2f:39:a7:d5:29:ac:1c:dd:b1:d8:94:c4:27:8f:7b:b9:87:
        9a:3f:45:21:fd:be:3e:3a:d3:60:7d:be:13:47:6f:bc:76:c5:
        01:54:a1:4b:53:3d:59:00:86:84:74:ee:ec:09:28:8a:74:6a:
        bd:ed:a2:91:35:a5:c0:27:cd:5c:5c:49:0a:e7:e4:d1:cc:57:
        90:c9:06:42:21:65:42:9c:96:15:47:8d:47:a1:56:ee:6f:c6:
        6f:36:e4:e9:85:d5:7c:f3:41:e1:02:a6:b0:c0:54:9b:24:94:
        2b:ed:66:d5:da:48:e6:27:45:22:83:de:c7:7f:c9:3d:0c:2e:
        87:be:a8:1d:fa:55:d3:d7:f6:f2:6b:99:83:50:48:b5:86:51:
        c9:da:ef:31:40:51:ca:f7:fd:32:16:0d:ed:aa:79:ab:24:c9:
        0d:4e:fd:e6:19:9f:e2:3c:5c:06:d2:ff:4f:3d:8b:35:c9:c0:
        7d:11:9b:49
-----BEGIN CERTIFICATE-----
MIID2zCCAsOgAwIBAgIUS+fDlgAnxKbksfiPeZrl7gIv6vswDQYJKoZIhvcNAQEL
BQAwfTELMAkGA1UEBhMCVVMxEzARBgNVBAgMCkNhbGlmb3JuaWExFDASBgNVBAcM
C1NhbnRhIENsYXJhMQ0wCwYDVQQKDARwa2c1MQwwCgYDVQQLDAN0YTkxEjAQBgNV
BAMMCWxvY2FsaG9zdDESMBAGCSqGSIb3DQEJARYDdGE5MB4XDTIzMTAyNDIxNDMx
N1oXDTI2MDcyMDIxNDMxN1owfTELMAkGA1UEBhMCVVMxEzARBgNVBAgMCkNhbGlm
b3JuaWExFDASBgNVBAcMC1NhbnRhIENsYXJhMQ0wCwYDVQQKDARwa2c1MQwwCgYD
VQQLDAN0YTkxEjAQBgNVBAMMCWxvY2FsaG9zdDESMBAGCSqGSIb3DQEJARYDdGE5
MIIBIjANBgkqhkiG9w0BAQEFAAOCAQ8AMIIBCgKCAQEAn84i0Gu0UvLhnrOARQdW
C2nGDA1o8CsERMAfY6saSpUXysP/pclI5Mm9zc3/zHUYHrowghpH/vMYXetD43UN
Stq/gYr91Gmf+YcjIh0a4+O/x5VMLnZmoDR9MHzLJkkM3xKQo1/dy3g1FJmwLFYh
vGME7mmQa9HF3enJTAic7jCKTPuqqI5W3L62cYotJYZ2BEbgZz4sVf/pPqQ1bjEX
Uw7yHbvega0xMOmOyV2Jukckr3nCMkpE+kk2KVAs+PdzaUrb3woosljbg6/zGQHL
wOzd7hxhmvtX5nxSCIPuIW7jHwJbsfNPcPC1+oaJzHxfWLoF25PeVQ6Ejmi5oTws
+QIDAQABo1MwUTAdBgNVHQ4EFgQUOdVHk8ull3eUe4GQWhDDB/EuH24wHwYDVR0j
BBgwFoAUOdVHk8ull3eUe4GQWhDDB/EuH24wDwYDVR0TAQH/BAUwAwEB/zANBgkq
hkiG9w0BAQsFAAOCAQEAKmiyhwu+sZLeMxEIuYW7ZmUA0OwPzBUsXCiI0YZpKCU/
kOda1GMQJqu9coFe8/AiE3VvKvATRjCqwSoJNxk1+HkU9j8LULLaxS85p9UprBzd
sdiUxCePe7mHmj9FIf2+PjrTYH2+E0dvvHbFAVShS1M9WQCGhHTu7AkoinRqve2i
kTWlwCfNXFxJCufk0cxXkMkGQiFlQpyWFUeNR6FW7m/Gbzbk6YXVfPNB4QKmsMBU
mySUK+1m1dpI5idFIoPex3/JPQwuh76oHfpV09f28muZg1BItYZRydrvMUBRyvf9
MhYN7ap5qyTJDU795hmf4jxcBtL/Tz2LNcnAfRGbSQ==
-----END CERTIFICATE-----
