Certificate:
    Data:
        Version: 3 (0x2)
        Serial Number:
            46:21:67:a0:dd:46:bb:eb:ae:4a:cf:cc:32:31:7f:10:d5:9b:4f:c4
        Signature Algorithm: sha256WithRSAEncryption
        Issuer: C = US, ST = California, L = Santa Clara, O = pkg5, OU = ta9, CN = localhost, emailAddress = ta9
        Validity
            Not Before: Oct 22 10:15:24 2021 GMT
            Not After : Jul 18 10:15:24 2024 GMT
        Subject: C = US, ST = California, L = Santa Clara, O = pkg5, OU = ta9, CN = localhost, emailAddress = ta9
        Subject Public Key Info:
            Public Key Algorithm: rsaEncryption
                Public-Key: (2048 bit)
                Modulus:
                    00:b9:ab:24:81:bc:23:6c:6a:8b:6b:d0:80:ec:b8:
                    3c:8e:5a:0a:88:bc:32:c5:0b:7b:c4:59:36:b0:36:
                    9d:8d:40:a1:ec:ef:60:92:5b:4c:d9:9a:86:ca:44:
                    0b:cd:32:62:db:aa:97:b5:b3:f4:b6:b2:04:83:a2:
                    27:fc:7d:27:84:99:1d:3f:9e:19:f6:72:a2:d9:77:
                    56:cb:1e:fb:73:69:5d:f0:82:79:82:db:8d:0d:5b:
                    2a:b0:f2:9c:f6:89:e9:80:25:1b:e0:92:08:ad:45:
                    5e:ad:da:89:03:eb:01:a6:a1:ae:04:d7:36:47:0d:
                    57:3d:18:b3:a9:1c:9a:ab:48:e7:00:b6:89:80:24:
                    20:d6:98:9c:5e:c0:f6:e8:54:dc:11:98:a5:f4:93:
                    e9:33:76:97:1e:cf:78:8e:21:7e:6d:e7:95:39:28:
                    a7:e5:6c:05:22:b8:74:ef:39:73:d5:03:bd:ca:2b:
                    e5:b6:9b:4d:56:e5:3a:d4:9a:9b:3c:39:27:22:a3:
                    04:82:ed:fc:19:7b:26:52:1f:28:ce:0e:ee:b1:2f:
                    a4:30:e1:aa:03:c5:50:a2:52:b3:69:7e:10:22:6b:
                    c0:26:d6:c1:a9:3f:7a:00:bd:1e:88:e7:7f:f5:85:
                    fb:a3:c2:bf:5b:59:c1:2e:48:e1:9d:47:dc:b9:0d:
                    5d:09
                Exponent: 65537 (0x10001)
        X509v3 extensions:
            X509v3 Subject Key Identifier: 
                B8:25:F5:CC:61:C4:94:2B:4E:37:42:6E:F8:8B:73:06:38:2F:19:1C
            X509v3 Authority Key Identifier: 
                B8:25:F5:CC:61:C4:94:2B:4E:37:42:6E:F8:8B:73:06:38:2F:19:1C
            X509v3 Basic Constraints: critical
                CA:TRUE
    Signature Algorithm: sha256WithRSAEncryption
    Signature Value:
        74:c1:48:8e:3f:a2:cc:f5:fd:7e:f6:18:98:90:2c:44:2a:e2:
        b7:c0:1f:9d:05:12:50:03:b6:04:ac:f5:13:8c:e8:e9:0f:3c:
        51:95:a6:55:30:7e:13:fe:3a:be:fd:e8:ff:22:16:d0:5f:99:
        71:3e:7a:a2:72:fb:f7:f4:61:f3:41:c1:cd:44:cb:2b:1f:6c:
        4e:ff:12:7c:89:a4:8d:06:bd:7e:26:14:ac:2d:9e:3b:7c:54:
        c0:24:b0:cb:72:4e:82:c7:de:c4:85:59:f9:af:35:2d:c9:06:
        cc:58:ca:af:04:7f:47:4f:9d:f7:bd:3d:89:8c:bb:39:4c:e9:
        0f:41:c0:0b:03:57:67:43:0c:7f:a4:17:c3:eb:97:7c:21:35:
        16:e4:1f:41:7e:0e:5a:e4:ef:b8:ab:0b:06:8a:2e:77:ed:04:
        92:4b:b9:a3:f8:d7:fe:a2:73:0c:32:c5:86:27:13:e5:de:ed:
        a3:12:25:14:67:b8:51:0c:be:f3:84:86:a0:fa:77:8d:9d:21:
        ac:ce:bd:0d:0b:d7:bf:bd:4f:c3:55:8f:86:7f:96:1f:ba:cf:
        d8:ba:34:9b:06:ce:51:f2:d1:94:eb:9c:2a:4a:6c:fa:aa:18:
        cc:da:be:80:3f:99:b4:58:5c:eb:9f:d6:19:90:f8:08:0d:eb:
        44:bc:51:db
-----BEGIN CERTIFICATE-----
MIID2zCCAsOgAwIBAgIURiFnoN1Gu+uuSs/MMjF/ENWbT8QwDQYJKoZIhvcNAQEL
BQAwfTELMAkGA1UEBhMCVVMxEzARBgNVBAgMCkNhbGlmb3JuaWExFDASBgNVBAcM
C1NhbnRhIENsYXJhMQ0wCwYDVQQKDARwa2c1MQwwCgYDVQQLDAN0YTkxEjAQBgNV
BAMMCWxvY2FsaG9zdDESMBAGCSqGSIb3DQEJARYDdGE5MB4XDTIxMTAyMjEwMTUy
NFoXDTI0MDcxODEwMTUyNFowfTELMAkGA1UEBhMCVVMxEzARBgNVBAgMCkNhbGlm
b3JuaWExFDASBgNVBAcMC1NhbnRhIENsYXJhMQ0wCwYDVQQKDARwa2c1MQwwCgYD
VQQLDAN0YTkxEjAQBgNVBAMMCWxvY2FsaG9zdDESMBAGCSqGSIb3DQEJARYDdGE5
MIIBIjANBgkqhkiG9w0BAQEFAAOCAQ8AMIIBCgKCAQEAuaskgbwjbGqLa9CA7Lg8
jloKiLwyxQt7xFk2sDadjUCh7O9gkltM2ZqGykQLzTJi26qXtbP0trIEg6In/H0n
hJkdP54Z9nKi2XdWyx77c2ld8IJ5gtuNDVsqsPKc9onpgCUb4JIIrUVerdqJA+sB
pqGuBNc2Rw1XPRizqRyaq0jnALaJgCQg1picXsD26FTcEZil9JPpM3aXHs94jiF+
beeVOSin5WwFIrh07zlz1QO9yivltptNVuU61JqbPDknIqMEgu38GXsmUh8ozg7u
sS+kMOGqA8VQolKzaX4QImvAJtbBqT96AL0eiOd/9YX7o8K/W1nBLkjhnUfcuQ1d
CQIDAQABo1MwUTAdBgNVHQ4EFgQUuCX1zGHElCtON0Ju+ItzBjgvGRwwHwYDVR0j
BBgwFoAUuCX1zGHElCtON0Ju+ItzBjgvGRwwDwYDVR0TAQH/BAUwAwEB/zANBgkq
hkiG9w0BAQsFAAOCAQEAdMFIjj+izPX9fvYYmJAsRCrit8AfnQUSUAO2BKz1E4zo
6Q88UZWmVTB+E/46vv3o/yIW0F+ZcT56onL79/Rh80HBzUTLKx9sTv8SfImkjQa9
fiYUrC2eO3xUwCSwy3JOgsfexIVZ+a81LckGzFjKrwR/R0+d9709iYy7OUzpD0HA
CwNXZ0MMf6QXw+uXfCE1FuQfQX4OWuTvuKsLBooud+0Ekku5o/jX/qJzDDLFhicT
5d7toxIlFGe4UQy+84SGoPp3jZ0hrM69DQvXv71Pw1WPhn+WH7rP2Lo0mwbOUfLR
lOucKkps+qoYzNq+gD+ZtFhc65/WGZD4CA3rRLxR2w==
-----END CERTIFICATE-----
