Certificate:
    Data:
        Version: 3 (0x2)
        Serial Number: 16631765401755270031 (0xe6cfe68397413b8f)
    Signature Algorithm: sha256WithRSAEncryption
        Issuer: C=US, ST=California, L=Santa Clara, O=pkg5, OU=ta9, CN=localhost/emailAddress=ta9
        Validity
            Not Before: Dec  6 03:06:44 2014 GMT
            Not After : Sep  1 03:06:44 2017 GMT
        Subject: C=US, ST=California, L=Santa Clara, O=pkg5, OU=ta9, CN=localhost/emailAddress=ta9
        Subject Public Key Info:
            Public Key Algorithm: rsaEncryption
                Public-Key: (1024 bit)
                Modulus:
                    00:aa:d4:7a:78:ae:c0:0a:d0:ac:18:da:01:bb:f7:
                    33:3c:99:16:d8:d6:1a:32:4a:23:3b:87:7e:e9:a5:
                    d1:75:20:69:c6:6e:cc:d5:d5:f0:cc:df:43:bd:b1:
                    39:80:65:0d:02:af:e9:3c:83:e7:44:8e:dd:ad:64:
                    8a:98:c8:2a:cd:6e:45:c7:d5:b8:a3:66:0f:67:19:
                    0b:4d:68:b0:05:7c:7e:6c:d7:85:2f:77:7d:e2:9e:
                    93:ca:2c:05:79:20:3b:bb:ae:7f:1f:5d:26:78:38:
                    e5:27:b8:07:40:a5:a5:d7:39:0b:a3:b9:51:65:82:
                    78:31:f0:08:4f:cc:7b:d4:8f
                Exponent: 65537 (0x10001)
        X509v3 extensions:
            X509v3 Subject Key Identifier: 
                48:CE:A2:53:B8:31:DD:14:E5:EA:5E:BD:90:89:9C:A9:E5:7D:5A:BB
            X509v3 Authority Key Identifier: 
                keyid:48:CE:A2:53:B8:31:DD:14:E5:EA:5E:BD:90:89:9C:A9:E5:7D:5A:BB

            X509v3 Basic Constraints: 
                CA:TRUE
    Signature Algorithm: sha256WithRSAEncryption
         06:fc:eb:2e:4b:53:e6:ef:e6:0f:21:e5:6e:af:cd:51:dc:87:
         69:87:9e:57:d9:d7:6b:40:ea:cc:c3:52:d1:7a:43:3c:91:8f:
         9f:ec:9e:3f:0e:ed:2b:7e:81:cd:ec:98:66:54:6e:e2:4c:15:
         6f:60:f4:77:66:5f:08:8d:f6:66:5f:31:8d:d2:7f:2a:6e:5d:
         92:90:5c:b9:ad:d1:b7:c3:17:b9:ad:a1:5a:02:11:1e:12:1c:
         d9:fb:0a:3c:4b:4e:3b:9a:98:71:ab:d3:e5:d2:2b:b4:68:8b:
         c8:4f:06:51:fd:db:20:7f:2b:03:07:c8:ee:ab:7d:4b:cc:a1:
         62:c9
-----BEGIN CERTIFICATE-----
MIICyDCCAjGgAwIBAgIJAObP5oOXQTuPMA0GCSqGSIb3DQEBCwUAMH0xCzAJBgNV
BAYTAlVTMRMwEQYDVQQIDApDYWxpZm9ybmlhMRQwEgYDVQQHDAtTYW50YSBDbGFy
YTENMAsGA1UECgwEcGtnNTEMMAoGA1UECwwDdGE5MRIwEAYDVQQDDAlsb2NhbGhv
c3QxEjAQBgkqhkiG9w0BCQEWA3RhOTAeFw0xNDEyMDYwMzA2NDRaFw0xNzA5MDEw
MzA2NDRaMH0xCzAJBgNVBAYTAlVTMRMwEQYDVQQIDApDYWxpZm9ybmlhMRQwEgYD
VQQHDAtTYW50YSBDbGFyYTENMAsGA1UECgwEcGtnNTEMMAoGA1UECwwDdGE5MRIw
EAYDVQQDDAlsb2NhbGhvc3QxEjAQBgkqhkiG9w0BCQEWA3RhOTCBnzANBgkqhkiG
9w0BAQEFAAOBjQAwgYkCgYEAqtR6eK7ACtCsGNoBu/czPJkW2NYaMkojO4d+6aXR
dSBpxm7M1dXwzN9DvbE5gGUNAq/pPIPnRI7drWSKmMgqzW5Fx9W4o2YPZxkLTWiw
BXx+bNeFL3d94p6TyiwFeSA7u65/H10meDjlJ7gHQKWl1zkLo7lRZYJ4MfAIT8x7
1I8CAwEAAaNQME4wHQYDVR0OBBYEFEjOolO4Md0U5epevZCJnKnlfVq7MB8GA1Ud
IwQYMBaAFEjOolO4Md0U5epevZCJnKnlfVq7MAwGA1UdEwQFMAMBAf8wDQYJKoZI
hvcNAQELBQADgYEABvzrLktT5u/mDyHlbq/NUdyHaYeeV9nXa0DqzMNS0XpDPJGP
n+yePw7tK36BzeyYZlRu4kwVb2D0d2ZfCI32Zl8xjdJ/Km5dkpBcua3Rt8MXua2h
WgIRHhIc2fsKPEtOO5qYcavT5dIrtGiLyE8GUf3bIH8rAwfI7qt9S8yhYsk=
-----END CERTIFICATE-----
