Certificate:
    Data:
        Version: 3 (0x2)
        Serial Number:
            08:38:6c:11:b9:cd:f8:a3:42:21:02:c0:f5:a9:af:65:90:f4:34:f0
        Signature Algorithm: sha256WithRSAEncryption
        Issuer: C = US, ST = California, L = Santa Clara, O = pkg5, OU = ta6, CN = localhost, emailAddress = ta6
        Validity
            Not Before: Dec 15 15:37:32 2022 GMT
            Not After : Sep 10 15:37:32 2025 GMT
        Subject: C = US, ST = California, L = Santa Clara, O = pkg5, OU = ta6, CN = localhost, emailAddress = ta6
        Subject Public Key Info:
            Public Key Algorithm: rsaEncryption
                Public-Key: (2048 bit)
                Modulus:
                    00:a1:e3:92:a8:01:a6:12:f2:4d:4c:ac:ae:61:5c:
                    d7:74:fe:37:72:48:df:a5:25:c5:6d:6d:0d:20:88:
                    53:9f:93:4f:a2:cd:43:c9:5b:48:1b:39:0c:f0:d6:
                    34:44:77:5d:7b:57:aa:e3:be:cb:37:a1:7d:6e:98:
                    32:51:f3:01:be:83:be:4a:fe:cf:60:0b:30:b3:91:
                    54:d2:b5:82:15:29:0e:9b:be:93:3c:fa:d1:5b:f8:
                    2c:ad:d6:9c:27:84:17:af:67:73:29:13:51:84:f1:
                    33:d8:f2:08:de:af:78:93:35:78:3c:21:25:95:6a:
                    35:dc:d3:b4:56:e6:d2:e6:6e:55:de:16:e3:d8:ef:
                    e9:88:20:b2:ea:0b:d7:5e:fa:c4:56:6e:61:b5:0c:
                    01:db:4c:2e:1b:85:ff:1a:5a:3d:4c:5a:d2:61:52:
                    15:de:ff:e1:56:c1:a6:87:d1:e9:52:55:ee:ae:e6:
                    68:d4:cf:eb:26:82:14:56:ce:80:b3:62:fe:46:28:
                    32:d5:a7:75:d1:a5:bd:2e:da:10:12:bf:1a:fa:fa:
                    42:5e:86:d0:4d:a2:e5:94:8f:3f:13:32:5f:03:54:
                    05:b4:ca:98:37:d9:2f:00:cf:7e:0b:d1:d6:c3:e4:
                    cd:b9:9e:d0:fe:69:88:b5:02:4b:76:a9:9a:07:f8:
                    94:cb
                Exponent: 65537 (0x10001)
        X509v3 extensions:
            X509v3 Subject Key Identifier: 
                96:C0:7F:20:80:13:7E:48:F2:86:AE:DA:06:2F:41:2C:E5:93:D3:BF
            X509v3 Authority Key Identifier: 
                96:C0:7F:20:80:13:7E:48:F2:86:AE:DA:06:2F:41:2C:E5:93:D3:BF
            X509v3 Basic Constraints: critical
                CA:TRUE
    Signature Algorithm: sha256WithRSAEncryption
    Signature Value:
        24:74:ab:76:69:c6:3f:de:e5:1a:d1:ae:7e:ce:d4:36:8d:c8:
        e6:24:1b:26:14:f9:ff:e5:d5:9f:6d:37:16:88:df:1e:9a:4e:
        d8:39:33:e1:08:82:6c:8f:1b:b7:f5:24:54:5e:54:37:e0:93:
        2b:92:0f:5e:88:e9:66:64:fa:fd:84:43:b6:8c:77:29:c8:1d:
        93:e3:14:c4:8c:d7:b1:ea:2c:3b:3b:b0:cf:06:de:61:23:bf:
        28:9a:b9:9c:36:3e:f6:dd:aa:05:1a:a7:b4:2c:d2:89:56:e1:
        03:fa:7a:1a:c0:0a:34:90:6b:71:03:28:24:b0:2c:c7:85:a9:
        60:e5:31:2a:11:c8:28:9e:5d:c7:e5:4c:a9:27:7a:21:f4:60:
        52:3d:2e:84:4d:af:e5:aa:a6:e7:47:39:23:ff:e2:46:a5:2e:
        fc:b0:f2:bd:aa:f2:19:05:4b:85:c6:c9:2a:28:fd:f9:69:12:
        71:27:cc:ef:29:41:59:43:a6:cc:ee:65:79:1d:80:f2:3f:49:
        eb:92:c7:7a:94:62:f8:74:43:82:2e:98:5e:d4:77:f5:5e:73:
        cb:77:5a:9f:a3:10:7f:0f:40:ae:37:27:45:cc:90:ce:fa:1d:
        ba:23:2e:3d:34:3b:d1:af:fa:24:ca:a0:b2:c0:e0:63:a3:ca:
        6b:0f:0f:c6
-----BEGIN CERTIFICATE-----
MIID2zCCAsOgAwIBAgIUCDhsEbnN+KNCIQLA9amvZZD0NPAwDQYJKoZIhvcNAQEL
BQAwfTELMAkGA1UEBhMCVVMxEzARBgNVBAgMCkNhbGlmb3JuaWExFDASBgNVBAcM
C1NhbnRhIENsYXJhMQ0wCwYDVQQKDARwa2c1MQwwCgYDVQQLDAN0YTYxEjAQBgNV
BAMMCWxvY2FsaG9zdDESMBAGCSqGSIb3DQEJARYDdGE2MB4XDTIyMTIxNTE1Mzcz
MloXDTI1MDkxMDE1MzczMlowfTELMAkGA1UEBhMCVVMxEzARBgNVBAgMCkNhbGlm
b3JuaWExFDASBgNVBAcMC1NhbnRhIENsYXJhMQ0wCwYDVQQKDARwa2c1MQwwCgYD
VQQLDAN0YTYxEjAQBgNVBAMMCWxvY2FsaG9zdDESMBAGCSqGSIb3DQEJARYDdGE2
MIIBIjANBgkqhkiG9w0BAQEFAAOCAQ8AMIIBCgKCAQEAoeOSqAGmEvJNTKyuYVzX
dP43ckjfpSXFbW0NIIhTn5NPos1DyVtIGzkM8NY0RHdde1eq477LN6F9bpgyUfMB
voO+Sv7PYAsws5FU0rWCFSkOm76TPPrRW/gsrdacJ4QXr2dzKRNRhPEz2PII3q94
kzV4PCEllWo13NO0VubS5m5V3hbj2O/piCCy6gvXXvrEVm5htQwB20wuG4X/Glo9
TFrSYVIV3v/hVsGmh9HpUlXuruZo1M/rJoIUVs6As2L+Rigy1ad10aW9LtoQEr8a
+vpCXobQTaLllI8/EzJfA1QFtMqYN9kvAM9+C9HWw+TNuZ7Q/mmItQJLdqmaB/iU
ywIDAQABo1MwUTAdBgNVHQ4EFgQUlsB/IIATfkjyhq7aBi9BLOWT078wHwYDVR0j
BBgwFoAUlsB/IIATfkjyhq7aBi9BLOWT078wDwYDVR0TAQH/BAUwAwEB/zANBgkq
hkiG9w0BAQsFAAOCAQEAJHSrdmnGP97lGtGufs7UNo3I5iQbJhT5/+XVn203Fojf
HppO2Dkz4QiCbI8bt/UkVF5UN+CTK5IPXojpZmT6/YRDtox3Kcgdk+MUxIzXseos
OzuwzwbeYSO/KJq5nDY+9t2qBRqntCzSiVbhA/p6GsAKNJBrcQMoJLAsx4WpYOUx
KhHIKJ5dx+VMqSd6IfRgUj0uhE2v5aqm50c5I//iRqUu/LDyvaryGQVLhcbJKij9
+WkScSfM7ylBWUOmzO5leR2A8j9J65LHepRi+HRDgi6YXtR39V5zy3dan6MQfw9A
rjcnRcyQzvoduiMuPTQ70a/6JMqgssDgY6PKaw8Pxg==
-----END CERTIFICATE-----
Certificate:
    Data:
        Version: 3 (0x2)
        Serial Number:
            4c:c8:9f:f8:f0:bf:48:13:b6:f8:40:88:2d:74:10:8e:d2:cb:5b:75
        Signature Algorithm: sha256WithRSAEncryption
        Issuer: C = US, ST = California, L = Santa Clara, O = pkg5, OU = ta8, CN = localhost, emailAddress = ta8
        Validity
            Not Before: Dec 15 15:37:33 2022 GMT
            Not After : Sep 10 15:37:33 2025 GMT
        Subject: C = US, ST = California, L = Santa Clara, O = pkg5, OU = ta8, CN = localhost, emailAddress = ta8
        Subject Public Key Info:
            Public Key Algorithm: rsaEncryption
                Public-Key: (2048 bit)
                Modulus:
                    00:cb:b5:f5:4b:88:5b:26:51:74:53:55:bb:84:89:
                    c8:46:2c:28:9d:6c:d1:9f:d6:b7:1a:53:8c:af:bb:
                    15:54:b8:60:d3:ee:ac:ec:24:6e:31:2b:89:9e:13:
                    cd:05:46:1d:4e:14:b8:90:40:51:12:83:45:e9:f1:
                    15:75:06:b3:00:ea:e8:dd:db:16:a7:b2:b7:80:90:
                    6f:fd:f8:43:e4:72:89:cc:2f:0e:15:71:bb:b2:0c:
                    95:23:10:a8:3e:79:e9:de:db:b9:8e:ab:16:1e:d9:
                    2e:1f:55:32:cb:55:e9:a4:9e:61:91:7c:ac:81:cd:
                    93:83:bc:87:bf:cd:22:99:80:dd:19:df:bb:71:b2:
                    f0:fa:3e:1a:63:53:80:42:8b:1a:bf:3b:31:0b:da:
                    eb:73:59:75:8d:1a:2c:ee:fa:64:04:cd:ef:08:c0:
                    82:7a:0d:1b:46:fc:da:13:47:99:75:83:34:0d:61:
                    df:66:78:58:4f:77:06:ed:50:52:05:36:eb:71:98:
                    27:7f:0c:e2:a4:9d:76:a6:a9:27:38:aa:b4:6e:07:
                    df:69:c4:27:8b:92:2a:db:79:ad:9d:64:57:45:6f:
                    3d:9b:3b:39:c1:18:e2:64:4a:87:10:ee:21:ee:6c:
                    25:01:5b:83:84:d3:8f:68:ba:0f:6e:cc:41:0f:a6:
                    98:97
                Exponent: 65537 (0x10001)
        X509v3 extensions:
            X509v3 Subject Key Identifier: 
                33:3E:95:FE:F8:ED:7D:9A:E9:08:93:B0:C7:9D:30:6C:A4:A3:AC:7D
            X509v3 Authority Key Identifier: 
                33:3E:95:FE:F8:ED:7D:9A:E9:08:93:B0:C7:9D:30:6C:A4:A3:AC:7D
            X509v3 Basic Constraints: critical
                CA:TRUE
    Signature Algorithm: sha256WithRSAEncryption
    Signature Value:
        7e:8f:b2:d9:53:45:26:67:e3:73:b6:bf:4c:e7:d8:09:1e:8f:
        6d:3d:8c:cc:91:d4:44:6d:a8:20:c5:91:09:76:a6:35:c0:5c:
        75:23:2e:06:41:fe:3b:b4:b4:8f:d4:95:d0:6b:83:1f:25:b1:
        a0:f4:a2:2b:41:3b:37:4c:19:2f:9d:05:e7:74:78:73:b9:8e:
        ef:54:51:cf:cb:93:34:d6:6d:b0:13:33:81:f6:74:83:81:ac:
        5b:f4:fe:c5:00:cb:70:b3:9d:85:96:ab:72:eb:e8:96:c9:49:
        18:b6:5b:19:c3:1e:2a:4f:8a:6d:21:4b:db:43:00:f2:f6:f9:
        b2:b6:69:a7:1d:22:5d:08:81:63:36:9f:69:5b:5a:8d:9d:3e:
        28:37:c0:e6:f9:ea:7f:ab:c9:aa:4e:f7:5b:4d:fc:0c:eb:27:
        c8:95:3f:8b:c1:aa:81:a2:1b:f9:cf:28:08:b8:ae:60:80:18:
        a4:cb:de:dd:87:b9:4e:0f:6c:37:18:5f:ea:1e:91:19:c8:9d:
        e3:ac:f9:59:05:bc:15:74:9b:a1:27:da:be:a5:26:a9:bc:c3:
        36:ed:f4:44:6d:3e:09:7b:2a:d8:7f:87:4c:0f:26:ee:75:2c:
        74:0a:52:f7:00:32:95:42:7d:b4:e0:dd:d0:2a:15:23:ed:19:
        2d:2a:d2:ed
-----BEGIN CERTIFICATE-----
MIID2zCCAsOgAwIBAgIUTMif+PC/SBO2+ECILXQQjtLLW3UwDQYJKoZIhvcNAQEL
BQAwfTELMAkGA1UEBhMCVVMxEzARBgNVBAgMCkNhbGlmb3JuaWExFDASBgNVBAcM
C1NhbnRhIENsYXJhMQ0wCwYDVQQKDARwa2c1MQwwCgYDVQQLDAN0YTgxEjAQBgNV
BAMMCWxvY2FsaG9zdDESMBAGCSqGSIb3DQEJARYDdGE4MB4XDTIyMTIxNTE1Mzcz
M1oXDTI1MDkxMDE1MzczM1owfTELMAkGA1UEBhMCVVMxEzARBgNVBAgMCkNhbGlm
b3JuaWExFDASBgNVBAcMC1NhbnRhIENsYXJhMQ0wCwYDVQQKDARwa2c1MQwwCgYD
VQQLDAN0YTgxEjAQBgNVBAMMCWxvY2FsaG9zdDESMBAGCSqGSIb3DQEJARYDdGE4
MIIBIjANBgkqhkiG9w0BAQEFAAOCAQ8AMIIBCgKCAQEAy7X1S4hbJlF0U1W7hInI
RiwonWzRn9a3GlOMr7sVVLhg0+6s7CRuMSuJnhPNBUYdThS4kEBREoNF6fEVdQaz
AOro3dsWp7K3gJBv/fhD5HKJzC8OFXG7sgyVIxCoPnnp3tu5jqsWHtkuH1Uyy1Xp
pJ5hkXysgc2Tg7yHv80imYDdGd+7cbLw+j4aY1OAQosavzsxC9rrc1l1jRos7vpk
BM3vCMCCeg0bRvzaE0eZdYM0DWHfZnhYT3cG7VBSBTbrcZgnfwzipJ12pqknOKq0
bgffacQni5Iq23mtnWRXRW89mzs5wRjiZEqHEO4h7mwlAVuDhNOPaLoPbsxBD6aY
lwIDAQABo1MwUTAdBgNVHQ4EFgQUMz6V/vjtfZrpCJOwx50wbKSjrH0wHwYDVR0j
BBgwFoAUMz6V/vjtfZrpCJOwx50wbKSjrH0wDwYDVR0TAQH/BAUwAwEB/zANBgkq
hkiG9w0BAQsFAAOCAQEAfo+y2VNFJmfjc7a/TOfYCR6PbT2MzJHURG2oIMWRCXam
NcBcdSMuBkH+O7S0j9SV0GuDHyWxoPSiK0E7N0wZL50F53R4c7mO71RRz8uTNNZt
sBMzgfZ0g4GsW/T+xQDLcLOdhZarcuvolslJGLZbGcMeKk+KbSFL20MA8vb5srZp
px0iXQiBYzafaVtajZ0+KDfA5vnqf6vJqk73W038DOsnyJU/i8GqgaIb+c8oCLiu
YIAYpMve3Ye5Tg9sNxhf6h6RGcid46z5WQW8FXSboSfavqUmqbzDNu30RG0+CXsq
2H+HTA8m7nUsdApS9wAylUJ9tODd0CoVI+0ZLSrS7Q==
-----END CERTIFICATE-----
Certificate:
    Data:
        Version: 3 (0x2)
        Serial Number:
            52:ec:3e:e0:22:8d:00:f6:ac:06:3b:fd:ba:f2:72:28:39:ae:34:e5
        Signature Algorithm: sha256WithRSAEncryption
        Issuer: C = US, ST = California, L = Santa Clara, O = pkg5, OU = ta9, CN = localhost, emailAddress = ta9
        Validity
            Not Before: Dec 15 15:37:33 2022 GMT
            Not After : Sep 10 15:37:33 2025 GMT
        Subject: C = US, ST = California, L = Santa Clara, O = pkg5, OU = ta9, CN = localhost, emailAddress = ta9
        Subject Public Key Info:
            Public Key Algorithm: rsaEncryption
                Public-Key: (2048 bit)
                Modulus:
                    00:d0:6a:1d:91:03:ca:b9:9e:bf:ef:ed:99:c0:4d:
                    6f:4d:86:c4:b4:07:bc:20:dc:ec:7b:4e:53:12:d6:
                    fc:23:c2:0e:00:80:f8:4f:eb:ec:81:ff:03:0f:e9:
                    d4:41:78:86:fb:33:b2:a9:38:e2:1e:8a:98:81:25:
                    f6:0d:79:e9:34:65:80:1a:5d:0e:2a:55:1c:df:4f:
                    68:a8:45:06:b1:d6:46:4e:c6:f3:6f:b5:67:57:72:
                    f2:8d:a7:ef:f2:30:98:7d:00:d2:e6:86:3a:d1:ab:
                    30:b0:2b:7c:4b:ee:00:9d:30:1e:c9:d1:6c:87:be:
                    71:e8:90:18:83:74:3f:63:a0:8e:0b:a5:34:47:bc:
                    54:26:57:db:d0:ae:07:1d:01:28:c6:11:7a:4c:92:
                    9d:10:92:5c:73:e7:b0:be:cc:ec:01:61:20:31:96:
                    87:e1:de:1e:31:89:9f:5f:94:17:60:5f:cc:41:30:
                    bd:41:79:e2:4d:7b:9a:6b:4d:9c:4f:19:3f:c9:13:
                    cc:98:ab:6c:6b:d4:b4:3b:58:65:ff:f9:8e:01:53:
                    7c:df:c3:98:4e:8d:1d:66:85:b3:68:1f:d7:c6:ba:
                    15:70:26:e1:aa:88:c5:3c:c2:23:0d:dc:fa:b6:04:
                    fe:45:4d:ee:0f:4e:47:26:f9:87:55:c6:40:8d:62:
                    7c:7b
                Exponent: 65537 (0x10001)
        X509v3 extensions:
            X509v3 Subject Key Identifier: 
                20:FB:3D:23:6B:EF:2B:08:AE:10:90:3B:A0:EF:B6:66:66:EE:F9:C4
            X509v3 Authority Key Identifier: 
                20:FB:3D:23:6B:EF:2B:08:AE:10:90:3B:A0:EF:B6:66:66:EE:F9:C4
            X509v3 Basic Constraints: critical
                CA:TRUE
    Signature Algorithm: sha256WithRSAEncryption
    Signature Value:
        98:76:e9:7c:2b:77:45:77:b3:86:49:39:a6:78:9e:f1:27:62:
        f1:60:95:d7:d8:4c:21:7d:51:66:4e:d2:c8:a9:73:ce:a6:9f:
        61:bf:8b:86:bf:25:cb:7b:c9:af:83:59:30:2a:02:20:aa:3a:
        63:3b:42:ab:08:1d:dd:c9:31:51:ea:54:dd:ed:ce:9a:a9:19:
        24:4f:72:64:c5:84:ff:f2:f6:fe:e9:98:67:c9:f2:f8:94:ba:
        32:dc:e4:d7:f7:af:5f:a4:3a:0d:9a:a9:59:5e:74:84:b4:89:
        8e:a2:4f:bb:79:3f:c0:35:8e:13:0c:29:a9:c4:9a:16:96:9a:
        89:04:60:81:47:bd:3c:83:5b:3d:81:d6:e8:5e:c2:aa:f9:6c:
        ef:5b:6e:07:30:d2:23:95:f1:7d:ef:05:13:b9:5a:65:9e:5b:
        4e:a2:c3:01:16:97:36:47:67:fc:44:fb:bc:86:8f:fc:2a:f8:
        45:df:3f:dc:d9:a6:28:ea:68:bc:de:f9:f4:08:0b:5c:10:c9:
        74:31:d2:c5:b5:2b:02:a5:21:83:db:66:b7:2e:7b:d3:69:1b:
        65:65:49:d9:82:57:29:87:f6:6d:c2:f8:2d:cd:21:1a:6e:59:
        f2:9d:13:0e:95:82:d8:29:7c:4e:f1:27:1d:40:09:ae:bb:4f:
        fd:82:d5:86
-----BEGIN CERTIFICATE-----
MIID2zCCAsOgAwIBAgIUUuw+4CKNAPasBjv9uvJyKDmuNOUwDQYJKoZIhvcNAQEL
BQAwfTELMAkGA1UEBhMCVVMxEzARBgNVBAgMCkNhbGlmb3JuaWExFDASBgNVBAcM
C1NhbnRhIENsYXJhMQ0wCwYDVQQKDARwa2c1MQwwCgYDVQQLDAN0YTkxEjAQBgNV
BAMMCWxvY2FsaG9zdDESMBAGCSqGSIb3DQEJARYDdGE5MB4XDTIyMTIxNTE1Mzcz
M1oXDTI1MDkxMDE1MzczM1owfTELMAkGA1UEBhMCVVMxEzARBgNVBAgMCkNhbGlm
b3JuaWExFDASBgNVBAcMC1NhbnRhIENsYXJhMQ0wCwYDVQQKDARwa2c1MQwwCgYD
VQQLDAN0YTkxEjAQBgNVBAMMCWxvY2FsaG9zdDESMBAGCSqGSIb3DQEJARYDdGE5
MIIBIjANBgkqhkiG9w0BAQEFAAOCAQ8AMIIBCgKCAQEA0GodkQPKuZ6/7+2ZwE1v
TYbEtAe8INzse05TEtb8I8IOAID4T+vsgf8DD+nUQXiG+zOyqTjiHoqYgSX2DXnp
NGWAGl0OKlUc309oqEUGsdZGTsbzb7VnV3Lyjafv8jCYfQDS5oY60aswsCt8S+4A
nTAeydFsh75x6JAYg3Q/Y6COC6U0R7xUJlfb0K4HHQEoxhF6TJKdEJJcc+ewvszs
AWEgMZaH4d4eMYmfX5QXYF/MQTC9QXniTXuaa02cTxk/yRPMmKtsa9S0O1hl//mO
AVN838OYTo0dZoWzaB/XxroVcCbhqojFPMIjDdz6tgT+RU3uD05HJvmHVcZAjWJ8
ewIDAQABo1MwUTAdBgNVHQ4EFgQUIPs9I2vvKwiuEJA7oO+2Zmbu+cQwHwYDVR0j
BBgwFoAUIPs9I2vvKwiuEJA7oO+2Zmbu+cQwDwYDVR0TAQH/BAUwAwEB/zANBgkq
hkiG9w0BAQsFAAOCAQEAmHbpfCt3RXezhkk5pnie8Sdi8WCV19hMIX1RZk7SyKlz
zqafYb+Lhr8ly3vJr4NZMCoCIKo6YztCqwgd3ckxUepU3e3OmqkZJE9yZMWE//L2
/umYZ8ny+JS6Mtzk1/evX6Q6DZqpWV50hLSJjqJPu3k/wDWOEwwpqcSaFpaaiQRg
gUe9PINbPYHW6F7Cqvls71tuBzDSI5Xxfe8FE7laZZ5bTqLDARaXNkdn/ET7vIaP
/Cr4Rd8/3NmmKOpovN759AgLXBDJdDHSxbUrAqUhg9tmty5702kbZWVJ2YJXKYf2
bcL4Lc0hGm5Z8p0TDpWC2Cl8TvEnHUAJrrtP/YLVhg==
-----END CERTIFICATE-----
Certificate:
    Data:
        Version: 3 (0x2)
        Serial Number:
            0f:ed:32:fa:42:c0:64:46:8f:57:37:01:2b:e8:87:b1:a4:1d:ca:55
        Signature Algorithm: sha256WithRSAEncryption
        Issuer: C = US, ST = California, L = Santa Clara, O = pkg5, OU = ta10, CN = localhost, emailAddress = ta10
        Validity
            Not Before: Dec 15 15:37:34 2022 GMT
            Not After : Sep 10 15:37:34 2025 GMT
        Subject: C = US, ST = California, L = Santa Clara, O = pkg5, OU = ta10, CN = localhost, emailAddress = ta10
        Subject Public Key Info:
            Public Key Algorithm: rsaEncryption
                Public-Key: (2048 bit)
                Modulus:
                    00:c3:28:f7:06:11:73:93:40:34:91:c4:d1:e9:cd:
                    fa:da:ae:55:33:2c:41:68:16:28:c8:22:0b:8c:9c:
                    da:18:00:1d:ea:4f:e0:7d:3e:80:1a:62:0d:e3:27:
                    4e:85:92:ab:b2:e0:aa:cb:22:12:ed:9d:8f:79:1e:
                    87:04:9f:1e:ab:a8:f9:c7:9b:0e:e1:04:74:34:65:
                    ab:3c:e6:8d:ae:ce:c9:45:c9:7d:ab:85:cc:63:c0:
                    31:66:80:21:9a:80:18:57:e3:8d:cb:74:8e:d2:19:
                    a2:72:a8:93:b8:35:b1:9a:0e:72:e2:7a:eb:85:5d:
                    ee:43:0c:05:1a:f4:52:e0:6b:8f:cb:6e:ff:de:00:
                    bc:4f:6d:9d:2a:01:43:aa:64:c8:5f:89:b5:ac:05:
                    ae:50:0f:1b:53:79:4e:b3:52:fc:b2:d7:0d:e1:82:
                    d6:92:f8:cd:eb:62:34:16:c2:c5:15:38:a6:74:54:
                    6a:35:5d:ae:93:7f:e4:e5:62:90:65:5d:2d:13:ea:
                    62:06:b0:7d:ed:bb:a5:07:34:3f:e5:72:e6:27:10:
                    cb:cd:14:26:f6:86:a3:f1:74:b5:e4:d9:23:ce:d8:
                    9d:01:38:6b:49:2d:79:99:cc:ed:6e:4f:80:f4:31:
                    f2:4e:6b:c5:23:95:bd:40:f6:4e:00:a0:6c:bc:05:
                    3b:d1
                Exponent: 65537 (0x10001)
        X509v3 extensions:
            X509v3 Subject Key Identifier: 
                E2:2F:42:6D:CB:8E:D4:7E:4F:28:20:2B:10:5C:3A:80:00:D8:B0:06
            X509v3 Authority Key Identifier: 
                E2:2F:42:6D:CB:8E:D4:7E:4F:28:20:2B:10:5C:3A:80:00:D8:B0:06
            X509v3 Basic Constraints: critical
                CA:TRUE
    Signature Algorithm: sha256WithRSAEncryption
    Signature Value:
        5a:8c:96:7e:f9:76:94:f0:e9:1f:8f:8a:dc:15:eb:b4:af:18:
        61:61:43:21:75:ca:04:fb:7a:25:43:50:4a:c6:b1:0d:4c:6c:
        3f:d4:6c:84:cb:c3:20:02:0f:97:76:47:9d:84:88:ae:77:a8:
        4f:a8:6c:d9:5c:83:93:7e:6e:e5:51:4f:48:ae:11:70:a0:df:
        c1:61:45:2a:0f:dc:0e:46:e3:04:34:e9:2b:a6:bf:83:9b:b7:
        ab:5d:77:9e:8c:00:47:50:62:01:5f:4c:f1:a0:c8:4e:ef:15:
        07:ed:7d:c4:99:b4:0e:54:8f:58:a4:6c:77:f8:f5:1d:8f:0d:
        9f:a2:55:61:15:64:6a:2f:ca:78:cf:ec:d5:24:76:83:15:39:
        79:3e:75:28:ce:65:e6:62:5c:30:11:99:72:6b:5a:21:47:33:
        63:bd:76:44:dc:3b:d9:f3:bc:a2:0f:61:0d:be:69:08:7b:fa:
        0e:1c:59:af:50:e3:fa:25:b9:d2:04:f5:fc:8f:67:33:fc:f4:
        c5:6b:4e:98:16:40:0a:0a:11:92:c0:5e:cd:21:f3:71:25:3e:
        9e:f5:d8:49:56:d6:8f:52:ef:16:e7:cd:ae:65:5b:65:f7:7d:
        6f:79:f4:98:21:45:b2:c0:1f:1a:26:62:cf:fa:84:b3:ed:a4:
        48:28:bb:a8
-----BEGIN CERTIFICATE-----
MIID3zCCAsegAwIBAgIUD+0y+kLAZEaPVzcBK+iHsaQdylUwDQYJKoZIhvcNAQEL
BQAwfzELMAkGA1UEBhMCVVMxEzARBgNVBAgMCkNhbGlmb3JuaWExFDASBgNVBAcM
C1NhbnRhIENsYXJhMQ0wCwYDVQQKDARwa2c1MQ0wCwYDVQQLDAR0YTEwMRIwEAYD
VQQDDAlsb2NhbGhvc3QxEzARBgkqhkiG9w0BCQEWBHRhMTAwHhcNMjIxMjE1MTUz
NzM0WhcNMjUwOTEwMTUzNzM0WjB/MQswCQYDVQQGEwJVUzETMBEGA1UECAwKQ2Fs
aWZvcm5pYTEUMBIGA1UEBwwLU2FudGEgQ2xhcmExDTALBgNVBAoMBHBrZzUxDTAL
BgNVBAsMBHRhMTAxEjAQBgNVBAMMCWxvY2FsaG9zdDETMBEGCSqGSIb3DQEJARYE
dGExMDCCASIwDQYJKoZIhvcNAQEBBQADggEPADCCAQoCggEBAMMo9wYRc5NANJHE
0enN+tquVTMsQWgWKMgiC4yc2hgAHepP4H0+gBpiDeMnToWSq7LgqssiEu2dj3ke
hwSfHquo+cebDuEEdDRlqzzmja7OyUXJfauFzGPAMWaAIZqAGFfjjct0jtIZonKo
k7g1sZoOcuJ664Vd7kMMBRr0UuBrj8tu/94AvE9tnSoBQ6pkyF+JtawFrlAPG1N5
TrNS/LLXDeGC1pL4zetiNBbCxRU4pnRUajVdrpN/5OVikGVdLRPqYgawfe27pQc0
P+Vy5icQy80UJvaGo/F0teTZI87YnQE4a0kteZnM7W5PgPQx8k5rxSOVvUD2TgCg
bLwFO9ECAwEAAaNTMFEwHQYDVR0OBBYEFOIvQm3LjtR+TyggKxBcOoAA2LAGMB8G
A1UdIwQYMBaAFOIvQm3LjtR+TyggKxBcOoAA2LAGMA8GA1UdEwEB/wQFMAMBAf8w
DQYJKoZIhvcNAQELBQADggEBAFqMln75dpTw6R+PitwV67SvGGFhQyF1ygT7eiVD
UErGsQ1MbD/UbITLwyACD5d2R52EiK53qE+obNlcg5N+buVRT0iuEXCg38FhRSoP
3A5G4wQ06Sumv4Obt6tdd56MAEdQYgFfTPGgyE7vFQftfcSZtA5Uj1ikbHf49R2P
DZ+iVWEVZGovynjP7NUkdoMVOXk+dSjOZeZiXDARmXJrWiFHM2O9dkTcO9nzvKIP
YQ2+aQh7+g4cWa9Q4/oludIE9fyPZzP89MVrTpgWQAoKEZLAXs0h83ElPp712ElW
1o9S7xbnza5lW2X3fW959JghRbLAHxomYs/6hLPtpEgou6g=
-----END CERTIFICATE-----
Certificate:
    Data:
        Version: 3 (0x2)
        Serial Number:
            24:63:71:f4:4c:91:2d:4a:92:42:3b:24:55:57:f5:d3:48:c5:87:0e
        Signature Algorithm: sha256WithRSAEncryption
        Issuer: C = US, ST = California, L = Santa Clara, O = pkg5, OU = ta11, CN = localhost, emailAddress = ta11
        Validity
            Not Before: Dec 15 15:37:35 2022 GMT
            Not After : Sep 10 15:37:35 2025 GMT
        Subject: C = US, ST = California, L = Santa Clara, O = pkg5, OU = ta11, CN = localhost, emailAddress = ta11
        Subject Public Key Info:
            Public Key Algorithm: rsaEncryption
                Public-Key: (2048 bit)
                Modulus:
                    00:ba:83:75:28:09:80:7c:78:df:4c:84:f0:d9:41:
                    3b:09:01:da:3b:0b:bf:0b:94:a3:40:ce:f0:ae:92:
                    d9:d3:a0:5c:b3:85:52:b9:1d:0d:8e:ec:35:20:4e:
                    c5:81:76:5e:01:54:a0:ce:20:5e:a1:11:ca:3e:2a:
                    ab:9f:59:41:88:07:d1:7e:3d:13:56:dd:6b:6e:ac:
                    69:92:87:0c:c9:e1:e0:12:a7:8f:16:56:7e:96:bd:
                    d0:6f:e0:26:0b:30:41:e9:b8:85:8c:5c:c8:c8:7f:
                    12:d1:e0:79:ae:f2:20:63:bb:13:f6:07:89:b7:a8:
                    87:ca:62:b7:e5:83:7c:3b:e4:c4:c3:62:90:a6:36:
                    e0:64:45:e5:1d:58:21:c4:65:31:e7:d6:23:4d:16:
                    47:a5:00:76:2e:65:d5:fe:6c:b5:db:6d:8d:6b:40:
                    78:47:42:6e:4a:c8:f7:07:25:c3:eb:ad:4b:a3:ff:
                    c1:62:96:2f:da:8a:71:5d:e3:b7:e6:f5:05:aa:26:
                    68:07:f3:84:a3:34:b6:0e:5a:86:d0:ad:24:5f:38:
                    e8:33:39:66:46:0d:f8:f3:2a:c1:ae:6e:11:e8:9a:
                    01:a9:ca:47:e8:99:f2:5e:c6:40:e4:97:42:57:66:
                    61:0c:39:10:27:e6:2f:26:3e:d3:58:2a:75:fe:de:
                    1a:7d
                Exponent: 65537 (0x10001)
        X509v3 extensions:
            X509v3 Subject Key Identifier: 
                17:A6:AE:15:21:02:BD:F4:88:7D:EB:A6:CF:CE:B7:2A:12:72:D5:09
            X509v3 Authority Key Identifier: 
                17:A6:AE:15:21:02:BD:F4:88:7D:EB:A6:CF:CE:B7:2A:12:72:D5:09
            X509v3 Basic Constraints: critical
                CA:TRUE
    Signature Algorithm: sha256WithRSAEncryption
    Signature Value:
        b7:23:c2:c2:b0:ab:59:75:93:c5:2b:58:49:a2:92:34:3d:04:
        5d:30:b4:08:cd:24:6c:17:b2:a9:ec:d5:70:f0:ce:c6:ce:ef:
        b5:f8:3b:47:23:bc:f3:a5:4f:5a:16:de:f9:c8:37:34:3f:99:
        d9:94:cf:0f:5a:ce:af:9d:e6:af:ae:b0:af:31:3f:d6:13:91:
        9b:d7:cb:d2:e3:f2:2a:c8:39:4a:ac:6f:97:e4:ca:e5:3b:fd:
        08:2b:5e:0b:ed:18:1e:c7:e4:dd:03:3b:cf:d9:24:f7:25:c9:
        8c:79:cb:74:23:c3:47:a9:1f:67:84:a7:cb:2c:2b:3e:fb:d3:
        72:cc:24:c3:8f:f0:3f:29:41:3b:df:f0:d7:ea:a4:57:d0:79:
        62:9b:1c:51:80:72:f2:51:11:8b:fa:2a:7a:c6:b4:6e:88:13:
        52:45:ff:04:22:2f:ce:7f:b8:52:ce:4e:e7:63:59:8a:95:41:
        2c:b7:fc:b6:e4:f3:80:be:22:72:35:7f:9d:7d:7b:e4:dd:f2:
        bd:73:9d:58:a0:be:20:4c:0d:0d:1e:03:3f:f1:b7:9d:78:de:
        08:31:a5:c3:be:b6:44:a8:b8:7f:24:a5:fe:7c:10:36:8b:b5:
        e5:fd:eb:db:62:69:0c:99:88:53:cf:26:03:a3:d4:a0:2c:14:
        39:e0:f1:8c
-----BEGIN CERTIFICATE-----
MIID3zCCAsegAwIBAgIUJGNx9EyRLUqSQjskVVf100jFhw4wDQYJKoZIhvcNAQEL
BQAwfzELMAkGA1UEBhMCVVMxEzARBgNVBAgMCkNhbGlmb3JuaWExFDASBgNVBAcM
C1NhbnRhIENsYXJhMQ0wCwYDVQQKDARwa2c1MQ0wCwYDVQQLDAR0YTExMRIwEAYD
VQQDDAlsb2NhbGhvc3QxEzARBgkqhkiG9w0BCQEWBHRhMTEwHhcNMjIxMjE1MTUz
NzM1WhcNMjUwOTEwMTUzNzM1WjB/MQswCQYDVQQGEwJVUzETMBEGA1UECAwKQ2Fs
aWZvcm5pYTEUMBIGA1UEBwwLU2FudGEgQ2xhcmExDTALBgNVBAoMBHBrZzUxDTAL
BgNVBAsMBHRhMTExEjAQBgNVBAMMCWxvY2FsaG9zdDETMBEGCSqGSIb3DQEJARYE
dGExMTCCASIwDQYJKoZIhvcNAQEBBQADggEPADCCAQoCggEBALqDdSgJgHx430yE
8NlBOwkB2jsLvwuUo0DO8K6S2dOgXLOFUrkdDY7sNSBOxYF2XgFUoM4gXqERyj4q
q59ZQYgH0X49E1bda26saZKHDMnh4BKnjxZWfpa90G/gJgswQem4hYxcyMh/EtHg
ea7yIGO7E/YHibeoh8pit+WDfDvkxMNikKY24GRF5R1YIcRlMefWI00WR6UAdi5l
1f5stdttjWtAeEdCbkrI9wclw+utS6P/wWKWL9qKcV3jt+b1BaomaAfzhKM0tg5a
htCtJF846DM5ZkYN+PMqwa5uEeiaAanKR+iZ8l7GQOSXQldmYQw5ECfmLyY+01gq
df7eGn0CAwEAAaNTMFEwHQYDVR0OBBYEFBemrhUhAr30iH3rps/OtyoSctUJMB8G
A1UdIwQYMBaAFBemrhUhAr30iH3rps/OtyoSctUJMA8GA1UdEwEB/wQFMAMBAf8w
DQYJKoZIhvcNAQELBQADggEBALcjwsKwq1l1k8UrWEmikjQ9BF0wtAjNJGwXsqns
1XDwzsbO77X4O0cjvPOlT1oW3vnINzQ/mdmUzw9azq+d5q+usK8xP9YTkZvXy9Lj
8irIOUqsb5fkyuU7/QgrXgvtGB7H5N0DO8/ZJPclyYx5y3Qjw0epH2eEp8ssKz77
03LMJMOP8D8pQTvf8NfqpFfQeWKbHFGAcvJREYv6KnrGtG6IE1JF/wQiL85/uFLO
TudjWYqVQSy3/Lbk84C+InI1f519e+Td8r1znVigviBMDQ0eAz/xt5143ggxpcO+
tkSouH8kpf58EDaLteX969tiaQyZiFPPJgOj1KAsFDng8Yw=
-----END CERTIFICATE-----
