Certificate:
    Data:
        Version: 3 (0x2)
        Serial Number:
            03:28:23:a8:8b:9c:26:44:17:df:2c:ff:c9:9b:c8:e3:5a:d0:6e:39
        Signature Algorithm: sha256WithRSAEncryption
        Issuer: C = US, ST = California, L = Santa Clara, O = pkg5, OU = ta6, CN = localhost, emailAddress = ta6
        Validity
            Not Before: Oct 22 10:15:22 2021 GMT
            Not After : Jul 18 10:15:22 2024 GMT
        Subject: C = US, ST = California, L = Santa Clara, O = pkg5, OU = ta6, CN = localhost, emailAddress = ta6
        Subject Public Key Info:
            Public Key Algorithm: rsaEncryption
                Public-Key: (2048 bit)
                Modulus:
                    00:aa:1e:b7:6e:07:5a:57:86:b0:2c:a2:e5:7d:4f:
                    9f:5c:3f:38:98:7a:8e:90:96:c8:1d:91:3c:f9:01:
                    15:d7:59:1b:ba:0c:87:b4:0f:01:3c:bc:da:62:c0:
                    c5:27:8c:53:59:60:50:f8:43:07:a8:47:ff:e8:20:
                    6d:c1:24:2a:fc:d1:59:ba:84:b7:54:1f:ba:8a:11:
                    8e:64:ae:70:e2:9e:db:1e:5b:c9:57:d2:b2:03:8c:
                    63:e6:2e:c7:2c:b6:38:bd:62:f2:02:b8:7f:cc:ef:
                    3c:b8:4c:a6:e0:dc:13:c2:3c:25:7f:23:a8:ab:83:
                    8a:57:af:60:82:5e:79:16:5e:20:a0:4d:66:62:7b:
                    ef:59:15:92:ed:ff:b4:a4:5b:d9:30:dd:a5:11:39:
                    af:d1:8a:ef:a0:5b:6f:a7:f2:35:3e:fe:b7:c4:24:
                    c4:bf:12:4a:dd:88:46:e4:79:a4:e1:3d:00:72:cc:
                    b4:51:bd:1a:c8:29:39:b9:70:0b:ae:f5:32:df:f4:
                    b8:4b:5d:59:e4:c8:74:1c:c6:81:58:f6:c5:1f:6a:
                    4f:04:83:55:cc:96:11:a3:5e:8b:09:b0:6f:7d:3e:
                    3f:0f:ba:a2:17:b4:db:76:02:47:da:b7:fb:b6:2a:
                    c4:44:bb:af:ac:82:6a:50:a5:c2:02:41:0a:17:97:
                    45:f9
                Exponent: 65537 (0x10001)
        X509v3 extensions:
            X509v3 Subject Key Identifier: 
                97:10:72:0C:EE:4A:4A:3B:FC:5C:21:AB:12:39:3C:7C:D7:4B:32:35
            X509v3 Authority Key Identifier: 
                97:10:72:0C:EE:4A:4A:3B:FC:5C:21:AB:12:39:3C:7C:D7:4B:32:35
            X509v3 Basic Constraints: critical
                CA:TRUE
    Signature Algorithm: sha256WithRSAEncryption
    Signature Value:
        34:47:00:f9:a2:82:58:3a:6d:0f:6f:2a:7b:c3:17:a7:0d:dd:
        a7:c0:6f:08:fb:31:e9:ae:e4:06:8d:eb:87:ba:66:c3:f0:3e:
        e0:08:22:c0:f3:3f:30:1c:12:95:0c:8b:3d:c5:dc:77:b0:a2:
        aa:44:94:bc:fa:1f:67:f5:31:a3:1b:9c:1c:ba:55:7f:ec:6e:
        d1:c1:53:c2:ab:68:d7:d4:96:19:37:ca:92:f8:ce:25:38:6d:
        c5:53:0a:99:b9:e1:34:b7:ef:b6:e9:48:aa:09:9a:0b:64:cd:
        06:b1:ce:c3:07:64:73:40:4b:a4:56:98:43:c1:3d:63:e2:d0:
        b0:e5:38:16:86:c6:e8:7d:75:8a:66:b8:57:19:8c:1d:b2:8f:
        66:b3:97:3d:de:72:bd:3c:7c:dc:b0:90:f6:5d:49:f7:73:46:
        96:ba:3d:b2:8e:d3:08:76:01:31:3d:a9:d9:bf:9a:af:3b:4a:
        81:ce:3b:43:8f:cb:64:61:6c:5e:5c:41:30:3c:c3:f7:c0:d3:
        f2:a8:6f:2a:14:5f:fc:c5:ad:83:77:a8:10:3b:3a:7e:b8:30:
        e8:50:b2:67:d9:05:9f:47:67:95:b9:87:e6:76:5b:c2:f4:05:
        95:de:8e:d0:92:8a:04:fa:1b:67:60:37:1d:66:35:b9:9c:e7:
        ff:a8:51:74
-----BEGIN CERTIFICATE-----
MIID2zCCAsOgAwIBAgIUAygjqIucJkQX3yz/yZvI41rQbjkwDQYJKoZIhvcNAQEL
BQAwfTELMAkGA1UEBhMCVVMxEzARBgNVBAgMCkNhbGlmb3JuaWExFDASBgNVBAcM
C1NhbnRhIENsYXJhMQ0wCwYDVQQKDARwa2c1MQwwCgYDVQQLDAN0YTYxEjAQBgNV
BAMMCWxvY2FsaG9zdDESMBAGCSqGSIb3DQEJARYDdGE2MB4XDTIxMTAyMjEwMTUy
MloXDTI0MDcxODEwMTUyMlowfTELMAkGA1UEBhMCVVMxEzARBgNVBAgMCkNhbGlm
b3JuaWExFDASBgNVBAcMC1NhbnRhIENsYXJhMQ0wCwYDVQQKDARwa2c1MQwwCgYD
VQQLDAN0YTYxEjAQBgNVBAMMCWxvY2FsaG9zdDESMBAGCSqGSIb3DQEJARYDdGE2
MIIBIjANBgkqhkiG9w0BAQEFAAOCAQ8AMIIBCgKCAQEAqh63bgdaV4awLKLlfU+f
XD84mHqOkJbIHZE8+QEV11kbugyHtA8BPLzaYsDFJ4xTWWBQ+EMHqEf/6CBtwSQq
/NFZuoS3VB+6ihGOZK5w4p7bHlvJV9KyA4xj5i7HLLY4vWLyArh/zO88uEym4NwT
wjwlfyOoq4OKV69ggl55Fl4goE1mYnvvWRWS7f+0pFvZMN2lETmv0YrvoFtvp/I1
Pv63xCTEvxJK3YhG5Hmk4T0Acsy0Ub0ayCk5uXALrvUy3/S4S11Z5Mh0HMaBWPbF
H2pPBINVzJYRo16LCbBvfT4/D7qiF7TbdgJH2rf7tirERLuvrIJqUKXCAkEKF5dF
+QIDAQABo1MwUTAdBgNVHQ4EFgQUlxByDO5KSjv8XCGrEjk8fNdLMjUwHwYDVR0j
BBgwFoAUlxByDO5KSjv8XCGrEjk8fNdLMjUwDwYDVR0TAQH/BAUwAwEB/zANBgkq
hkiG9w0BAQsFAAOCAQEANEcA+aKCWDptD28qe8MXpw3dp8BvCPsx6a7kBo3rh7pm
w/A+4AgiwPM/MBwSlQyLPcXcd7CiqkSUvPofZ/UxoxucHLpVf+xu0cFTwqto19SW
GTfKkvjOJThtxVMKmbnhNLfvtulIqgmaC2TNBrHOwwdkc0BLpFaYQ8E9Y+LQsOU4
FobG6H11ima4VxmMHbKPZrOXPd5yvTx83LCQ9l1J93NGlro9so7TCHYBMT2p2b+a
rztKgc47Q4/LZGFsXlxBMDzD98DT8qhvKhRf/MWtg3eoEDs6frgw6FCyZ9kFn0dn
lbmH5nZbwvQFld6O0JKKBPobZ2A3HWY1uZzn/6hRdA==
-----END CERTIFICATE-----
Certificate:
    Data:
        Version: 3 (0x2)
        Serial Number:
            4c:63:e3:2c:3d:59:86:b7:f2:fd:cb:ff:b3:a7:c5:57:25:6e:fb:f2
        Signature Algorithm: sha256WithRSAEncryption
        Issuer: C = US, ST = California, L = Santa Clara, O = pkg5, OU = ta8, CN = localhost, emailAddress = ta8
        Validity
            Not Before: Oct 22 10:15:23 2021 GMT
            Not After : Jul 18 10:15:23 2024 GMT
        Subject: C = US, ST = California, L = Santa Clara, O = pkg5, OU = ta8, CN = localhost, emailAddress = ta8
        Subject Public Key Info:
            Public Key Algorithm: rsaEncryption
                Public-Key: (2048 bit)
                Modulus:
                    00:df:f3:c3:a5:7b:0b:3c:e5:f0:a4:03:bd:99:d9:
                    da:0e:19:96:f9:8b:b2:af:85:56:13:a5:ba:2b:7b:
                    47:74:dd:4a:16:9e:bb:56:d4:e4:05:b4:81:cb:69:
                    ba:95:10:49:08:88:99:a1:0f:b5:c2:16:66:9f:30:
                    f4:18:3a:82:53:56:9a:eb:5b:37:0c:9a:38:13:42:
                    65:d9:49:19:f8:00:6c:a5:d5:19:f4:5d:55:5d:26:
                    f4:b2:ed:08:78:de:d8:9b:1f:c3:68:29:d9:00:82:
                    8b:da:66:4b:9a:f4:cd:93:b9:c2:6c:95:5e:ed:b7:
                    ae:00:d1:0d:13:14:9a:0d:2f:96:69:72:11:95:a2:
                    71:f2:03:22:9f:c4:87:63:46:76:59:4e:1e:50:00:
                    40:eb:7a:88:e7:64:a3:c7:57:54:d5:7a:5c:91:b0:
                    86:8e:f2:5c:25:bc:11:68:2f:86:94:24:10:e7:d4:
                    b5:49:0e:98:15:12:62:ed:dc:9a:a6:59:6f:a6:c7:
                    cd:4e:16:b4:fc:03:a9:94:2b:32:20:8d:84:35:64:
                    b3:93:9d:05:8a:50:cc:da:49:e4:c4:30:73:01:18:
                    fe:5b:53:5a:51:84:f0:d8:27:7b:3c:25:31:02:97:
                    15:38:6a:bd:16:ef:80:aa:27:da:54:70:7b:e4:c5:
                    b7:b9
                Exponent: 65537 (0x10001)
        X509v3 extensions:
            X509v3 Subject Key Identifier: 
                9A:FF:E0:E4:48:68:B0:3D:02:28:44:84:34:B0:DE:8E:6F:86:CC:79
            X509v3 Authority Key Identifier: 
                9A:FF:E0:E4:48:68:B0:3D:02:28:44:84:34:B0:DE:8E:6F:86:CC:79
            X509v3 Basic Constraints: critical
                CA:TRUE
    Signature Algorithm: sha256WithRSAEncryption
    Signature Value:
        2f:3b:e6:a1:92:3e:f0:b5:67:c2:38:da:70:3c:e0:14:ad:e6:
        7c:ee:aa:8c:83:f4:39:17:f7:ae:f1:f2:0a:c3:d9:03:b3:7a:
        fc:ca:71:15:20:90:80:f3:3c:23:11:c5:f3:5f:77:5a:3b:ed:
        22:8d:c1:8c:ba:71:d2:58:6b:2b:1e:a8:ab:ae:0d:7a:6b:da:
        e3:38:9d:d5:10:e9:02:75:56:c7:59:c5:d2:f9:d3:81:8e:5f:
        60:1f:20:82:e7:3b:31:97:7f:70:46:ab:81:e9:b6:63:9f:48:
        b9:21:ad:e9:16:33:d1:3f:88:50:64:a4:33:82:4f:9f:cf:d4:
        8b:40:68:b7:1d:b3:bd:3f:b2:0d:5e:c9:00:39:db:fa:0f:5a:
        c7:e8:79:36:5e:ba:3d:e2:8a:4c:e9:d5:b5:20:8e:1e:e4:8a:
        b8:32:3b:45:bb:06:6a:0b:13:d4:b3:eb:bf:96:71:38:b4:80:
        61:11:87:ea:9d:b0:60:c0:5f:db:13:65:49:29:d0:bf:0c:c7:
        0b:9e:d8:13:15:68:22:b1:11:7a:18:eb:06:6d:55:61:31:3a:
        50:29:c9:b1:c2:cd:00:1a:79:2b:81:c3:4b:22:89:29:04:b3:
        46:d2:da:9a:41:3e:b8:6b:a9:a9:d5:e6:a4:72:d1:5a:2d:a1:
        0e:e4:ff:30
-----BEGIN CERTIFICATE-----
MIID2zCCAsOgAwIBAgIUTGPjLD1Zhrfy/cv/s6fFVyVu+/IwDQYJKoZIhvcNAQEL
BQAwfTELMAkGA1UEBhMCVVMxEzARBgNVBAgMCkNhbGlmb3JuaWExFDASBgNVBAcM
C1NhbnRhIENsYXJhMQ0wCwYDVQQKDARwa2c1MQwwCgYDVQQLDAN0YTgxEjAQBgNV
BAMMCWxvY2FsaG9zdDESMBAGCSqGSIb3DQEJARYDdGE4MB4XDTIxMTAyMjEwMTUy
M1oXDTI0MDcxODEwMTUyM1owfTELMAkGA1UEBhMCVVMxEzARBgNVBAgMCkNhbGlm
b3JuaWExFDASBgNVBAcMC1NhbnRhIENsYXJhMQ0wCwYDVQQKDARwa2c1MQwwCgYD
VQQLDAN0YTgxEjAQBgNVBAMMCWxvY2FsaG9zdDESMBAGCSqGSIb3DQEJARYDdGE4
MIIBIjANBgkqhkiG9w0BAQEFAAOCAQ8AMIIBCgKCAQEA3/PDpXsLPOXwpAO9mdna
DhmW+Yuyr4VWE6W6K3tHdN1KFp67VtTkBbSBy2m6lRBJCIiZoQ+1whZmnzD0GDqC
U1aa61s3DJo4E0Jl2UkZ+ABspdUZ9F1VXSb0su0IeN7Ymx/DaCnZAIKL2mZLmvTN
k7nCbJVe7beuANENExSaDS+WaXIRlaJx8gMin8SHY0Z2WU4eUABA63qI52Sjx1dU
1XpckbCGjvJcJbwRaC+GlCQQ59S1SQ6YFRJi7dyapllvpsfNTha0/AOplCsyII2E
NWSzk50FilDM2knkxDBzARj+W1NaUYTw2Cd7PCUxApcVOGq9Fu+AqifaVHB75MW3
uQIDAQABo1MwUTAdBgNVHQ4EFgQUmv/g5EhosD0CKESENLDejm+GzHkwHwYDVR0j
BBgwFoAUmv/g5EhosD0CKESENLDejm+GzHkwDwYDVR0TAQH/BAUwAwEB/zANBgkq
hkiG9w0BAQsFAAOCAQEALzvmoZI+8LVnwjjacDzgFK3mfO6qjIP0ORf3rvHyCsPZ
A7N6/MpxFSCQgPM8IxHF8193WjvtIo3BjLpx0lhrKx6oq64Nemva4zid1RDpAnVW
x1nF0vnTgY5fYB8gguc7MZd/cEargem2Y59IuSGt6RYz0T+IUGSkM4JPn8/Ui0Bo
tx2zvT+yDV7JADnb+g9ax+h5Nl66PeKKTOnVtSCOHuSKuDI7RbsGagsT1LPrv5Zx
OLSAYRGH6p2wYMBf2xNlSSnQvwzHC57YExVoIrERehjrBm1VYTE6UCnJscLNABp5
K4HDSyKJKQSzRtLamkE+uGupqdXmpHLRWi2hDuT/MA==
-----END CERTIFICATE-----
Certificate:
    Data:
        Version: 3 (0x2)
        Serial Number:
            46:21:67:a0:dd:46:bb:eb:ae:4a:cf:cc:32:31:7f:10:d5:9b:4f:c4
        Signature Algorithm: sha256WithRSAEncryption
        Issuer: C = US, ST = California, L = Santa Clara, O = pkg5, OU = ta9, CN = localhost, emailAddress = ta9
        Validity
            Not Before: Oct 22 10:15:24 2021 GMT
            Not After : Jul 18 10:15:24 2024 GMT
        Subject: C = US, ST = California, L = Santa Clara, O = pkg5, OU = ta9, CN = localhost, emailAddress = ta9
        Subject Public Key Info:
            Public Key Algorithm: rsaEncryption
                Public-Key: (2048 bit)
                Modulus:
                    00:b9:ab:24:81:bc:23:6c:6a:8b:6b:d0:80:ec:b8:
                    3c:8e:5a:0a:88:bc:32:c5:0b:7b:c4:59:36:b0:36:
                    9d:8d:40:a1:ec:ef:60:92:5b:4c:d9:9a:86:ca:44:
                    0b:cd:32:62:db:aa:97:b5:b3:f4:b6:b2:04:83:a2:
                    27:fc:7d:27:84:99:1d:3f:9e:19:f6:72:a2:d9:77:
                    56:cb:1e:fb:73:69:5d:f0:82:79:82:db:8d:0d:5b:
                    2a:b0:f2:9c:f6:89:e9:80:25:1b:e0:92:08:ad:45:
                    5e:ad:da:89:03:eb:01:a6:a1:ae:04:d7:36:47:0d:
                    57:3d:18:b3:a9:1c:9a:ab:48:e7:00:b6:89:80:24:
                    20:d6:98:9c:5e:c0:f6:e8:54:dc:11:98:a5:f4:93:
                    e9:33:76:97:1e:cf:78:8e:21:7e:6d:e7:95:39:28:
                    a7:e5:6c:05:22:b8:74:ef:39:73:d5:03:bd:ca:2b:
                    e5:b6:9b:4d:56:e5:3a:d4:9a:9b:3c:39:27:22:a3:
                    04:82:ed:fc:19:7b:26:52:1f:28:ce:0e:ee:b1:2f:
                    a4:30:e1:aa:03:c5:50:a2:52:b3:69:7e:10:22:6b:
                    c0:26:d6:c1:a9:3f:7a:00:bd:1e:88:e7:7f:f5:85:
                    fb:a3:c2:bf:5b:59:c1:2e:48:e1:9d:47:dc:b9:0d:
                    5d:09
                Exponent: 65537 (0x10001)
        X509v3 extensions:
            X509v3 Subject Key Identifier: 
                B8:25:F5:CC:61:C4:94:2B:4E:37:42:6E:F8:8B:73:06:38:2F:19:1C
            X509v3 Authority Key Identifier: 
                B8:25:F5:CC:61:C4:94:2B:4E:37:42:6E:F8:8B:73:06:38:2F:19:1C
            X509v3 Basic Constraints: critical
                CA:TRUE
    Signature Algorithm: sha256WithRSAEncryption
    Signature Value:
        74:c1:48:8e:3f:a2:cc:f5:fd:7e:f6:18:98:90:2c:44:2a:e2:
        b7:c0:1f:9d:05:12:50:03:b6:04:ac:f5:13:8c:e8:e9:0f:3c:
        51:95:a6:55:30:7e:13:fe:3a:be:fd:e8:ff:22:16:d0:5f:99:
        71:3e:7a:a2:72:fb:f7:f4:61:f3:41:c1:cd:44:cb:2b:1f:6c:
        4e:ff:12:7c:89:a4:8d:06:bd:7e:26:14:ac:2d:9e:3b:7c:54:
        c0:24:b0:cb:72:4e:82:c7:de:c4:85:59:f9:af:35:2d:c9:06:
        cc:58:ca:af:04:7f:47:4f:9d:f7:bd:3d:89:8c:bb:39:4c:e9:
        0f:41:c0:0b:03:57:67:43:0c:7f:a4:17:c3:eb:97:7c:21:35:
        16:e4:1f:41:7e:0e:5a:e4:ef:b8:ab:0b:06:8a:2e:77:ed:04:
        92:4b:b9:a3:f8:d7:fe:a2:73:0c:32:c5:86:27:13:e5:de:ed:
        a3:12:25:14:67:b8:51:0c:be:f3:84:86:a0:fa:77:8d:9d:21:
        ac:ce:bd:0d:0b:d7:bf:bd:4f:c3:55:8f:86:7f:96:1f:ba:cf:
        d8:ba:34:9b:06:ce:51:f2:d1:94:eb:9c:2a:4a:6c:fa:aa:18:
        cc:da:be:80:3f:99:b4:58:5c:eb:9f:d6:19:90:f8:08:0d:eb:
        44:bc:51:db
-----BEGIN CERTIFICATE-----
MIID2zCCAsOgAwIBAgIURiFnoN1Gu+uuSs/MMjF/ENWbT8QwDQYJKoZIhvcNAQEL
BQAwfTELMAkGA1UEBhMCVVMxEzARBgNVBAgMCkNhbGlmb3JuaWExFDASBgNVBAcM
C1NhbnRhIENsYXJhMQ0wCwYDVQQKDARwa2c1MQwwCgYDVQQLDAN0YTkxEjAQBgNV
BAMMCWxvY2FsaG9zdDESMBAGCSqGSIb3DQEJARYDdGE5MB4XDTIxMTAyMjEwMTUy
NFoXDTI0MDcxODEwMTUyNFowfTELMAkGA1UEBhMCVVMxEzARBgNVBAgMCkNhbGlm
b3JuaWExFDASBgNVBAcMC1NhbnRhIENsYXJhMQ0wCwYDVQQKDARwa2c1MQwwCgYD
VQQLDAN0YTkxEjAQBgNVBAMMCWxvY2FsaG9zdDESMBAGCSqGSIb3DQEJARYDdGE5
MIIBIjANBgkqhkiG9w0BAQEFAAOCAQ8AMIIBCgKCAQEAuaskgbwjbGqLa9CA7Lg8
jloKiLwyxQt7xFk2sDadjUCh7O9gkltM2ZqGykQLzTJi26qXtbP0trIEg6In/H0n
hJkdP54Z9nKi2XdWyx77c2ld8IJ5gtuNDVsqsPKc9onpgCUb4JIIrUVerdqJA+sB
pqGuBNc2Rw1XPRizqRyaq0jnALaJgCQg1picXsD26FTcEZil9JPpM3aXHs94jiF+
beeVOSin5WwFIrh07zlz1QO9yivltptNVuU61JqbPDknIqMEgu38GXsmUh8ozg7u
sS+kMOGqA8VQolKzaX4QImvAJtbBqT96AL0eiOd/9YX7o8K/W1nBLkjhnUfcuQ1d
CQIDAQABo1MwUTAdBgNVHQ4EFgQUuCX1zGHElCtON0Ju+ItzBjgvGRwwHwYDVR0j
BBgwFoAUuCX1zGHElCtON0Ju+ItzBjgvGRwwDwYDVR0TAQH/BAUwAwEB/zANBgkq
hkiG9w0BAQsFAAOCAQEAdMFIjj+izPX9fvYYmJAsRCrit8AfnQUSUAO2BKz1E4zo
6Q88UZWmVTB+E/46vv3o/yIW0F+ZcT56onL79/Rh80HBzUTLKx9sTv8SfImkjQa9
fiYUrC2eO3xUwCSwy3JOgsfexIVZ+a81LckGzFjKrwR/R0+d9709iYy7OUzpD0HA
CwNXZ0MMf6QXw+uXfCE1FuQfQX4OWuTvuKsLBooud+0Ekku5o/jX/qJzDDLFhicT
5d7toxIlFGe4UQy+84SGoPp3jZ0hrM69DQvXv71Pw1WPhn+WH7rP2Lo0mwbOUfLR
lOucKkps+qoYzNq+gD+ZtFhc65/WGZD4CA3rRLxR2w==
-----END CERTIFICATE-----
Certificate:
    Data:
        Version: 3 (0x2)
        Serial Number:
            57:23:3b:2a:f6:d1:95:08:eb:23:de:b1:c2:2f:18:73:c3:bd:27:72
        Signature Algorithm: sha256WithRSAEncryption
        Issuer: C = US, ST = California, L = Santa Clara, O = pkg5, OU = ta10, CN = localhost, emailAddress = ta10
        Validity
            Not Before: Oct 22 10:15:24 2021 GMT
            Not After : Jul 18 10:15:24 2024 GMT
        Subject: C = US, ST = California, L = Santa Clara, O = pkg5, OU = ta10, CN = localhost, emailAddress = ta10
        Subject Public Key Info:
            Public Key Algorithm: rsaEncryption
                Public-Key: (2048 bit)
                Modulus:
                    00:af:04:43:23:17:44:e1:ad:9b:01:e5:df:21:ce:
                    aa:43:3d:93:98:17:50:22:cd:75:a5:de:6c:d0:75:
                    0f:ab:f6:60:5b:ff:29:3a:cc:17:15:c2:58:35:f0:
                    33:ea:10:fa:35:54:5c:8c:69:97:c9:82:ef:1d:6b:
                    a8:bb:60:4e:42:a8:52:a7:7d:36:c1:18:84:28:37:
                    e7:1f:ef:a9:1e:47:69:d2:74:5a:41:e8:7b:fc:52:
                    90:bb:f5:45:2a:09:43:0f:6b:5d:b9:53:dd:71:4d:
                    49:2b:ad:b3:f3:d0:c8:2a:1a:50:e1:0e:92:bd:bd:
                    f4:60:b5:37:5e:2b:1b:ac:ff:e5:e3:ae:53:ac:78:
                    37:10:04:1f:bd:a9:30:9d:9f:ee:80:ff:09:c2:76:
                    5c:d4:a5:2f:00:b6:18:ff:25:ea:68:4f:bc:28:b8:
                    7f:6c:9c:5e:9b:01:59:8d:67:d7:9d:b1:53:e2:b5:
                    3c:a1:34:2c:1c:94:1e:ad:b8:46:3f:50:0d:86:27:
                    20:aa:82:ed:70:3e:3d:e4:57:35:50:cd:f2:4f:aa:
                    49:bd:0e:4d:b8:fe:02:d6:c2:4e:9d:b9:ae:76:76:
                    82:ec:51:0a:d6:c0:da:74:13:8e:a9:6e:01:14:4b:
                    07:0d:b8:06:4a:53:13:56:a0:e7:62:3d:14:b0:de:
                    5e:ed
                Exponent: 65537 (0x10001)
        X509v3 extensions:
            X509v3 Subject Key Identifier: 
                17:54:F8:20:78:B1:75:23:B6:CC:28:EC:F2:F4:F5:4A:45:2C:8D:3D
            X509v3 Authority Key Identifier: 
                17:54:F8:20:78:B1:75:23:B6:CC:28:EC:F2:F4:F5:4A:45:2C:8D:3D
            X509v3 Basic Constraints: critical
                CA:TRUE
    Signature Algorithm: sha256WithRSAEncryption
    Signature Value:
        4b:4a:fc:92:70:e5:c1:ed:4b:19:c3:73:f0:d9:c3:6f:71:0a:
        2e:d9:de:f1:07:e6:5d:f4:59:12:90:28:09:97:3c:9e:50:eb:
        13:14:33:aa:64:94:ac:73:1f:1b:2c:13:cf:6b:4f:fd:9c:0a:
        e8:11:e6:e6:2c:ce:49:a1:b5:a6:59:dc:5c:7d:ec:de:8a:fb:
        b5:e6:f4:9d:07:22:ab:60:3e:28:8d:f1:13:08:50:c2:7f:14:
        5b:1a:86:48:aa:90:1d:a2:85:7b:08:36:14:6a:9f:25:67:78:
        4c:51:fd:3b:87:f6:ba:26:01:83:5d:eb:1d:74:9a:76:0c:93:
        44:f4:77:9d:23:5b:b5:a2:7e:26:3f:24:05:bb:52:24:21:52:
        da:37:65:75:34:d3:3e:21:a8:a5:6f:70:dc:17:02:2f:c7:03:
        dc:7b:75:a8:5d:35:fa:b5:fe:3b:38:c0:bb:fc:ff:02:37:d1:
        82:41:88:be:b4:8b:3c:97:62:1d:44:fa:9a:5b:6a:59:19:3f:
        fd:61:ce:cc:93:c5:2f:10:cc:30:7a:6f:92:bf:29:d6:81:7e:
        02:5c:91:d1:4e:db:e2:86:73:b0:19:e6:87:45:68:41:db:63:
        e3:e0:f8:4f:14:a0:3d:09:f0:7a:84:4d:46:1e:a3:6d:cc:e7:
        b1:02:05:ac
-----BEGIN CERTIFICATE-----
MIID3zCCAsegAwIBAgIUVyM7KvbRlQjrI96xwi8Yc8O9J3IwDQYJKoZIhvcNAQEL
BQAwfzELMAkGA1UEBhMCVVMxEzARBgNVBAgMCkNhbGlmb3JuaWExFDASBgNVBAcM
C1NhbnRhIENsYXJhMQ0wCwYDVQQKDARwa2c1MQ0wCwYDVQQLDAR0YTEwMRIwEAYD
VQQDDAlsb2NhbGhvc3QxEzARBgkqhkiG9w0BCQEWBHRhMTAwHhcNMjExMDIyMTAx
NTI0WhcNMjQwNzE4MTAxNTI0WjB/MQswCQYDVQQGEwJVUzETMBEGA1UECAwKQ2Fs
aWZvcm5pYTEUMBIGA1UEBwwLU2FudGEgQ2xhcmExDTALBgNVBAoMBHBrZzUxDTAL
BgNVBAsMBHRhMTAxEjAQBgNVBAMMCWxvY2FsaG9zdDETMBEGCSqGSIb3DQEJARYE
dGExMDCCASIwDQYJKoZIhvcNAQEBBQADggEPADCCAQoCggEBAK8EQyMXROGtmwHl
3yHOqkM9k5gXUCLNdaXebNB1D6v2YFv/KTrMFxXCWDXwM+oQ+jVUXIxpl8mC7x1r
qLtgTkKoUqd9NsEYhCg35x/vqR5HadJ0WkHoe/xSkLv1RSoJQw9rXblT3XFNSSut
s/PQyCoaUOEOkr299GC1N14rG6z/5eOuU6x4NxAEH72pMJ2f7oD/CcJ2XNSlLwC2
GP8l6mhPvCi4f2ycXpsBWY1n152xU+K1PKE0LByUHq24Rj9QDYYnIKqC7XA+PeRX
NVDN8k+qSb0OTbj+AtbCTp25rnZ2guxRCtbA2nQTjqluARRLBw24BkpTE1ag52I9
FLDeXu0CAwEAAaNTMFEwHQYDVR0OBBYEFBdU+CB4sXUjtswo7PL09UpFLI09MB8G
A1UdIwQYMBaAFBdU+CB4sXUjtswo7PL09UpFLI09MA8GA1UdEwEB/wQFMAMBAf8w
DQYJKoZIhvcNAQELBQADggEBAEtK/JJw5cHtSxnDc/DZw29xCi7Z3vEH5l30WRKQ
KAmXPJ5Q6xMUM6pklKxzHxssE89rT/2cCugR5uYszkmhtaZZ3Fx97N6K+7Xm9J0H
IqtgPiiN8RMIUMJ/FFsahkiqkB2ihXsINhRqnyVneExR/TuH9romAYNd6x10mnYM
k0T0d50jW7WifiY/JAW7UiQhUto3ZXU00z4hqKVvcNwXAi/HA9x7dahdNfq1/js4
wLv8/wI30YJBiL60izyXYh1E+ppbalkZP/1hzsyTxS8QzDB6b5K/KdaBfgJckdFO
2+KGc7AZ5odFaEHbY+Pg+E8UoD0J8HqETUYeo23M57ECBaw=
-----END CERTIFICATE-----
Certificate:
    Data:
        Version: 3 (0x2)
        Serial Number:
            0c:ac:e7:6d:46:d2:92:1e:e9:24:ee:c5:f8:a3:33:74:56:79:37:50
        Signature Algorithm: sha256WithRSAEncryption
        Issuer: C = US, ST = California, L = Santa Clara, O = pkg5, OU = ta11, CN = localhost, emailAddress = ta11
        Validity
            Not Before: Oct 22 10:15:25 2021 GMT
            Not After : Jul 18 10:15:25 2024 GMT
        Subject: C = US, ST = California, L = Santa Clara, O = pkg5, OU = ta11, CN = localhost, emailAddress = ta11
        Subject Public Key Info:
            Public Key Algorithm: rsaEncryption
                Public-Key: (2048 bit)
                Modulus:
                    00:cb:ec:54:f9:08:4c:26:4b:3b:6c:82:b2:4d:7a:
                    f7:1c:45:0f:04:85:08:cf:20:bc:94:fd:3b:87:ed:
                    b6:fe:c6:ad:41:63:83:10:6b:4c:93:6d:33:35:27:
                    b0:2f:fe:f9:5a:3d:d1:e4:3f:f7:98:31:93:81:e4:
                    54:9c:c7:d4:c2:bb:7f:4c:ed:8a:68:fe:94:78:ae:
                    12:ca:b9:a9:cc:23:9f:5b:d2:ff:1a:ed:79:32:1a:
                    8c:64:d2:3d:15:42:c8:93:1b:82:d2:77:0c:3d:fc:
                    e7:78:bf:23:8c:b2:94:06:0f:4a:77:86:67:e8:a7:
                    c1:94:df:a9:27:58:ee:c3:c4:0e:52:4e:e4:a1:92:
                    e3:88:a3:99:9c:3d:da:fc:c2:ef:b1:30:d4:a9:83:
                    d4:19:a9:32:7c:1a:ea:e3:68:52:e4:fa:39:63:c7:
                    14:d0:69:a2:40:70:a8:f2:5d:98:3e:d8:2e:db:44:
                    79:98:2b:d1:2e:c6:b7:96:1a:1f:e9:11:fe:32:d0:
                    6a:7c:1b:da:54:de:ec:6b:91:8a:a2:a5:21:8b:81:
                    c6:a1:00:f3:5a:6a:ce:14:21:ad:51:94:32:95:36:
                    c5:b7:11:6c:9a:a1:88:0c:74:6a:44:10:e9:51:7e:
                    47:4f:ba:67:19:90:bf:34:27:2a:ad:7f:70:8d:f2:
                    00:af
                Exponent: 65537 (0x10001)
        X509v3 extensions:
            X509v3 Subject Key Identifier: 
                C1:E6:E9:43:20:DE:E0:59:3F:E3:89:B6:7E:86:00:3A:8C:E1:B0:4F
            X509v3 Authority Key Identifier: 
                C1:E6:E9:43:20:DE:E0:59:3F:E3:89:B6:7E:86:00:3A:8C:E1:B0:4F
            X509v3 Basic Constraints: critical
                CA:TRUE
    Signature Algorithm: sha256WithRSAEncryption
    Signature Value:
        45:e4:53:18:7c:82:f8:f5:f3:03:b6:c8:17:9f:c6:0a:3f:a1:
        f5:dc:78:1d:62:c2:b2:34:55:05:ae:29:d4:91:1a:1d:29:03:
        18:28:e5:e3:c8:bd:33:4d:11:1c:30:9f:d0:7f:fb:1d:9d:a9:
        6c:2d:ef:fc:ce:be:fd:09:ef:8d:6c:99:c0:50:66:4a:5b:d4:
        ab:bc:32:cf:3a:2c:13:c5:12:19:72:c9:73:a4:70:5e:da:13:
        36:60:3e:09:c9:43:3f:3d:cf:52:5e:00:ec:7c:44:f3:cb:66:
        f1:60:f3:e0:91:64:56:30:57:82:cc:aa:91:4d:a7:d1:36:fc:
        a4:f9:11:25:75:f6:4f:71:15:33:d8:7d:84:b7:bc:a9:94:03:
        bb:78:d4:cd:31:4c:32:89:dd:53:2d:35:a9:8c:52:e1:a9:85:
        ce:56:af:09:86:4c:f9:cc:96:28:8d:cf:43:10:20:a7:38:bc:
        3e:83:50:00:56:b2:b5:83:cf:d2:d9:3e:8c:21:e0:39:d2:a5:
        e0:5c:44:5a:2c:6e:54:35:97:06:b3:39:99:ad:53:65:93:a1:
        19:51:de:62:fb:26:36:ea:d2:9b:b0:72:b3:81:ac:c0:42:0f:
        fc:3b:40:9e:75:6e:6e:19:46:32:04:81:a9:06:83:a8:1d:65:
        0a:e6:b1:5a
-----BEGIN CERTIFICATE-----
MIID3zCCAsegAwIBAgIUDKznbUbSkh7pJO7F+KMzdFZ5N1AwDQYJKoZIhvcNAQEL
BQAwfzELMAkGA1UEBhMCVVMxEzARBgNVBAgMCkNhbGlmb3JuaWExFDASBgNVBAcM
C1NhbnRhIENsYXJhMQ0wCwYDVQQKDARwa2c1MQ0wCwYDVQQLDAR0YTExMRIwEAYD
VQQDDAlsb2NhbGhvc3QxEzARBgkqhkiG9w0BCQEWBHRhMTEwHhcNMjExMDIyMTAx
NTI1WhcNMjQwNzE4MTAxNTI1WjB/MQswCQYDVQQGEwJVUzETMBEGA1UECAwKQ2Fs
aWZvcm5pYTEUMBIGA1UEBwwLU2FudGEgQ2xhcmExDTALBgNVBAoMBHBrZzUxDTAL
BgNVBAsMBHRhMTExEjAQBgNVBAMMCWxvY2FsaG9zdDETMBEGCSqGSIb3DQEJARYE
dGExMTCCASIwDQYJKoZIhvcNAQEBBQADggEPADCCAQoCggEBAMvsVPkITCZLO2yC
sk169xxFDwSFCM8gvJT9O4fttv7GrUFjgxBrTJNtMzUnsC/++Vo90eQ/95gxk4Hk
VJzH1MK7f0ztimj+lHiuEsq5qcwjn1vS/xrteTIajGTSPRVCyJMbgtJ3DD3853i/
I4yylAYPSneGZ+inwZTfqSdY7sPEDlJO5KGS44ijmZw92vzC77Ew1KmD1BmpMnwa
6uNoUuT6OWPHFNBpokBwqPJdmD7YLttEeZgr0S7Gt5YaH+kR/jLQanwb2lTe7GuR
iqKlIYuBxqEA81pqzhQhrVGUMpU2xbcRbJqhiAx0akQQ6VF+R0+6ZxmQvzQnKq1/
cI3yAK8CAwEAAaNTMFEwHQYDVR0OBBYEFMHm6UMg3uBZP+OJtn6GADqM4bBPMB8G
A1UdIwQYMBaAFMHm6UMg3uBZP+OJtn6GADqM4bBPMA8GA1UdEwEB/wQFMAMBAf8w
DQYJKoZIhvcNAQELBQADggEBAEXkUxh8gvj18wO2yBefxgo/ofXceB1iwrI0VQWu
KdSRGh0pAxgo5ePIvTNNERwwn9B/+x2dqWwt7/zOvv0J741smcBQZkpb1Ku8Ms86
LBPFEhlyyXOkcF7aEzZgPgnJQz89z1JeAOx8RPPLZvFg8+CRZFYwV4LMqpFNp9E2
/KT5ESV19k9xFTPYfYS3vKmUA7t41M0xTDKJ3VMtNamMUuGphc5WrwmGTPnMliiN
z0MQIKc4vD6DUABWsrWDz9LZPowh4DnSpeBcRFosblQ1lwazOZmtU2WToRlR3mL7
Jjbq0puwcrOBrMBCD/w7QJ51bm4ZRjIEgakGg6gdZQrmsVo=
-----END CERTIFICATE-----
