Certificate:
    Data:
        Version: 3 (0x2)
        Serial Number: 14179155546530814316 (0xc4c67ad85dfa996c)
    Signature Algorithm: sha256WithRSAEncryption
        Issuer: C=US, ST=California, L=Santa Clara, O=pkg5, OU=ta6, CN=localhost/emailAddress=ta6
        Validity
            Not Before: Dec  6 03:06:44 2014 GMT
            Not After : Sep  1 03:06:44 2017 GMT
        Subject: C=US, ST=California, L=Santa Clara, O=pkg5, OU=ta6, CN=localhost/emailAddress=ta6
        Subject Public Key Info:
            Public Key Algorithm: rsaEncryption
                Public-Key: (1024 bit)
                Modulus:
                    00:dd:c0:c6:1c:53:ed:73:93:5c:1a:db:73:ca:4d:
                    f6:57:68:db:b7:41:17:98:e7:99:0c:95:2c:5a:53:
                    9e:42:3f:f6:43:2e:95:4d:d6:07:05:34:6b:11:2e:
                    75:ed:bd:b1:36:56:73:5b:f0:79:70:a2:bf:b1:ac:
                    35:bb:da:a4:e7:04:ce:13:43:f0:89:7f:1b:b4:7f:
                    53:ba:46:97:b0:f4:90:5c:b5:dd:67:c3:b3:54:ef:
                    21:97:d6:53:f1:67:a2:b4:03:6c:c3:65:97:ac:55:
                    f0:5c:99:98:ba:d3:9b:85:68:69:30:63:b0:bc:34:
                    ed:2b:e1:81:88:9c:18:74:1b
                Exponent: 65537 (0x10001)
        X509v3 extensions:
            X509v3 Subject Key Identifier: 
                78:0D:E5:A7:4C:6E:A4:4F:A2:DF:9F:44:50:A2:09:8F:9B:08:28:C4
            X509v3 Authority Key Identifier: 
                keyid:78:0D:E5:A7:4C:6E:A4:4F:A2:DF:9F:44:50:A2:09:8F:9B:08:28:C4

            X509v3 Basic Constraints: 
                CA:TRUE
    Signature Algorithm: sha256WithRSAEncryption
         c1:f7:7b:fe:d7:f3:db:09:c3:83:b9:27:55:ea:eb:53:4f:1a:
         c4:90:7d:f9:10:d2:55:5b:e2:32:d1:d5:d9:db:da:89:5f:91:
         21:d0:d6:c6:41:98:68:e4:08:6a:29:f4:dd:5e:22:8b:8e:a4:
         8e:f3:bf:55:8e:2d:8f:5d:ae:54:ab:5d:8f:6f:f9:94:a6:0d:
         b2:d8:90:8b:45:df:c3:40:76:d9:e0:d0:cf:05:ed:90:19:58:
         01:0a:45:f2:a8:a5:8a:19:36:6c:82:31:6e:42:ab:6f:a8:4b:
         7e:b0:2f:df:7d:3c:26:22:60:2d:ea:de:d7:93:f3:c5:e3:2f:
         2f:f2
-----BEGIN CERTIFICATE-----
MIICyDCCAjGgAwIBAgIJAMTGethd+plsMA0GCSqGSIb3DQEBCwUAMH0xCzAJBgNV
BAYTAlVTMRMwEQYDVQQIDApDYWxpZm9ybmlhMRQwEgYDVQQHDAtTYW50YSBDbGFy
YTENMAsGA1UECgwEcGtnNTEMMAoGA1UECwwDdGE2MRIwEAYDVQQDDAlsb2NhbGhv
c3QxEjAQBgkqhkiG9w0BCQEWA3RhNjAeFw0xNDEyMDYwMzA2NDRaFw0xNzA5MDEw
MzA2NDRaMH0xCzAJBgNVBAYTAlVTMRMwEQYDVQQIDApDYWxpZm9ybmlhMRQwEgYD
VQQHDAtTYW50YSBDbGFyYTENMAsGA1UECgwEcGtnNTEMMAoGA1UECwwDdGE2MRIw
EAYDVQQDDAlsb2NhbGhvc3QxEjAQBgkqhkiG9w0BCQEWA3RhNjCBnzANBgkqhkiG
9w0BAQEFAAOBjQAwgYkCgYEA3cDGHFPtc5NcGttzyk32V2jbt0EXmOeZDJUsWlOe
Qj/2Qy6VTdYHBTRrES517b2xNlZzW/B5cKK/saw1u9qk5wTOE0PwiX8btH9TukaX
sPSQXLXdZ8OzVO8hl9ZT8WeitANsw2WXrFXwXJmYutObhWhpMGOwvDTtK+GBiJwY
dBsCAwEAAaNQME4wHQYDVR0OBBYEFHgN5adMbqRPot+fRFCiCY+bCCjEMB8GA1Ud
IwQYMBaAFHgN5adMbqRPot+fRFCiCY+bCCjEMAwGA1UdEwQFMAMBAf8wDQYJKoZI
hvcNAQELBQADgYEAwfd7/tfz2wnDg7knVerrU08axJB9+RDSVVviMtHV2dvaiV+R
IdDWxkGYaOQIain03V4ii46kjvO/VY4tj12uVKtdj2/5lKYNstiQi0Xfw0B22eDQ
zwXtkBlYAQpF8qilihk2bIIxbkKrb6hLfrAv3308JiJgLere15PzxeMvL/I=
-----END CERTIFICATE-----
Certificate:
    Data:
        Version: 3 (0x2)
        Serial Number: 12893894471905587549 (0xb2f050b5194e315d)
    Signature Algorithm: sha256WithRSAEncryption
        Issuer: C=US, ST=California, L=Santa Clara, O=pkg5, OU=ta8, CN=localhost/emailAddress=ta8
        Validity
            Not Before: Dec  6 03:06:44 2014 GMT
            Not After : Sep  1 03:06:44 2017 GMT
        Subject: C=US, ST=California, L=Santa Clara, O=pkg5, OU=ta8, CN=localhost/emailAddress=ta8
        Subject Public Key Info:
            Public Key Algorithm: rsaEncryption
                Public-Key: (1024 bit)
                Modulus:
                    00:b2:dc:33:fb:ba:a9:d2:f7:ab:a6:a1:1c:95:17:
                    a1:45:b8:24:c2:65:70:a1:b5:7d:6e:68:92:c3:14:
                    8d:85:5a:1b:55:ae:d4:b3:1c:34:36:ff:85:ca:f5:
                    4d:7b:2d:ed:dc:ff:e3:e7:32:ed:86:7a:9b:01:93:
                    b6:48:d8:74:3d:d4:d9:66:e3:c0:64:ae:fa:b9:0c:
                    ba:0e:01:e8:ef:93:08:02:25:af:f0:8a:21:f6:8e:
                    74:f7:9a:98:40:42:00:de:7f:30:f5:c4:2d:a7:8a:
                    81:6e:3d:0e:42:6a:8e:63:da:9e:3f:5a:69:5a:a8:
                    8a:43:89:8e:02:d2:5e:90:71
                Exponent: 65537 (0x10001)
        X509v3 extensions:
            X509v3 Subject Key Identifier: 
                04:36:08:9B:36:2F:22:C8:43:3A:37:D4:4C:46:6B:E1:9B:E7:F1:2A
            X509v3 Authority Key Identifier: 
                keyid:04:36:08:9B:36:2F:22:C8:43:3A:37:D4:4C:46:6B:E1:9B:E7:F1:2A

            X509v3 Basic Constraints: 
                CA:TRUE
    Signature Algorithm: sha256WithRSAEncryption
         6e:ae:85:65:3e:dd:2d:53:2d:6f:8d:ab:ab:b0:77:f2:c4:9c:
         df:b8:a4:01:5c:ca:5e:9a:4d:58:dd:d0:dd:01:33:4c:6d:5c:
         e5:96:82:6d:e4:ce:f7:a2:b7:5c:f3:e2:2e:e2:e5:8f:73:61:
         68:9a:c5:0f:82:20:b5:97:fd:f6:57:e3:5e:81:bc:f4:62:cd:
         7f:61:95:b7:62:1e:03:c8:aa:91:c6:56:cf:4e:ee:49:be:78:
         9c:5a:f7:58:75:71:fb:cf:91:91:99:5e:70:88:d7:3e:0b:a2:
         d9:f5:4e:e3:10:e7:99:83:2c:8f:c6:ff:9e:83:47:29:05:83:
         4f:0f
-----BEGIN CERTIFICATE-----
MIICyDCCAjGgAwIBAgIJALLwULUZTjFdMA0GCSqGSIb3DQEBCwUAMH0xCzAJBgNV
BAYTAlVTMRMwEQYDVQQIDApDYWxpZm9ybmlhMRQwEgYDVQQHDAtTYW50YSBDbGFy
YTENMAsGA1UECgwEcGtnNTEMMAoGA1UECwwDdGE4MRIwEAYDVQQDDAlsb2NhbGhv
c3QxEjAQBgkqhkiG9w0BCQEWA3RhODAeFw0xNDEyMDYwMzA2NDRaFw0xNzA5MDEw
MzA2NDRaMH0xCzAJBgNVBAYTAlVTMRMwEQYDVQQIDApDYWxpZm9ybmlhMRQwEgYD
VQQHDAtTYW50YSBDbGFyYTENMAsGA1UECgwEcGtnNTEMMAoGA1UECwwDdGE4MRIw
EAYDVQQDDAlsb2NhbGhvc3QxEjAQBgkqhkiG9w0BCQEWA3RhODCBnzANBgkqhkiG
9w0BAQEFAAOBjQAwgYkCgYEAstwz+7qp0verpqEclRehRbgkwmVwobV9bmiSwxSN
hVobVa7Usxw0Nv+FyvVNey3t3P/j5zLthnqbAZO2SNh0PdTZZuPAZK76uQy6DgHo
75MIAiWv8Ioh9o5095qYQEIA3n8w9cQtp4qBbj0OQmqOY9qeP1ppWqiKQ4mOAtJe
kHECAwEAAaNQME4wHQYDVR0OBBYEFAQ2CJs2LyLIQzo31ExGa+Gb5/EqMB8GA1Ud
IwQYMBaAFAQ2CJs2LyLIQzo31ExGa+Gb5/EqMAwGA1UdEwQFMAMBAf8wDQYJKoZI
hvcNAQELBQADgYEAbq6FZT7dLVMtb42rq7B38sSc37ikAVzKXppNWN3Q3QEzTG1c
5ZaCbeTO96K3XPPiLuLlj3NhaJrFD4IgtZf99lfjXoG89GLNf2GVt2IeA8iqkcZW
z07uSb54nFr3WHVx+8+RkZlecIjXPgui2fVO4xDnmYMsj8b/noNHKQWDTw8=
-----END CERTIFICATE-----
Certificate:
    Data:
        Version: 3 (0x2)
        Serial Number: 16631765401755270031 (0xe6cfe68397413b8f)
    Signature Algorithm: sha256WithRSAEncryption
        Issuer: C=US, ST=California, L=Santa Clara, O=pkg5, OU=ta9, CN=localhost/emailAddress=ta9
        Validity
            Not Before: Dec  6 03:06:44 2014 GMT
            Not After : Sep  1 03:06:44 2017 GMT
        Subject: C=US, ST=California, L=Santa Clara, O=pkg5, OU=ta9, CN=localhost/emailAddress=ta9
        Subject Public Key Info:
            Public Key Algorithm: rsaEncryption
                Public-Key: (1024 bit)
                Modulus:
                    00:aa:d4:7a:78:ae:c0:0a:d0:ac:18:da:01:bb:f7:
                    33:3c:99:16:d8:d6:1a:32:4a:23:3b:87:7e:e9:a5:
                    d1:75:20:69:c6:6e:cc:d5:d5:f0:cc:df:43:bd:b1:
                    39:80:65:0d:02:af:e9:3c:83:e7:44:8e:dd:ad:64:
                    8a:98:c8:2a:cd:6e:45:c7:d5:b8:a3:66:0f:67:19:
                    0b:4d:68:b0:05:7c:7e:6c:d7:85:2f:77:7d:e2:9e:
                    93:ca:2c:05:79:20:3b:bb:ae:7f:1f:5d:26:78:38:
                    e5:27:b8:07:40:a5:a5:d7:39:0b:a3:b9:51:65:82:
                    78:31:f0:08:4f:cc:7b:d4:8f
                Exponent: 65537 (0x10001)
        X509v3 extensions:
            X509v3 Subject Key Identifier: 
                48:CE:A2:53:B8:31:DD:14:E5:EA:5E:BD:90:89:9C:A9:E5:7D:5A:BB
            X509v3 Authority Key Identifier: 
                keyid:48:CE:A2:53:B8:31:DD:14:E5:EA:5E:BD:90:89:9C:A9:E5:7D:5A:BB

            X509v3 Basic Constraints: 
                CA:TRUE
    Signature Algorithm: sha256WithRSAEncryption
         06:fc:eb:2e:4b:53:e6:ef:e6:0f:21:e5:6e:af:cd:51:dc:87:
         69:87:9e:57:d9:d7:6b:40:ea:cc:c3:52:d1:7a:43:3c:91:8f:
         9f:ec:9e:3f:0e:ed:2b:7e:81:cd:ec:98:66:54:6e:e2:4c:15:
         6f:60:f4:77:66:5f:08:8d:f6:66:5f:31:8d:d2:7f:2a:6e:5d:
         92:90:5c:b9:ad:d1:b7:c3:17:b9:ad:a1:5a:02:11:1e:12:1c:
         d9:fb:0a:3c:4b:4e:3b:9a:98:71:ab:d3:e5:d2:2b:b4:68:8b:
         c8:4f:06:51:fd:db:20:7f:2b:03:07:c8:ee:ab:7d:4b:cc:a1:
         62:c9
-----BEGIN CERTIFICATE-----
MIICyDCCAjGgAwIBAgIJAObP5oOXQTuPMA0GCSqGSIb3DQEBCwUAMH0xCzAJBgNV
BAYTAlVTMRMwEQYDVQQIDApDYWxpZm9ybmlhMRQwEgYDVQQHDAtTYW50YSBDbGFy
YTENMAsGA1UECgwEcGtnNTEMMAoGA1UECwwDdGE5MRIwEAYDVQQDDAlsb2NhbGhv
c3QxEjAQBgkqhkiG9w0BCQEWA3RhOTAeFw0xNDEyMDYwMzA2NDRaFw0xNzA5MDEw
MzA2NDRaMH0xCzAJBgNVBAYTAlVTMRMwEQYDVQQIDApDYWxpZm9ybmlhMRQwEgYD
VQQHDAtTYW50YSBDbGFyYTENMAsGA1UECgwEcGtnNTEMMAoGA1UECwwDdGE5MRIw
EAYDVQQDDAlsb2NhbGhvc3QxEjAQBgkqhkiG9w0BCQEWA3RhOTCBnzANBgkqhkiG
9w0BAQEFAAOBjQAwgYkCgYEAqtR6eK7ACtCsGNoBu/czPJkW2NYaMkojO4d+6aXR
dSBpxm7M1dXwzN9DvbE5gGUNAq/pPIPnRI7drWSKmMgqzW5Fx9W4o2YPZxkLTWiw
BXx+bNeFL3d94p6TyiwFeSA7u65/H10meDjlJ7gHQKWl1zkLo7lRZYJ4MfAIT8x7
1I8CAwEAAaNQME4wHQYDVR0OBBYEFEjOolO4Md0U5epevZCJnKnlfVq7MB8GA1Ud
IwQYMBaAFEjOolO4Md0U5epevZCJnKnlfVq7MAwGA1UdEwQFMAMBAf8wDQYJKoZI
hvcNAQELBQADgYEABvzrLktT5u/mDyHlbq/NUdyHaYeeV9nXa0DqzMNS0XpDPJGP
n+yePw7tK36BzeyYZlRu4kwVb2D0d2ZfCI32Zl8xjdJ/Km5dkpBcua3Rt8MXua2h
WgIRHhIc2fsKPEtOO5qYcavT5dIrtGiLyE8GUf3bIH8rAwfI7qt9S8yhYsk=
-----END CERTIFICATE-----
Certificate:
    Data:
        Version: 3 (0x2)
        Serial Number: 11736474315682620125 (0xa2e0553525c222dd)
    Signature Algorithm: sha256WithRSAEncryption
        Issuer: C=US, ST=California, L=Santa Clara, O=pkg5, OU=ta10, CN=localhost/emailAddress=ta10
        Validity
            Not Before: Dec  6 03:06:44 2014 GMT
            Not After : Sep  1 03:06:44 2017 GMT
        Subject: C=US, ST=California, L=Santa Clara, O=pkg5, OU=ta10, CN=localhost/emailAddress=ta10
        Subject Public Key Info:
            Public Key Algorithm: rsaEncryption
                Public-Key: (1024 bit)
                Modulus:
                    00:dc:79:ee:57:38:41:42:e5:84:4b:1b:91:95:13:
                    1c:cf:f0:b8:d7:e7:ca:25:96:5b:a9:58:ab:f7:81:
                    63:b8:48:52:02:d2:d8:09:93:72:d7:4a:1f:d1:cc:
                    84:8e:16:94:c1:42:9f:2d:87:4f:82:71:47:19:a9:
                    3d:28:7a:08:4a:a5:89:9d:bd:e5:9c:3b:16:04:96:
                    0c:9d:66:80:23:22:8a:bc:fc:bb:97:a2:e2:56:67:
                    36:c4:6e:ec:33:46:1c:51:6f:81:f8:85:16:24:97:
                    ce:40:1d:22:86:79:66:ff:ad:cd:e8:c4:a6:0a:59:
                    82:ec:22:a0:1c:9f:fc:b1:25
                Exponent: 65537 (0x10001)
        X509v3 extensions:
            X509v3 Subject Key Identifier: 
                76:35:C1:F7:66:0C:63:57:10:AC:67:60:E5:0F:97:43:A3:92:F4:64
            X509v3 Authority Key Identifier: 
                keyid:76:35:C1:F7:66:0C:63:57:10:AC:67:60:E5:0F:97:43:A3:92:F4:64

            X509v3 Basic Constraints: 
                CA:TRUE
    Signature Algorithm: sha256WithRSAEncryption
         c9:a0:8e:b7:3e:92:a3:df:34:2b:d6:84:c6:91:e2:31:ca:b2:
         74:34:8a:d5:74:6e:43:e6:ec:2a:a6:90:4b:83:72:0d:df:9c:
         01:d0:d3:2e:99:60:7e:ac:49:05:85:65:cb:52:c5:63:ea:c4:
         c3:03:cc:00:55:5d:8f:85:c5:3a:11:52:f5:50:f3:5e:ec:3c:
         3a:40:4b:a1:32:ac:30:76:e8:45:4f:f3:32:e5:16:2b:35:26:
         98:3f:98:46:a2:c3:22:35:26:00:15:a9:34:9b:00:71:b4:9c:
         20:95:aa:4e:db:d4:b7:f6:6f:20:b6:0a:6e:36:65:dc:d9:74:
         0f:98
-----BEGIN CERTIFICATE-----
MIICzDCCAjWgAwIBAgIJAKLgVTUlwiLdMA0GCSqGSIb3DQEBCwUAMH8xCzAJBgNV
BAYTAlVTMRMwEQYDVQQIDApDYWxpZm9ybmlhMRQwEgYDVQQHDAtTYW50YSBDbGFy
YTENMAsGA1UECgwEcGtnNTENMAsGA1UECwwEdGExMDESMBAGA1UEAwwJbG9jYWxo
b3N0MRMwEQYJKoZIhvcNAQkBFgR0YTEwMB4XDTE0MTIwNjAzMDY0NFoXDTE3MDkw
MTAzMDY0NFowfzELMAkGA1UEBhMCVVMxEzARBgNVBAgMCkNhbGlmb3JuaWExFDAS
BgNVBAcMC1NhbnRhIENsYXJhMQ0wCwYDVQQKDARwa2c1MQ0wCwYDVQQLDAR0YTEw
MRIwEAYDVQQDDAlsb2NhbGhvc3QxEzARBgkqhkiG9w0BCQEWBHRhMTAwgZ8wDQYJ
KoZIhvcNAQEBBQADgY0AMIGJAoGBANx57lc4QULlhEsbkZUTHM/wuNfnyiWWW6lY
q/eBY7hIUgLS2AmTctdKH9HMhI4WlMFCny2HT4JxRxmpPSh6CEqliZ295Zw7FgSW
DJ1mgCMiirz8u5ei4lZnNsRu7DNGHFFvgfiFFiSXzkAdIoZ5Zv+tzejEpgpZguwi
oByf/LElAgMBAAGjUDBOMB0GA1UdDgQWBBR2NcH3ZgxjVxCsZ2DlD5dDo5L0ZDAf
BgNVHSMEGDAWgBR2NcH3ZgxjVxCsZ2DlD5dDo5L0ZDAMBgNVHRMEBTADAQH/MA0G
CSqGSIb3DQEBCwUAA4GBAMmgjrc+kqPfNCvWhMaR4jHKsnQ0itV0bkPm7CqmkEuD
cg3fnAHQ0y6ZYH6sSQWFZctSxWPqxMMDzABVXY+FxToRUvVQ817sPDpAS6EyrDB2
6EVP8zLlFis1Jpg/mEaiwyI1JgAVqTSbAHG0nCCVqk7b1Lf2byC2Cm42ZdzZdA+Y
-----END CERTIFICATE-----
Certificate:
    Data:
        Version: 3 (0x2)
        Serial Number: 9881955886670443743 (0x8923c285a71274df)
    Signature Algorithm: sha256WithRSAEncryption
        Issuer: C=US, ST=California, L=Santa Clara, O=pkg5, OU=ta11, CN=localhost/emailAddress=ta11
        Validity
            Not Before: Dec  6 03:06:44 2014 GMT
            Not After : Sep  1 03:06:44 2017 GMT
        Subject: C=US, ST=California, L=Santa Clara, O=pkg5, OU=ta11, CN=localhost/emailAddress=ta11
        Subject Public Key Info:
            Public Key Algorithm: rsaEncryption
                Public-Key: (1024 bit)
                Modulus:
                    00:e2:18:bf:52:7e:bd:14:4a:3e:93:1b:c6:9e:11:
                    58:39:a6:fe:91:fd:ba:38:af:94:1f:2a:ae:55:de:
                    3a:8a:b3:a1:55:80:c2:97:ea:58:ef:6f:dd:0e:6f:
                    d4:82:19:89:f5:a0:11:1e:59:16:a4:ad:3a:d2:2f:
                    99:de:fe:36:6d:5d:30:12:92:d7:a1:6d:f0:96:c1:
                    c9:8f:7d:fc:e6:69:71:d6:8b:d4:89:28:21:12:ae:
                    61:e0:05:9c:e8:c4:c6:c7:16:c1:4c:28:70:f9:05:
                    87:10:90:ef:7d:52:d4:28:c6:e3:86:a8:2f:ce:4e:
                    47:e2:f6:48:79:ba:2a:b2:95
                Exponent: 65537 (0x10001)
        X509v3 extensions:
            X509v3 Subject Key Identifier: 
                9E:95:A4:08:97:81:BB:A9:A5:A3:DF:CB:CD:41:8C:A2:8A:A7:38:26
            X509v3 Authority Key Identifier: 
                keyid:9E:95:A4:08:97:81:BB:A9:A5:A3:DF:CB:CD:41:8C:A2:8A:A7:38:26

            X509v3 Basic Constraints: 
                CA:TRUE
    Signature Algorithm: sha256WithRSAEncryption
         39:24:a5:06:26:04:1d:3e:d1:4e:f2:63:81:4a:18:66:95:fc:
         80:3f:a7:f6:a8:45:85:c2:f8:41:57:b3:e2:61:a3:e0:9d:11:
         c6:98:3b:75:42:0f:ef:fd:79:b6:7c:1a:ce:8c:ce:7f:6c:52:
         1e:c2:77:2b:3b:76:16:fb:55:3c:38:58:f8:6e:9e:fd:b9:89:
         df:58:40:cc:b4:ff:a4:2f:75:c7:c3:67:b5:03:3d:a3:f5:65:
         04:6a:5c:77:4b:ca:a9:4a:5e:20:cf:f1:dc:c0:f4:b3:73:bf:
         56:ec:8a:33:1d:96:02:82:ad:da:f9:0a:6c:cf:4c:1e:6b:4f:
         4c:b4
-----BEGIN CERTIFICATE-----
MIICzDCCAjWgAwIBAgIJAIkjwoWnEnTfMA0GCSqGSIb3DQEBCwUAMH8xCzAJBgNV
BAYTAlVTMRMwEQYDVQQIDApDYWxpZm9ybmlhMRQwEgYDVQQHDAtTYW50YSBDbGFy
YTENMAsGA1UECgwEcGtnNTENMAsGA1UECwwEdGExMTESMBAGA1UEAwwJbG9jYWxo
b3N0MRMwEQYJKoZIhvcNAQkBFgR0YTExMB4XDTE0MTIwNjAzMDY0NFoXDTE3MDkw
MTAzMDY0NFowfzELMAkGA1UEBhMCVVMxEzARBgNVBAgMCkNhbGlmb3JuaWExFDAS
BgNVBAcMC1NhbnRhIENsYXJhMQ0wCwYDVQQKDARwa2c1MQ0wCwYDVQQLDAR0YTEx
MRIwEAYDVQQDDAlsb2NhbGhvc3QxEzARBgkqhkiG9w0BCQEWBHRhMTEwgZ8wDQYJ
KoZIhvcNAQEBBQADgY0AMIGJAoGBAOIYv1J+vRRKPpMbxp4RWDmm/pH9ujivlB8q
rlXeOoqzoVWAwpfqWO9v3Q5v1IIZifWgER5ZFqStOtIvmd7+Nm1dMBKS16Ft8JbB
yY99/OZpcdaL1IkoIRKuYeAFnOjExscWwUwocPkFhxCQ731S1CjG44aoL85OR+L2
SHm6KrKVAgMBAAGjUDBOMB0GA1UdDgQWBBSelaQIl4G7qaWj38vNQYyiiqc4JjAf
BgNVHSMEGDAWgBSelaQIl4G7qaWj38vNQYyiiqc4JjAMBgNVHRMEBTADAQH/MA0G
CSqGSIb3DQEBCwUAA4GBADkkpQYmBB0+0U7yY4FKGGaV/IA/p/aoRYXC+EFXs+Jh
o+CdEcaYO3VCD+/9ebZ8Gs6Mzn9sUh7Cdys7dhb7VTw4WPhunv25id9YQMy0/6Qv
dcfDZ7UDPaP1ZQRqXHdLyqlKXiDP8dzA9LNzv1bsijMdlgKCrdr5CmzPTB5rT0y0
-----END CERTIFICATE-----
