Certificate:
    Data:
        Version: 3 (0x2)
        Serial Number:
            51:72:f7:6b:b2:59:4b:14:88:be:60:e9:2a:7c:c1:6a:f4:4a:da:be
        Signature Algorithm: sha256WithRSAEncryption
        Issuer: C = US, ST = California, L = Santa Clara, O = pkg5, OU = ta6, CN = localhost, emailAddress = ta6
        Validity
            Not Before: Oct 24 21:43:15 2023 GMT
            Not After : Jul 20 21:43:15 2026 GMT
        Subject: C = US, ST = California, L = Santa Clara, O = pkg5, OU = ta6, CN = localhost, emailAddress = ta6
        Subject Public Key Info:
            Public Key Algorithm: rsaEncryption
                Public-Key: (2048 bit)
                Modulus:
                    00:9e:9f:36:9b:51:12:84:44:24:38:5b:bf:5b:88:
                    c8:08:ac:01:1a:41:ad:ee:e3:18:c9:8d:e3:93:7e:
                    0f:a6:f6:1c:fb:cb:06:0e:68:81:ed:86:12:94:2a:
                    33:1b:33:66:58:89:c1:52:98:78:4f:bb:16:74:a0:
                    fd:49:f7:27:35:10:ce:60:e6:cd:11:33:4f:d0:57:
                    ca:e5:58:ff:50:f0:d8:0a:83:75:df:c5:7b:7f:3b:
                    2e:6d:a7:19:04:17:13:76:35:53:13:f9:4b:14:01:
                    91:44:ae:7a:30:aa:3a:a0:84:00:11:35:cd:fd:5b:
                    cb:0e:ce:de:c0:82:8d:bf:e9:3b:96:89:f4:ff:a7:
                    11:36:bf:e6:74:d5:60:27:f7:29:4c:40:b8:51:57:
                    80:61:12:01:7f:1b:4c:49:eb:07:df:86:fc:10:83:
                    d4:1d:64:8f:42:0c:32:20:39:72:2e:93:73:a9:b1:
                    c7:a0:10:86:99:3f:af:53:d6:73:fb:d7:29:67:78:
                    0b:a3:c3:9a:d9:f4:26:c8:a8:36:09:3f:28:16:de:
                    5a:aa:a0:ae:4d:d3:97:dd:72:53:c2:28:b0:ff:62:
                    d7:93:ce:d7:17:40:04:a0:13:15:c8:0e:30:88:0d:
                    02:5d:08:b2:c5:be:0a:ba:76:ce:f9:ac:9c:25:c6:
                    93:d3
                Exponent: 65537 (0x10001)
        X509v3 extensions:
            X509v3 Subject Key Identifier: 
                44:51:89:2C:18:55:65:37:93:C0:FA:3D:2A:E0:06:0B:E4:9D:D8:BF
            X509v3 Authority Key Identifier: 
                44:51:89:2C:18:55:65:37:93:C0:FA:3D:2A:E0:06:0B:E4:9D:D8:BF
            X509v3 Basic Constraints: critical
                CA:TRUE
    Signature Algorithm: sha256WithRSAEncryption
    Signature Value:
        8f:32:9a:9a:eb:74:83:58:88:4f:69:33:59:8c:8b:22:65:87:
        08:65:c3:78:9e:4f:f2:2a:d4:2c:3a:40:67:89:cd:d2:09:0f:
        cc:fa:84:26:cb:ea:9a:2a:ed:fe:e6:f3:bc:c5:52:40:1e:9f:
        2e:fa:0b:6c:51:0a:20:f0:f1:8d:67:67:31:76:8f:63:b8:60:
        fc:f2:94:bb:9e:32:ef:08:e9:0a:28:11:69:93:e8:8b:0f:25:
        5d:74:eb:1a:4c:30:8d:a3:41:e1:10:0b:78:b3:32:61:7a:ed:
        47:79:fe:92:6b:ee:24:78:83:c5:41:bd:cc:28:13:cd:79:78:
        1f:2d:8e:92:76:3f:a8:6e:2f:a4:f5:00:d4:04:89:eb:f7:92:
        f8:05:31:93:02:a9:d3:2d:36:ea:10:1a:4b:d0:37:ab:c4:ef:
        42:60:06:0b:9c:42:38:6c:4d:22:24:f4:e5:7b:e0:cf:b0:e3:
        4a:51:23:d0:fd:51:8a:78:dd:4b:3b:3a:9c:c1:92:02:eb:77:
        fe:ea:a6:32:10:1c:50:8b:c3:da:ff:14:60:71:92:78:ca:f8:
        9d:e0:84:68:63:ef:90:25:35:ad:f6:17:f0:42:4a:58:fe:46:
        65:7f:56:07:ae:6c:45:89:21:0d:42:d5:0e:52:5f:5f:2b:2c:
        6b:d8:82:34
-----BEGIN CERTIFICATE-----
MIID2zCCAsOgAwIBAgIUUXL3a7JZSxSIvmDpKnzBavRK2r4wDQYJKoZIhvcNAQEL
BQAwfTELMAkGA1UEBhMCVVMxEzARBgNVBAgMCkNhbGlmb3JuaWExFDASBgNVBAcM
C1NhbnRhIENsYXJhMQ0wCwYDVQQKDARwa2c1MQwwCgYDVQQLDAN0YTYxEjAQBgNV
BAMMCWxvY2FsaG9zdDESMBAGCSqGSIb3DQEJARYDdGE2MB4XDTIzMTAyNDIxNDMx
NVoXDTI2MDcyMDIxNDMxNVowfTELMAkGA1UEBhMCVVMxEzARBgNVBAgMCkNhbGlm
b3JuaWExFDASBgNVBAcMC1NhbnRhIENsYXJhMQ0wCwYDVQQKDARwa2c1MQwwCgYD
VQQLDAN0YTYxEjAQBgNVBAMMCWxvY2FsaG9zdDESMBAGCSqGSIb3DQEJARYDdGE2
MIIBIjANBgkqhkiG9w0BAQEFAAOCAQ8AMIIBCgKCAQEAnp82m1EShEQkOFu/W4jI
CKwBGkGt7uMYyY3jk34PpvYc+8sGDmiB7YYSlCozGzNmWInBUph4T7sWdKD9Sfcn
NRDOYObNETNP0FfK5Vj/UPDYCoN138V7fzsubacZBBcTdjVTE/lLFAGRRK56MKo6
oIQAETXN/VvLDs7ewIKNv+k7lon0/6cRNr/mdNVgJ/cpTEC4UVeAYRIBfxtMSesH
34b8EIPUHWSPQgwyIDlyLpNzqbHHoBCGmT+vU9Zz+9cpZ3gLo8Oa2fQmyKg2CT8o
Ft5aqqCuTdOX3XJTwiiw/2LXk87XF0AEoBMVyA4wiA0CXQiyxb4KunbO+aycJcaT
0wIDAQABo1MwUTAdBgNVHQ4EFgQURFGJLBhVZTeTwPo9KuAGC+Sd2L8wHwYDVR0j
BBgwFoAURFGJLBhVZTeTwPo9KuAGC+Sd2L8wDwYDVR0TAQH/BAUwAwEB/zANBgkq
hkiG9w0BAQsFAAOCAQEAjzKamut0g1iIT2kzWYyLImWHCGXDeJ5P8irULDpAZ4nN
0gkPzPqEJsvqmirt/ubzvMVSQB6fLvoLbFEKIPDxjWdnMXaPY7hg/PKUu54y7wjp
CigRaZPoiw8lXXTrGkwwjaNB4RALeLMyYXrtR3n+kmvuJHiDxUG9zCgTzXl4Hy2O
knY/qG4vpPUA1ASJ6/eS+AUxkwKp0y026hAaS9A3q8TvQmAGC5xCOGxNIiT05Xvg
z7DjSlEj0P1RinjdSzs6nMGSAut3/uqmMhAcUIvD2v8UYHGSeMr4neCEaGPvkCU1
rfYX8EJKWP5GZX9WB65sRYkhDULVDlJfXyssa9iCNA==
-----END CERTIFICATE-----
Certificate:
    Data:
        Version: 3 (0x2)
        Serial Number:
            76:92:a7:ea:5a:47:7c:02:7a:58:30:be:44:2f:1f:84:94:9c:c0:b2
        Signature Algorithm: sha256WithRSAEncryption
        Issuer: C = US, ST = California, L = Santa Clara, O = pkg5, OU = ta8, CN = localhost, emailAddress = ta8
        Validity
            Not Before: Oct 24 21:43:16 2023 GMT
            Not After : Jul 20 21:43:16 2026 GMT
        Subject: C = US, ST = California, L = Santa Clara, O = pkg5, OU = ta8, CN = localhost, emailAddress = ta8
        Subject Public Key Info:
            Public Key Algorithm: rsaEncryption
                Public-Key: (2048 bit)
                Modulus:
                    00:a8:6e:ae:ef:eb:da:d5:4b:1b:c8:b1:a0:d8:b3:
                    33:50:bc:28:a7:cd:7d:bb:e0:c1:56:d4:35:e9:42:
                    af:35:5e:3b:72:35:88:42:ec:88:24:20:74:d0:b4:
                    01:c5:6d:3b:a4:cf:22:2f:b6:f7:6d:aa:90:fe:57:
                    4d:10:b1:d7:fc:8f:dd:31:a3:4b:7b:52:16:d2:f0:
                    38:9b:ef:7d:0b:45:e6:a3:26:8a:af:1c:7b:49:49:
                    9e:8f:b5:fd:21:47:66:7a:30:4f:20:a3:da:c1:f7:
                    3e:62:89:61:82:fc:8d:03:ce:cc:09:57:12:ab:6c:
                    c3:67:27:e8:7a:09:df:e4:72:f7:95:3d:70:be:cc:
                    32:b3:2f:e9:0e:0a:23:b7:9a:45:8c:fd:88:8b:ef:
                    51:57:94:16:e9:7f:f5:3a:76:9b:c0:6e:1f:69:d2:
                    a4:32:17:1a:36:ef:57:00:0e:fc:e1:6c:38:64:3e:
                    ff:13:01:a2:be:f1:cd:74:71:6e:83:86:2d:f3:a1:
                    6b:67:69:4c:f0:09:69:d7:c9:33:4d:2a:a9:bd:70:
                    66:f7:ba:f4:7f:20:21:16:6a:a2:be:a8:d3:0f:0f:
                    7b:77:45:3f:5b:81:61:bc:3d:4d:58:d0:d3:70:fc:
                    67:a0:b9:58:77:87:5f:ed:ff:29:a4:b3:60:9f:82:
                    7b:91
                Exponent: 65537 (0x10001)
        X509v3 extensions:
            X509v3 Subject Key Identifier: 
                48:C6:16:3D:73:3A:9F:8C:D4:93:83:65:4A:96:F9:D3:C3:23:E4:CF
            X509v3 Authority Key Identifier: 
                48:C6:16:3D:73:3A:9F:8C:D4:93:83:65:4A:96:F9:D3:C3:23:E4:CF
            X509v3 Basic Constraints: critical
                CA:TRUE
    Signature Algorithm: sha256WithRSAEncryption
    Signature Value:
        03:8b:7e:da:b5:97:df:b4:13:de:0f:8b:af:e9:ac:c9:b5:08:
        99:6f:09:e2:76:4a:31:5a:d4:57:a5:3a:a4:c2:24:5b:5e:b8:
        14:30:74:24:3e:0a:3f:0d:33:5c:01:10:ea:4d:ef:d2:d9:c1:
        31:c4:a9:5c:ea:49:06:13:03:4f:bd:42:f5:9f:78:4e:e6:1a:
        b5:e5:28:03:26:b4:e9:fd:48:08:92:8d:2f:ef:39:e3:20:d4:
        52:74:66:c9:28:c6:aa:d8:24:6a:39:25:69:32:55:3f:a7:b0:
        fa:43:2f:b1:2a:7c:e0:48:f1:fc:1d:be:7f:52:01:aa:53:80:
        f1:17:fe:66:eb:84:9a:7d:70:de:67:b2:f0:cd:31:98:fe:86:
        2d:e2:17:23:e0:fb:fb:ce:c8:58:06:d2:66:7b:b5:bf:66:15:
        63:db:4d:11:0c:cf:45:9b:f7:ad:c6:4e:9d:16:fa:52:e1:f3:
        fb:31:c6:6b:a9:2a:de:02:94:60:73:75:db:22:c3:77:84:00:
        92:71:e7:44:c2:44:a2:13:d4:ee:ba:be:12:25:66:b5:16:82:
        06:8d:7c:79:60:36:db:df:d0:4b:8d:bd:fb:39:51:68:34:4d:
        41:bc:f8:4b:bc:a0:63:be:a8:7e:45:7b:c4:59:c5:eb:85:73:
        02:4e:21:47
-----BEGIN CERTIFICATE-----
MIID2zCCAsOgAwIBAgIUdpKn6lpHfAJ6WDC+RC8fhJScwLIwDQYJKoZIhvcNAQEL
BQAwfTELMAkGA1UEBhMCVVMxEzARBgNVBAgMCkNhbGlmb3JuaWExFDASBgNVBAcM
C1NhbnRhIENsYXJhMQ0wCwYDVQQKDARwa2c1MQwwCgYDVQQLDAN0YTgxEjAQBgNV
BAMMCWxvY2FsaG9zdDESMBAGCSqGSIb3DQEJARYDdGE4MB4XDTIzMTAyNDIxNDMx
NloXDTI2MDcyMDIxNDMxNlowfTELMAkGA1UEBhMCVVMxEzARBgNVBAgMCkNhbGlm
b3JuaWExFDASBgNVBAcMC1NhbnRhIENsYXJhMQ0wCwYDVQQKDARwa2c1MQwwCgYD
VQQLDAN0YTgxEjAQBgNVBAMMCWxvY2FsaG9zdDESMBAGCSqGSIb3DQEJARYDdGE4
MIIBIjANBgkqhkiG9w0BAQEFAAOCAQ8AMIIBCgKCAQEAqG6u7+va1UsbyLGg2LMz
ULwop819u+DBVtQ16UKvNV47cjWIQuyIJCB00LQBxW07pM8iL7b3baqQ/ldNELHX
/I/dMaNLe1IW0vA4m+99C0XmoyaKrxx7SUmej7X9IUdmejBPIKPawfc+YolhgvyN
A87MCVcSq2zDZyfoegnf5HL3lT1wvswysy/pDgojt5pFjP2Ii+9RV5QW6X/1Onab
wG4fadKkMhcaNu9XAA784Ww4ZD7/EwGivvHNdHFug4Yt86FrZ2lM8Alp18kzTSqp
vXBm97r0fyAhFmqivqjTDw97d0U/W4FhvD1NWNDTcPxnoLlYd4df7f8ppLNgn4J7
kQIDAQABo1MwUTAdBgNVHQ4EFgQUSMYWPXM6n4zUk4NlSpb508Mj5M8wHwYDVR0j
BBgwFoAUSMYWPXM6n4zUk4NlSpb508Mj5M8wDwYDVR0TAQH/BAUwAwEB/zANBgkq
hkiG9w0BAQsFAAOCAQEAA4t+2rWX37QT3g+Lr+msybUImW8J4nZKMVrUV6U6pMIk
W164FDB0JD4KPw0zXAEQ6k3v0tnBMcSpXOpJBhMDT71C9Z94TuYateUoAya06f1I
CJKNL+854yDUUnRmySjGqtgkajklaTJVP6ew+kMvsSp84Ejx/B2+f1IBqlOA8Rf+
ZuuEmn1w3mey8M0xmP6GLeIXI+D7+87IWAbSZnu1v2YVY9tNEQzPRZv3rcZOnRb6
UuHz+zHGa6kq3gKUYHN12yLDd4QAknHnRMJEohPU7rq+EiVmtRaCBo18eWA229/Q
S429+zlRaDRNQbz4S7ygY76ofkV7xFnF64VzAk4hRw==
-----END CERTIFICATE-----
Certificate:
    Data:
        Version: 3 (0x2)
        Serial Number:
            4b:e7:c3:96:00:27:c4:a6:e4:b1:f8:8f:79:9a:e5:ee:02:2f:ea:fb
        Signature Algorithm: sha256WithRSAEncryption
        Issuer: C = US, ST = California, L = Santa Clara, O = pkg5, OU = ta9, CN = localhost, emailAddress = ta9
        Validity
            Not Before: Oct 24 21:43:17 2023 GMT
            Not After : Jul 20 21:43:17 2026 GMT
        Subject: C = US, ST = California, L = Santa Clara, O = pkg5, OU = ta9, CN = localhost, emailAddress = ta9
        Subject Public Key Info:
            Public Key Algorithm: rsaEncryption
                Public-Key: (2048 bit)
                Modulus:
                    00:9f:ce:22:d0:6b:b4:52:f2:e1:9e:b3:80:45:07:
                    56:0b:69:c6:0c:0d:68:f0:2b:04:44:c0:1f:63:ab:
                    1a:4a:95:17:ca:c3:ff:a5:c9:48:e4:c9:bd:cd:cd:
                    ff:cc:75:18:1e:ba:30:82:1a:47:fe:f3:18:5d:eb:
                    43:e3:75:0d:4a:da:bf:81:8a:fd:d4:69:9f:f9:87:
                    23:22:1d:1a:e3:e3:bf:c7:95:4c:2e:76:66:a0:34:
                    7d:30:7c:cb:26:49:0c:df:12:90:a3:5f:dd:cb:78:
                    35:14:99:b0:2c:56:21:bc:63:04:ee:69:90:6b:d1:
                    c5:dd:e9:c9:4c:08:9c:ee:30:8a:4c:fb:aa:a8:8e:
                    56:dc:be:b6:71:8a:2d:25:86:76:04:46:e0:67:3e:
                    2c:55:ff:e9:3e:a4:35:6e:31:17:53:0e:f2:1d:bb:
                    de:81:ad:31:30:e9:8e:c9:5d:89:ba:47:24:af:79:
                    c2:32:4a:44:fa:49:36:29:50:2c:f8:f7:73:69:4a:
                    db:df:0a:28:b2:58:db:83:af:f3:19:01:cb:c0:ec:
                    dd:ee:1c:61:9a:fb:57:e6:7c:52:08:83:ee:21:6e:
                    e3:1f:02:5b:b1:f3:4f:70:f0:b5:fa:86:89:cc:7c:
                    5f:58:ba:05:db:93:de:55:0e:84:8e:68:b9:a1:3c:
                    2c:f9
                Exponent: 65537 (0x10001)
        X509v3 extensions:
            X509v3 Subject Key Identifier: 
                39:D5:47:93:CB:A5:97:77:94:7B:81:90:5A:10:C3:07:F1:2E:1F:6E
            X509v3 Authority Key Identifier: 
                39:D5:47:93:CB:A5:97:77:94:7B:81:90:5A:10:C3:07:F1:2E:1F:6E
            X509v3 Basic Constraints: critical
                CA:TRUE
    Signature Algorithm: sha256WithRSAEncryption
    Signature Value:
        2a:68:b2:87:0b:be:b1:92:de:33:11:08:b9:85:bb:66:65:00:
        d0:ec:0f:cc:15:2c:5c:28:88:d1:86:69:28:25:3f:90:e7:5a:
        d4:63:10:26:ab:bd:72:81:5e:f3:f0:22:13:75:6f:2a:f0:13:
        46:30:aa:c1:2a:09:37:19:35:f8:79:14:f6:3f:0b:50:b2:da:
        c5:2f:39:a7:d5:29:ac:1c:dd:b1:d8:94:c4:27:8f:7b:b9:87:
        9a:3f:45:21:fd:be:3e:3a:d3:60:7d:be:13:47:6f:bc:76:c5:
        01:54:a1:4b:53:3d:59:00:86:84:74:ee:ec:09:28:8a:74:6a:
        bd:ed:a2:91:35:a5:c0:27:cd:5c:5c:49:0a:e7:e4:d1:cc:57:
        90:c9:06:42:21:65:42:9c:96:15:47:8d:47:a1:56:ee:6f:c6:
        6f:36:e4:e9:85:d5:7c:f3:41:e1:02:a6:b0:c0:54:9b:24:94:
        2b:ed:66:d5:da:48:e6:27:45:22:83:de:c7:7f:c9:3d:0c:2e:
        87:be:a8:1d:fa:55:d3:d7:f6:f2:6b:99:83:50:48:b5:86:51:
        c9:da:ef:31:40:51:ca:f7:fd:32:16:0d:ed:aa:79:ab:24:c9:
        0d:4e:fd:e6:19:9f:e2:3c:5c:06:d2:ff:4f:3d:8b:35:c9:c0:
        7d:11:9b:49
-----BEGIN CERTIFICATE-----
MIID2zCCAsOgAwIBAgIUS+fDlgAnxKbksfiPeZrl7gIv6vswDQYJKoZIhvcNAQEL
BQAwfTELMAkGA1UEBhMCVVMxEzARBgNVBAgMCkNhbGlmb3JuaWExFDASBgNVBAcM
C1NhbnRhIENsYXJhMQ0wCwYDVQQKDARwa2c1MQwwCgYDVQQLDAN0YTkxEjAQBgNV
BAMMCWxvY2FsaG9zdDESMBAGCSqGSIb3DQEJARYDdGE5MB4XDTIzMTAyNDIxNDMx
N1oXDTI2MDcyMDIxNDMxN1owfTELMAkGA1UEBhMCVVMxEzARBgNVBAgMCkNhbGlm
b3JuaWExFDASBgNVBAcMC1NhbnRhIENsYXJhMQ0wCwYDVQQKDARwa2c1MQwwCgYD
VQQLDAN0YTkxEjAQBgNVBAMMCWxvY2FsaG9zdDESMBAGCSqGSIb3DQEJARYDdGE5
MIIBIjANBgkqhkiG9w0BAQEFAAOCAQ8AMIIBCgKCAQEAn84i0Gu0UvLhnrOARQdW
C2nGDA1o8CsERMAfY6saSpUXysP/pclI5Mm9zc3/zHUYHrowghpH/vMYXetD43UN
Stq/gYr91Gmf+YcjIh0a4+O/x5VMLnZmoDR9MHzLJkkM3xKQo1/dy3g1FJmwLFYh
vGME7mmQa9HF3enJTAic7jCKTPuqqI5W3L62cYotJYZ2BEbgZz4sVf/pPqQ1bjEX
Uw7yHbvega0xMOmOyV2Jukckr3nCMkpE+kk2KVAs+PdzaUrb3woosljbg6/zGQHL
wOzd7hxhmvtX5nxSCIPuIW7jHwJbsfNPcPC1+oaJzHxfWLoF25PeVQ6Ejmi5oTws
+QIDAQABo1MwUTAdBgNVHQ4EFgQUOdVHk8ull3eUe4GQWhDDB/EuH24wHwYDVR0j
BBgwFoAUOdVHk8ull3eUe4GQWhDDB/EuH24wDwYDVR0TAQH/BAUwAwEB/zANBgkq
hkiG9w0BAQsFAAOCAQEAKmiyhwu+sZLeMxEIuYW7ZmUA0OwPzBUsXCiI0YZpKCU/
kOda1GMQJqu9coFe8/AiE3VvKvATRjCqwSoJNxk1+HkU9j8LULLaxS85p9UprBzd
sdiUxCePe7mHmj9FIf2+PjrTYH2+E0dvvHbFAVShS1M9WQCGhHTu7AkoinRqve2i
kTWlwCfNXFxJCufk0cxXkMkGQiFlQpyWFUeNR6FW7m/Gbzbk6YXVfPNB4QKmsMBU
mySUK+1m1dpI5idFIoPex3/JPQwuh76oHfpV09f28muZg1BItYZRydrvMUBRyvf9
MhYN7ap5qyTJDU795hmf4jxcBtL/Tz2LNcnAfRGbSQ==
-----END CERTIFICATE-----
Certificate:
    Data:
        Version: 3 (0x2)
        Serial Number:
            73:79:2f:51:ee:39:df:5e:f3:6f:74:91:4d:9e:05:8c:94:7c:43:a7
        Signature Algorithm: sha256WithRSAEncryption
        Issuer: C = US, ST = California, L = Santa Clara, O = pkg5, OU = ta10, CN = localhost, emailAddress = ta10
        Validity
            Not Before: Oct 24 21:43:17 2023 GMT
            Not After : Jul 20 21:43:17 2026 GMT
        Subject: C = US, ST = California, L = Santa Clara, O = pkg5, OU = ta10, CN = localhost, emailAddress = ta10
        Subject Public Key Info:
            Public Key Algorithm: rsaEncryption
                Public-Key: (2048 bit)
                Modulus:
                    00:bc:5c:f1:9d:fb:80:6d:29:8a:41:76:42:24:49:
                    79:63:d7:78:49:97:db:88:76:55:10:aa:85:71:c5:
                    e2:65:e0:33:66:f5:c8:9d:62:ef:bc:d2:8d:1e:70:
                    76:5b:de:4d:da:4c:c0:8b:43:a9:2d:55:1b:ce:c6:
                    46:8f:78:64:ec:a7:34:f9:bc:da:98:ab:40:92:3d:
                    ef:06:19:cf:b0:86:35:a8:77:61:7d:f0:74:02:23:
                    b3:3f:1c:d1:34:42:d6:ae:7e:7c:7a:bf:0f:e1:c9:
                    c1:02:fa:21:52:ee:7f:5f:56:cc:18:ed:ec:6c:e1:
                    0f:3b:b6:b7:69:1a:ab:79:77:8c:3b:3d:a2:c3:ff:
                    2b:bb:c8:70:db:20:3c:b0:6b:b9:f3:0d:4f:6e:bc:
                    82:57:e1:f7:69:55:0e:8b:bb:97:d3:b5:32:eb:94:
                    da:3b:9e:2e:3b:ba:ea:37:70:2b:45:cf:cc:1b:c6:
                    96:ea:b3:50:da:ad:d0:c2:e0:0f:25:bc:ab:a8:9b:
                    83:81:0d:23:ba:f0:77:50:b4:e8:7f:60:04:89:bc:
                    64:4d:95:b7:0f:0c:98:2c:73:8e:1f:fd:77:84:da:
                    b7:93:84:70:52:71:a6:f1:46:70:52:ec:e5:b7:cb:
                    2b:57:40:1a:5b:87:f0:f4:46:ff:61:de:cb:1c:27:
                    8e:21
                Exponent: 65537 (0x10001)
        X509v3 extensions:
            X509v3 Subject Key Identifier: 
                20:47:0F:43:D3:3C:FF:A5:65:A2:36:C4:0B:C6:38:04:10:DE:0A:E9
            X509v3 Authority Key Identifier: 
                20:47:0F:43:D3:3C:FF:A5:65:A2:36:C4:0B:C6:38:04:10:DE:0A:E9
            X509v3 Basic Constraints: critical
                CA:TRUE
    Signature Algorithm: sha256WithRSAEncryption
    Signature Value:
        72:98:4f:b8:d9:dd:2d:c7:e9:8c:9b:1d:83:08:fb:8e:ab:ab:
        c9:97:16:d7:9c:25:60:7c:c5:75:46:de:bb:56:39:35:e1:f2:
        a2:66:68:37:36:15:7e:f4:f6:f7:e2:68:dd:cb:59:50:d9:5f:
        d0:9f:f0:f4:b8:ae:e6:d7:17:3e:50:2c:d4:12:ba:c7:b5:f2:
        c8:19:58:88:88:a0:2a:a6:8d:8d:36:cd:ed:ce:11:e6:bf:55:
        26:20:bd:f2:66:db:86:a3:f3:4e:14:33:d9:71:96:03:68:8d:
        df:33:1b:8d:cd:7c:8e:ef:ea:91:ea:17:30:98:df:20:0b:74:
        b4:23:8c:a1:b0:0c:5c:85:e5:77:d4:cf:f3:ce:7f:5e:83:b4:
        eb:68:cb:42:41:a0:48:59:e2:67:8c:10:36:12:5d:2b:50:1a:
        69:f3:5a:4c:09:db:e2:38:d5:85:dd:61:38:8d:81:bc:bc:2b:
        03:7c:47:64:63:da:14:ef:8c:f2:6f:8b:3c:1c:a9:06:a7:d4:
        cd:72:6b:83:da:9d:5d:5b:d0:40:f2:b5:63:75:44:9b:84:82:
        27:9f:cd:ff:cb:d2:cc:c0:cb:c9:91:4d:84:d9:6b:11:d6:d2:
        38:70:98:9d:86:9a:2d:21:68:a7:9b:5a:cc:c4:78:47:c8:20:
        d3:d3:93:99
-----BEGIN CERTIFICATE-----
MIID3zCCAsegAwIBAgIUc3kvUe45317zb3SRTZ4FjJR8Q6cwDQYJKoZIhvcNAQEL
BQAwfzELMAkGA1UEBhMCVVMxEzARBgNVBAgMCkNhbGlmb3JuaWExFDASBgNVBAcM
C1NhbnRhIENsYXJhMQ0wCwYDVQQKDARwa2c1MQ0wCwYDVQQLDAR0YTEwMRIwEAYD
VQQDDAlsb2NhbGhvc3QxEzARBgkqhkiG9w0BCQEWBHRhMTAwHhcNMjMxMDI0MjE0
MzE3WhcNMjYwNzIwMjE0MzE3WjB/MQswCQYDVQQGEwJVUzETMBEGA1UECAwKQ2Fs
aWZvcm5pYTEUMBIGA1UEBwwLU2FudGEgQ2xhcmExDTALBgNVBAoMBHBrZzUxDTAL
BgNVBAsMBHRhMTAxEjAQBgNVBAMMCWxvY2FsaG9zdDETMBEGCSqGSIb3DQEJARYE
dGExMDCCASIwDQYJKoZIhvcNAQEBBQADggEPADCCAQoCggEBALxc8Z37gG0pikF2
QiRJeWPXeEmX24h2VRCqhXHF4mXgM2b1yJ1i77zSjR5wdlveTdpMwItDqS1VG87G
Ro94ZOynNPm82pirQJI97wYZz7CGNah3YX3wdAIjsz8c0TRC1q5+fHq/D+HJwQL6
IVLuf19WzBjt7GzhDzu2t2kaq3l3jDs9osP/K7vIcNsgPLBrufMNT268glfh92lV
Dou7l9O1MuuU2jueLju66jdwK0XPzBvGluqzUNqt0MLgDyW8q6ibg4ENI7rwd1C0
6H9gBIm8ZE2Vtw8MmCxzjh/9d4Tat5OEcFJxpvFGcFLs5bfLK1dAGluH8PRG/2He
yxwnjiECAwEAAaNTMFEwHQYDVR0OBBYEFCBHD0PTPP+lZaI2xAvGOAQQ3grpMB8G
A1UdIwQYMBaAFCBHD0PTPP+lZaI2xAvGOAQQ3grpMA8GA1UdEwEB/wQFMAMBAf8w
DQYJKoZIhvcNAQELBQADggEBAHKYT7jZ3S3H6YybHYMI+46rq8mXFtecJWB8xXVG
3rtWOTXh8qJmaDc2FX709vfiaN3LWVDZX9Cf8PS4rubXFz5QLNQSuse18sgZWIiI
oCqmjY02ze3OEea/VSYgvfJm24aj804UM9lxlgNojd8zG43NfI7v6pHqFzCY3yAL
dLQjjKGwDFyF5XfUz/POf16DtOtoy0JBoEhZ4meMEDYSXStQGmnzWkwJ2+I41YXd
YTiNgby8KwN8R2Rj2hTvjPJvizwcqQan1M1ya4PanV1b0EDytWN1RJuEgiefzf/L
0szAy8mRTYTZaxHW0jhwmJ2Gmi0haKebWszEeEfIINPTk5k=
-----END CERTIFICATE-----
Certificate:
    Data:
        Version: 3 (0x2)
        Serial Number:
            68:37:3a:4d:a5:e5:4b:cc:16:35:ac:53:91:e5:d6:eb:bc:65:46:b7
        Signature Algorithm: sha256WithRSAEncryption
        Issuer: C = US, ST = California, L = Santa Clara, O = pkg5, OU = ta11, CN = localhost, emailAddress = ta11
        Validity
            Not Before: Oct 24 21:43:18 2023 GMT
            Not After : Jul 20 21:43:18 2026 GMT
        Subject: C = US, ST = California, L = Santa Clara, O = pkg5, OU = ta11, CN = localhost, emailAddress = ta11
        Subject Public Key Info:
            Public Key Algorithm: rsaEncryption
                Public-Key: (2048 bit)
                Modulus:
                    00:e1:07:cd:35:01:48:47:fa:4f:cd:ae:4e:96:f5:
                    69:d4:98:59:2d:6a:e1:1e:26:4b:c7:f8:27:bc:3a:
                    f3:0d:b6:69:53:e2:70:a0:f2:54:1c:d7:ec:9e:aa:
                    78:9c:06:2f:63:a3:bf:de:a6:09:34:38:48:29:64:
                    24:15:cc:ef:dc:e1:8f:a5:01:b9:37:08:df:62:e8:
                    ee:f3:5e:2f:74:40:fb:b2:a1:6b:b6:d8:55:61:e2:
                    f8:98:59:09:e0:48:7e:05:ca:d7:d7:a9:fb:24:3e:
                    8b:b0:f5:b6:cc:c6:e4:20:76:3d:e6:31:f4:b1:8c:
                    7d:8e:1a:9e:ab:dc:47:e3:43:f4:dc:b6:8f:2c:42:
                    91:58:d4:d6:b8:67:7b:02:37:36:3e:61:8a:0d:bd:
                    68:6d:ff:91:fe:8a:f3:89:b4:a4:78:ba:ad:2a:0d:
                    1e:ba:7e:1d:e9:bb:b2:87:c2:ff:2c:ee:0c:55:b8:
                    5e:87:e7:e6:61:6e:1d:eb:9c:8d:7c:2d:f2:28:57:
                    22:8a:53:63:40:58:a8:9d:ba:d6:ee:97:c2:1a:4a:
                    98:ca:00:46:f0:a8:fd:26:d7:35:a0:be:12:3c:c4:
                    3c:1f:5c:33:6d:5c:1e:5d:de:a4:40:30:7f:bb:d8:
                    a6:4f:38:7f:3a:91:b0:90:4c:72:a6:b9:55:1b:98:
                    83:53
                Exponent: 65537 (0x10001)
        X509v3 extensions:
            X509v3 Subject Key Identifier: 
                9E:D6:A8:28:C3:04:5C:89:A2:36:5F:D4:85:22:C3:AB:4A:C4:DE:7E
            X509v3 Authority Key Identifier: 
                9E:D6:A8:28:C3:04:5C:89:A2:36:5F:D4:85:22:C3:AB:4A:C4:DE:7E
            X509v3 Basic Constraints: critical
                CA:TRUE
    Signature Algorithm: sha256WithRSAEncryption
    Signature Value:
        8b:56:9e:06:77:67:28:48:d9:51:52:af:f0:44:c0:b3:5b:e5:
        ae:96:5a:dd:1d:c1:b2:4d:b4:1c:3f:5d:00:be:0e:f0:81:b9:
        a4:52:b2:5e:9c:35:c4:45:24:6f:6e:5e:b2:30:d4:06:2c:5a:
        dd:41:1a:80:95:36:91:ab:af:c8:4a:ee:13:6b:b0:5c:a5:05:
        f0:e2:a7:f1:ac:1a:6f:50:a4:7d:3f:81:fa:e1:ca:af:bb:43:
        5b:84:48:39:72:e0:88:43:fe:13:54:af:ea:90:17:55:71:65:
        7a:3b:71:29:35:cb:29:32:8f:95:7a:b5:23:01:11:1b:8d:ee:
        9b:79:27:75:d1:a6:69:71:26:52:d8:31:28:ad:58:e3:89:da:
        6c:ae:c9:8f:db:29:24:c3:43:c2:41:51:52:49:26:eb:f2:b1:
        2b:4a:00:c3:fa:6e:fc:04:21:b4:fd:e4:4e:99:db:0c:e3:18:
        ac:e0:9d:d1:79:ef:ef:88:11:df:36:16:f9:5e:37:b0:51:57:
        60:41:48:1e:af:76:55:7c:62:05:df:60:af:7e:02:9d:7a:cf:
        7d:81:bd:39:88:ec:f6:9e:9c:65:7a:83:81:8c:44:3c:31:13:
        c9:c1:d5:e6:98:86:5c:58:e4:6d:74:af:b4:4f:0e:3d:d8:6e:
        05:fd:c9:73
-----BEGIN CERTIFICATE-----
MIID3zCCAsegAwIBAgIUaDc6TaXlS8wWNaxTkeXW67xlRrcwDQYJKoZIhvcNAQEL
BQAwfzELMAkGA1UEBhMCVVMxEzARBgNVBAgMCkNhbGlmb3JuaWExFDASBgNVBAcM
C1NhbnRhIENsYXJhMQ0wCwYDVQQKDARwa2c1MQ0wCwYDVQQLDAR0YTExMRIwEAYD
VQQDDAlsb2NhbGhvc3QxEzARBgkqhkiG9w0BCQEWBHRhMTEwHhcNMjMxMDI0MjE0
MzE4WhcNMjYwNzIwMjE0MzE4WjB/MQswCQYDVQQGEwJVUzETMBEGA1UECAwKQ2Fs
aWZvcm5pYTEUMBIGA1UEBwwLU2FudGEgQ2xhcmExDTALBgNVBAoMBHBrZzUxDTAL
BgNVBAsMBHRhMTExEjAQBgNVBAMMCWxvY2FsaG9zdDETMBEGCSqGSIb3DQEJARYE
dGExMTCCASIwDQYJKoZIhvcNAQEBBQADggEPADCCAQoCggEBAOEHzTUBSEf6T82u
Tpb1adSYWS1q4R4mS8f4J7w68w22aVPicKDyVBzX7J6qeJwGL2Ojv96mCTQ4SClk
JBXM79zhj6UBuTcI32Lo7vNeL3RA+7Kha7bYVWHi+JhZCeBIfgXK19ep+yQ+i7D1
tszG5CB2PeYx9LGMfY4anqvcR+ND9Ny2jyxCkVjU1rhnewI3Nj5hig29aG3/kf6K
84m0pHi6rSoNHrp+Hem7sofC/yzuDFW4Xofn5mFuHeucjXwt8ihXIopTY0BYqJ26
1u6XwhpKmMoARvCo/SbXNaC+EjzEPB9cM21cHl3epEAwf7vYpk84fzqRsJBMcqa5
VRuYg1MCAwEAAaNTMFEwHQYDVR0OBBYEFJ7WqCjDBFyJojZf1IUiw6tKxN5+MB8G
A1UdIwQYMBaAFJ7WqCjDBFyJojZf1IUiw6tKxN5+MA8GA1UdEwEB/wQFMAMBAf8w
DQYJKoZIhvcNAQELBQADggEBAItWngZ3ZyhI2VFSr/BEwLNb5a6WWt0dwbJNtBw/
XQC+DvCBuaRSsl6cNcRFJG9uXrIw1AYsWt1BGoCVNpGrr8hK7hNrsFylBfDip/Gs
Gm9QpH0/gfrhyq+7Q1uESDly4IhD/hNUr+qQF1VxZXo7cSk1yykyj5V6tSMBERuN
7pt5J3XRpmlxJlLYMSitWOOJ2myuyY/bKSTDQ8JBUVJJJuvysStKAMP6bvwEIbT9
5E6Z2wzjGKzgndF57++IEd82FvleN7BRV2BBSB6vdlV8YgXfYK9+Ap16z32BvTmI
7PaenGV6g4GMRDwxE8nB1eaYhlxY5G10r7RPDj3YbgX9yXM=
-----END CERTIFICATE-----
