Certificate:
    Data:
        Version: 3 (0x2)
        Serial Number:
            02:a4:30:7a:36:31:32:e4:69:57:85:1a:69:a4:15:af:36:a1:30:54
        Signature Algorithm: sha256WithRSAEncryption
        Issuer: C = US, ST = California, L = Santa Clara, O = pkg5, OU = ta6, CN = localhost, emailAddress = ta6
        Validity
            Not Before: May 23 15:47:22 2024 GMT
            Not After : Feb 17 15:47:22 2027 GMT
        Subject: C = US, ST = California, L = Santa Clara, O = pkg5, OU = ta6, CN = localhost, emailAddress = ta6
        Subject Public Key Info:
            Public Key Algorithm: rsaEncryption
                Public-Key: (2048 bit)
                Modulus:
                    00:a9:02:79:77:0a:4e:a0:b5:ea:83:81:e2:83:2d:
                    49:8e:67:f5:29:3b:22:69:ca:aa:3f:42:fd:dc:69:
                    d7:84:ff:5f:8e:c2:16:58:e1:5e:17:7d:37:26:96:
                    17:0d:53:43:27:35:54:73:a0:53:20:90:6c:cd:58:
                    4a:a5:4d:3c:00:2e:b1:72:9d:5b:ff:20:36:4a:6c:
                    5b:e9:45:cd:ed:54:37:08:cc:b2:e3:91:18:9e:10:
                    4d:ff:87:70:c2:66:1c:30:45:77:9b:58:ac:80:9e:
                    58:2f:75:f8:1c:6d:0b:10:2c:01:59:f1:ac:25:6d:
                    a7:2e:5d:34:d0:b1:fa:65:6c:2b:b1:4b:b3:9d:f2:
                    1f:34:80:e9:ab:e7:7f:44:fe:59:50:03:66:63:e4:
                    02:da:86:a6:0e:5d:3b:48:7a:27:ca:1e:fd:87:ca:
                    93:a6:60:d1:c3:62:e9:6d:e6:56:93:ec:38:6f:c3:
                    03:3e:52:7f:4c:96:1a:06:39:fe:80:c6:ba:2e:fb:
                    bf:bf:30:a8:b2:76:8d:f5:41:15:40:09:e8:75:7b:
                    e0:4f:aa:a3:a4:37:8a:3b:87:87:fc:9a:99:fc:e3:
                    63:b2:75:0b:6a:3b:a4:55:fb:b0:50:72:b3:7b:1a:
                    a6:77:b6:9e:94:1e:73:cc:2f:b5:50:17:98:f4:68:
                    8f:3f
                Exponent: 65537 (0x10001)
        X509v3 extensions:
            X509v3 Subject Key Identifier: 
                5D:A6:D1:20:DD:B5:2C:F8:BC:01:09:9B:63:A4:B1:23:BA:45:77:83
            X509v3 Authority Key Identifier: 
                5D:A6:D1:20:DD:B5:2C:F8:BC:01:09:9B:63:A4:B1:23:BA:45:77:83
            X509v3 Basic Constraints: critical
                CA:TRUE
    Signature Algorithm: sha256WithRSAEncryption
    Signature Value:
        4c:bd:07:27:8c:97:72:db:7d:7c:8f:bf:aa:a4:a0:66:05:b2:
        6f:ff:f8:59:29:85:7e:a2:87:f4:99:7c:62:96:72:10:0e:e6:
        8f:83:4a:31:44:f7:00:42:c9:2a:6d:99:d7:18:d2:95:47:52:
        76:48:de:db:60:6e:e9:e7:45:8c:cf:a3:ca:03:53:e7:96:d0:
        ce:f4:57:29:3b:dd:62:ec:7a:71:a9:ff:fe:17:cc:a8:b4:12:
        f9:f1:8c:61:f9:f7:17:3f:9d:2c:ed:64:32:ac:0f:cf:4e:7b:
        f8:9e:b3:d1:82:f9:8f:28:8d:38:2b:7e:77:27:b7:22:84:07:
        c7:d9:0b:eb:a6:33:16:c6:11:d8:de:01:7a:92:62:7e:e5:9a:
        9d:39:ac:54:34:59:ac:14:f9:e1:43:fb:50:0f:5c:96:1b:0d:
        ad:38:de:8d:ea:b7:df:46:f8:c8:5b:61:19:46:0c:64:ce:bb:
        71:ac:7c:98:7a:f8:92:ca:b6:33:8d:90:d1:f5:0a:09:b0:d8:
        1d:61:02:7c:17:00:dd:55:0c:a4:32:1a:63:9e:c5:bf:e2:10:
        0c:e0:b8:72:44:f9:8c:ae:75:f0:7c:f3:e7:94:21:54:b2:72:
        1a:0f:32:30:af:28:bc:2c:71:bc:19:01:f0:fa:e5:b0:cb:bc:
        c5:3d:9c:d2
-----BEGIN CERTIFICATE-----
MIID2zCCAsOgAwIBAgIUAqQwejYxMuRpV4UaaaQVrzahMFQwDQYJKoZIhvcNAQEL
BQAwfTELMAkGA1UEBhMCVVMxEzARBgNVBAgMCkNhbGlmb3JuaWExFDASBgNVBAcM
C1NhbnRhIENsYXJhMQ0wCwYDVQQKDARwa2c1MQwwCgYDVQQLDAN0YTYxEjAQBgNV
BAMMCWxvY2FsaG9zdDESMBAGCSqGSIb3DQEJARYDdGE2MB4XDTI0MDUyMzE1NDcy
MloXDTI3MDIxNzE1NDcyMlowfTELMAkGA1UEBhMCVVMxEzARBgNVBAgMCkNhbGlm
b3JuaWExFDASBgNVBAcMC1NhbnRhIENsYXJhMQ0wCwYDVQQKDARwa2c1MQwwCgYD
VQQLDAN0YTYxEjAQBgNVBAMMCWxvY2FsaG9zdDESMBAGCSqGSIb3DQEJARYDdGE2
MIIBIjANBgkqhkiG9w0BAQEFAAOCAQ8AMIIBCgKCAQEAqQJ5dwpOoLXqg4Higy1J
jmf1KTsiacqqP0L93GnXhP9fjsIWWOFeF303JpYXDVNDJzVUc6BTIJBszVhKpU08
AC6xcp1b/yA2Smxb6UXN7VQ3CMyy45EYnhBN/4dwwmYcMEV3m1isgJ5YL3X4HG0L
ECwBWfGsJW2nLl000LH6ZWwrsUuznfIfNIDpq+d/RP5ZUANmY+QC2oamDl07SHon
yh79h8qTpmDRw2LpbeZWk+w4b8MDPlJ/TJYaBjn+gMa6Lvu/vzCosnaN9UEVQAno
dXvgT6qjpDeKO4eH/JqZ/ONjsnULajukVfuwUHKzexqmd7aelB5zzC+1UBeY9GiP
PwIDAQABo1MwUTAdBgNVHQ4EFgQUXabRIN21LPi8AQmbY6SxI7pFd4MwHwYDVR0j
BBgwFoAUXabRIN21LPi8AQmbY6SxI7pFd4MwDwYDVR0TAQH/BAUwAwEB/zANBgkq
hkiG9w0BAQsFAAOCAQEATL0HJ4yXctt9fI+/qqSgZgWyb//4WSmFfqKH9Jl8YpZy
EA7mj4NKMUT3AELJKm2Z1xjSlUdSdkje22Bu6edFjM+jygNT55bQzvRXKTvdYux6
can//hfMqLQS+fGMYfn3Fz+dLO1kMqwPz057+J6z0YL5jyiNOCt+dye3IoQHx9kL
66YzFsYR2N4BepJifuWanTmsVDRZrBT54UP7UA9clhsNrTjejeq330b4yFthGUYM
ZM67cax8mHr4ksq2M42Q0fUKCbDYHWECfBcA3VUMpDIaY57Fv+IQDOC4ckT5jK51
8Hzz55QhVLJyGg8yMK8ovCxxvBkB8PrlsMu8xT2c0g==
-----END CERTIFICATE-----
Certificate:
    Data:
        Version: 3 (0x2)
        Serial Number:
            6b:7f:22:b8:30:dd:71:ce:87:6c:8e:6e:03:e1:85:2f:a3:01:da:ec
        Signature Algorithm: sha256WithRSAEncryption
        Issuer: C = US, ST = California, L = Santa Clara, O = pkg5, OU = ta8, CN = localhost, emailAddress = ta8
        Validity
            Not Before: May 23 15:47:23 2024 GMT
            Not After : Feb 17 15:47:23 2027 GMT
        Subject: C = US, ST = California, L = Santa Clara, O = pkg5, OU = ta8, CN = localhost, emailAddress = ta8
        Subject Public Key Info:
            Public Key Algorithm: rsaEncryption
                Public-Key: (2048 bit)
                Modulus:
                    00:86:b8:97:d9:7f:e4:d2:c2:f1:aa:0e:40:1a:01:
                    80:3b:77:e8:73:ac:09:cd:05:9b:bb:76:74:b5:14:
                    e5:d8:e7:bb:3d:d3:f9:81:b8:51:04:5e:40:0d:fa:
                    ef:37:87:c2:7d:9f:c2:73:54:39:8d:45:60:94:c5:
                    c4:6f:6b:f6:2b:99:fc:35:70:e4:8f:0d:01:ff:28:
                    56:b4:29:90:78:05:5f:93:a7:88:c9:95:8b:f6:53:
                    29:cc:62:5e:8c:29:41:5a:84:b8:ad:2c:13:10:bd:
                    59:18:e2:ac:85:99:73:49:07:2b:b1:e9:f6:b4:78:
                    40:06:30:0c:f3:7d:29:af:8f:03:21:6c:2e:4a:ff:
                    a7:c2:41:46:ed:38:05:20:66:b5:c6:00:87:64:ce:
                    0c:de:b0:07:e8:11:42:c5:4d:13:c6:28:6e:b3:3f:
                    0b:6f:15:07:ea:fa:35:22:20:82:90:7a:3d:5c:4a:
                    3a:4f:d3:55:32:15:e2:56:a2:2e:ea:58:11:a0:4a:
                    f6:59:91:ff:c5:d5:57:87:d5:99:a2:0e:6f:bf:36:
                    8c:97:8b:e3:6e:9b:1f:ca:f6:04:5e:3d:28:12:c6:
                    f4:07:f5:44:12:e7:b6:c8:9f:f7:d8:ac:24:5a:e4:
                    b5:00:60:04:e9:d3:7a:95:40:d0:e4:1e:01:cc:0b:
                    f1:d3
                Exponent: 65537 (0x10001)
        X509v3 extensions:
            X509v3 Subject Key Identifier: 
                51:3B:59:7C:85:01:2C:11:FC:E8:DB:12:B3:C5:66:72:5E:E0:F6:4B
            X509v3 Authority Key Identifier: 
                51:3B:59:7C:85:01:2C:11:FC:E8:DB:12:B3:C5:66:72:5E:E0:F6:4B
            X509v3 Basic Constraints: critical
                CA:TRUE
    Signature Algorithm: sha256WithRSAEncryption
    Signature Value:
        72:e3:a2:93:63:22:d6:7d:2c:02:4d:67:6a:9b:61:fb:f9:7c:
        a7:74:1e:33:a7:0d:e3:b3:ad:3b:2f:b2:e7:30:dc:62:c2:93:
        32:b1:bb:6e:ab:76:03:3d:6a:f2:d2:cd:bb:f2:9b:43:f9:bb:
        0c:f2:49:0e:ab:f5:ec:11:23:5f:c5:08:3f:95:7d:a5:1f:2b:
        4b:7a:e0:6e:67:c6:64:26:25:e5:bc:6e:5e:2d:d7:8b:09:a4:
        99:98:17:2f:56:00:8a:7a:4a:ee:61:95:39:71:3c:13:fe:65:
        3a:d4:6f:a1:39:43:11:d7:67:45:7b:51:ba:47:75:d0:ab:2b:
        4f:a4:d2:79:35:fd:be:05:36:43:78:d8:89:30:82:38:0f:69:
        b6:b7:c7:73:cf:d6:ea:3d:7a:0e:7a:0c:6d:6d:51:ec:35:5c:
        9c:85:f2:0c:60:d6:2b:69:6d:62:87:5e:1d:c0:56:80:21:fc:
        01:d4:a2:b4:d3:98:b4:38:87:5a:6f:b4:b5:c2:70:41:64:99:
        87:df:b5:95:84:16:64:b4:9b:06:76:4b:2a:79:61:44:57:99:
        dc:7e:cb:6e:e8:87:bb:95:88:81:7c:b3:9c:61:c3:79:32:68:
        dd:da:d1:e7:9b:5b:9e:de:84:74:1b:9c:97:7d:4e:8a:1e:35:
        73:39:e1:13
-----BEGIN CERTIFICATE-----
MIID2zCCAsOgAwIBAgIUa38iuDDdcc6HbI5uA+GFL6MB2uwwDQYJKoZIhvcNAQEL
BQAwfTELMAkGA1UEBhMCVVMxEzARBgNVBAgMCkNhbGlmb3JuaWExFDASBgNVBAcM
C1NhbnRhIENsYXJhMQ0wCwYDVQQKDARwa2c1MQwwCgYDVQQLDAN0YTgxEjAQBgNV
BAMMCWxvY2FsaG9zdDESMBAGCSqGSIb3DQEJARYDdGE4MB4XDTI0MDUyMzE1NDcy
M1oXDTI3MDIxNzE1NDcyM1owfTELMAkGA1UEBhMCVVMxEzARBgNVBAgMCkNhbGlm
b3JuaWExFDASBgNVBAcMC1NhbnRhIENsYXJhMQ0wCwYDVQQKDARwa2c1MQwwCgYD
VQQLDAN0YTgxEjAQBgNVBAMMCWxvY2FsaG9zdDESMBAGCSqGSIb3DQEJARYDdGE4
MIIBIjANBgkqhkiG9w0BAQEFAAOCAQ8AMIIBCgKCAQEAhriX2X/k0sLxqg5AGgGA
O3foc6wJzQWbu3Z0tRTl2Oe7PdP5gbhRBF5ADfrvN4fCfZ/Cc1Q5jUVglMXEb2v2
K5n8NXDkjw0B/yhWtCmQeAVfk6eIyZWL9lMpzGJejClBWoS4rSwTEL1ZGOKshZlz
SQcrsen2tHhABjAM830pr48DIWwuSv+nwkFG7TgFIGa1xgCHZM4M3rAH6BFCxU0T
xihusz8LbxUH6vo1IiCCkHo9XEo6T9NVMhXiVqIu6lgRoEr2WZH/xdVXh9WZog5v
vzaMl4vjbpsfyvYEXj0oEsb0B/VEEue2yJ/32KwkWuS1AGAE6dN6lUDQ5B4BzAvx
0wIDAQABo1MwUTAdBgNVHQ4EFgQUUTtZfIUBLBH86NsSs8Vmcl7g9kswHwYDVR0j
BBgwFoAUUTtZfIUBLBH86NsSs8Vmcl7g9kswDwYDVR0TAQH/BAUwAwEB/zANBgkq
hkiG9w0BAQsFAAOCAQEAcuOik2Mi1n0sAk1napth+/l8p3QeM6cN47OtOy+y5zDc
YsKTMrG7bqt2Az1q8tLNu/KbQ/m7DPJJDqv17BEjX8UIP5V9pR8rS3rgbmfGZCYl
5bxuXi3XiwmkmZgXL1YAinpK7mGVOXE8E/5lOtRvoTlDEddnRXtRukd10KsrT6TS
eTX9vgU2Q3jYiTCCOA9ptrfHc8/W6j16DnoMbW1R7DVcnIXyDGDWK2ltYodeHcBW
gCH8AdSitNOYtDiHWm+0tcJwQWSZh9+1lYQWZLSbBnZLKnlhRFeZ3H7LbuiHu5WI
gXyznGHDeTJo3drR55tbnt6EdBucl31Oih41cznhEw==
-----END CERTIFICATE-----
Certificate:
    Data:
        Version: 3 (0x2)
        Serial Number:
            33:92:93:9e:95:a4:53:c5:7e:93:7a:a3:58:3d:80:e3:3f:88:96:20
        Signature Algorithm: sha256WithRSAEncryption
        Issuer: C = US, ST = California, L = Santa Clara, O = pkg5, OU = ta9, CN = localhost, emailAddress = ta9
        Validity
            Not Before: May 23 15:47:23 2024 GMT
            Not After : Feb 17 15:47:23 2027 GMT
        Subject: C = US, ST = California, L = Santa Clara, O = pkg5, OU = ta9, CN = localhost, emailAddress = ta9
        Subject Public Key Info:
            Public Key Algorithm: rsaEncryption
                Public-Key: (2048 bit)
                Modulus:
                    00:e9:14:74:da:a1:b6:f5:be:a9:5f:e6:bc:76:25:
                    52:5c:e2:95:dd:7c:66:67:0c:fe:1a:d0:7e:7e:f8:
                    7f:b9:bb:59:11:7f:1a:f7:5b:8c:e7:dc:94:91:ff:
                    4d:4d:ba:37:5e:62:c4:8f:d6:3c:8b:9d:b9:36:6e:
                    1f:24:28:91:84:eb:9f:8e:47:c1:9d:d6:3a:23:5e:
                    02:63:de:9d:e4:c4:eb:34:b5:e1:52:b3:6b:74:7a:
                    f6:cd:76:59:20:ba:e8:68:ff:85:f9:61:db:43:73:
                    ad:c4:54:3a:62:1f:cb:db:64:0f:0c:74:43:06:34:
                    60:2f:07:e7:24:82:fc:d1:c1:31:c0:dc:e3:9e:6b:
                    20:7c:09:0c:10:83:1e:a5:34:78:f4:89:66:10:26:
                    7d:ea:72:f0:29:1b:94:58:45:d6:b7:49:f2:44:29:
                    1c:ea:94:37:5c:e0:c8:70:40:37:b0:6b:a7:f7:9d:
                    c4:2f:75:0a:7a:4a:27:b2:d4:30:f5:43:a2:50:44:
                    39:97:9c:c0:1d:d2:cd:0b:ff:6f:c0:6b:30:cf:37:
                    1d:9e:83:ba:8b:15:c8:78:d4:82:53:fe:ce:2f:28:
                    3c:5d:f6:a1:f4:79:49:73:9e:88:6c:6b:60:9c:6d:
                    44:58:ec:77:60:1f:c5:88:e2:29:9f:fe:f8:a7:8b:
                    a4:c5
                Exponent: 65537 (0x10001)
        X509v3 extensions:
            X509v3 Subject Key Identifier: 
                DC:CD:26:63:5C:E2:4F:CD:62:4E:9C:6C:4F:70:94:A7:15:68:E2:60
            X509v3 Authority Key Identifier: 
                DC:CD:26:63:5C:E2:4F:CD:62:4E:9C:6C:4F:70:94:A7:15:68:E2:60
            X509v3 Basic Constraints: critical
                CA:TRUE
    Signature Algorithm: sha256WithRSAEncryption
    Signature Value:
        d5:97:b4:cd:c0:45:56:82:d5:00:1f:d1:c0:ad:db:c0:6a:bc:
        76:bb:06:f8:9c:75:aa:5b:a9:72:70:69:a7:91:0d:2c:16:78:
        9a:bb:4b:29:c5:54:c6:94:f3:98:e2:48:47:be:1c:c5:b6:65:
        e3:1e:32:3a:49:16:1a:81:c4:f4:90:49:79:f4:58:18:e4:8e:
        9d:29:6b:8d:05:de:93:b0:37:35:22:fc:3d:80:cc:17:f8:68:
        ac:b7:a9:e9:36:de:fb:a9:30:10:33:05:77:c0:f0:2a:5b:6b:
        1b:66:8c:52:f1:bb:19:be:b2:76:72:93:86:b7:0e:8f:51:40:
        4e:0f:bf:ba:74:95:e3:0c:a3:f5:e3:30:c2:71:40:79:ab:7b:
        bb:7f:59:87:77:04:98:d6:ff:a0:0f:9e:85:42:20:0a:3e:2a:
        3c:2e:26:61:f8:fe:05:4e:1d:aa:7a:e6:9e:ab:1f:71:84:5d:
        b6:99:09:f8:e2:68:9a:ba:f5:35:8e:85:2f:3b:6f:9b:b0:8d:
        f7:6f:6f:e9:40:73:59:68:16:50:f5:7a:47:6e:db:a3:e3:43:
        de:c4:04:7c:d8:5e:17:7c:99:c3:e4:21:31:a7:24:28:33:89:
        86:e3:6c:17:58:3a:89:f6:d8:47:59:f4:92:d4:90:9d:8c:a5:
        8d:40:15:c9
-----BEGIN CERTIFICATE-----
MIID2zCCAsOgAwIBAgIUM5KTnpWkU8V+k3qjWD2A4z+IliAwDQYJKoZIhvcNAQEL
BQAwfTELMAkGA1UEBhMCVVMxEzARBgNVBAgMCkNhbGlmb3JuaWExFDASBgNVBAcM
C1NhbnRhIENsYXJhMQ0wCwYDVQQKDARwa2c1MQwwCgYDVQQLDAN0YTkxEjAQBgNV
BAMMCWxvY2FsaG9zdDESMBAGCSqGSIb3DQEJARYDdGE5MB4XDTI0MDUyMzE1NDcy
M1oXDTI3MDIxNzE1NDcyM1owfTELMAkGA1UEBhMCVVMxEzARBgNVBAgMCkNhbGlm
b3JuaWExFDASBgNVBAcMC1NhbnRhIENsYXJhMQ0wCwYDVQQKDARwa2c1MQwwCgYD
VQQLDAN0YTkxEjAQBgNVBAMMCWxvY2FsaG9zdDESMBAGCSqGSIb3DQEJARYDdGE5
MIIBIjANBgkqhkiG9w0BAQEFAAOCAQ8AMIIBCgKCAQEA6RR02qG29b6pX+a8diVS
XOKV3XxmZwz+GtB+fvh/ubtZEX8a91uM59yUkf9NTbo3XmLEj9Y8i525Nm4fJCiR
hOufjkfBndY6I14CY96d5MTrNLXhUrNrdHr2zXZZILroaP+F+WHbQ3OtxFQ6Yh/L
22QPDHRDBjRgLwfnJIL80cExwNzjnmsgfAkMEIMepTR49IlmECZ96nLwKRuUWEXW
t0nyRCkc6pQ3XODIcEA3sGun953EL3UKekonstQw9UOiUEQ5l5zAHdLNC/9vwGsw
zzcdnoO6ixXIeNSCU/7OLyg8Xfah9HlJc56IbGtgnG1EWOx3YB/FiOIpn/74p4uk
xQIDAQABo1MwUTAdBgNVHQ4EFgQU3M0mY1ziT81iTpxsT3CUpxVo4mAwHwYDVR0j
BBgwFoAU3M0mY1ziT81iTpxsT3CUpxVo4mAwDwYDVR0TAQH/BAUwAwEB/zANBgkq
hkiG9w0BAQsFAAOCAQEA1Ze0zcBFVoLVAB/RwK3bwGq8drsG+Jx1qlupcnBpp5EN
LBZ4mrtLKcVUxpTzmOJIR74cxbZl4x4yOkkWGoHE9JBJefRYGOSOnSlrjQXek7A3
NSL8PYDMF/horLep6Tbe+6kwEDMFd8DwKltrG2aMUvG7Gb6ydnKThrcOj1FATg+/
unSV4wyj9eMwwnFAeat7u39Zh3cEmNb/oA+ehUIgCj4qPC4mYfj+BU4dqnrmnqsf
cYRdtpkJ+OJomrr1NY6FLztvm7CN929v6UBzWWgWUPV6R27bo+ND3sQEfNheF3yZ
w+QhMackKDOJhuNsF1g6ifbYR1n0ktSQnYyljUAVyQ==
-----END CERTIFICATE-----
Certificate:
    Data:
        Version: 3 (0x2)
        Serial Number:
            18:a5:d7:b7:4e:b8:b5:b9:22:e0:78:8f:0b:62:29:bd:9d:de:0b:6f
        Signature Algorithm: sha256WithRSAEncryption
        Issuer: C = US, ST = California, L = Santa Clara, O = pkg5, OU = ta10, CN = localhost, emailAddress = ta10
        Validity
            Not Before: May 23 15:47:23 2024 GMT
            Not After : Feb 17 15:47:23 2027 GMT
        Subject: C = US, ST = California, L = Santa Clara, O = pkg5, OU = ta10, CN = localhost, emailAddress = ta10
        Subject Public Key Info:
            Public Key Algorithm: rsaEncryption
                Public-Key: (2048 bit)
                Modulus:
                    00:ed:cf:a5:c3:54:f6:e9:34:cd:14:67:98:ce:c0:
                    3f:4a:60:98:e3:f2:37:4a:5e:6b:96:03:c0:9a:57:
                    ff:e6:9e:ad:d6:45:6f:92:86:97:40:60:5f:43:c9:
                    63:f0:07:de:7e:d4:99:1e:ab:8f:18:45:f7:67:87:
                    1a:ee:1c:36:f1:81:22:87:26:7a:86:44:d6:49:00:
                    57:f3:81:6e:dc:1d:80:04:5e:a6:2f:b4:1f:e4:6a:
                    ed:19:60:bd:9a:b3:d6:9c:13:dd:c6:ad:6d:d8:98:
                    35:34:69:21:5f:8a:51:d2:1b:d8:2a:b1:56:6d:d7:
                    90:c5:33:92:d5:c9:f1:b1:bc:09:a2:25:ae:10:5c:
                    13:cc:a8:80:8f:ff:23:ff:ac:b4:b9:db:9d:80:02:
                    4e:63:bd:6f:36:40:4f:99:09:9e:8d:2a:07:84:1e:
                    1b:8b:7c:cd:60:d5:c6:af:ed:41:15:eb:e2:2f:f7:
                    d8:00:cb:40:21:a3:14:bd:85:3b:81:3b:59:65:98:
                    9a:fd:6f:4d:80:cf:57:87:e7:90:5d:c0:ce:36:02:
                    9c:97:f9:fa:23:54:2a:d3:26:0b:47:a6:28:d5:80:
                    29:81:e4:47:18:e4:12:3d:fc:90:55:3c:a5:3a:a7:
                    4c:f9:a8:d6:77:38:f0:16:c0:51:b2:c3:8e:29:48:
                    1b:e9
                Exponent: 65537 (0x10001)
        X509v3 extensions:
            X509v3 Subject Key Identifier: 
                5E:B5:A3:53:50:1E:13:DE:54:37:87:A6:51:B2:A8:EF:0B:CE:30:C7
            X509v3 Authority Key Identifier: 
                5E:B5:A3:53:50:1E:13:DE:54:37:87:A6:51:B2:A8:EF:0B:CE:30:C7
            X509v3 Basic Constraints: critical
                CA:TRUE
    Signature Algorithm: sha256WithRSAEncryption
    Signature Value:
        3e:fa:f2:7d:ca:9f:fa:f2:95:6b:5d:3c:e7:4f:5b:e9:ed:ab:
        a5:c0:27:73:5b:14:8d:b1:40:f3:18:5d:0a:b4:f6:e3:5b:d2:
        22:40:3a:ec:4b:89:b3:fc:36:13:78:cf:1e:36:6e:ce:b0:41:
        5e:10:41:ef:2f:6c:b3:29:37:39:93:f8:82:f2:4c:a3:98:f5:
        0d:06:4e:a6:f3:a7:25:99:87:e8:8f:08:13:2c:13:20:fc:dc:
        5b:be:9d:4e:9d:37:cd:93:7b:a6:60:16:0e:ef:fe:56:b1:64:
        b4:6f:82:00:b7:8c:df:8b:84:4e:5a:f2:c2:59:a2:90:73:24:
        b9:11:fd:dc:ee:d5:48:39:97:e1:40:28:c3:da:ec:ab:4d:8c:
        46:db:cd:28:84:9b:e9:6c:a4:66:f6:15:33:36:cf:2f:ee:16:
        0a:1e:06:4a:c7:0f:d6:a4:54:32:f9:96:df:2f:85:da:93:8d:
        f7:8c:aa:c5:18:3a:5a:94:91:50:61:34:14:cf:9d:fd:32:07:
        56:d8:86:49:d0:2b:ce:6e:f9:74:7c:2d:ce:47:73:cf:34:31:
        2a:33:78:cf:db:43:ac:ca:86:a7:3e:28:0e:6d:2e:de:28:3e:
        60:89:54:9a:85:fa:e3:94:bf:15:16:67:8b:82:3c:bb:6f:aa:
        23:91:81:0c
-----BEGIN CERTIFICATE-----
MIID3zCCAsegAwIBAgIUGKXXt064tbki4HiPC2IpvZ3eC28wDQYJKoZIhvcNAQEL
BQAwfzELMAkGA1UEBhMCVVMxEzARBgNVBAgMCkNhbGlmb3JuaWExFDASBgNVBAcM
C1NhbnRhIENsYXJhMQ0wCwYDVQQKDARwa2c1MQ0wCwYDVQQLDAR0YTEwMRIwEAYD
VQQDDAlsb2NhbGhvc3QxEzARBgkqhkiG9w0BCQEWBHRhMTAwHhcNMjQwNTIzMTU0
NzIzWhcNMjcwMjE3MTU0NzIzWjB/MQswCQYDVQQGEwJVUzETMBEGA1UECAwKQ2Fs
aWZvcm5pYTEUMBIGA1UEBwwLU2FudGEgQ2xhcmExDTALBgNVBAoMBHBrZzUxDTAL
BgNVBAsMBHRhMTAxEjAQBgNVBAMMCWxvY2FsaG9zdDETMBEGCSqGSIb3DQEJARYE
dGExMDCCASIwDQYJKoZIhvcNAQEBBQADggEPADCCAQoCggEBAO3PpcNU9uk0zRRn
mM7AP0pgmOPyN0pea5YDwJpX/+aerdZFb5KGl0BgX0PJY/AH3n7UmR6rjxhF92eH
Gu4cNvGBIocmeoZE1kkAV/OBbtwdgARepi+0H+Rq7RlgvZqz1pwT3catbdiYNTRp
IV+KUdIb2CqxVm3XkMUzktXJ8bG8CaIlrhBcE8yogI//I/+stLnbnYACTmO9bzZA
T5kJno0qB4QeG4t8zWDVxq/tQRXr4i/32ADLQCGjFL2FO4E7WWWYmv1vTYDPV4fn
kF3AzjYCnJf5+iNUKtMmC0emKNWAKYHkRxjkEj38kFU8pTqnTPmo1nc48BbAUbLD
jilIG+kCAwEAAaNTMFEwHQYDVR0OBBYEFF61o1NQHhPeVDeHplGyqO8LzjDHMB8G
A1UdIwQYMBaAFF61o1NQHhPeVDeHplGyqO8LzjDHMA8GA1UdEwEB/wQFMAMBAf8w
DQYJKoZIhvcNAQELBQADggEBAD768n3Kn/rylWtdPOdPW+ntq6XAJ3NbFI2xQPMY
XQq09uNb0iJAOuxLibP8NhN4zx42bs6wQV4QQe8vbLMpNzmT+ILyTKOY9Q0GTqbz
pyWZh+iPCBMsEyD83Fu+nU6dN82Te6ZgFg7v/laxZLRvggC3jN+LhE5a8sJZopBz
JLkR/dzu1Ug5l+FAKMPa7KtNjEbbzSiEm+lspGb2FTM2zy/uFgoeBkrHD9akVDL5
lt8vhdqTjfeMqsUYOlqUkVBhNBTPnf0yB1bYhknQK85u+XR8Lc5Hc880MSozeM/b
Q6zKhqc+KA5tLt4oPmCJVJqF+uOUvxUWZ4uCPLtvqiORgQw=
-----END CERTIFICATE-----
Certificate:
    Data:
        Version: 3 (0x2)
        Serial Number:
            51:e2:06:9d:4c:80:12:2a:dc:8b:96:f6:f4:4c:54:97:4b:ec:79:6a
        Signature Algorithm: sha256WithRSAEncryption
        Issuer: C = US, ST = California, L = Santa Clara, O = pkg5, OU = ta11, CN = localhost, emailAddress = ta11
        Validity
            Not Before: May 23 15:47:23 2024 GMT
            Not After : Feb 17 15:47:23 2027 GMT
        Subject: C = US, ST = California, L = Santa Clara, O = pkg5, OU = ta11, CN = localhost, emailAddress = ta11
        Subject Public Key Info:
            Public Key Algorithm: rsaEncryption
                Public-Key: (2048 bit)
                Modulus:
                    00:d7:8d:d3:61:e1:da:13:91:e3:a9:33:64:44:1a:
                    fb:25:14:ee:de:23:46:70:0d:ad:74:da:df:98:3c:
                    fe:ee:21:d6:a3:c3:2e:e7:d2:d3:fd:60:2c:00:54:
                    5d:57:dd:43:f5:52:c7:9b:97:0b:22:0e:f0:9b:bc:
                    f1:b0:d3:49:5d:ea:2d:68:83:23:82:4d:a8:91:0d:
                    0a:0c:09:1b:4f:b8:99:11:99:de:eb:e1:e9:e3:c9:
                    2c:11:4f:ab:c7:f0:92:cc:9a:ae:f0:f7:58:82:52:
                    31:e1:3d:f3:fd:1a:15:9a:dd:2c:04:b3:e4:62:cb:
                    10:0b:78:58:1f:6f:20:5f:61:67:59:c5:17:cf:d8:
                    79:1a:cd:fa:d0:6c:db:d1:eb:e3:5a:4c:db:95:5c:
                    1c:41:c8:d2:e9:2f:75:29:83:84:24:7d:d4:1e:4e:
                    5b:18:8f:5c:bd:ee:34:03:c9:de:1d:01:aa:9b:8c:
                    76:54:c5:b0:18:be:ce:a6:d3:0d:be:ed:96:26:f5:
                    c5:2b:6d:61:31:9b:c5:94:c3:e1:ab:f5:13:51:52:
                    66:8b:50:0a:03:2a:86:de:66:45:2a:10:48:dc:43:
                    7c:93:41:38:df:8d:5e:a7:1d:e1:25:7c:c5:8a:14:
                    b0:43:d8:81:9f:a2:40:f4:54:27:24:41:ac:3a:91:
                    b1:f3
                Exponent: 65537 (0x10001)
        X509v3 extensions:
            X509v3 Subject Key Identifier: 
                68:76:50:71:1A:6C:AB:DC:E9:B3:C7:C0:4E:28:D5:D8:28:D7:EE:48
            X509v3 Authority Key Identifier: 
                68:76:50:71:1A:6C:AB:DC:E9:B3:C7:C0:4E:28:D5:D8:28:D7:EE:48
            X509v3 Basic Constraints: critical
                CA:TRUE
    Signature Algorithm: sha256WithRSAEncryption
    Signature Value:
        0d:12:43:f8:61:1d:a7:3a:f9:e5:82:25:ab:ba:54:cb:97:96:
        5c:6b:5e:40:d5:8a:33:c7:b0:3c:14:20:71:18:35:92:36:b8:
        7f:58:3d:53:32:17:a7:67:42:27:76:71:2c:e3:84:ad:ba:74:
        04:9e:60:d5:15:07:71:e5:d6:6d:9c:b6:c4:11:47:b4:b8:a5:
        e3:9c:20:ba:f6:ae:4a:ef:dd:d5:e7:88:0c:76:74:26:8e:47:
        eb:37:74:12:cf:75:00:21:95:dc:9d:3b:94:82:c7:7b:84:23:
        3f:3e:1a:b5:36:62:ca:32:1a:29:ab:91:db:e9:65:4e:93:33:
        28:89:ef:2a:5c:96:cc:17:2c:e2:49:3b:7b:4f:a4:2f:be:4e:
        f9:8f:6c:5c:16:d4:db:59:01:46:1a:5e:cd:01:03:0b:14:1d:
        5e:e0:c3:56:e8:03:b2:6d:73:3c:e7:85:08:92:c7:eb:d7:6f:
        2b:03:5e:03:ae:6c:1c:10:7a:9c:7e:c5:59:ff:fe:d3:07:e6:
        84:30:c7:94:3b:f9:49:1d:46:98:a6:73:f4:47:4d:db:46:56:
        3d:07:e9:83:75:a7:a3:76:ca:92:3f:a1:e3:a2:7a:dd:99:a2:
        ce:f9:4c:fd:ae:93:54:b4:cc:00:72:20:62:bc:c3:9f:03:93:
        3e:0a:7b:65
-----BEGIN CERTIFICATE-----
MIID3zCCAsegAwIBAgIUUeIGnUyAEirci5b29ExUl0vseWowDQYJKoZIhvcNAQEL
BQAwfzELMAkGA1UEBhMCVVMxEzARBgNVBAgMCkNhbGlmb3JuaWExFDASBgNVBAcM
C1NhbnRhIENsYXJhMQ0wCwYDVQQKDARwa2c1MQ0wCwYDVQQLDAR0YTExMRIwEAYD
VQQDDAlsb2NhbGhvc3QxEzARBgkqhkiG9w0BCQEWBHRhMTEwHhcNMjQwNTIzMTU0
NzIzWhcNMjcwMjE3MTU0NzIzWjB/MQswCQYDVQQGEwJVUzETMBEGA1UECAwKQ2Fs
aWZvcm5pYTEUMBIGA1UEBwwLU2FudGEgQ2xhcmExDTALBgNVBAoMBHBrZzUxDTAL
BgNVBAsMBHRhMTExEjAQBgNVBAMMCWxvY2FsaG9zdDETMBEGCSqGSIb3DQEJARYE
dGExMTCCASIwDQYJKoZIhvcNAQEBBQADggEPADCCAQoCggEBANeN02Hh2hOR46kz
ZEQa+yUU7t4jRnANrXTa35g8/u4h1qPDLufS0/1gLABUXVfdQ/VSx5uXCyIO8Ju8
8bDTSV3qLWiDI4JNqJENCgwJG0+4mRGZ3uvh6ePJLBFPq8fwksyarvD3WIJSMeE9
8/0aFZrdLASz5GLLEAt4WB9vIF9hZ1nFF8/YeRrN+tBs29Hr41pM25VcHEHI0ukv
dSmDhCR91B5OWxiPXL3uNAPJ3h0BqpuMdlTFsBi+zqbTDb7tlib1xSttYTGbxZTD
4av1E1FSZotQCgMqht5mRSoQSNxDfJNBON+NXqcd4SV8xYoUsEPYgZ+iQPRUJyRB
rDqRsfMCAwEAAaNTMFEwHQYDVR0OBBYEFGh2UHEabKvc6bPHwE4o1dgo1+5IMB8G
A1UdIwQYMBaAFGh2UHEabKvc6bPHwE4o1dgo1+5IMA8GA1UdEwEB/wQFMAMBAf8w
DQYJKoZIhvcNAQELBQADggEBAA0SQ/hhHac6+eWCJau6VMuXllxrXkDVijPHsDwU
IHEYNZI2uH9YPVMyF6dnQid2cSzjhK26dASeYNUVB3Hl1m2ctsQRR7S4peOcILr2
rkrv3dXniAx2dCaOR+s3dBLPdQAhldydO5SCx3uEIz8+GrU2YsoyGimrkdvpZU6T
MyiJ7ypclswXLOJJO3tPpC++TvmPbFwW1NtZAUYaXs0BAwsUHV7gw1boA7Jtczzn
hQiSx+vXbysDXgOubBwQepx+xVn//tMH5oQwx5Q7+UkdRpimc/RHTdtGVj0H6YN1
p6N2ypI/oeOiet2Zos75TP2uk1S0zAByIGK8w58Dkz4Ke2U=
-----END CERTIFICATE-----
