Certificate:
    Data:
        Version: 3 (0x2)
        Serial Number:
            12:5e:56:c3:71:07:fd:24:a2:d9:20:b7:6c:b9:2d:da:9e:f5:c2:ca
        Signature Algorithm: sha256WithRSAEncryption
        Issuer: C = US, ST = California, L = Santa Clara, O = pkg5, OU = ta6, CN = localhost, emailAddress = ta6
        Validity
            Not Before: Nov 17 23:01:34 2020 GMT
            Not After : Aug 14 23:01:34 2023 GMT
        Subject: C = US, ST = California, L = Santa Clara, O = pkg5, OU = ta6, CN = localhost, emailAddress = ta6
        Subject Public Key Info:
            Public Key Algorithm: rsaEncryption
                RSA Public-Key: (2048 bit)
                Modulus:
                    00:a4:a3:a0:eb:44:0d:cb:a9:25:ec:34:0f:ae:b5:
                    1c:2b:23:4e:8e:57:e6:3c:2c:1c:6b:c3:b9:61:eb:
                    b1:39:b9:40:71:ba:4c:60:c1:e3:8b:c8:1c:a6:d7:
                    af:d4:7e:fc:68:04:c4:cd:cb:5e:02:4d:3a:fd:15:
                    f8:49:5e:10:35:91:e9:78:dc:0f:02:de:ab:43:38:
                    8d:65:6e:d4:af:90:da:77:15:83:0d:95:cf:f5:f3:
                    40:bb:1a:98:bd:ae:5e:6b:05:5b:1b:3c:b0:39:f0:
                    7b:be:48:fa:70:42:50:e4:2a:0f:58:fd:da:ff:87:
                    44:d0:c4:9b:fa:49:6a:ca:60:c6:33:7f:a8:01:6d:
                    6c:a8:9f:cc:16:9d:aa:ce:be:ff:04:14:cb:bb:7e:
                    f5:56:d6:86:7e:77:cb:7e:d9:c0:c8:75:42:38:38:
                    4e:0b:a8:ab:99:76:b6:15:c5:62:fd:5b:7f:34:d2:
                    07:64:18:73:49:12:87:53:22:0d:3f:e6:08:3f:e3:
                    3b:77:eb:3d:48:80:28:aa:da:a9:38:50:d6:c6:0b:
                    53:0e:1b:9f:04:bc:15:fe:7b:67:b3:dc:a2:0b:1b:
                    62:cd:db:da:ac:93:55:9f:62:98:62:4f:09:83:9f:
                    ee:ff:d4:19:22:5a:a9:03:90:a1:78:c9:e5:98:15:
                    19:c3
                Exponent: 65537 (0x10001)
        X509v3 extensions:
            X509v3 Subject Key Identifier: 
                61:30:F2:AE:B7:84:E4:18:B9:AA:F4:AD:B1:6F:E6:97:07:4B:EF:73
            X509v3 Authority Key Identifier: 
                keyid:61:30:F2:AE:B7:84:E4:18:B9:AA:F4:AD:B1:6F:E6:97:07:4B:EF:73

            X509v3 Basic Constraints: critical
                CA:TRUE
    Signature Algorithm: sha256WithRSAEncryption
         03:d8:ca:15:18:63:d0:53:5a:b0:67:90:02:d2:47:40:ee:50:
         b9:34:21:5c:25:43:51:9b:c5:2a:7b:a7:83:50:c5:2d:5a:a5:
         d1:23:a2:f8:e0:bb:ab:2c:ae:8d:64:ed:ff:b7:54:1e:2d:4a:
         cd:f7:46:f5:34:75:84:65:d8:df:b3:70:01:c4:19:84:a0:9c:
         64:af:49:14:2d:34:d3:63:3e:5d:5d:b8:b8:fc:65:18:86:4a:
         ff:15:8f:61:08:83:da:7b:4e:7e:a1:a2:ea:78:e8:98:4f:83:
         1b:39:ec:12:89:87:ae:22:e4:4d:7b:05:18:d4:7c:53:a7:bb:
         00:c1:52:6c:7c:97:39:4b:ef:c5:2e:a0:ec:c2:17:49:f5:25:
         b7:18:f4:21:3c:51:e2:e2:a7:fc:4e:23:bc:fa:14:2a:f0:c5:
         92:83:d7:a1:3d:8e:ce:44:07:b6:2d:32:ec:71:e1:1c:f8:12:
         3b:ea:43:7e:0a:4d:41:fb:f8:3d:0d:88:05:85:34:2d:b4:c6:
         c4:7f:ff:00:97:a1:f7:a1:e8:42:7c:e5:c4:64:19:9f:cc:2e:
         96:df:49:5b:b4:60:98:fd:9b:b1:ba:4c:77:a0:ce:39:40:e8:
         c9:10:7f:34:8d:5e:2a:2d:c5:ff:a8:e8:82:71:45:b1:1f:17:
         b3:55:c3:ad
-----BEGIN CERTIFICATE-----
MIID2zCCAsOgAwIBAgIUEl5Ww3EH/SSi2SC3bLkt2p71wsowDQYJKoZIhvcNAQEL
BQAwfTELMAkGA1UEBhMCVVMxEzARBgNVBAgMCkNhbGlmb3JuaWExFDASBgNVBAcM
C1NhbnRhIENsYXJhMQ0wCwYDVQQKDARwa2c1MQwwCgYDVQQLDAN0YTYxEjAQBgNV
BAMMCWxvY2FsaG9zdDESMBAGCSqGSIb3DQEJARYDdGE2MB4XDTIwMTExNzIzMDEz
NFoXDTIzMDgxNDIzMDEzNFowfTELMAkGA1UEBhMCVVMxEzARBgNVBAgMCkNhbGlm
b3JuaWExFDASBgNVBAcMC1NhbnRhIENsYXJhMQ0wCwYDVQQKDARwa2c1MQwwCgYD
VQQLDAN0YTYxEjAQBgNVBAMMCWxvY2FsaG9zdDESMBAGCSqGSIb3DQEJARYDdGE2
MIIBIjANBgkqhkiG9w0BAQEFAAOCAQ8AMIIBCgKCAQEApKOg60QNy6kl7DQPrrUc
KyNOjlfmPCwca8O5YeuxOblAcbpMYMHji8gcptev1H78aATEzcteAk06/RX4SV4Q
NZHpeNwPAt6rQziNZW7Ur5DadxWDDZXP9fNAuxqYva5eawVbGzywOfB7vkj6cEJQ
5CoPWP3a/4dE0MSb+klqymDGM3+oAW1sqJ/MFp2qzr7/BBTLu371VtaGfnfLftnA
yHVCODhOC6irmXa2FcVi/Vt/NNIHZBhzSRKHUyINP+YIP+M7d+s9SIAoqtqpOFDW
xgtTDhufBLwV/ntns9yiCxtizdvarJNVn2KYYk8Jg5/u/9QZIlqpA5CheMnlmBUZ
wwIDAQABo1MwUTAdBgNVHQ4EFgQUYTDyrreE5Bi5qvStsW/mlwdL73MwHwYDVR0j
BBgwFoAUYTDyrreE5Bi5qvStsW/mlwdL73MwDwYDVR0TAQH/BAUwAwEB/zANBgkq
hkiG9w0BAQsFAAOCAQEAA9jKFRhj0FNasGeQAtJHQO5QuTQhXCVDUZvFKnung1DF
LVql0SOi+OC7qyyujWTt/7dUHi1KzfdG9TR1hGXY37NwAcQZhKCcZK9JFC0002M+
XV24uPxlGIZK/xWPYQiD2ntOfqGi6njomE+DGznsEomHriLkTXsFGNR8U6e7AMFS
bHyXOUvvxS6g7MIXSfUltxj0ITxR4uKn/E4jvPoUKvDFkoPXoT2OzkQHti0y7HHh
HPgSO+pDfgpNQfv4PQ2IBYU0LbTGxH//AJeh96HoQnzlxGQZn8wult9JW7RgmP2b
sbpMd6DOOUDoyRB/NI1eKi3F/6jognFFsR8Xs1XDrQ==
-----END CERTIFICATE-----
Certificate:
    Data:
        Version: 3 (0x2)
        Serial Number:
            59:1c:15:fe:85:5d:84:99:9f:38:61:d9:cb:db:e1:96:db:8e:72:05
        Signature Algorithm: sha256WithRSAEncryption
        Issuer: C = US, ST = California, L = Santa Clara, O = pkg5, OU = ta8, CN = localhost, emailAddress = ta8
        Validity
            Not Before: Nov 17 23:01:34 2020 GMT
            Not After : Aug 14 23:01:34 2023 GMT
        Subject: C = US, ST = California, L = Santa Clara, O = pkg5, OU = ta8, CN = localhost, emailAddress = ta8
        Subject Public Key Info:
            Public Key Algorithm: rsaEncryption
                RSA Public-Key: (2048 bit)
                Modulus:
                    00:c8:1c:9c:19:24:7e:dd:ee:e4:78:22:5f:9b:f8:
                    d9:69:6c:63:9d:87:bd:88:e4:40:c6:a1:cf:d2:3c:
                    66:83:eb:b5:1e:d4:5c:4e:8f:aa:ad:e8:7d:33:a6:
                    c2:01:d6:48:a9:5a:0f:d2:1b:5a:df:85:aa:aa:f9:
                    6f:ae:27:f0:b2:84:92:13:69:13:8a:e0:bb:7c:12:
                    37:a8:5d:44:c8:3d:aa:e4:e1:1a:c6:66:8e:4c:8f:
                    55:1b:7c:30:74:9d:f6:1e:48:e5:a7:4b:ff:7d:97:
                    e6:3d:99:c9:b5:30:e0:a6:6c:11:ba:12:95:09:db:
                    94:c6:b6:c5:95:01:18:8d:76:73:cf:17:fa:b4:c4:
                    45:87:e6:ae:7d:2a:fa:d4:ef:6a:8d:22:7e:0a:d0:
                    d0:c4:cb:6e:37:61:ed:4c:5d:40:ea:6d:48:7c:71:
                    e3:0d:dc:de:c6:ec:69:b1:ac:6a:0e:29:ea:2e:cd:
                    46:92:74:1c:7b:5e:ab:c8:b3:36:7b:ee:87:4d:97:
                    90:85:7f:a7:d5:69:dc:82:33:e0:7a:b3:84:f7:f9:
                    35:81:1a:2d:4f:ea:1c:ce:60:a0:ce:b4:81:0b:62:
                    97:c2:ea:df:85:46:73:32:9b:2b:3f:32:34:9f:73:
                    c9:19:b3:e0:bc:9d:44:6f:9a:bc:6c:25:06:c1:08:
                    3b:87
                Exponent: 65537 (0x10001)
        X509v3 extensions:
            X509v3 Subject Key Identifier: 
                FA:12:1D:47:01:20:EB:55:8A:6B:C0:A0:4B:4E:44:EC:6F:0A:3F:D4
            X509v3 Authority Key Identifier: 
                keyid:FA:12:1D:47:01:20:EB:55:8A:6B:C0:A0:4B:4E:44:EC:6F:0A:3F:D4

            X509v3 Basic Constraints: critical
                CA:TRUE
    Signature Algorithm: sha256WithRSAEncryption
         1c:87:7e:c2:3c:d3:85:b9:46:6c:61:e7:60:50:37:4b:44:1f:
         d5:f3:50:f0:2e:c6:4a:c9:d4:62:ec:69:4d:f0:22:a4:8d:de:
         6f:b0:ca:bc:48:bd:79:44:33:70:78:23:b0:82:30:22:7d:0f:
         e9:35:64:b8:46:e1:bd:73:a7:9f:2e:77:14:b4:5d:73:f6:f0:
         3a:ef:67:89:4f:b2:dc:4d:da:ad:58:18:67:c7:39:d0:01:ae:
         33:8b:79:1c:25:0c:3d:9b:68:6e:a7:44:6b:5d:aa:d0:58:35:
         35:de:62:d8:76:49:39:26:d5:14:3f:7c:55:35:eb:ed:7e:ec:
         62:c6:6d:c1:fa:30:63:f1:12:cd:9c:ef:15:d5:7a:7a:66:30:
         70:55:0f:e2:d2:67:17:2c:bf:ab:91:bd:da:6b:6a:c2:cb:0d:
         70:8a:bf:99:c2:42:ae:0d:6f:4e:10:a0:ac:06:0f:3f:22:9a:
         c1:aa:e8:b1:e0:0d:d6:b1:e8:4e:2e:ee:ea:cc:02:50:b7:97:
         8c:90:7d:a3:f8:2b:9a:db:34:6f:dd:fd:a1:2e:31:24:e9:0e:
         55:99:f7:0f:1c:43:64:1b:55:66:20:d6:7e:f8:a4:37:1c:ad:
         6d:d2:5b:be:1f:67:e6:e7:62:8f:a3:37:b2:48:9a:54:04:0b:
         7d:7e:9f:3d
-----BEGIN CERTIFICATE-----
MIID2zCCAsOgAwIBAgIUWRwV/oVdhJmfOGHZy9vhltuOcgUwDQYJKoZIhvcNAQEL
BQAwfTELMAkGA1UEBhMCVVMxEzARBgNVBAgMCkNhbGlmb3JuaWExFDASBgNVBAcM
C1NhbnRhIENsYXJhMQ0wCwYDVQQKDARwa2c1MQwwCgYDVQQLDAN0YTgxEjAQBgNV
BAMMCWxvY2FsaG9zdDESMBAGCSqGSIb3DQEJARYDdGE4MB4XDTIwMTExNzIzMDEz
NFoXDTIzMDgxNDIzMDEzNFowfTELMAkGA1UEBhMCVVMxEzARBgNVBAgMCkNhbGlm
b3JuaWExFDASBgNVBAcMC1NhbnRhIENsYXJhMQ0wCwYDVQQKDARwa2c1MQwwCgYD
VQQLDAN0YTgxEjAQBgNVBAMMCWxvY2FsaG9zdDESMBAGCSqGSIb3DQEJARYDdGE4
MIIBIjANBgkqhkiG9w0BAQEFAAOCAQ8AMIIBCgKCAQEAyBycGSR+3e7keCJfm/jZ
aWxjnYe9iORAxqHP0jxmg+u1HtRcTo+qreh9M6bCAdZIqVoP0hta34Wqqvlvrifw
soSSE2kTiuC7fBI3qF1EyD2q5OEaxmaOTI9VG3wwdJ32Hkjlp0v/fZfmPZnJtTDg
pmwRuhKVCduUxrbFlQEYjXZzzxf6tMRFh+aufSr61O9qjSJ+CtDQxMtuN2HtTF1A
6m1IfHHjDdzexuxpsaxqDinqLs1GknQce16ryLM2e+6HTZeQhX+n1WncgjPgerOE
9/k1gRotT+oczmCgzrSBC2KXwurfhUZzMpsrPzI0n3PJGbPgvJ1Eb5q8bCUGwQg7
hwIDAQABo1MwUTAdBgNVHQ4EFgQU+hIdRwEg61WKa8CgS05E7G8KP9QwHwYDVR0j
BBgwFoAU+hIdRwEg61WKa8CgS05E7G8KP9QwDwYDVR0TAQH/BAUwAwEB/zANBgkq
hkiG9w0BAQsFAAOCAQEAHId+wjzThblGbGHnYFA3S0Qf1fNQ8C7GSsnUYuxpTfAi
pI3eb7DKvEi9eUQzcHgjsIIwIn0P6TVkuEbhvXOnny53FLRdc/bwOu9niU+y3E3a
rVgYZ8c50AGuM4t5HCUMPZtobqdEa12q0Fg1Nd5i2HZJOSbVFD98VTXr7X7sYsZt
wfowY/ESzZzvFdV6emYwcFUP4tJnFyy/q5G92mtqwssNcIq/mcJCrg1vThCgrAYP
PyKawaroseAN1rHoTi7u6swCULeXjJB9o/grmts0b939oS4xJOkOVZn3DxxDZBtV
ZiDWfvikNxytbdJbvh9n5udij6M3skiaVAQLfX6fPQ==
-----END CERTIFICATE-----
Certificate:
    Data:
        Version: 3 (0x2)
        Serial Number:
            48:9a:05:cc:09:5d:b8:5f:81:3c:43:6d:05:ad:e5:5d:f4:9d:00:7d
        Signature Algorithm: sha256WithRSAEncryption
        Issuer: C = US, ST = California, L = Santa Clara, O = pkg5, OU = ta9, CN = localhost, emailAddress = ta9
        Validity
            Not Before: Nov 17 23:01:34 2020 GMT
            Not After : Aug 14 23:01:34 2023 GMT
        Subject: C = US, ST = California, L = Santa Clara, O = pkg5, OU = ta9, CN = localhost, emailAddress = ta9
        Subject Public Key Info:
            Public Key Algorithm: rsaEncryption
                RSA Public-Key: (2048 bit)
                Modulus:
                    00:a5:db:cc:c5:7b:05:e7:4b:0a:0e:ee:71:05:ee:
                    b3:6d:48:1c:5a:b5:f6:2e:5c:6a:3e:b5:5d:b6:16:
                    73:e4:9c:c6:cb:5c:58:fd:dc:37:37:2d:d2:c7:ec:
                    1c:f6:c0:10:14:17:3e:f3:23:b5:6c:2a:f5:b0:0e:
                    05:4b:b4:4c:48:e0:84:49:1c:cc:60:4a:cb:29:4c:
                    dc:21:98:19:42:7c:e7:bc:11:f8:04:bb:c5:4b:0c:
                    30:3d:a3:00:62:62:db:d4:e7:be:f3:c6:ea:8d:61:
                    d4:63:d8:93:45:84:8d:dc:93:d5:58:72:51:59:45:
                    34:fd:b3:1d:78:b6:6e:ba:3d:3a:e9:b7:a4:be:e4:
                    6d:ae:42:24:3e:4b:ba:33:6a:4c:0e:fb:b1:cd:cd:
                    67:cf:af:25:0e:3b:a7:d8:56:aa:c8:44:40:30:00:
                    8f:fd:6e:f9:46:20:b9:bc:fc:29:2a:a1:ac:4b:9e:
                    e0:77:e9:4b:0f:3c:a2:be:28:fa:ee:29:45:20:15:
                    0c:7e:30:d6:42:44:64:89:30:1a:b2:29:4e:ae:ca:
                    5f:ad:50:ca:b9:ee:7a:5a:0d:ce:3c:7d:13:96:94:
                    20:ab:b6:f9:90:ca:47:1d:0e:aa:a3:e5:fc:39:8c:
                    14:4c:db:17:41:f3:8e:62:a8:14:a6:38:90:bb:e6:
                    48:71
                Exponent: 65537 (0x10001)
        X509v3 extensions:
            X509v3 Subject Key Identifier: 
                BC:39:5D:F8:DD:DD:1C:E3:0D:A2:B5:ED:D1:D6:3F:B2:C2:3B:C8:5D
            X509v3 Authority Key Identifier: 
                keyid:BC:39:5D:F8:DD:DD:1C:E3:0D:A2:B5:ED:D1:D6:3F:B2:C2:3B:C8:5D

            X509v3 Basic Constraints: critical
                CA:TRUE
    Signature Algorithm: sha256WithRSAEncryption
         9d:a7:64:2c:7b:a4:20:24:92:65:ec:90:53:4f:53:8f:30:2a:
         0e:47:79:5b:ac:ae:97:28:5d:df:59:a2:1b:84:7c:f3:be:6c:
         f4:48:4a:23:e3:37:ae:37:3a:3e:d0:18:c5:a6:44:65:56:b8:
         5b:89:05:01:b1:0b:38:a8:30:b7:32:63:b5:8b:0b:b9:3a:14:
         6b:07:34:4f:30:3f:b0:47:2b:82:38:91:14:0a:4e:9f:55:2f:
         53:a0:33:a2:6d:82:2e:28:d6:0f:ae:56:85:f1:84:bf:42:47:
         2f:72:24:9c:5c:40:b4:3d:cb:12:2e:af:0b:55:c8:ae:bf:03:
         ad:cb:03:a8:56:c3:50:fe:3f:ed:e5:5e:a1:e3:c9:e7:31:23:
         1b:99:12:24:1f:3b:c0:19:e7:f3:99:a1:13:ac:15:20:a6:d8:
         21:40:ce:28:11:4a:35:78:3e:b4:76:ac:ba:31:e1:58:7b:9e:
         79:f4:f4:76:cc:da:85:d5:0e:24:c1:eb:a5:0d:a4:6b:de:3d:
         79:fd:0c:ed:c2:df:07:10:f8:28:f8:0d:4c:4c:c0:3c:f1:75:
         7f:2f:ff:89:33:1d:de:c9:26:f1:18:55:34:ce:d7:22:03:03:
         d9:6e:29:19:46:17:97:74:c4:1a:11:4c:fe:b2:62:80:34:9f:
         03:d1:2c:8c
-----BEGIN CERTIFICATE-----
MIID2zCCAsOgAwIBAgIUSJoFzAlduF+BPENtBa3lXfSdAH0wDQYJKoZIhvcNAQEL
BQAwfTELMAkGA1UEBhMCVVMxEzARBgNVBAgMCkNhbGlmb3JuaWExFDASBgNVBAcM
C1NhbnRhIENsYXJhMQ0wCwYDVQQKDARwa2c1MQwwCgYDVQQLDAN0YTkxEjAQBgNV
BAMMCWxvY2FsaG9zdDESMBAGCSqGSIb3DQEJARYDdGE5MB4XDTIwMTExNzIzMDEz
NFoXDTIzMDgxNDIzMDEzNFowfTELMAkGA1UEBhMCVVMxEzARBgNVBAgMCkNhbGlm
b3JuaWExFDASBgNVBAcMC1NhbnRhIENsYXJhMQ0wCwYDVQQKDARwa2c1MQwwCgYD
VQQLDAN0YTkxEjAQBgNVBAMMCWxvY2FsaG9zdDESMBAGCSqGSIb3DQEJARYDdGE5
MIIBIjANBgkqhkiG9w0BAQEFAAOCAQ8AMIIBCgKCAQEApdvMxXsF50sKDu5xBe6z
bUgcWrX2LlxqPrVdthZz5JzGy1xY/dw3Ny3Sx+wc9sAQFBc+8yO1bCr1sA4FS7RM
SOCESRzMYErLKUzcIZgZQnznvBH4BLvFSwwwPaMAYmLb1Oe+88bqjWHUY9iTRYSN
3JPVWHJRWUU0/bMdeLZuuj066bekvuRtrkIkPku6M2pMDvuxzc1nz68lDjun2Faq
yERAMACP/W75RiC5vPwpKqGsS57gd+lLDzyivij67ilFIBUMfjDWQkRkiTAasilO
rspfrVDKue56Wg3OPH0TlpQgq7b5kMpHHQ6qo+X8OYwUTNsXQfOOYqgUpjiQu+ZI
cQIDAQABo1MwUTAdBgNVHQ4EFgQUvDld+N3dHOMNorXt0dY/ssI7yF0wHwYDVR0j
BBgwFoAUvDld+N3dHOMNorXt0dY/ssI7yF0wDwYDVR0TAQH/BAUwAwEB/zANBgkq
hkiG9w0BAQsFAAOCAQEAnadkLHukICSSZeyQU09TjzAqDkd5W6yulyhd31miG4R8
875s9EhKI+M3rjc6PtAYxaZEZVa4W4kFAbELOKgwtzJjtYsLuToUawc0TzA/sEcr
gjiRFApOn1UvU6Azom2CLijWD65WhfGEv0JHL3IknFxAtD3LEi6vC1XIrr8DrcsD
qFbDUP4/7eVeoePJ5zEjG5kSJB87wBnn85mhE6wVIKbYIUDOKBFKNXg+tHasujHh
WHueefT0dszahdUOJMHrpQ2ka949ef0M7cLfBxD4KPgNTEzAPPF1fy//iTMd3skm
8RhVNM7XIgMD2W4pGUYXl3TEGhFM/rJigDSfA9EsjA==
-----END CERTIFICATE-----
Certificate:
    Data:
        Version: 3 (0x2)
        Serial Number:
            1a:c5:50:22:34:28:c6:0e:7d:09:bd:ba:d1:48:6b:af:b4:75:18:40
        Signature Algorithm: sha256WithRSAEncryption
        Issuer: C = US, ST = California, L = Santa Clara, O = pkg5, OU = ta10, CN = localhost, emailAddress = ta10
        Validity
            Not Before: Nov 17 23:01:35 2020 GMT
            Not After : Aug 14 23:01:35 2023 GMT
        Subject: C = US, ST = California, L = Santa Clara, O = pkg5, OU = ta10, CN = localhost, emailAddress = ta10
        Subject Public Key Info:
            Public Key Algorithm: rsaEncryption
                RSA Public-Key: (2048 bit)
                Modulus:
                    00:e6:39:20:1f:ad:3f:f6:09:dd:2b:2b:d3:81:8d:
                    a5:8d:a1:53:7b:8b:ec:82:ce:0b:de:7e:45:57:74:
                    54:32:c1:0d:80:92:b3:93:59:db:0e:96:38:a5:fd:
                    5c:06:7b:9e:2e:92:24:7b:08:ed:aa:b4:f8:fa:38:
                    15:ba:c2:72:46:65:15:3f:5b:0e:63:c6:10:23:99:
                    a5:4c:af:ad:93:f1:be:07:0b:ed:10:27:49:3f:25:
                    6b:b3:4b:6e:da:13:15:b3:36:f0:8b:79:86:b3:ca:
                    b4:e3:aa:85:1d:19:49:1b:83:55:59:93:c4:35:27:
                    b6:5b:1e:4c:26:8f:1f:97:e3:44:ed:3a:ef:da:55:
                    7d:81:40:d3:cd:28:de:d9:94:53:fa:d7:0e:fb:6f:
                    75:28:35:0d:81:26:e6:0f:1a:f3:3e:ae:a9:e8:b6:
                    4f:a8:74:14:64:25:41:3f:21:64:4d:45:1a:21:83:
                    7f:c0:f4:e2:ea:90:d8:5c:9f:8c:05:a2:76:2c:92:
                    30:4f:b5:21:69:09:29:6b:c0:d4:b4:a4:97:a9:72:
                    64:ea:9a:e9:5e:91:f7:8e:32:bd:ae:d4:ca:b0:dd:
                    72:d2:30:5e:f0:43:55:29:7c:dc:6d:07:23:ef:51:
                    24:72:18:29:bf:2a:85:52:fd:97:63:2c:33:e6:58:
                    b4:85
                Exponent: 65537 (0x10001)
        X509v3 extensions:
            X509v3 Subject Key Identifier: 
                4B:25:0D:2E:9C:41:54:E7:4A:05:F5:2E:04:BA:4C:4C:6C:77:72:1C
            X509v3 Authority Key Identifier: 
                keyid:4B:25:0D:2E:9C:41:54:E7:4A:05:F5:2E:04:BA:4C:4C:6C:77:72:1C

            X509v3 Basic Constraints: critical
                CA:TRUE
    Signature Algorithm: sha256WithRSAEncryption
         58:89:9f:67:6a:b4:f8:21:0c:91:54:e7:e7:bd:10:88:31:b2:
         19:f8:de:8f:6b:73:3d:03:58:b0:4e:ea:29:bb:81:ae:3a:57:
         64:63:22:9b:06:ca:10:6a:47:21:c6:71:e1:b6:58:b7:e0:1f:
         bc:06:35:c5:c1:45:7f:2b:d7:68:2b:0d:d2:8e:34:5e:1d:24:
         0e:03:6f:55:e7:26:7e:d7:f2:ec:a2:71:9c:c3:6a:3e:7c:d5:
         e1:53:72:c3:8c:82:0b:0c:5f:0c:f4:91:99:1b:48:50:cd:ca:
         85:7f:17:c5:31:25:3d:d0:19:f5:b3:8d:ee:4b:9b:b2:4a:68:
         ea:ce:18:20:20:a1:95:e0:c1:02:54:7b:63:3e:38:a9:fb:4c:
         57:a5:a0:e7:02:7a:40:70:ec:52:2a:c4:3c:9b:eb:60:44:4f:
         04:e5:d2:12:d0:51:26:3d:bc:99:14:80:c9:46:42:71:8a:8d:
         b3:5d:4a:37:03:a9:5a:32:f9:78:1c:9c:6d:33:84:94:6c:14:
         16:92:ab:54:7b:a3:1b:c9:70:99:56:e4:03:e2:39:cc:a7:29:
         bd:e8:c7:32:ed:16:d5:75:f0:42:bf:43:24:37:f4:63:d8:b6:
         59:c7:c0:45:70:a2:29:79:f5:30:01:fe:2e:ba:8b:11:92:40:
         54:a5:97:e5
-----BEGIN CERTIFICATE-----
MIID3zCCAsegAwIBAgIUGsVQIjQoxg59Cb260Uhrr7R1GEAwDQYJKoZIhvcNAQEL
BQAwfzELMAkGA1UEBhMCVVMxEzARBgNVBAgMCkNhbGlmb3JuaWExFDASBgNVBAcM
C1NhbnRhIENsYXJhMQ0wCwYDVQQKDARwa2c1MQ0wCwYDVQQLDAR0YTEwMRIwEAYD
VQQDDAlsb2NhbGhvc3QxEzARBgkqhkiG9w0BCQEWBHRhMTAwHhcNMjAxMTE3MjMw
MTM1WhcNMjMwODE0MjMwMTM1WjB/MQswCQYDVQQGEwJVUzETMBEGA1UECAwKQ2Fs
aWZvcm5pYTEUMBIGA1UEBwwLU2FudGEgQ2xhcmExDTALBgNVBAoMBHBrZzUxDTAL
BgNVBAsMBHRhMTAxEjAQBgNVBAMMCWxvY2FsaG9zdDETMBEGCSqGSIb3DQEJARYE
dGExMDCCASIwDQYJKoZIhvcNAQEBBQADggEPADCCAQoCggEBAOY5IB+tP/YJ3Ssr
04GNpY2hU3uL7ILOC95+RVd0VDLBDYCSs5NZ2w6WOKX9XAZ7ni6SJHsI7aq0+Po4
FbrCckZlFT9bDmPGECOZpUyvrZPxvgcL7RAnST8la7NLbtoTFbM28It5hrPKtOOq
hR0ZSRuDVVmTxDUntlseTCaPH5fjRO0679pVfYFA080o3tmUU/rXDvtvdSg1DYEm
5g8a8z6uqei2T6h0FGQlQT8hZE1FGiGDf8D04uqQ2FyfjAWidiySME+1IWkJKWvA
1LSkl6lyZOqa6V6R944yva7UyrDdctIwXvBDVSl83G0HI+9RJHIYKb8qhVL9l2Ms
M+ZYtIUCAwEAAaNTMFEwHQYDVR0OBBYEFEslDS6cQVTnSgX1LgS6TExsd3IcMB8G
A1UdIwQYMBaAFEslDS6cQVTnSgX1LgS6TExsd3IcMA8GA1UdEwEB/wQFMAMBAf8w
DQYJKoZIhvcNAQELBQADggEBAFiJn2dqtPghDJFU5+e9EIgxshn43o9rcz0DWLBO
6im7ga46V2RjIpsGyhBqRyHGceG2WLfgH7wGNcXBRX8r12grDdKONF4dJA4Db1Xn
Jn7X8uyicZzDaj581eFTcsOMggsMXwz0kZkbSFDNyoV/F8UxJT3QGfWzje5Lm7JK
aOrOGCAgoZXgwQJUe2M+OKn7TFeloOcCekBw7FIqxDyb62BETwTl0hLQUSY9vJkU
gMlGQnGKjbNdSjcDqVoy+XgcnG0zhJRsFBaSq1R7oxvJcJlW5APiOcynKb3oxzLt
FtV18EK/QyQ39GPYtlnHwEVwoil59TAB/i66ixGSQFSll+U=
-----END CERTIFICATE-----
Certificate:
    Data:
        Version: 3 (0x2)
        Serial Number:
            15:83:6c:b7:bb:f8:74:46:6c:3f:5f:cb:42:56:18:b7:f7:2d:bc:53
        Signature Algorithm: sha256WithRSAEncryption
        Issuer: C = US, ST = California, L = Santa Clara, O = pkg5, OU = ta11, CN = localhost, emailAddress = ta11
        Validity
            Not Before: Nov 17 23:01:35 2020 GMT
            Not After : Aug 14 23:01:35 2023 GMT
        Subject: C = US, ST = California, L = Santa Clara, O = pkg5, OU = ta11, CN = localhost, emailAddress = ta11
        Subject Public Key Info:
            Public Key Algorithm: rsaEncryption
                RSA Public-Key: (2048 bit)
                Modulus:
                    00:d2:67:05:01:50:48:4e:54:9f:b6:ea:45:e0:c1:
                    bc:aa:64:95:2e:aa:b9:23:d2:02:93:62:37:9e:d0:
                    39:a0:da:c4:55:79:c8:0e:fa:4f:df:39:7d:79:b1:
                    9a:6a:f1:92:23:b8:26:cc:b7:e1:c4:bf:4c:12:cc:
                    39:09:75:86:51:86:15:a0:99:f3:cf:71:40:04:6b:
                    3c:26:09:87:82:47:82:57:05:cc:6b:ff:2b:36:5f:
                    27:82:f2:53:16:bf:b0:a2:6a:64:22:d6:be:73:5e:
                    aa:92:d1:3e:22:55:b8:89:a8:54:84:db:db:74:43:
                    c0:ea:54:f0:1b:0c:b1:66:b0:52:2e:22:e4:90:2e:
                    aa:4b:81:74:3e:eb:bf:0c:59:b6:ec:64:5c:53:15:
                    83:0c:a2:28:37:e6:59:92:a8:3c:b7:5d:fa:38:e1:
                    eb:e0:dd:dc:9d:24:76:9d:2f:c6:0a:be:c6:9b:f1:
                    a9:97:3a:84:ef:d5:99:44:a6:0e:a9:cf:43:08:86:
                    7a:c7:0e:8a:49:3d:50:54:49:a7:ab:8c:1a:1d:d9:
                    50:17:a9:8f:60:0f:85:bd:97:d2:79:d2:3f:c0:14:
                    7c:bf:36:aa:6b:84:90:5a:8c:6c:73:e9:51:14:7e:
                    ff:8a:fe:6b:18:f2:0f:d8:a8:8f:4b:76:47:3a:0d:
                    00:f7
                Exponent: 65537 (0x10001)
        X509v3 extensions:
            X509v3 Subject Key Identifier: 
                CF:86:49:73:85:44:06:4B:8C:8B:51:D8:87:62:E6:D0:47:FD:D0:3E
            X509v3 Authority Key Identifier: 
                keyid:CF:86:49:73:85:44:06:4B:8C:8B:51:D8:87:62:E6:D0:47:FD:D0:3E

            X509v3 Basic Constraints: critical
                CA:TRUE
    Signature Algorithm: sha256WithRSAEncryption
         c8:c1:78:34:1c:74:06:be:f9:86:70:bb:b5:0c:5b:dd:bb:84:
         0e:bd:aa:c0:e9:67:9d:36:67:85:98:df:63:9e:52:6f:c3:5d:
         60:93:71:0a:ce:01:30:9d:56:ab:9f:82:7c:b4:47:95:84:cc:
         31:6a:71:a5:67:ff:26:7b:93:85:db:c9:59:73:ba:d4:d4:98:
         fc:c9:38:17:3b:25:d3:b5:2d:22:4c:2e:f0:82:b8:93:39:ed:
         3f:0d:22:96:7b:61:43:f6:4b:8a:8c:01:f7:08:c8:c4:6c:f8:
         7a:24:b0:66:3f:f7:a1:b4:21:58:65:f2:21:2e:ac:c3:d1:25:
         b5:2b:69:bc:50:1f:c3:b8:28:7f:9e:82:62:ca:ee:64:68:b7:
         2f:ab:9d:34:2c:17:c1:c9:1c:38:df:13:61:64:2e:6d:96:36:
         92:5c:61:57:33:a4:2e:81:61:2b:25:7b:e8:30:e0:9c:a0:71:
         41:df:d0:09:4b:79:ee:32:a8:a6:77:e5:1c:55:b3:a2:32:9b:
         ef:d9:b7:80:61:68:00:8d:cb:57:62:61:66:3e:0a:ca:56:f6:
         fa:d6:3a:ac:67:60:7a:43:96:7f:0b:34:2a:56:31:c8:68:b2:
         47:0b:78:1e:60:d7:12:da:37:99:10:fb:90:05:14:e5:3a:3a:
         a8:ed:b8:3f
-----BEGIN CERTIFICATE-----
MIID3zCCAsegAwIBAgIUFYNst7v4dEZsP1/LQlYYt/ctvFMwDQYJKoZIhvcNAQEL
BQAwfzELMAkGA1UEBhMCVVMxEzARBgNVBAgMCkNhbGlmb3JuaWExFDASBgNVBAcM
C1NhbnRhIENsYXJhMQ0wCwYDVQQKDARwa2c1MQ0wCwYDVQQLDAR0YTExMRIwEAYD
VQQDDAlsb2NhbGhvc3QxEzARBgkqhkiG9w0BCQEWBHRhMTEwHhcNMjAxMTE3MjMw
MTM1WhcNMjMwODE0MjMwMTM1WjB/MQswCQYDVQQGEwJVUzETMBEGA1UECAwKQ2Fs
aWZvcm5pYTEUMBIGA1UEBwwLU2FudGEgQ2xhcmExDTALBgNVBAoMBHBrZzUxDTAL
BgNVBAsMBHRhMTExEjAQBgNVBAMMCWxvY2FsaG9zdDETMBEGCSqGSIb3DQEJARYE
dGExMTCCASIwDQYJKoZIhvcNAQEBBQADggEPADCCAQoCggEBANJnBQFQSE5Un7bq
ReDBvKpklS6quSPSApNiN57QOaDaxFV5yA76T985fXmxmmrxkiO4Jsy34cS/TBLM
OQl1hlGGFaCZ889xQARrPCYJh4JHglcFzGv/KzZfJ4LyUxa/sKJqZCLWvnNeqpLR
PiJVuImoVITb23RDwOpU8BsMsWawUi4i5JAuqkuBdD7rvwxZtuxkXFMVgwyiKDfm
WZKoPLdd+jjh6+Dd3J0kdp0vxgq+xpvxqZc6hO/VmUSmDqnPQwiGescOikk9UFRJ
p6uMGh3ZUBepj2APhb2X0nnSP8AUfL82qmuEkFqMbHPpURR+/4r+axjyD9ioj0t2
RzoNAPcCAwEAAaNTMFEwHQYDVR0OBBYEFM+GSXOFRAZLjItR2Idi5tBH/dA+MB8G
A1UdIwQYMBaAFM+GSXOFRAZLjItR2Idi5tBH/dA+MA8GA1UdEwEB/wQFMAMBAf8w
DQYJKoZIhvcNAQELBQADggEBAMjBeDQcdAa++YZwu7UMW927hA69qsDpZ502Z4WY
32OeUm/DXWCTcQrOATCdVqufgny0R5WEzDFqcaVn/yZ7k4XbyVlzutTUmPzJOBc7
JdO1LSJMLvCCuJM57T8NIpZ7YUP2S4qMAfcIyMRs+HoksGY/96G0IVhl8iEurMPR
JbUrabxQH8O4KH+egmLK7mRoty+rnTQsF8HJHDjfE2FkLm2WNpJcYVczpC6BYSsl
e+gw4JygcUHf0AlLee4yqKZ35RxVs6Iym+/Zt4BhaACNy1diYWY+CspW9vrWOqxn
YHpDln8LNCpWMchoskcLeB5g1xLaN5kQ+5AFFOU6OqjtuD8=
-----END CERTIFICATE-----
