Certificate:
    Data:
        Version: 3 (0x2)
        Serial Number:
            d8:98:98:a5:a1:61:a0:82
    Signature Algorithm: sha256WithRSAEncryption
        Issuer: C=US, ST=California, L=Santa Clara, O=pkg5, OU=ta6, CN=localhost/emailAddress=ta6
        Validity
            Not Before: Mar 20 10:20:56 2018 GMT
            Not After : Dec 14 10:20:56 2020 GMT
        Subject: C=US, ST=California, L=Santa Clara, O=pkg5, OU=ta6, CN=localhost/emailAddress=ta6
        Subject Public Key Info:
            Public Key Algorithm: rsaEncryption
                Public-Key: (2048 bit)
                Modulus:
                    00:9f:32:4c:cd:a0:7c:f3:4c:1a:92:a3:1d:fd:38:
                    8a:c9:e0:f1:17:fb:ed:7b:0a:7c:69:aa:9f:e6:88:
                    7a:84:50:1e:2d:8a:59:7b:39:13:5d:08:4f:9c:a9:
                    01:38:62:41:07:cb:37:db:f3:9e:3d:88:e0:01:8f:
                    26:6f:82:35:84:e9:7e:d4:6e:87:e6:72:ac:be:3c:
                    d4:e1:d1:33:2b:50:bf:dc:55:fb:63:b6:a4:03:ca:
                    b3:7b:89:13:80:1c:9c:6e:00:19:67:25:32:d6:ce:
                    11:21:7b:a5:63:fb:cb:98:71:8b:47:bd:8f:eb:12:
                    23:9c:bc:04:ce:89:90:98:30:f2:0c:f2:14:78:95:
                    4e:f6:a2:cc:d9:2a:f1:9d:94:09:4a:6a:6d:85:44:
                    d9:0c:84:35:34:7e:5f:76:36:a2:cd:03:14:fb:3b:
                    0a:72:af:d3:f5:dc:c3:1a:7c:ae:8b:05:55:81:51:
                    a9:df:e5:e7:01:9b:b1:e7:92:97:00:7a:67:b8:4c:
                    88:49:10:da:4a:64:1e:be:55:a5:eb:0f:ad:af:70:
                    4a:a0:f1:bd:9d:63:d3:9d:07:24:61:6e:9e:75:cb:
                    b0:61:aa:9a:ce:c5:3e:a4:f1:6c:c2:27:f0:41:71:
                    59:a3:18:8c:17:24:c3:de:bb:9a:5f:84:28:7e:f2:
                    81:b1
                Exponent: 65537 (0x10001)
        X509v3 extensions:
            X509v3 Subject Key Identifier: 
                8D:63:96:58:4F:C0:CF:1E:56:73:56:D3:83:F4:FE:94:20:27:7D:4D
            X509v3 Authority Key Identifier: 
                keyid:8D:63:96:58:4F:C0:CF:1E:56:73:56:D3:83:F4:FE:94:20:27:7D:4D

            X509v3 Basic Constraints: 
                CA:TRUE
    Signature Algorithm: sha256WithRSAEncryption
         5c:af:ba:e3:66:36:5f:ad:43:eb:44:a7:96:73:3d:4e:73:7d:
         ac:c4:a8:a6:8e:61:6d:db:0b:5c:2a:5d:93:7e:bc:7b:19:80:
         c6:0c:43:e7:dc:08:2f:95:75:f6:38:71:11:25:f5:8b:5e:13:
         cb:c3:87:4a:42:6d:64:8a:9f:a8:1d:73:5c:b2:b3:15:d4:4e:
         84:c6:50:e4:89:b1:21:49:4c:70:63:34:97:bd:4b:3e:25:e2:
         39:2a:06:dd:72:dd:1e:50:54:f2:0b:29:b8:76:a4:85:a2:01:
         2e:72:a7:8c:d9:77:40:97:f2:c3:25:ea:b7:22:43:ef:5d:f6:
         da:f5:a8:19:92:1e:3b:9d:5a:b9:a4:a7:c9:3b:d7:09:1b:2e:
         0d:f1:2d:af:bd:b1:2f:54:c4:37:91:e6:29:59:ec:0b:48:98:
         55:52:4a:cc:fd:67:43:3e:a4:ac:33:0d:83:a3:3b:58:a0:bc:
         46:d5:60:ef:42:b2:73:5f:f6:26:66:47:0c:1a:3c:48:7d:e0:
         96:6f:39:e2:10:24:2b:e8:43:73:53:05:3a:57:b5:68:7d:94:
         0a:4f:28:12:6d:3d:be:bb:48:00:ab:43:e7:33:b1:30:c6:04:
         9e:15:14:ac:c9:2d:2c:27:79:4c:6e:27:68:56:31:f3:c1:04:
         04:04:a0:fc
-----BEGIN CERTIFICATE-----
MIIDzTCCArWgAwIBAgIJANiYmKWhYaCCMA0GCSqGSIb3DQEBCwUAMH0xCzAJBgNV
BAYTAlVTMRMwEQYDVQQIDApDYWxpZm9ybmlhMRQwEgYDVQQHDAtTYW50YSBDbGFy
YTENMAsGA1UECgwEcGtnNTEMMAoGA1UECwwDdGE2MRIwEAYDVQQDDAlsb2NhbGhv
c3QxEjAQBgkqhkiG9w0BCQEWA3RhNjAeFw0xODAzMjAxMDIwNTZaFw0yMDEyMTQx
MDIwNTZaMH0xCzAJBgNVBAYTAlVTMRMwEQYDVQQIDApDYWxpZm9ybmlhMRQwEgYD
VQQHDAtTYW50YSBDbGFyYTENMAsGA1UECgwEcGtnNTEMMAoGA1UECwwDdGE2MRIw
EAYDVQQDDAlsb2NhbGhvc3QxEjAQBgkqhkiG9w0BCQEWA3RhNjCCASIwDQYJKoZI
hvcNAQEBBQADggEPADCCAQoCggEBAJ8yTM2gfPNMGpKjHf04isng8Rf77XsKfGmq
n+aIeoRQHi2KWXs5E10IT5ypAThiQQfLN9vznj2I4AGPJm+CNYTpftRuh+ZyrL48
1OHRMytQv9xV+2O2pAPKs3uJE4AcnG4AGWclMtbOESF7pWP7y5hxi0e9j+sSI5y8
BM6JkJgw8gzyFHiVTvaizNkq8Z2UCUpqbYVE2QyENTR+X3Y2os0DFPs7CnKv0/Xc
wxp8rosFVYFRqd/l5wGbseeSlwB6Z7hMiEkQ2kpkHr5VpesPra9wSqDxvZ1j050H
JGFunnXLsGGqms7FPqTxbMIn8EFxWaMYjBckw967ml+EKH7ygbECAwEAAaNQME4w
HQYDVR0OBBYEFI1jllhPwM8eVnNW04P0/pQgJ31NMB8GA1UdIwQYMBaAFI1jllhP
wM8eVnNW04P0/pQgJ31NMAwGA1UdEwQFMAMBAf8wDQYJKoZIhvcNAQELBQADggEB
AFyvuuNmNl+tQ+tEp5ZzPU5zfazEqKaOYW3bC1wqXZN+vHsZgMYMQ+fcCC+VdfY4
cREl9YteE8vDh0pCbWSKn6gdc1yysxXUToTGUOSJsSFJTHBjNJe9Sz4l4jkqBt1y
3R5QVPILKbh2pIWiAS5yp4zZd0CX8sMl6rciQ+9d9tr1qBmSHjudWrmkp8k71wkb
Lg3xLa+9sS9UxDeR5ilZ7AtImFVSSsz9Z0M+pKwzDYOjO1igvEbVYO9CsnNf9iZm
RwwaPEh94JZvOeIQJCvoQ3NTBTpXtWh9lApPKBJtPb67SACrQ+czsTDGBJ4VFKzJ
LSwneUxuJ2hWMfPBBAQEoPw=
-----END CERTIFICATE-----
Certificate:
    Data:
        Version: 3 (0x2)
        Serial Number:
            9a:7a:90:fe:35:30:16:09
    Signature Algorithm: sha256WithRSAEncryption
        Issuer: C=US, ST=California, L=Santa Clara, O=pkg5, OU=ta8, CN=localhost/emailAddress=ta8
        Validity
            Not Before: Mar 20 10:20:56 2018 GMT
            Not After : Dec 14 10:20:56 2020 GMT
        Subject: C=US, ST=California, L=Santa Clara, O=pkg5, OU=ta8, CN=localhost/emailAddress=ta8
        Subject Public Key Info:
            Public Key Algorithm: rsaEncryption
                Public-Key: (2048 bit)
                Modulus:
                    00:d5:3f:62:9c:d3:77:80:b5:1c:70:d1:f6:d1:ed:
                    d8:b5:57:26:a2:6d:a2:5e:0f:46:08:ed:d7:60:75:
                    18:c3:35:95:51:5f:88:45:ad:c4:63:1e:8c:12:bd:
                    9e:92:f6:3c:bb:82:6e:7b:c0:07:8c:35:0b:4f:3c:
                    9b:5c:e8:a2:c7:87:14:58:f6:b8:3f:7b:0f:87:ea:
                    37:14:c7:e1:76:20:cd:cf:68:5c:7f:b4:f7:87:5e:
                    11:91:48:1f:8b:59:e6:c8:9e:7e:a0:e8:f9:c4:99:
                    20:4b:98:b2:84:42:9d:6b:57:35:7e:9e:68:27:bc:
                    4a:0c:8b:64:5e:2a:ab:88:dc:1c:3e:40:24:5f:72:
                    cd:ff:f6:8b:c4:fc:12:d1:77:43:ea:27:e8:5c:39:
                    7b:d8:d1:6d:d0:f5:8e:07:e0:5c:bf:56:26:e1:21:
                    88:1b:8c:7e:2f:67:61:57:e2:39:47:e1:d9:ac:de:
                    5d:e0:51:94:04:c5:52:f1:43:09:9d:a6:cb:e4:01:
                    43:a4:ac:d1:d0:7a:bd:a2:4a:ec:17:07:b9:43:80:
                    bd:08:f6:3e:6d:a0:5d:df:5b:a6:0d:21:c0:58:c1:
                    8b:68:66:20:b7:2b:93:48:10:a0:4a:ac:f8:63:d8:
                    c4:24:41:c9:7a:69:c5:89:8d:d0:64:15:0d:2a:db:
                    0a:8f
                Exponent: 65537 (0x10001)
        X509v3 extensions:
            X509v3 Subject Key Identifier: 
                15:57:68:F9:D7:BF:8F:23:74:F4:CD:5C:2B:EA:43:03:08:DB:85:09
            X509v3 Authority Key Identifier: 
                keyid:15:57:68:F9:D7:BF:8F:23:74:F4:CD:5C:2B:EA:43:03:08:DB:85:09

            X509v3 Basic Constraints: 
                CA:TRUE
    Signature Algorithm: sha256WithRSAEncryption
         ba:b5:5c:c6:54:ee:2b:1f:44:85:08:2b:28:c7:5f:2b:c8:7c:
         b4:03:32:b1:74:9e:80:28:ab:c8:5d:a4:76:7c:ae:ae:fc:3c:
         c0:bb:a0:13:f2:3d:df:d8:02:12:ac:72:0a:1a:d7:ec:a1:c1:
         2f:95:f4:54:f5:a3:eb:a3:4b:5a:64:14:2f:6f:8c:ba:e6:80:
         42:e6:70:96:18:f4:a8:aa:eb:54:94:1d:5b:90:27:c3:38:a3:
         20:af:02:66:d8:aa:ce:9d:5c:ef:ab:7b:b8:e7:97:d2:18:63:
         9e:69:84:69:d5:cb:90:30:df:14:be:11:cf:67:81:c4:ef:95:
         06:56:b8:87:21:8a:6d:3e:2c:f6:ae:8d:dd:70:f4:fe:d9:56:
         be:58:20:60:64:5d:19:90:b1:d6:48:90:9d:44:b3:c4:9b:3c:
         5e:5c:da:35:22:95:c3:cc:3c:77:2c:a7:fe:2d:15:1d:78:4a:
         01:d6:d4:89:15:44:57:7e:3a:1f:ca:5a:6f:31:24:c0:bf:9a:
         c9:de:76:97:b6:36:00:76:6f:bb:2f:0f:b4:bf:70:3a:93:f1:
         87:4b:d8:bf:1d:7e:ec:4d:91:18:6a:b3:66:c0:a0:56:f8:32:
         c3:36:c6:a7:f1:df:73:44:e6:e9:00:71:82:9f:35:5d:c4:13:
         90:0b:6f:5d
-----BEGIN CERTIFICATE-----
MIIDzTCCArWgAwIBAgIJAJp6kP41MBYJMA0GCSqGSIb3DQEBCwUAMH0xCzAJBgNV
BAYTAlVTMRMwEQYDVQQIDApDYWxpZm9ybmlhMRQwEgYDVQQHDAtTYW50YSBDbGFy
YTENMAsGA1UECgwEcGtnNTEMMAoGA1UECwwDdGE4MRIwEAYDVQQDDAlsb2NhbGhv
c3QxEjAQBgkqhkiG9w0BCQEWA3RhODAeFw0xODAzMjAxMDIwNTZaFw0yMDEyMTQx
MDIwNTZaMH0xCzAJBgNVBAYTAlVTMRMwEQYDVQQIDApDYWxpZm9ybmlhMRQwEgYD
VQQHDAtTYW50YSBDbGFyYTENMAsGA1UECgwEcGtnNTEMMAoGA1UECwwDdGE4MRIw
EAYDVQQDDAlsb2NhbGhvc3QxEjAQBgkqhkiG9w0BCQEWA3RhODCCASIwDQYJKoZI
hvcNAQEBBQADggEPADCCAQoCggEBANU/YpzTd4C1HHDR9tHt2LVXJqJtol4PRgjt
12B1GMM1lVFfiEWtxGMejBK9npL2PLuCbnvAB4w1C088m1zooseHFFj2uD97D4fq
NxTH4XYgzc9oXH+094deEZFIH4tZ5siefqDo+cSZIEuYsoRCnWtXNX6eaCe8SgyL
ZF4qq4jcHD5AJF9yzf/2i8T8EtF3Q+on6Fw5e9jRbdD1jgfgXL9WJuEhiBuMfi9n
YVfiOUfh2azeXeBRlATFUvFDCZ2my+QBQ6Ss0dB6vaJK7BcHuUOAvQj2Pm2gXd9b
pg0hwFjBi2hmILcrk0gQoEqs+GPYxCRByXppxYmN0GQVDSrbCo8CAwEAAaNQME4w
HQYDVR0OBBYEFBVXaPnXv48jdPTNXCvqQwMI24UJMB8GA1UdIwQYMBaAFBVXaPnX
v48jdPTNXCvqQwMI24UJMAwGA1UdEwQFMAMBAf8wDQYJKoZIhvcNAQELBQADggEB
ALq1XMZU7isfRIUIKyjHXyvIfLQDMrF0noAoq8hdpHZ8rq78PMC7oBPyPd/YAhKs
cgoa1+yhwS+V9FT1o+ujS1pkFC9vjLrmgELmcJYY9Kiq61SUHVuQJ8M4oyCvAmbY
qs6dXO+re7jnl9IYY55phGnVy5Aw3xS+Ec9ngcTvlQZWuIchim0+LPaujd1w9P7Z
Vr5YIGBkXRmQsdZIkJ1Es8SbPF5c2jUilcPMPHcsp/4tFR14SgHW1IkVRFd+Oh/K
Wm8xJMC/msnedpe2NgB2b7svD7S/cDqT8YdL2L8dfuxNkRhqs2bAoFb4MsM2xqfx
33NE5ukAcYKfNV3EE5ALb10=
-----END CERTIFICATE-----
Certificate:
    Data:
        Version: 3 (0x2)
        Serial Number:
            a9:2a:0c:d4:48:d7:44:dc
    Signature Algorithm: sha256WithRSAEncryption
        Issuer: C=US, ST=California, L=Santa Clara, O=pkg5, OU=ta9, CN=localhost/emailAddress=ta9
        Validity
            Not Before: Mar 20 10:20:56 2018 GMT
            Not After : Dec 14 10:20:56 2020 GMT
        Subject: C=US, ST=California, L=Santa Clara, O=pkg5, OU=ta9, CN=localhost/emailAddress=ta9
        Subject Public Key Info:
            Public Key Algorithm: rsaEncryption
                Public-Key: (2048 bit)
                Modulus:
                    00:b0:c2:e2:d0:f7:ac:52:d5:b5:ab:be:9a:02:78:
                    ba:5c:4e:8e:7c:b6:0f:9a:5b:1e:62:61:db:0c:b9:
                    19:aa:8a:5f:d5:87:99:bc:de:a2:fb:5b:73:3a:4c:
                    15:b7:bf:df:f4:96:93:a8:2d:f8:e5:12:04:80:91:
                    51:de:58:c0:cb:9b:a2:8b:2f:69:e1:4e:d3:86:92:
                    53:a2:5d:79:40:0a:ca:f4:50:85:97:fe:1d:c6:16:
                    c5:01:fb:d8:d6:54:57:30:64:91:e6:11:af:25:5c:
                    4b:75:62:ba:3d:4d:e2:25:ce:02:19:12:8f:a8:5f:
                    ea:46:6c:bb:9e:79:a1:80:f4:8e:27:c1:d7:52:56:
                    63:15:28:d2:bc:d1:ef:09:a5:d1:ba:d7:08:08:b5:
                    3a:22:96:a0:1f:1a:e7:85:9e:84:f7:4d:2f:ad:02:
                    f6:80:6f:3f:a6:f5:9a:91:aa:f4:b6:7f:d1:58:72:
                    84:25:11:d3:96:3a:b9:66:77:e8:62:6f:59:65:39:
                    36:08:e2:67:62:19:f0:15:c1:93:b1:6a:d5:5e:68:
                    86:2b:b5:ca:8b:b1:47:ce:b4:96:9c:73:09:5b:e7:
                    8e:b9:8b:6f:1e:28:44:4f:9e:87:8b:42:d6:fe:af:
                    9b:6e:1a:6f:09:7b:87:0f:d1:8b:d5:19:11:f7:4a:
                    33:31
                Exponent: 65537 (0x10001)
        X509v3 extensions:
            X509v3 Subject Key Identifier: 
                7F:AB:2F:A8:29:65:37:81:16:24:AE:6C:BC:9C:AA:5F:7D:30:EB:23
            X509v3 Authority Key Identifier: 
                keyid:7F:AB:2F:A8:29:65:37:81:16:24:AE:6C:BC:9C:AA:5F:7D:30:EB:23

            X509v3 Basic Constraints: 
                CA:TRUE
    Signature Algorithm: sha256WithRSAEncryption
         9f:f0:b2:42:f9:c1:53:81:c6:ab:dc:6e:5c:bb:6a:b9:d3:fe:
         69:49:68:14:71:5a:bf:49:15:ca:4b:1c:d4:6d:e0:3b:0f:f9:
         18:85:26:8f:02:05:2a:0f:2d:a8:27:36:a2:28:1f:de:61:0f:
         d0:50:2e:3b:d3:de:c6:f7:88:bb:58:07:74:67:28:ed:d2:45:
         46:7e:92:98:79:aa:95:15:64:98:10:2a:d8:ab:24:37:37:04:
         45:4e:87:cd:75:48:06:77:bb:7f:22:4c:4f:e3:8e:c9:df:f4:
         7a:3c:fc:c9:1f:3f:d4:eb:e5:b1:9b:e5:4b:89:a6:5c:cb:93:
         60:3f:a1:5f:4f:4b:73:94:e3:4d:f1:6b:6f:0f:c8:73:dc:f3:
         d8:95:5d:8b:78:b6:51:a0:6b:2d:2b:4e:6a:f0:c1:0b:af:ab:
         2f:8a:33:fb:f7:de:de:1f:3e:75:2e:47:c2:34:d3:53:24:d6:
         93:fb:df:9b:5a:e7:2d:4f:62:e6:df:d6:0b:34:da:f4:40:a6:
         41:20:77:ea:17:9c:dc:93:a2:d5:7a:42:45:9d:82:81:0e:6a:
         a2:f3:ab:dc:b9:9c:de:e7:52:82:e2:e9:25:63:95:eb:02:01:
         98:25:ab:e9:d2:05:ab:cf:bb:87:c6:07:d9:7d:7b:80:8f:c4:
         03:89:03:90
-----BEGIN CERTIFICATE-----
MIIDzTCCArWgAwIBAgIJAKkqDNRI10TcMA0GCSqGSIb3DQEBCwUAMH0xCzAJBgNV
BAYTAlVTMRMwEQYDVQQIDApDYWxpZm9ybmlhMRQwEgYDVQQHDAtTYW50YSBDbGFy
YTENMAsGA1UECgwEcGtnNTEMMAoGA1UECwwDdGE5MRIwEAYDVQQDDAlsb2NhbGhv
c3QxEjAQBgkqhkiG9w0BCQEWA3RhOTAeFw0xODAzMjAxMDIwNTZaFw0yMDEyMTQx
MDIwNTZaMH0xCzAJBgNVBAYTAlVTMRMwEQYDVQQIDApDYWxpZm9ybmlhMRQwEgYD
VQQHDAtTYW50YSBDbGFyYTENMAsGA1UECgwEcGtnNTEMMAoGA1UECwwDdGE5MRIw
EAYDVQQDDAlsb2NhbGhvc3QxEjAQBgkqhkiG9w0BCQEWA3RhOTCCASIwDQYJKoZI
hvcNAQEBBQADggEPADCCAQoCggEBALDC4tD3rFLVtau+mgJ4ulxOjny2D5pbHmJh
2wy5GaqKX9WHmbzeovtbczpMFbe/3/SWk6gt+OUSBICRUd5YwMuboosvaeFO04aS
U6JdeUAKyvRQhZf+HcYWxQH72NZUVzBkkeYRryVcS3Viuj1N4iXOAhkSj6hf6kZs
u555oYD0jifB11JWYxUo0rzR7wml0brXCAi1OiKWoB8a54WehPdNL60C9oBvP6b1
mpGq9LZ/0VhyhCUR05Y6uWZ36GJvWWU5NgjiZ2IZ8BXBk7Fq1V5ohiu1youxR860
lpxzCVvnjrmLbx4oRE+eh4tC1v6vm24abwl7hw/Ri9UZEfdKMzECAwEAAaNQME4w
HQYDVR0OBBYEFH+rL6gpZTeBFiSubLycql99MOsjMB8GA1UdIwQYMBaAFH+rL6gp
ZTeBFiSubLycql99MOsjMAwGA1UdEwQFMAMBAf8wDQYJKoZIhvcNAQELBQADggEB
AJ/wskL5wVOBxqvcbly7arnT/mlJaBRxWr9JFcpLHNRt4DsP+RiFJo8CBSoPLagn
NqIoH95hD9BQLjvT3sb3iLtYB3RnKO3SRUZ+kph5qpUVZJgQKtirJDc3BEVOh811
SAZ3u38iTE/jjsnf9Ho8/MkfP9Tr5bGb5UuJplzLk2A/oV9PS3OU403xa28PyHPc
89iVXYt4tlGgay0rTmrwwQuvqy+KM/v33t4fPnUuR8I001Mk1pP735ta5y1PYubf
1gs02vRApkEgd+oXnNyTotV6QkWdgoEOaqLzq9y5nN7nUoLi6SVjlesCAZglq+nS
BavPu4fGB9l9e4CPxAOJA5A=
-----END CERTIFICATE-----
Certificate:
    Data:
        Version: 3 (0x2)
        Serial Number:
            e0:84:ab:a0:1b:7e:34:f6
    Signature Algorithm: sha256WithRSAEncryption
        Issuer: C=US, ST=California, L=Santa Clara, O=pkg5, OU=ta10, CN=localhost/emailAddress=ta10
        Validity
            Not Before: Mar 20 10:20:56 2018 GMT
            Not After : Dec 14 10:20:56 2020 GMT
        Subject: C=US, ST=California, L=Santa Clara, O=pkg5, OU=ta10, CN=localhost/emailAddress=ta10
        Subject Public Key Info:
            Public Key Algorithm: rsaEncryption
                Public-Key: (2048 bit)
                Modulus:
                    00:b2:a1:f8:ea:53:66:03:f4:02:9e:5c:e0:b8:e8:
                    40:00:ba:fa:13:e0:89:4d:a2:5f:88:b0:19:51:15:
                    58:67:65:68:94:71:23:39:11:53:df:50:87:4d:78:
                    11:2c:cb:d8:cd:c3:93:9f:31:f8:f9:89:e9:cc:15:
                    ec:fc:ea:34:21:47:18:06:3c:ba:81:25:e6:90:d9:
                    d8:40:bc:ab:cd:0b:52:80:78:a2:0c:44:1c:99:6f:
                    c3:a2:ce:e1:2a:10:42:88:f6:b6:9a:c3:64:7d:30:
                    70:36:e4:fc:f1:28:e1:00:a9:14:a9:d5:76:84:c6:
                    55:ab:63:2f:f1:9f:70:a7:11:f0:af:a9:0a:d1:38:
                    fb:84:59:79:ff:4c:a9:12:3a:ba:db:8a:6e:38:8b:
                    4a:5c:31:62:4b:c7:66:93:fc:98:92:36:af:73:c7:
                    6c:72:a0:6e:28:7d:c2:1d:82:09:2f:48:d1:a6:ce:
                    e7:18:c3:aa:01:fd:6c:ee:5d:01:e4:b4:2d:e7:69:
                    59:5e:57:4b:0d:44:9e:84:1f:a0:3a:dd:fe:42:c5:
                    55:1c:31:18:52:39:de:df:1b:2c:c8:42:8d:12:e5:
                    88:8d:a3:7e:e8:f5:dc:82:af:87:02:d0:a5:39:4c:
                    4e:19:11:a3:78:b9:e3:26:3b:91:4b:2d:8c:47:0d:
                    fc:8b
                Exponent: 65537 (0x10001)
        X509v3 extensions:
            X509v3 Subject Key Identifier: 
                F3:78:1C:CB:C2:B4:F2:BD:48:7C:37:83:9E:95:BC:8F:3F:01:5F:4B
            X509v3 Authority Key Identifier: 
                keyid:F3:78:1C:CB:C2:B4:F2:BD:48:7C:37:83:9E:95:BC:8F:3F:01:5F:4B

            X509v3 Basic Constraints: 
                CA:TRUE
    Signature Algorithm: sha256WithRSAEncryption
         71:b4:d9:89:ab:d2:98:bf:36:34:2e:5f:f7:1a:43:f4:4a:fa:
         16:4c:91:1a:88:d9:73:06:8b:aa:0a:db:29:b9:8d:95:df:b8:
         f6:1f:e3:41:8e:dc:9f:22:8a:5d:1b:dd:bc:6b:cb:dc:3f:22:
         dc:04:4b:ba:4a:91:ee:20:2c:c3:7b:99:49:c0:bf:16:25:50:
         e8:64:a8:c4:6a:a4:87:d9:31:02:c7:a9:95:ae:b0:a4:ba:f4:
         77:17:77:55:d3:1e:2d:15:78:37:fd:ec:65:95:2c:78:0d:0e:
         b7:4d:6d:73:48:52:0d:02:5e:1c:33:13:fd:0d:60:9e:a0:19:
         a7:a7:76:95:93:0b:2f:ed:e0:f9:e2:f0:96:0e:8d:75:71:cc:
         e1:7a:d8:73:28:da:7b:7b:a9:cb:6b:1f:d6:93:05:0c:9c:2a:
         7f:07:99:df:a2:ad:78:86:4e:fe:7f:88:30:03:58:47:e7:60:
         ef:79:ad:1d:e4:9f:64:b8:cc:0d:d1:3e:6d:f0:3b:f4:41:18:
         61:48:ea:c5:ed:f6:66:2d:c9:5c:ed:69:8a:d8:c9:a9:bf:55:
         cf:01:35:b2:f7:3f:24:cc:d0:75:99:64:0c:e6:42:30:11:78:
         44:7f:1e:8d:0e:5c:6c:28:4d:73:51:c4:4e:85:60:1f:1d:b6:
         1f:50:18:fa
-----BEGIN CERTIFICATE-----
MIID0TCCArmgAwIBAgIJAOCEq6AbfjT2MA0GCSqGSIb3DQEBCwUAMH8xCzAJBgNV
BAYTAlVTMRMwEQYDVQQIDApDYWxpZm9ybmlhMRQwEgYDVQQHDAtTYW50YSBDbGFy
YTENMAsGA1UECgwEcGtnNTENMAsGA1UECwwEdGExMDESMBAGA1UEAwwJbG9jYWxo
b3N0MRMwEQYJKoZIhvcNAQkBFgR0YTEwMB4XDTE4MDMyMDEwMjA1NloXDTIwMTIx
NDEwMjA1NlowfzELMAkGA1UEBhMCVVMxEzARBgNVBAgMCkNhbGlmb3JuaWExFDAS
BgNVBAcMC1NhbnRhIENsYXJhMQ0wCwYDVQQKDARwa2c1MQ0wCwYDVQQLDAR0YTEw
MRIwEAYDVQQDDAlsb2NhbGhvc3QxEzARBgkqhkiG9w0BCQEWBHRhMTAwggEiMA0G
CSqGSIb3DQEBAQUAA4IBDwAwggEKAoIBAQCyofjqU2YD9AKeXOC46EAAuvoT4IlN
ol+IsBlRFVhnZWiUcSM5EVPfUIdNeBEsy9jNw5OfMfj5ienMFez86jQhRxgGPLqB
JeaQ2dhAvKvNC1KAeKIMRByZb8OizuEqEEKI9raaw2R9MHA25PzxKOEAqRSp1XaE
xlWrYy/xn3CnEfCvqQrROPuEWXn/TKkSOrrbim44i0pcMWJLx2aT/JiSNq9zx2xy
oG4ofcIdggkvSNGmzucYw6oB/WzuXQHktC3naVleV0sNRJ6EH6A63f5CxVUcMRhS
Od7fGyzIQo0S5YiNo37o9dyCr4cC0KU5TE4ZEaN4ueMmO5FLLYxHDfyLAgMBAAGj
UDBOMB0GA1UdDgQWBBTzeBzLwrTyvUh8N4OelbyPPwFfSzAfBgNVHSMEGDAWgBTz
eBzLwrTyvUh8N4OelbyPPwFfSzAMBgNVHRMEBTADAQH/MA0GCSqGSIb3DQEBCwUA
A4IBAQBxtNmJq9KYvzY0Ll/3GkP0SvoWTJEaiNlzBouqCtspuY2V37j2H+NBjtyf
IopdG928a8vcPyLcBEu6SpHuICzDe5lJwL8WJVDoZKjEaqSH2TECx6mVrrCkuvR3
F3dV0x4tFXg3/exllSx4DQ63TW1zSFINAl4cMxP9DWCeoBmnp3aVkwsv7eD54vCW
Do11cczhethzKNp7e6nLax/WkwUMnCp/B5nfoq14hk7+f4gwA1hH52Dvea0d5J9k
uMwN0T5t8Dv0QRhhSOrF7fZmLclc7WmK2Mmpv1XPATWy9z8kzNB1mWQM5kIwEXhE
fx6NDlxsKE1zUcROhWAfHbYfUBj6
-----END CERTIFICATE-----
Certificate:
    Data:
        Version: 3 (0x2)
        Serial Number:
            d7:98:f0:1e:56:fa:67:a2
    Signature Algorithm: sha256WithRSAEncryption
        Issuer: C=US, ST=California, L=Santa Clara, O=pkg5, OU=ta11, CN=localhost/emailAddress=ta11
        Validity
            Not Before: Mar 20 10:20:57 2018 GMT
            Not After : Dec 14 10:20:57 2020 GMT
        Subject: C=US, ST=California, L=Santa Clara, O=pkg5, OU=ta11, CN=localhost/emailAddress=ta11
        Subject Public Key Info:
            Public Key Algorithm: rsaEncryption
                Public-Key: (2048 bit)
                Modulus:
                    00:f0:74:42:69:90:c7:db:88:8d:67:fa:b5:b5:32:
                    35:64:1f:38:e1:fd:ea:4c:bf:ff:53:80:78:38:51:
                    db:d8:fb:8e:fd:c1:c3:7c:97:50:65:64:13:d0:9b:
                    da:10:5e:54:74:2f:bd:1a:e1:87:4c:4c:b5:f2:93:
                    31:5b:42:d3:1e:5f:db:94:ff:eb:fa:67:aa:e1:92:
                    75:a1:60:fa:28:e5:a0:51:08:35:6c:cb:85:6e:6a:
                    1e:41:35:60:6f:26:da:56:77:0d:89:d7:62:a2:0b:
                    ca:80:7e:71:33:1c:71:24:cf:c2:98:b0:69:6f:8d:
                    b1:bd:7a:ec:d1:bc:74:ab:bd:ab:8f:65:c8:2c:b2:
                    ba:9c:5a:f6:f6:3e:39:14:2c:30:35:79:e4:c7:bd:
                    50:7c:85:ca:5a:dc:fd:ac:f4:53:18:b3:4c:80:a8:
                    d7:d0:aa:18:2f:0b:6a:2d:6b:d6:1d:b6:79:d9:0f:
                    e7:fe:13:fd:9c:cd:28:40:2c:db:af:f1:26:4d:c4:
                    ce:22:5b:18:16:c0:a0:aa:d8:c7:7b:97:35:cd:27:
                    85:d6:06:78:2c:c2:ee:a9:58:be:68:0c:23:8a:1f:
                    a4:f7:b2:84:fd:65:45:19:2c:3f:00:e2:68:55:08:
                    8d:bb:00:be:a2:74:25:07:05:a6:06:e8:e2:31:8c:
                    53:67
                Exponent: 65537 (0x10001)
        X509v3 extensions:
            X509v3 Subject Key Identifier: 
                2B:98:B8:44:A3:B5:04:E2:AA:0E:FC:93:0E:DF:18:8F:95:5D:AA:0C
            X509v3 Authority Key Identifier: 
                keyid:2B:98:B8:44:A3:B5:04:E2:AA:0E:FC:93:0E:DF:18:8F:95:5D:AA:0C

            X509v3 Basic Constraints: 
                CA:TRUE
    Signature Algorithm: sha256WithRSAEncryption
         93:96:ae:e8:2c:3f:e4:7f:95:f1:0b:b2:0e:2e:6b:66:88:44:
         f6:9b:74:e7:b7:e4:4f:8f:22:13:06:34:f4:3b:89:4d:2e:36:
         5d:49:00:a7:60:ea:2d:91:01:f7:8e:a4:07:8b:62:39:10:d4:
         0f:e5:8c:8b:ac:40:30:ac:e1:a9:9a:7d:c7:8c:09:53:e3:13:
         11:d7:55:ee:6f:79:97:62:67:17:e7:e8:c4:ee:5d:ca:e9:01:
         f9:12:2a:ed:29:b7:d8:a3:db:31:41:b1:c2:18:64:40:52:ae:
         ed:c8:4f:7b:be:55:00:4c:42:c6:53:58:0f:c0:19:c1:52:f1:
         0f:90:40:ee:d9:25:fa:5e:a9:87:7b:8d:80:36:c4:52:2a:04:
         a9:ed:fc:c8:08:9f:b1:2c:fa:13:89:78:85:f4:43:7e:2b:59:
         fb:54:20:8b:2e:fa:b6:cf:c7:68:b2:da:12:a2:a1:98:1c:83:
         65:38:26:80:ab:e0:aa:de:65:c2:97:44:d0:ca:fb:ac:18:62:
         8f:13:d8:56:13:9f:aa:80:77:0a:03:62:a6:47:44:db:3f:29:
         40:5f:a1:b8:71:ce:a0:4f:91:5c:1b:6f:52:d5:b5:ac:a3:b2:
         5b:6d:4d:e4:c8:19:90:b9:de:6f:10:2d:73:b5:53:90:4b:ae:
         13:60:67:df
-----BEGIN CERTIFICATE-----
MIID0TCCArmgAwIBAgIJANeY8B5W+meiMA0GCSqGSIb3DQEBCwUAMH8xCzAJBgNV
BAYTAlVTMRMwEQYDVQQIDApDYWxpZm9ybmlhMRQwEgYDVQQHDAtTYW50YSBDbGFy
YTENMAsGA1UECgwEcGtnNTENMAsGA1UECwwEdGExMTESMBAGA1UEAwwJbG9jYWxo
b3N0MRMwEQYJKoZIhvcNAQkBFgR0YTExMB4XDTE4MDMyMDEwMjA1N1oXDTIwMTIx
NDEwMjA1N1owfzELMAkGA1UEBhMCVVMxEzARBgNVBAgMCkNhbGlmb3JuaWExFDAS
BgNVBAcMC1NhbnRhIENsYXJhMQ0wCwYDVQQKDARwa2c1MQ0wCwYDVQQLDAR0YTEx
MRIwEAYDVQQDDAlsb2NhbGhvc3QxEzARBgkqhkiG9w0BCQEWBHRhMTEwggEiMA0G
CSqGSIb3DQEBAQUAA4IBDwAwggEKAoIBAQDwdEJpkMfbiI1n+rW1MjVkHzjh/epM
v/9TgHg4UdvY+479wcN8l1BlZBPQm9oQXlR0L70a4YdMTLXykzFbQtMeX9uU/+v6
Z6rhknWhYPoo5aBRCDVsy4Vuah5BNWBvJtpWdw2J12KiC8qAfnEzHHEkz8KYsGlv
jbG9euzRvHSrvauPZcgssrqcWvb2PjkULDA1eeTHvVB8hcpa3P2s9FMYs0yAqNfQ
qhgvC2ota9YdtnnZD+f+E/2czShALNuv8SZNxM4iWxgWwKCq2Md7lzXNJ4XWBngs
wu6pWL5oDCOKH6T3soT9ZUUZLD8A4mhVCI27AL6idCUHBaYG6OIxjFNnAgMBAAGj
UDBOMB0GA1UdDgQWBBQrmLhEo7UE4qoO/JMO3xiPlV2qDDAfBgNVHSMEGDAWgBQr
mLhEo7UE4qoO/JMO3xiPlV2qDDAMBgNVHRMEBTADAQH/MA0GCSqGSIb3DQEBCwUA
A4IBAQCTlq7oLD/kf5XxC7IOLmtmiET2m3Tnt+RPjyITBjT0O4lNLjZdSQCnYOot
kQH3jqQHi2I5ENQP5YyLrEAwrOGpmn3HjAlT4xMR11Xub3mXYmcX5+jE7l3K6QH5
EirtKbfYo9sxQbHCGGRAUq7tyE97vlUATELGU1gPwBnBUvEPkEDu2SX6XqmHe42A
NsRSKgSp7fzICJ+xLPoTiXiF9EN+K1n7VCCLLvq2z8dostoSoqGYHINlOCaAq+Cq
3mXCl0TQyvusGGKPE9hWE5+qgHcKA2KmR0TbPylAX6G4cc6gT5FcG29S1bWso7Jb
bU3kyBmQud5vEC1ztVOQS64TYGff
-----END CERTIFICATE-----
