Certificate:
    Data:
        Version: 3 (0x2)
        Serial Number:
            f4:85:19:96:ab:50:bd:a0
    Signature Algorithm: sha256WithRSAEncryption
        Issuer: C=US, ST=California, L=Santa Clara, O=pkg5, OU=ta6, CN=localhost/emailAddress=ta6
        Validity
            Not Before: Nov 28 22:50:58 2016 GMT
            Not After : Aug 25 22:50:58 2019 GMT
        Subject: C=US, ST=California, L=Santa Clara, O=pkg5, OU=ta6, CN=localhost/emailAddress=ta6
        Subject Public Key Info:
            Public Key Algorithm: rsaEncryption
                Public-Key: (2048 bit)
                Modulus:
                    00:9e:de:9e:60:cb:63:e8:39:7f:2a:27:ee:63:09:
                    e6:43:b4:5e:e7:50:5b:65:c2:69:56:72:6a:f4:0e:
                    ab:67:05:97:fa:80:80:df:64:08:a0:60:a6:5d:9b:
                    4a:71:a8:37:7a:b5:e8:0b:10:06:dd:cd:ba:21:41:
                    a2:dc:98:f3:43:33:bc:d5:34:64:b2:1a:f3:3c:33:
                    ac:8d:4a:dd:e0:a4:45:ab:00:cd:91:44:64:eb:86:
                    f4:f6:59:84:e1:d4:7f:6c:86:be:03:bf:a5:f1:da:
                    48:78:78:bb:79:ce:c1:5d:b6:12:49:7c:b6:64:1c:
                    42:6f:89:f6:28:a9:2e:2b:16:b3:53:a5:e4:68:03:
                    ee:bc:6c:f5:4c:f8:b3:16:fa:44:29:e8:56:a8:5a:
                    23:15:3b:b2:9c:a4:12:d0:76:80:a9:1c:db:77:9a:
                    85:a3:cc:86:7b:be:19:7f:14:33:9d:26:e1:45:d0:
                    5a:e9:f5:c9:ed:15:93:fa:e5:d4:96:3e:01:24:bf:
                    c5:09:34:bd:c1:ab:3b:40:32:21:9e:b8:33:5b:5d:
                    6a:04:25:f3:3a:12:98:ec:ad:de:19:c6:fb:96:15:
                    ee:07:e7:91:c3:3d:20:ba:c0:72:76:f8:c6:72:18:
                    e7:f3:ce:cc:35:84:d7:09:dd:43:33:9f:b4:9c:1d:
                    78:c9
                Exponent: 65537 (0x10001)
        X509v3 extensions:
            X509v3 Subject Key Identifier: 
                9A:DB:F9:22:F4:1B:41:4E:89:9B:BC:D3:89:62:5A:25:C9:88:8A:F1
            X509v3 Authority Key Identifier: 
                keyid:9A:DB:F9:22:F4:1B:41:4E:89:9B:BC:D3:89:62:5A:25:C9:88:8A:F1

            X509v3 Basic Constraints: 
                CA:TRUE
    Signature Algorithm: sha256WithRSAEncryption
         30:8a:6b:d9:c2:a5:d1:a6:49:1a:9d:f0:6f:fa:2c:26:a2:ac:
         08:21:21:11:3d:a3:52:cb:13:5b:45:3c:ee:be:ef:2c:36:00:
         d1:f5:66:52:9b:b6:36:0d:56:90:b8:c2:89:26:cd:89:d6:62:
         ae:8b:73:ac:03:ab:88:71:fe:11:94:92:77:69:ca:9e:9c:cc:
         cf:da:63:0b:84:4b:73:a5:f4:84:a2:9c:2d:67:10:4e:6e:f3:
         f0:0f:a8:e8:67:88:ce:da:e5:2c:20:81:58:1d:55:9b:d7:47:
         8e:ef:f3:50:1c:86:4b:01:98:e4:d2:b6:30:18:fe:5c:16:e2:
         2d:e0:1e:54:45:8e:89:b0:41:62:e9:b6:af:ba:00:d1:5f:df:
         cb:e6:2a:14:81:7c:27:f9:c9:85:7b:6d:90:be:07:24:bd:32:
         bd:37:dc:16:d5:e3:c8:7e:cf:3a:01:44:d1:21:36:fe:b4:9e:
         78:e4:24:1a:37:f9:13:81:47:0a:cd:42:e3:3d:bc:45:de:d8:
         76:8c:fa:aa:7a:29:5f:f7:0e:da:2c:09:e8:1a:18:08:e1:15:
         88:90:f1:c2:7f:fc:f2:91:8c:9b:c1:11:4c:77:57:55:ea:14:
         0b:1a:6a:50:e3:5d:cd:a0:3d:9e:53:6b:66:32:25:ef:0d:e7:
         3b:a0:d8:99
-----BEGIN CERTIFICATE-----
MIIDzTCCArWgAwIBAgIJAPSFGZarUL2gMA0GCSqGSIb3DQEBCwUAMH0xCzAJBgNV
BAYTAlVTMRMwEQYDVQQIDApDYWxpZm9ybmlhMRQwEgYDVQQHDAtTYW50YSBDbGFy
YTENMAsGA1UECgwEcGtnNTEMMAoGA1UECwwDdGE2MRIwEAYDVQQDDAlsb2NhbGhv
c3QxEjAQBgkqhkiG9w0BCQEWA3RhNjAeFw0xNjExMjgyMjUwNThaFw0xOTA4MjUy
MjUwNThaMH0xCzAJBgNVBAYTAlVTMRMwEQYDVQQIDApDYWxpZm9ybmlhMRQwEgYD
VQQHDAtTYW50YSBDbGFyYTENMAsGA1UECgwEcGtnNTEMMAoGA1UECwwDdGE2MRIw
EAYDVQQDDAlsb2NhbGhvc3QxEjAQBgkqhkiG9w0BCQEWA3RhNjCCASIwDQYJKoZI
hvcNAQEBBQADggEPADCCAQoCggEBAJ7enmDLY+g5fyon7mMJ5kO0XudQW2XCaVZy
avQOq2cFl/qAgN9kCKBgpl2bSnGoN3q16AsQBt3NuiFBotyY80MzvNU0ZLIa8zwz
rI1K3eCkRasAzZFEZOuG9PZZhOHUf2yGvgO/pfHaSHh4u3nOwV22Ekl8tmQcQm+J
9iipLisWs1Ol5GgD7rxs9Uz4sxb6RCnoVqhaIxU7spykEtB2gKkc23eahaPMhnu+
GX8UM50m4UXQWun1ye0Vk/rl1JY+ASS/xQk0vcGrO0AyIZ64M1tdagQl8zoSmOyt
3hnG+5YV7gfnkcM9ILrAcnb4xnIY5/POzDWE1wndQzOftJwdeMkCAwEAAaNQME4w
HQYDVR0OBBYEFJrb+SL0G0FOiZu804liWiXJiIrxMB8GA1UdIwQYMBaAFJrb+SL0
G0FOiZu804liWiXJiIrxMAwGA1UdEwQFMAMBAf8wDQYJKoZIhvcNAQELBQADggEB
ADCKa9nCpdGmSRqd8G/6LCairAghIRE9o1LLE1tFPO6+7yw2ANH1ZlKbtjYNVpC4
wokmzYnWYq6Lc6wDq4hx/hGUkndpyp6czM/aYwuES3Ol9ISinC1nEE5u8/APqOhn
iM7a5SwggVgdVZvXR47v81AchksBmOTStjAY/lwW4i3gHlRFjomwQWLptq+6ANFf
38vmKhSBfCf5yYV7bZC+ByS9Mr033BbV48h+zzoBRNEhNv60nnjkJBo3+ROBRwrN
QuM9vEXe2HaM+qp6KV/3DtosCegaGAjhFYiQ8cJ//PKRjJvBEUx3V1XqFAsaalDj
Xc2gPZ5Ta2YyJe8N5zug2Jk=
-----END CERTIFICATE-----
Certificate:
    Data:
        Version: 3 (0x2)
        Serial Number:
            d4:74:ff:da:e2:93:5e:a2
    Signature Algorithm: sha256WithRSAEncryption
        Issuer: C=US, ST=California, L=Santa Clara, O=pkg5, OU=ta8, CN=localhost/emailAddress=ta8
        Validity
            Not Before: Nov 28 22:50:58 2016 GMT
            Not After : Aug 25 22:50:58 2019 GMT
        Subject: C=US, ST=California, L=Santa Clara, O=pkg5, OU=ta8, CN=localhost/emailAddress=ta8
        Subject Public Key Info:
            Public Key Algorithm: rsaEncryption
                Public-Key: (2048 bit)
                Modulus:
                    00:bd:e9:f9:77:1d:f5:41:91:af:09:65:30:bd:0d:
                    3f:cc:e9:be:5f:94:f7:0b:8a:65:ca:6f:dd:0a:ff:
                    51:7a:d2:eb:13:34:db:32:84:7d:db:1b:02:5b:b2:
                    88:1b:93:62:a7:74:ed:65:a3:b6:fb:ed:75:da:5c:
                    d2:06:9f:1f:d1:75:46:75:1c:0e:d0:51:a7:06:ab:
                    f1:c7:5f:01:ae:91:02:4f:83:49:c4:cf:96:bd:19:
                    ab:0a:5c:39:b7:f9:b2:56:6e:2f:91:ec:e3:d1:7b:
                    79:78:32:10:2b:7a:42:b3:d5:ee:c2:53:e7:e0:90:
                    2c:81:95:3c:79:a2:93:ef:d0:b5:4e:f5:02:84:a1:
                    53:92:b3:d0:51:d0:43:57:e5:b9:b3:d1:28:b8:5b:
                    b9:51:b3:44:db:b4:c0:ac:42:be:79:5e:fd:f7:e3:
                    29:5a:4a:cc:6c:d0:a3:1f:d2:f5:84:69:dc:9f:7c:
                    cd:a4:8f:e9:18:99:23:42:4c:d8:e7:98:e3:e4:d0:
                    b7:d5:19:30:dc:5d:db:a4:30:47:d6:7e:27:6d:36:
                    5c:07:11:05:94:b9:8c:5d:18:7a:b7:5a:f0:2e:e6:
                    87:be:a4:a8:0e:80:e9:b7:54:55:85:cf:04:47:12:
                    48:48:11:db:9b:cb:66:90:ba:b4:87:cf:22:6d:5f:
                    78:c9
                Exponent: 65537 (0x10001)
        X509v3 extensions:
            X509v3 Subject Key Identifier: 
                13:56:BE:1A:9D:91:9F:40:8B:9A:6A:29:A4:D1:19:CF:B1:1F:D7:FB
            X509v3 Authority Key Identifier: 
                keyid:13:56:BE:1A:9D:91:9F:40:8B:9A:6A:29:A4:D1:19:CF:B1:1F:D7:FB

            X509v3 Basic Constraints: 
                CA:TRUE
    Signature Algorithm: sha256WithRSAEncryption
         92:3f:0f:e6:3c:5c:08:f4:cc:27:7b:8e:bc:d9:48:78:cd:94:
         20:ce:a0:0c:1d:7b:df:9e:de:06:8c:2e:0d:4e:d4:2d:ec:3f:
         af:85:ee:6f:7b:af:86:6b:b9:16:26:fb:f5:1e:e8:e0:d3:51:
         56:b1:6e:87:78:7d:dd:1b:fe:2f:65:4f:3e:ba:95:65:06:aa:
         a1:53:e4:9b:38:d2:32:0d:c3:25:c1:b1:6a:12:a0:91:92:36:
         18:7e:d2:6f:66:01:99:8f:2a:e8:c6:4b:db:dd:fe:26:04:41:
         d1:aa:86:1b:38:b2:3d:88:bc:d9:0d:5c:cc:8d:05:a0:dd:b6:
         74:7c:06:6b:94:37:01:e8:1f:b7:0c:f5:98:70:a9:25:0b:71:
         cd:51:ae:82:b6:9c:13:a4:0a:b6:97:5a:c4:0f:dc:0c:f7:14:
         87:99:e1:fe:84:a2:e3:92:42:fd:24:55:71:3d:05:a8:7a:60:
         5f:b4:17:ff:64:8c:b5:15:2d:d8:e8:b8:93:a1:fc:58:5f:f1:
         94:16:b2:0e:d9:77:69:2a:cc:6a:2c:9f:dc:de:57:29:01:4d:
         8e:fd:ec:7b:7b:5e:9e:36:46:d2:6a:f0:78:44:6a:82:f0:dd:
         35:91:e7:b1:e5:7d:3f:26:4f:26:80:63:5e:13:d0:c4:1e:14:
         09:17:d4:7b
-----BEGIN CERTIFICATE-----
MIIDzTCCArWgAwIBAgIJANR0/9rik16iMA0GCSqGSIb3DQEBCwUAMH0xCzAJBgNV
BAYTAlVTMRMwEQYDVQQIDApDYWxpZm9ybmlhMRQwEgYDVQQHDAtTYW50YSBDbGFy
YTENMAsGA1UECgwEcGtnNTEMMAoGA1UECwwDdGE4MRIwEAYDVQQDDAlsb2NhbGhv
c3QxEjAQBgkqhkiG9w0BCQEWA3RhODAeFw0xNjExMjgyMjUwNThaFw0xOTA4MjUy
MjUwNThaMH0xCzAJBgNVBAYTAlVTMRMwEQYDVQQIDApDYWxpZm9ybmlhMRQwEgYD
VQQHDAtTYW50YSBDbGFyYTENMAsGA1UECgwEcGtnNTEMMAoGA1UECwwDdGE4MRIw
EAYDVQQDDAlsb2NhbGhvc3QxEjAQBgkqhkiG9w0BCQEWA3RhODCCASIwDQYJKoZI
hvcNAQEBBQADggEPADCCAQoCggEBAL3p+Xcd9UGRrwllML0NP8zpvl+U9wuKZcpv
3Qr/UXrS6xM02zKEfdsbAluyiBuTYqd07WWjtvvtddpc0gafH9F1RnUcDtBRpwar
8cdfAa6RAk+DScTPlr0ZqwpcObf5slZuL5Hs49F7eXgyECt6QrPV7sJT5+CQLIGV
PHmik+/QtU71AoShU5Kz0FHQQ1flubPRKLhbuVGzRNu0wKxCvnle/ffjKVpKzGzQ
ox/S9YRp3J98zaSP6RiZI0JM2OeY4+TQt9UZMNxd26QwR9Z+J202XAcRBZS5jF0Y
erda8C7mh76kqA6A6bdUVYXPBEcSSEgR25vLZpC6tIfPIm1feMkCAwEAAaNQME4w
HQYDVR0OBBYEFBNWvhqdkZ9Ai5pqKaTRGc+xH9f7MB8GA1UdIwQYMBaAFBNWvhqd
kZ9Ai5pqKaTRGc+xH9f7MAwGA1UdEwQFMAMBAf8wDQYJKoZIhvcNAQELBQADggEB
AJI/D+Y8XAj0zCd7jrzZSHjNlCDOoAwde9+e3gaMLg1O1C3sP6+F7m97r4ZruRYm
+/Ue6ODTUVaxbod4fd0b/i9lTz66lWUGqqFT5Js40jINwyXBsWoSoJGSNhh+0m9m
AZmPKujGS9vd/iYEQdGqhhs4sj2IvNkNXMyNBaDdtnR8BmuUNwHoH7cM9ZhwqSUL
cc1RroK2nBOkCraXWsQP3Az3FIeZ4f6EouOSQv0kVXE9Bah6YF+0F/9kjLUVLdjo
uJOh/Fhf8ZQWsg7Zd2kqzGosn9zeVykBTY797Ht7Xp42RtJq8HhEaoLw3TWR57Hl
fT8mTyaAY14T0MQeFAkX1Hs=
-----END CERTIFICATE-----
Certificate:
    Data:
        Version: 3 (0x2)
        Serial Number:
            d9:72:54:87:3d:18:97:e7
    Signature Algorithm: sha256WithRSAEncryption
        Issuer: C=US, ST=California, L=Santa Clara, O=pkg5, OU=ta9, CN=localhost/emailAddress=ta9
        Validity
            Not Before: Nov 28 22:50:59 2016 GMT
            Not After : Aug 25 22:50:59 2019 GMT
        Subject: C=US, ST=California, L=Santa Clara, O=pkg5, OU=ta9, CN=localhost/emailAddress=ta9
        Subject Public Key Info:
            Public Key Algorithm: rsaEncryption
                Public-Key: (2048 bit)
                Modulus:
                    00:dc:7a:73:ea:99:f0:d2:96:5f:b3:77:e0:f9:c5:
                    5a:55:4f:9a:9c:48:6d:8b:b6:8e:b5:5d:74:55:f1:
                    d2:69:3d:3e:78:e1:45:ee:41:ce:ec:ec:6a:8f:e5:
                    01:e3:47:bd:3d:a2:14:a6:74:df:f5:71:e1:7e:da:
                    97:a7:35:3f:b7:23:ec:15:8e:45:97:16:55:b0:ca:
                    19:54:6e:ed:22:96:85:71:52:52:14:d9:9d:c8:9d:
                    af:e3:57:13:77:93:40:d8:a4:c5:b9:84:52:8c:bc:
                    77:bd:94:f9:1d:75:c7:13:26:fe:7f:3f:63:9c:86:
                    47:49:56:b1:2b:dd:6a:1a:4d:00:bb:36:e0:c9:e2:
                    c3:fe:4c:f3:f8:64:1f:10:c5:c4:3c:f0:6f:0e:a4:
                    27:06:a7:60:7b:23:09:c9:69:cd:fc:f5:36:c8:7d:
                    2c:53:bf:02:74:5e:68:81:c5:9c:e4:a9:75:2e:55:
                    30:f1:72:1d:6e:f6:a5:5a:cd:e4:36:f6:50:9f:bb:
                    b8:9d:23:fa:c7:7e:ef:00:c9:aa:39:e0:0d:45:c7:
                    09:b4:cf:ec:74:b0:94:e9:d0:21:1a:ac:89:7b:d9:
                    71:76:36:be:e1:5a:42:c7:71:27:b5:54:19:3f:65:
                    57:8b:b8:f3:51:bb:d5:ea:cc:55:7d:34:ac:d8:f2:
                    2b:21
                Exponent: 65537 (0x10001)
        X509v3 extensions:
            X509v3 Subject Key Identifier: 
                2D:1A:38:91:8F:AE:89:F6:BD:41:E1:02:A9:06:8E:90:7F:84:8D:23
            X509v3 Authority Key Identifier: 
                keyid:2D:1A:38:91:8F:AE:89:F6:BD:41:E1:02:A9:06:8E:90:7F:84:8D:23

            X509v3 Basic Constraints: 
                CA:TRUE
    Signature Algorithm: sha256WithRSAEncryption
         93:85:5d:6a:32:fd:f4:8f:ff:0b:2a:9a:39:d7:f6:1e:55:c7:
         84:da:20:f8:52:ba:19:1d:6b:42:9d:66:60:df:d9:87:d6:55:
         22:f6:ba:0f:87:68:83:f0:eb:4a:94:b7:7d:7a:97:a0:11:1e:
         e0:69:d8:ab:a7:f9:87:f2:a7:a4:c1:11:5a:9d:2d:31:34:af:
         d3:0e:13:99:8c:ee:c0:33:4c:b1:bb:79:32:99:84:b7:ac:7e:
         e2:22:03:8f:fb:23:fd:d2:07:2d:a4:8a:d5:c4:39:05:e8:88:
         c2:0e:0a:61:ea:16:ec:f8:60:91:7d:dc:72:eb:a8:d6:5d:a8:
         b9:ef:22:d8:e6:05:63:82:e7:87:dc:b9:a3:5d:0f:6d:93:59:
         35:50:b7:33:4a:36:a0:93:f7:5f:94:60:5a:fb:94:2c:6f:3b:
         1d:c3:89:ba:eb:4b:0a:fa:af:18:d1:b9:88:9e:83:29:69:7e:
         f3:21:03:e3:a4:b3:df:83:0a:2e:5f:89:9d:1c:24:6e:6b:1b:
         2d:dc:0f:d8:59:65:94:e5:7e:97:77:a4:63:97:40:b2:d9:bf:
         14:52:28:eb:4d:f8:21:d5:ae:9a:e6:ed:80:70:31:d9:44:b7:
         f2:9c:bc:b7:a3:25:08:7f:76:5d:16:ec:13:41:be:79:86:84:
         03:8d:65:f6
-----BEGIN CERTIFICATE-----
MIIDzTCCArWgAwIBAgIJANlyVIc9GJfnMA0GCSqGSIb3DQEBCwUAMH0xCzAJBgNV
BAYTAlVTMRMwEQYDVQQIDApDYWxpZm9ybmlhMRQwEgYDVQQHDAtTYW50YSBDbGFy
YTENMAsGA1UECgwEcGtnNTEMMAoGA1UECwwDdGE5MRIwEAYDVQQDDAlsb2NhbGhv
c3QxEjAQBgkqhkiG9w0BCQEWA3RhOTAeFw0xNjExMjgyMjUwNTlaFw0xOTA4MjUy
MjUwNTlaMH0xCzAJBgNVBAYTAlVTMRMwEQYDVQQIDApDYWxpZm9ybmlhMRQwEgYD
VQQHDAtTYW50YSBDbGFyYTENMAsGA1UECgwEcGtnNTEMMAoGA1UECwwDdGE5MRIw
EAYDVQQDDAlsb2NhbGhvc3QxEjAQBgkqhkiG9w0BCQEWA3RhOTCCASIwDQYJKoZI
hvcNAQEBBQADggEPADCCAQoCggEBANx6c+qZ8NKWX7N34PnFWlVPmpxIbYu2jrVd
dFXx0mk9PnjhRe5Bzuzsao/lAeNHvT2iFKZ03/Vx4X7al6c1P7cj7BWORZcWVbDK
GVRu7SKWhXFSUhTZncidr+NXE3eTQNikxbmEUoy8d72U+R11xxMm/n8/Y5yGR0lW
sSvdahpNALs24Mniw/5M8/hkHxDFxDzwbw6kJwanYHsjCclpzfz1Nsh9LFO/AnRe
aIHFnOSpdS5VMPFyHW72pVrN5Db2UJ+7uJ0j+sd+7wDJqjngDUXHCbTP7HSwlOnQ
IRqsiXvZcXY2vuFaQsdxJ7VUGT9lV4u481G71erMVX00rNjyKyECAwEAAaNQME4w
HQYDVR0OBBYEFC0aOJGPron2vUHhAqkGjpB/hI0jMB8GA1UdIwQYMBaAFC0aOJGP
ron2vUHhAqkGjpB/hI0jMAwGA1UdEwQFMAMBAf8wDQYJKoZIhvcNAQELBQADggEB
AJOFXWoy/fSP/wsqmjnX9h5Vx4TaIPhSuhkda0KdZmDf2YfWVSL2ug+HaIPw60qU
t316l6ARHuBp2Kun+Yfyp6TBEVqdLTE0r9MOE5mM7sAzTLG7eTKZhLesfuIiA4/7
I/3SBy2kitXEOQXoiMIOCmHqFuz4YJF93HLrqNZdqLnvItjmBWOC54fcuaNdD22T
WTVQtzNKNqCT91+UYFr7lCxvOx3DibrrSwr6rxjRuYiegylpfvMhA+Oks9+DCi5f
iZ0cJG5rGy3cD9hZZZTlfpd3pGOXQLLZvxRSKOtN+CHVrprm7YBwMdlEt/KcvLej
JQh/dl0W7BNBvnmGhAONZfY=
-----END CERTIFICATE-----
Certificate:
    Data:
        Version: 3 (0x2)
        Serial Number:
            e0:c2:69:67:12:66:1a:4b
    Signature Algorithm: sha256WithRSAEncryption
        Issuer: C=US, ST=California, L=Santa Clara, O=pkg5, OU=ta10, CN=localhost/emailAddress=ta10
        Validity
            Not Before: Nov 28 22:50:59 2016 GMT
            Not After : Aug 25 22:50:59 2019 GMT
        Subject: C=US, ST=California, L=Santa Clara, O=pkg5, OU=ta10, CN=localhost/emailAddress=ta10
        Subject Public Key Info:
            Public Key Algorithm: rsaEncryption
                Public-Key: (2048 bit)
                Modulus:
                    00:c6:ad:47:a1:53:46:9f:fc:83:71:18:29:38:c2:
                    d0:66:0f:17:ec:fa:81:dd:ec:ed:1d:ff:1a:7a:bd:
                    9e:c3:37:82:5e:30:b3:22:dd:50:a7:b0:6f:a3:d6:
                    75:4a:12:b6:8f:b1:f6:ee:cd:8d:15:8f:83:43:04:
                    d6:3f:fe:c3:09:5a:fa:b3:cd:77:53:16:4f:e1:14:
                    d9:4a:12:3f:a9:86:c1:9f:57:c5:ea:d7:20:d2:5c:
                    93:ba:5d:77:27:e3:6d:65:4d:d7:e1:e1:29:95:87:
                    c1:f4:3f:96:f3:65:94:d3:35:fb:b4:d6:82:3d:3d:
                    f5:8e:04:03:4f:f7:56:95:ca:ae:af:ef:4a:fc:f4:
                    6b:ff:a6:64:62:fa:e2:1d:42:b0:7f:e8:b9:6a:46:
                    c7:0f:b2:86:0a:ba:41:ce:fc:93:5e:a3:9f:ad:31:
                    d1:b3:57:79:9f:95:a0:06:9b:4e:db:e6:b8:11:f2:
                    11:74:f4:5d:e3:41:bf:9f:6b:e8:8c:18:21:a0:b2:
                    09:f2:21:30:e0:2c:67:25:60:89:66:f9:e6:cb:86:
                    24:a7:50:ae:02:25:48:d9:39:7f:dd:9d:6b:01:aa:
                    99:64:b6:51:52:3b:bd:c0:4a:01:42:24:7f:4b:fa:
                    ff:ba:b2:e7:63:7b:0a:62:75:d8:67:7c:77:49:ae:
                    bd:dd
                Exponent: 65537 (0x10001)
        X509v3 extensions:
            X509v3 Subject Key Identifier: 
                AE:E3:20:4C:8B:D0:47:B4:5A:F2:59:0D:04:3E:A1:77:A3:CF:0E:A7
            X509v3 Authority Key Identifier: 
                keyid:AE:E3:20:4C:8B:D0:47:B4:5A:F2:59:0D:04:3E:A1:77:A3:CF:0E:A7

            X509v3 Basic Constraints: 
                CA:TRUE
    Signature Algorithm: sha256WithRSAEncryption
         46:3c:ec:08:2f:8c:e5:98:8c:8b:19:f7:43:ef:d6:e7:4c:f9:
         80:a4:cf:c2:dd:de:d2:4b:3c:99:7b:e9:cd:1e:5e:eb:57:83:
         f9:e4:d0:5b:f9:28:fc:41:a0:1a:78:6a:e3:4a:f6:de:a1:12:
         c0:12:8a:da:59:6b:4d:99:cd:a9:5c:9d:b2:f1:6b:1c:25:8a:
         3c:3a:27:24:a2:49:23:98:77:2e:1b:d8:81:30:b1:7e:39:f7:
         57:bc:b0:33:87:db:48:09:ea:45:0e:32:65:36:37:0f:06:e4:
         14:63:7f:c7:bf:72:5d:4a:08:eb:f9:d2:15:f1:05:55:39:0c:
         c6:fa:07:65:ca:ce:57:88:97:0f:a5:49:13:3a:c5:c3:be:9e:
         2c:e2:93:3c:cd:ae:e2:df:a3:23:1a:93:e4:d8:19:06:3f:5e:
         4a:69:45:42:b9:b8:59:d3:af:dd:54:7d:5b:5b:df:29:5f:27:
         0c:25:01:6e:fa:32:a7:14:89:84:c4:d9:21:53:28:24:27:b2:
         6a:36:1d:21:82:76:70:dd:1b:42:90:cc:f6:4f:33:9d:d3:29:
         c2:2d:f4:68:d3:f6:ae:74:9e:d5:b4:54:21:dd:53:cc:9d:d2:
         89:f0:95:b1:2c:a3:4c:da:d4:de:70:b1:b1:26:13:b1:9d:89:
         38:ce:f8:4d
-----BEGIN CERTIFICATE-----
MIID0TCCArmgAwIBAgIJAODCaWcSZhpLMA0GCSqGSIb3DQEBCwUAMH8xCzAJBgNV
BAYTAlVTMRMwEQYDVQQIDApDYWxpZm9ybmlhMRQwEgYDVQQHDAtTYW50YSBDbGFy
YTENMAsGA1UECgwEcGtnNTENMAsGA1UECwwEdGExMDESMBAGA1UEAwwJbG9jYWxo
b3N0MRMwEQYJKoZIhvcNAQkBFgR0YTEwMB4XDTE2MTEyODIyNTA1OVoXDTE5MDgy
NTIyNTA1OVowfzELMAkGA1UEBhMCVVMxEzARBgNVBAgMCkNhbGlmb3JuaWExFDAS
BgNVBAcMC1NhbnRhIENsYXJhMQ0wCwYDVQQKDARwa2c1MQ0wCwYDVQQLDAR0YTEw
MRIwEAYDVQQDDAlsb2NhbGhvc3QxEzARBgkqhkiG9w0BCQEWBHRhMTAwggEiMA0G
CSqGSIb3DQEBAQUAA4IBDwAwggEKAoIBAQDGrUehU0af/INxGCk4wtBmDxfs+oHd
7O0d/xp6vZ7DN4JeMLMi3VCnsG+j1nVKEraPsfbuzY0Vj4NDBNY//sMJWvqzzXdT
Fk/hFNlKEj+phsGfV8Xq1yDSXJO6XXcn421lTdfh4SmVh8H0P5bzZZTTNfu01oI9
PfWOBANP91aVyq6v70r89Gv/pmRi+uIdQrB/6LlqRscPsoYKukHO/JNeo5+tMdGz
V3mflaAGm07b5rgR8hF09F3jQb+fa+iMGCGgsgnyITDgLGclYIlm+ebLhiSnUK4C
JUjZOX/dnWsBqplktlFSO73ASgFCJH9L+v+6sudjewpiddhnfHdJrr3dAgMBAAGj
UDBOMB0GA1UdDgQWBBSu4yBMi9BHtFryWQ0EPqF3o88OpzAfBgNVHSMEGDAWgBSu
4yBMi9BHtFryWQ0EPqF3o88OpzAMBgNVHRMEBTADAQH/MA0GCSqGSIb3DQEBCwUA
A4IBAQBGPOwIL4zlmIyLGfdD79bnTPmApM/C3d7SSzyZe+nNHl7rV4P55NBb+Sj8
QaAaeGrjSvbeoRLAEoraWWtNmc2pXJ2y8WscJYo8OickokkjmHcuG9iBMLF+OfdX
vLAzh9tICepFDjJlNjcPBuQUY3/Hv3JdSgjr+dIV8QVVOQzG+gdlys5XiJcPpUkT
OsXDvp4s4pM8za7i36MjGpPk2BkGP15KaUVCubhZ06/dVH1bW98pXycMJQFu+jKn
FImExNkhUygkJ7JqNh0hgnZw3RtCkMz2TzOd0ynCLfRo0/audJ7VtFQh3VPMndKJ
8JWxLKNM2tTecLGxJhOxnYk4zvhN
-----END CERTIFICATE-----
Certificate:
    Data:
        Version: 3 (0x2)
        Serial Number:
            ca:78:b7:fe:a1:35:96:a0
    Signature Algorithm: sha256WithRSAEncryption
        Issuer: C=US, ST=California, L=Santa Clara, O=pkg5, OU=ta11, CN=localhost/emailAddress=ta11
        Validity
            Not Before: Nov 28 22:50:59 2016 GMT
            Not After : Aug 25 22:50:59 2019 GMT
        Subject: C=US, ST=California, L=Santa Clara, O=pkg5, OU=ta11, CN=localhost/emailAddress=ta11
        Subject Public Key Info:
            Public Key Algorithm: rsaEncryption
                Public-Key: (2048 bit)
                Modulus:
                    00:98:db:52:7c:e1:31:0a:05:57:29:0c:84:5e:39:
                    35:01:46:59:c7:89:a2:38:94:38:dc:74:c5:4e:ed:
                    55:ed:9d:41:8b:21:94:13:e2:c6:00:1c:ac:ef:fa:
                    ba:a3:3f:53:0d:03:70:32:bc:88:5b:2f:a3:8d:84:
                    86:82:c7:fc:4e:fb:2d:6b:da:79:e0:c6:3c:08:8f:
                    71:cc:47:91:a7:3d:ac:1f:ef:cd:fb:ef:12:c9:b3:
                    53:22:11:44:ec:4e:f3:76:9d:0d:45:b2:5c:2a:c0:
                    50:06:e5:60:2d:f2:79:89:76:9b:42:ce:74:54:32:
                    3c:77:69:9c:67:e5:6f:10:38:a1:99:6a:a7:3b:d4:
                    41:48:1c:10:7c:5a:51:80:df:fe:15:b1:1e:29:fd:
                    b8:58:be:7c:0b:04:09:db:45:2b:d5:8e:af:90:11:
                    c1:f8:2d:8b:35:58:b4:a2:1a:15:fd:e3:60:7a:38:
                    99:21:8b:cc:8e:3b:11:ff:69:9a:58:cb:50:20:30:
                    66:6e:71:4d:98:16:3e:1d:13:48:19:a5:8d:69:ed:
                    b9:6d:ee:5a:70:b8:9e:3f:ab:e5:e7:af:09:5e:3c:
                    7a:ae:a7:ba:03:e9:e4:cb:e7:64:6d:27:ea:aa:36:
                    23:3d:d6:e9:4e:a5:19:65:e8:f3:bf:8f:9e:bd:af:
                    5e:fd
                Exponent: 65537 (0x10001)
        X509v3 extensions:
            X509v3 Subject Key Identifier: 
                4C:0D:C7:6D:5A:A5:D5:FF:DC:12:57:6B:32:E4:0E:26:70:99:84:44
            X509v3 Authority Key Identifier: 
                keyid:4C:0D:C7:6D:5A:A5:D5:FF:DC:12:57:6B:32:E4:0E:26:70:99:84:44

            X509v3 Basic Constraints: 
                CA:TRUE
    Signature Algorithm: sha256WithRSAEncryption
         2b:18:58:6c:61:39:e0:a7:7f:f9:69:c0:a4:56:c3:e1:72:f0:
         c4:30:33:32:b9:37:bb:fc:d9:0b:e4:2a:8f:b5:e7:ae:d6:5e:
         57:2c:76:cf:84:1e:d3:a8:6c:4e:c5:35:77:34:99:f5:46:37:
         5f:98:16:12:28:c1:35:e6:9a:cb:c1:92:f2:1e:d9:57:ae:78:
         94:3c:c5:c6:36:93:94:58:24:b6:16:96:2d:dc:44:02:ea:f9:
         9e:b7:7d:94:3d:13:c6:64:ef:5e:2d:da:48:46:55:ae:54:0f:
         87:67:35:3c:0c:d8:5d:6e:01:fa:2c:d1:8e:ae:b7:73:98:23:
         f8:c3:1a:ef:41:52:13:dd:eb:e6:a5:cc:cc:2e:3d:dd:23:ce:
         25:3e:73:fc:50:95:1a:97:9c:15:ba:3b:a7:00:ad:2a:c8:92:
         41:49:cb:b7:52:fc:78:b7:56:8a:ff:3b:52:10:b1:b3:55:dd:
         df:33:92:eb:5b:56:cd:cd:79:25:1f:25:0c:3e:bc:fa:f7:7f:
         db:94:4c:fa:34:71:e7:38:e6:fc:06:12:fc:80:20:c4:97:14:
         d5:8c:d3:dc:ed:bb:68:ea:7a:51:0c:42:b6:0a:91:5f:b6:a9:
         73:06:35:c8:68:a0:b9:c6:0a:c9:a8:dc:51:89:7f:61:9b:e7:
         dd:f4:8c:17
-----BEGIN CERTIFICATE-----
MIID0TCCArmgAwIBAgIJAMp4t/6hNZagMA0GCSqGSIb3DQEBCwUAMH8xCzAJBgNV
BAYTAlVTMRMwEQYDVQQIDApDYWxpZm9ybmlhMRQwEgYDVQQHDAtTYW50YSBDbGFy
YTENMAsGA1UECgwEcGtnNTENMAsGA1UECwwEdGExMTESMBAGA1UEAwwJbG9jYWxo
b3N0MRMwEQYJKoZIhvcNAQkBFgR0YTExMB4XDTE2MTEyODIyNTA1OVoXDTE5MDgy
NTIyNTA1OVowfzELMAkGA1UEBhMCVVMxEzARBgNVBAgMCkNhbGlmb3JuaWExFDAS
BgNVBAcMC1NhbnRhIENsYXJhMQ0wCwYDVQQKDARwa2c1MQ0wCwYDVQQLDAR0YTEx
MRIwEAYDVQQDDAlsb2NhbGhvc3QxEzARBgkqhkiG9w0BCQEWBHRhMTEwggEiMA0G
CSqGSIb3DQEBAQUAA4IBDwAwggEKAoIBAQCY21J84TEKBVcpDIReOTUBRlnHiaI4
lDjcdMVO7VXtnUGLIZQT4sYAHKzv+rqjP1MNA3AyvIhbL6ONhIaCx/xO+y1r2nng
xjwIj3HMR5GnPawf78377xLJs1MiEUTsTvN2nQ1FslwqwFAG5WAt8nmJdptCznRU
Mjx3aZxn5W8QOKGZaqc71EFIHBB8WlGA3/4VsR4p/bhYvnwLBAnbRSvVjq+QEcH4
LYs1WLSiGhX942B6OJkhi8yOOxH/aZpYy1AgMGZucU2YFj4dE0gZpY1p7blt7lpw
uJ4/q+XnrwlePHqup7oD6eTL52RtJ+qqNiM91ulOpRll6PO/j569r179AgMBAAGj
UDBOMB0GA1UdDgQWBBRMDcdtWqXV/9wSV2sy5A4mcJmERDAfBgNVHSMEGDAWgBRM
DcdtWqXV/9wSV2sy5A4mcJmERDAMBgNVHRMEBTADAQH/MA0GCSqGSIb3DQEBCwUA
A4IBAQArGFhsYTngp3/5acCkVsPhcvDEMDMyuTe7/NkL5CqPteeu1l5XLHbPhB7T
qGxOxTV3NJn1RjdfmBYSKME15prLwZLyHtlXrniUPMXGNpOUWCS2FpYt3EQC6vme
t32UPRPGZO9eLdpIRlWuVA+HZzU8DNhdbgH6LNGOrrdzmCP4wxrvQVIT3evmpczM
Lj3dI84lPnP8UJUal5wVujunAK0qyJJBScu3Uvx4t1aK/ztSELGzVd3fM5LrW1bN
zXklHyUMPrz693/blEz6NHHnOOb8BhL8gCDElxTVjNPc7bto6npRDEK2CpFftqlz
BjXIaKC5xgrJqNxRiX9hm+fd9IwX
-----END CERTIFICATE-----
