Certificate:
    Data:
        Version: 3 (0x2)
        Serial Number:
            91:e5:32:91:f2:6e:ab:92
    Signature Algorithm: sha256WithRSAEncryption
        Issuer: C=US, ST=California, L=Santa Clara, O=pkg5, OU=ta6, CN=localhost/emailAddress=ta6
        Validity
            Not Before: Nov 16 10:58:51 2017 GMT
            Not After : Aug 12 10:58:51 2020 GMT
        Subject: C=US, ST=California, L=Santa Clara, O=pkg5, OU=ta6, CN=localhost/emailAddress=ta6
        Subject Public Key Info:
            Public Key Algorithm: rsaEncryption
                Public-Key: (2048 bit)
                Modulus:
                    00:c5:ea:be:8d:08:c4:53:13:3f:f1:03:7a:28:51:
                    d2:74:9a:93:38:23:2d:ad:8b:87:06:34:46:1e:92:
                    ac:7f:07:f6:04:a9:56:ce:74:89:7d:8c:27:07:b0:
                    46:65:64:7d:63:f9:08:d9:2a:f9:8c:f0:9a:e7:27:
                    35:7a:92:a6:f3:14:41:5c:6a:75:1a:2d:96:18:79:
                    4a:89:62:f7:1b:46:e4:0a:db:69:44:1e:44:9b:be:
                    ba:0b:8e:d9:88:ed:78:2f:9b:51:f3:2a:bd:a0:3e:
                    56:73:c3:9b:5a:3d:c1:6b:6c:ce:11:bd:72:39:bf:
                    3e:b1:d9:78:85:3d:1a:2f:e3:3d:1a:e0:54:e4:7e:
                    29:f9:d0:9b:c3:71:55:cd:f6:33:eb:df:06:ae:4f:
                    01:4d:d7:a5:42:d3:b4:2c:2b:0d:92:a4:6a:e4:a1:
                    41:72:1a:a4:1c:14:17:ca:61:6c:da:9a:5e:89:d1:
                    f5:90:6e:07:e6:ac:bd:d9:3b:4c:94:d7:59:17:83:
                    f5:8a:77:67:3f:bf:8e:30:08:75:f5:46:f1:25:e6:
                    6c:d1:09:f7:ba:ed:e2:41:bd:99:c7:f9:5d:a9:e9:
                    f2:89:b1:81:5d:02:e6:b7:86:21:88:e6:2b:f2:c4:
                    dc:9b:5c:03:ca:f2:c2:13:47:de:a9:27:c5:52:63:
                    1d:41
                Exponent: 65537 (0x10001)
        X509v3 extensions:
            X509v3 Subject Key Identifier: 
                82:44:A1:80:EE:EB:99:BD:36:74:41:8A:E8:C4:F7:BB:6A:F7:7D:49
            X509v3 Authority Key Identifier: 
                keyid:82:44:A1:80:EE:EB:99:BD:36:74:41:8A:E8:C4:F7:BB:6A:F7:7D:49

            X509v3 Basic Constraints: 
                CA:TRUE
    Signature Algorithm: sha256WithRSAEncryption
         7b:f5:15:9b:06:b2:54:78:e6:56:4d:4e:d6:fa:4c:56:76:32:
         f9:22:81:16:41:3d:02:f8:85:cb:99:d6:4c:df:7c:32:7d:10:
         7f:03:32:3c:a7:85:d5:8a:74:9e:40:d4:f0:80:fe:c5:77:54:
         46:07:36:e1:90:65:54:e3:4f:0f:2c:c6:03:a5:cd:9c:5d:f3:
         25:4a:15:dc:cc:2f:5a:d4:5a:fd:12:62:e9:1d:7f:77:6b:37:
         0f:fb:2b:7e:95:d6:0d:e7:c7:a9:32:da:13:11:9f:b5:06:66:
         e2:76:1b:e0:4a:a4:09:43:28:dc:64:b2:b4:d4:9f:f2:71:2b:
         a3:51:f0:26:23:be:76:33:aa:6a:2a:55:14:a4:af:84:63:64:
         54:11:28:32:50:31:cd:dd:c4:3b:16:96:06:dd:d9:03:d4:a6:
         7b:f0:5b:36:80:22:3e:eb:80:5b:b3:7d:0c:30:3d:7c:6d:5b:
         d4:ec:8d:ea:e0:df:a2:38:a5:dc:90:cf:00:4e:fb:58:0e:5d:
         32:c9:69:ac:5a:69:f1:3b:0f:5c:50:d1:18:3d:5d:98:0c:90:
         5c:5f:94:f8:bf:7f:ef:19:f4:9c:8d:f6:a9:df:83:ec:49:0c:
         e7:a3:35:4a:74:5f:51:47:88:eb:ea:6a:da:8f:aa:65:7e:4d:
         d0:78:2f:18
-----BEGIN CERTIFICATE-----
MIIDzTCCArWgAwIBAgIJAJHlMpHybquSMA0GCSqGSIb3DQEBCwUAMH0xCzAJBgNV
BAYTAlVTMRMwEQYDVQQIDApDYWxpZm9ybmlhMRQwEgYDVQQHDAtTYW50YSBDbGFy
YTENMAsGA1UECgwEcGtnNTEMMAoGA1UECwwDdGE2MRIwEAYDVQQDDAlsb2NhbGhv
c3QxEjAQBgkqhkiG9w0BCQEWA3RhNjAeFw0xNzExMTYxMDU4NTFaFw0yMDA4MTIx
MDU4NTFaMH0xCzAJBgNVBAYTAlVTMRMwEQYDVQQIDApDYWxpZm9ybmlhMRQwEgYD
VQQHDAtTYW50YSBDbGFyYTENMAsGA1UECgwEcGtnNTEMMAoGA1UECwwDdGE2MRIw
EAYDVQQDDAlsb2NhbGhvc3QxEjAQBgkqhkiG9w0BCQEWA3RhNjCCASIwDQYJKoZI
hvcNAQEBBQADggEPADCCAQoCggEBAMXqvo0IxFMTP/EDeihR0nSakzgjLa2LhwY0
Rh6SrH8H9gSpVs50iX2MJwewRmVkfWP5CNkq+YzwmucnNXqSpvMUQVxqdRotlhh5
Soli9xtG5ArbaUQeRJu+uguO2YjteC+bUfMqvaA+VnPDm1o9wWtszhG9cjm/PrHZ
eIU9Gi/jPRrgVOR+KfnQm8NxVc32M+vfBq5PAU3XpULTtCwrDZKkauShQXIapBwU
F8phbNqaXonR9ZBuB+asvdk7TJTXWReD9Yp3Zz+/jjAIdfVG8SXmbNEJ97rt4kG9
mcf5Xanp8omxgV0C5reGIYjmK/LE3JtcA8rywhNH3qknxVJjHUECAwEAAaNQME4w
HQYDVR0OBBYEFIJEoYDu65m9NnRBiujE97tq931JMB8GA1UdIwQYMBaAFIJEoYDu
65m9NnRBiujE97tq931JMAwGA1UdEwQFMAMBAf8wDQYJKoZIhvcNAQELBQADggEB
AHv1FZsGslR45lZNTtb6TFZ2MvkigRZBPQL4hcuZ1kzffDJ9EH8DMjynhdWKdJ5A
1PCA/sV3VEYHNuGQZVTjTw8sxgOlzZxd8yVKFdzML1rUWv0SYukdf3drNw/7K36V
1g3nx6ky2hMRn7UGZuJ2G+BKpAlDKNxksrTUn/JxK6NR8CYjvnYzqmoqVRSkr4Rj
ZFQRKDJQMc3dxDsWlgbd2QPUpnvwWzaAIj7rgFuzfQwwPXxtW9Tsjerg36I4pdyQ
zwBO+1gOXTLJaaxaafE7D1xQ0Rg9XZgMkFxflPi/f+8Z9JyN9qnfg+xJDOejNUp0
X1FHiOvqatqPqmV+TdB4Lxg=
-----END CERTIFICATE-----
Certificate:
    Data:
        Version: 3 (0x2)
        Serial Number:
            bd:e8:95:fd:a2:fd:72:b4
    Signature Algorithm: sha256WithRSAEncryption
        Issuer: C=US, ST=California, L=Santa Clara, O=pkg5, OU=ta8, CN=localhost/emailAddress=ta8
        Validity
            Not Before: Nov 16 10:58:51 2017 GMT
            Not After : Aug 12 10:58:51 2020 GMT
        Subject: C=US, ST=California, L=Santa Clara, O=pkg5, OU=ta8, CN=localhost/emailAddress=ta8
        Subject Public Key Info:
            Public Key Algorithm: rsaEncryption
                Public-Key: (2048 bit)
                Modulus:
                    00:e3:85:98:86:de:2e:bb:f7:8d:0a:4f:4b:51:9b:
                    39:34:16:58:66:f7:02:f6:2e:51:1d:95:2d:10:2f:
                    9c:ab:94:68:40:f3:00:50:a3:54:bd:df:7b:36:d0:
                    bc:34:d6:c0:a0:e7:8d:1c:b2:36:a2:8b:9f:de:d8:
                    82:88:9c:c5:79:d3:de:ba:1f:83:f2:f5:2e:aa:52:
                    f1:05:f6:6f:b0:b4:bd:22:2b:a7:61:8f:94:f2:ee:
                    bb:76:13:d0:1c:d1:df:2f:f7:98:79:8b:66:de:bc:
                    20:ec:52:5a:3e:3b:94:aa:d9:ed:90:9c:52:c0:5d:
                    88:04:77:a1:88:ce:7d:69:a8:68:af:b4:af:b5:05:
                    5c:4e:d7:01:f4:8c:f5:1e:19:95:af:d4:58:ec:f8:
                    e1:05:30:e0:b4:3d:f5:30:1a:2a:45:f5:17:c6:6e:
                    25:c0:6a:38:0b:19:78:b3:b1:22:53:6d:4f:5f:a4:
                    6e:6d:04:88:f1:f2:d5:d5:46:bc:90:49:b0:e3:17:
                    20:48:a9:82:2d:72:06:6a:a7:2c:90:ed:e3:a1:bf:
                    68:26:ab:1b:29:ac:21:8e:c0:cd:f2:f1:7c:d8:ec:
                    10:4e:9b:e8:15:8f:3c:75:63:70:70:b6:cd:87:67:
                    32:8d:c2:df:d4:26:3a:40:71:8d:d4:f1:f7:93:57:
                    1b:4f
                Exponent: 65537 (0x10001)
        X509v3 extensions:
            X509v3 Subject Key Identifier: 
                A5:11:82:C1:55:9D:E8:08:3B:5B:7B:DB:86:A9:D2:72:A8:33:F0:F6
            X509v3 Authority Key Identifier: 
                keyid:A5:11:82:C1:55:9D:E8:08:3B:5B:7B:DB:86:A9:D2:72:A8:33:F0:F6

            X509v3 Basic Constraints: 
                CA:TRUE
    Signature Algorithm: sha256WithRSAEncryption
         62:a2:d1:da:4a:2d:e6:67:70:f8:6a:2c:f1:de:72:ac:65:cd:
         db:7d:47:b6:82:fa:ba:a2:a4:75:38:58:8b:9e:57:97:5a:56:
         9b:72:a6:90:89:81:d2:cf:81:be:fc:d9:d6:57:24:2e:fd:b2:
         42:45:e1:5b:46:ca:a4:f2:50:90:c1:31:7d:35:c4:0c:c3:77:
         00:d3:c3:df:3f:4e:ce:2d:64:30:a6:81:00:56:30:6a:28:0b:
         8c:f1:fe:45:91:62:84:8b:9d:18:98:e1:8e:8d:d1:5e:84:78:
         70:c3:59:f9:32:97:35:8a:f1:b2:9f:db:9c:89:63:bf:6b:0c:
         9b:3a:d6:84:bd:32:98:87:9e:82:39:a9:4c:b9:4b:44:c8:53:
         18:45:50:a3:1b:40:0d:c7:c1:cc:37:96:c3:64:6e:0c:3e:a7:
         1b:c4:ff:cc:25:3b:0b:ea:03:44:90:03:30:61:0d:42:1c:90:
         57:64:3b:ca:e3:5d:a5:ca:ab:66:f4:57:82:3f:68:d6:9a:62:
         59:6f:f2:d8:c7:6b:71:90:98:28:5a:52:ef:24:69:19:16:c8:
         dc:a9:7d:07:40:de:55:97:cd:de:31:c2:00:84:a8:92:24:39:
         5c:f7:81:8e:8b:09:1a:57:9c:a9:23:44:c5:bb:2e:7f:fa:7d:
         0c:cb:35:03
-----BEGIN CERTIFICATE-----
MIIDzTCCArWgAwIBAgIJAL3olf2i/XK0MA0GCSqGSIb3DQEBCwUAMH0xCzAJBgNV
BAYTAlVTMRMwEQYDVQQIDApDYWxpZm9ybmlhMRQwEgYDVQQHDAtTYW50YSBDbGFy
YTENMAsGA1UECgwEcGtnNTEMMAoGA1UECwwDdGE4MRIwEAYDVQQDDAlsb2NhbGhv
c3QxEjAQBgkqhkiG9w0BCQEWA3RhODAeFw0xNzExMTYxMDU4NTFaFw0yMDA4MTIx
MDU4NTFaMH0xCzAJBgNVBAYTAlVTMRMwEQYDVQQIDApDYWxpZm9ybmlhMRQwEgYD
VQQHDAtTYW50YSBDbGFyYTENMAsGA1UECgwEcGtnNTEMMAoGA1UECwwDdGE4MRIw
EAYDVQQDDAlsb2NhbGhvc3QxEjAQBgkqhkiG9w0BCQEWA3RhODCCASIwDQYJKoZI
hvcNAQEBBQADggEPADCCAQoCggEBAOOFmIbeLrv3jQpPS1GbOTQWWGb3AvYuUR2V
LRAvnKuUaEDzAFCjVL3fezbQvDTWwKDnjRyyNqKLn97YgoicxXnT3rofg/L1LqpS
8QX2b7C0vSIrp2GPlPLuu3YT0BzR3y/3mHmLZt68IOxSWj47lKrZ7ZCcUsBdiAR3
oYjOfWmoaK+0r7UFXE7XAfSM9R4Zla/UWOz44QUw4LQ99TAaKkX1F8ZuJcBqOAsZ
eLOxIlNtT1+kbm0EiPHy1dVGvJBJsOMXIEipgi1yBmqnLJDt46G/aCarGymsIY7A
zfLxfNjsEE6b6BWPPHVjcHC2zYdnMo3C39QmOkBxjdTx95NXG08CAwEAAaNQME4w
HQYDVR0OBBYEFKURgsFVnegIO1t724ap0nKoM/D2MB8GA1UdIwQYMBaAFKURgsFV
negIO1t724ap0nKoM/D2MAwGA1UdEwQFMAMBAf8wDQYJKoZIhvcNAQELBQADggEB
AGKi0dpKLeZncPhqLPHecqxlzdt9R7aC+rqipHU4WIueV5daVptyppCJgdLPgb78
2dZXJC79skJF4VtGyqTyUJDBMX01xAzDdwDTw98/Ts4tZDCmgQBWMGooC4zx/kWR
YoSLnRiY4Y6N0V6EeHDDWfkylzWK8bKf25yJY79rDJs61oS9MpiHnoI5qUy5S0TI
UxhFUKMbQA3Hwcw3lsNkbgw+pxvE/8wlOwvqA0SQAzBhDUIckFdkO8rjXaXKq2b0
V4I/aNaaYllv8tjHa3GQmChaUu8kaRkWyNypfQdA3lWXzd4xwgCEqJIkOVz3gY6L
CRpXnKkjRMW7Ln/6fQzLNQM=
-----END CERTIFICATE-----
Certificate:
    Data:
        Version: 3 (0x2)
        Serial Number:
            8a:4e:92:4a:21:ee:16:72
    Signature Algorithm: sha256WithRSAEncryption
        Issuer: C=US, ST=California, L=Santa Clara, O=pkg5, OU=ta9, CN=localhost/emailAddress=ta9
        Validity
            Not Before: Nov 16 10:58:52 2017 GMT
            Not After : Aug 12 10:58:52 2020 GMT
        Subject: C=US, ST=California, L=Santa Clara, O=pkg5, OU=ta9, CN=localhost/emailAddress=ta9
        Subject Public Key Info:
            Public Key Algorithm: rsaEncryption
                Public-Key: (2048 bit)
                Modulus:
                    00:b7:e7:f7:85:d3:b9:ea:77:f1:a7:29:aa:96:e2:
                    23:fd:12:ce:32:6c:b6:07:c9:a6:35:03:bd:ce:4f:
                    32:d4:6d:a8:2e:45:49:2f:7c:a5:21:46:85:5c:cd:
                    8e:6a:39:8a:54:20:a2:27:b2:c0:18:94:6d:d5:1e:
                    e0:50:88:f1:7d:d2:d9:ae:2f:f8:90:31:3e:4f:db:
                    1d:b1:4b:8c:1d:5c:b1:d1:b9:0e:ac:08:d5:47:41:
                    a3:e0:ab:90:e8:0e:c2:a0:4a:0b:06:26:6c:f9:23:
                    2c:3b:57:af:eb:f7:cb:8c:2e:ea:72:ac:96:7b:53:
                    34:1d:f8:51:d8:36:6d:18:b3:f5:69:3b:4b:0a:d4:
                    4d:47:7a:bf:a2:39:e2:bf:c5:e8:82:83:32:6b:4a:
                    43:50:c8:f0:92:cc:3b:f0:ab:ee:a8:52:5d:03:d5:
                    26:12:a9:ec:b1:49:0b:bc:e5:57:a2:19:46:bf:b0:
                    1a:c1:1f:8e:e8:88:d4:a9:5b:a7:00:d1:0e:e8:04:
                    84:f9:eb:f2:09:23:8a:18:09:f1:c6:d6:98:34:41:
                    f4:54:75:ac:6e:58:04:2c:2b:eb:6d:79:ad:95:45:
                    32:7b:87:d0:df:9a:fa:c4:76:85:36:b6:38:0e:1e:
                    34:8e:a5:5c:d2:43:10:da:67:4b:2f:38:ae:3c:2b:
                    54:81
                Exponent: 65537 (0x10001)
        X509v3 extensions:
            X509v3 Subject Key Identifier: 
                BA:7D:3E:86:4E:D8:BB:01:01:C6:55:0B:09:5A:3C:D6:70:C4:5C:1A
            X509v3 Authority Key Identifier: 
                keyid:BA:7D:3E:86:4E:D8:BB:01:01:C6:55:0B:09:5A:3C:D6:70:C4:5C:1A

            X509v3 Basic Constraints: 
                CA:TRUE
    Signature Algorithm: sha256WithRSAEncryption
         27:33:b8:02:a8:02:a0:8c:9f:50:e2:17:cb:9f:10:0c:9a:09:
         84:10:a2:74:70:5f:0c:8d:7a:b4:fd:a9:93:8b:15:f2:0e:89:
         1d:55:22:fb:18:ed:cb:c4:69:00:36:48:eb:d7:c8:56:60:86:
         59:ba:35:44:49:84:e6:17:36:41:b5:61:ea:41:86:1d:28:c7:
         07:a6:1c:93:b4:8a:3f:b3:92:dd:c2:ee:46:d3:84:cf:8b:4e:
         ed:9a:14:47:d5:90:a0:d8:b7:83:73:d6:98:69:08:f7:34:56:
         85:7a:f9:c8:f5:fa:e9:18:c3:db:77:87:96:dc:9f:7f:c7:51:
         f3:e4:c3:c7:69:16:00:a8:17:ed:66:ab:39:1d:84:d1:2e:89:
         74:fd:67:20:b1:5d:67:80:79:09:f5:da:98:63:df:1d:a4:90:
         77:c8:df:f8:b3:b3:f8:9b:21:cc:f8:c5:03:92:6d:aa:e9:8f:
         42:eb:96:38:d4:9e:8d:f6:7c:22:79:27:dc:04:7d:72:5f:bc:
         11:dc:ba:25:fa:77:ca:39:ec:41:98:07:4f:a7:3d:bb:24:c9:
         65:a1:4b:87:7a:28:07:32:a1:e2:73:52:ae:69:c2:f0:4e:63:
         3b:de:25:07:e3:c6:c9:15:2c:01:c5:4a:01:c9:8c:dc:f1:ef:
         42:cf:71:70
-----BEGIN CERTIFICATE-----
MIIDzTCCArWgAwIBAgIJAIpOkkoh7hZyMA0GCSqGSIb3DQEBCwUAMH0xCzAJBgNV
BAYTAlVTMRMwEQYDVQQIDApDYWxpZm9ybmlhMRQwEgYDVQQHDAtTYW50YSBDbGFy
YTENMAsGA1UECgwEcGtnNTEMMAoGA1UECwwDdGE5MRIwEAYDVQQDDAlsb2NhbGhv
c3QxEjAQBgkqhkiG9w0BCQEWA3RhOTAeFw0xNzExMTYxMDU4NTJaFw0yMDA4MTIx
MDU4NTJaMH0xCzAJBgNVBAYTAlVTMRMwEQYDVQQIDApDYWxpZm9ybmlhMRQwEgYD
VQQHDAtTYW50YSBDbGFyYTENMAsGA1UECgwEcGtnNTEMMAoGA1UECwwDdGE5MRIw
EAYDVQQDDAlsb2NhbGhvc3QxEjAQBgkqhkiG9w0BCQEWA3RhOTCCASIwDQYJKoZI
hvcNAQEBBQADggEPADCCAQoCggEBALfn94XTuep38acpqpbiI/0SzjJstgfJpjUD
vc5PMtRtqC5FSS98pSFGhVzNjmo5ilQgoieywBiUbdUe4FCI8X3S2a4v+JAxPk/b
HbFLjB1csdG5DqwI1UdBo+CrkOgOwqBKCwYmbPkjLDtXr+v3y4wu6nKslntTNB34
Udg2bRiz9Wk7SwrUTUd6v6I54r/F6IKDMmtKQ1DI8JLMO/Cr7qhSXQPVJhKp7LFJ
C7zlV6IZRr+wGsEfjuiI1KlbpwDRDugEhPnr8gkjihgJ8cbWmDRB9FR1rG5YBCwr
6215rZVFMnuH0N+a+sR2hTa2OA4eNI6lXNJDENpnSy84rjwrVIECAwEAAaNQME4w
HQYDVR0OBBYEFLp9PoZO2LsBAcZVCwlaPNZwxFwaMB8GA1UdIwQYMBaAFLp9PoZO
2LsBAcZVCwlaPNZwxFwaMAwGA1UdEwQFMAMBAf8wDQYJKoZIhvcNAQELBQADggEB
ACczuAKoAqCMn1DiF8ufEAyaCYQQonRwXwyNerT9qZOLFfIOiR1VIvsY7cvEaQA2
SOvXyFZghlm6NURJhOYXNkG1YepBhh0oxwemHJO0ij+zkt3C7kbThM+LTu2aFEfV
kKDYt4Nz1phpCPc0VoV6+cj1+ukYw9t3h5bcn3/HUfPkw8dpFgCoF+1mqzkdhNEu
iXT9ZyCxXWeAeQn12phj3x2kkHfI3/izs/ibIcz4xQOSbarpj0LrljjUno32fCJ5
J9wEfXJfvBHcuiX6d8o57EGYB0+nPbskyWWhS4d6KAcyoeJzUq5pwvBOYzveJQfj
xskVLAHFSgHJjNzx70LPcXA=
-----END CERTIFICATE-----
Certificate:
    Data:
        Version: 3 (0x2)
        Serial Number:
            8e:a9:98:3c:a2:57:37:a0
    Signature Algorithm: sha256WithRSAEncryption
        Issuer: C=US, ST=California, L=Santa Clara, O=pkg5, OU=ta10, CN=localhost/emailAddress=ta10
        Validity
            Not Before: Nov 16 10:58:52 2017 GMT
            Not After : Aug 12 10:58:52 2020 GMT
        Subject: C=US, ST=California, L=Santa Clara, O=pkg5, OU=ta10, CN=localhost/emailAddress=ta10
        Subject Public Key Info:
            Public Key Algorithm: rsaEncryption
                Public-Key: (2048 bit)
                Modulus:
                    00:c9:e8:bb:50:88:c8:c1:e0:2c:1b:19:76:ce:5d:
                    30:08:7e:3d:6f:f5:bf:ca:75:d3:32:b6:c6:57:b7:
                    ec:16:ce:db:2e:6e:b5:c9:ab:4f:1d:c9:8f:98:dd:
                    89:8f:57:f4:fb:0b:e5:03:9a:c2:83:5a:49:7a:bc:
                    5e:3c:18:17:4c:d7:32:81:ee:3a:a3:c6:ff:09:c5:
                    82:18:ea:bb:e4:67:20:2f:52:7f:8e:ff:a9:69:d8:
                    32:97:95:83:1f:9b:87:d7:b9:cc:34:88:72:5d:24:
                    83:da:22:34:d5:d6:cd:f8:0e:7a:03:81:56:2f:b8:
                    62:40:14:ce:2f:50:1e:36:0e:dd:bc:f5:98:92:3a:
                    f0:0b:11:06:35:fc:10:b6:fd:24:93:d9:25:aa:c8:
                    4f:f0:f9:58:28:7e:71:88:50:0f:ea:a9:c7:40:4b:
                    49:23:42:f5:76:03:f3:b8:8b:e8:19:bc:d6:91:6c:
                    6f:54:2d:f6:57:07:e5:6e:ed:13:aa:2e:f7:96:a9:
                    05:54:cf:da:21:8d:5b:a9:15:88:a7:44:85:86:75:
                    ae:5f:a3:e6:cf:57:7a:aa:9f:ee:da:ac:11:bc:c4:
                    8c:45:95:f7:c2:6a:dd:a1:4f:e2:59:fe:3d:04:bf:
                    14:35:24:11:88:28:ce:66:ba:46:df:8f:19:96:52:
                    c0:7b
                Exponent: 65537 (0x10001)
        X509v3 extensions:
            X509v3 Subject Key Identifier: 
                FB:8C:F0:BA:BA:59:AE:28:6C:B5:BB:58:2A:63:20:72:9E:18:B5:68
            X509v3 Authority Key Identifier: 
                keyid:FB:8C:F0:BA:BA:59:AE:28:6C:B5:BB:58:2A:63:20:72:9E:18:B5:68

            X509v3 Basic Constraints: 
                CA:TRUE
    Signature Algorithm: sha256WithRSAEncryption
         29:47:1e:c9:14:15:2a:83:84:3e:f5:3f:de:9c:60:bf:cd:d1:
         a8:26:8a:55:3e:f8:27:57:91:0c:15:87:a2:69:c3:80:92:6c:
         9d:b8:37:50:07:97:43:28:5b:b2:45:3f:fb:bb:04:f9:ed:c6:
         be:b3:25:a4:32:41:5d:86:c8:de:ee:13:a0:b2:8a:c4:20:e4:
         7f:af:e0:2d:06:63:03:d7:57:27:51:7b:88:4d:37:13:57:6b:
         92:59:bd:a2:70:c5:7d:9d:cb:b7:23:f5:fb:e4:ef:aa:3d:30:
         5c:c2:ea:77:6e:8f:fb:f5:22:cb:15:8b:b4:87:49:08:08:ce:
         02:ef:82:8c:4c:29:62:66:f8:7b:83:20:50:c3:05:bd:7d:4b:
         2d:57:9e:4f:23:b3:af:c2:cc:31:5b:01:26:f6:a1:3b:c0:45:
         dc:21:22:83:22:41:7f:08:51:e5:43:93:85:f6:a8:9d:9c:9e:
         4d:dc:ff:02:39:be:e6:83:1e:c5:41:d3:6c:9d:d5:56:8d:84:
         a0:fb:35:01:3b:89:c1:d4:b2:26:b8:80:31:d0:55:23:14:c9:
         37:fd:39:a1:d5:1d:27:d3:46:4c:10:10:0f:0b:15:41:88:25:
         0b:d0:40:dd:ab:86:7f:6e:db:6a:71:26:dd:65:09:fc:69:32:
         1e:c4:db:86
-----BEGIN CERTIFICATE-----
MIID0TCCArmgAwIBAgIJAI6pmDyiVzegMA0GCSqGSIb3DQEBCwUAMH8xCzAJBgNV
BAYTAlVTMRMwEQYDVQQIDApDYWxpZm9ybmlhMRQwEgYDVQQHDAtTYW50YSBDbGFy
YTENMAsGA1UECgwEcGtnNTENMAsGA1UECwwEdGExMDESMBAGA1UEAwwJbG9jYWxo
b3N0MRMwEQYJKoZIhvcNAQkBFgR0YTEwMB4XDTE3MTExNjEwNTg1MloXDTIwMDgx
MjEwNTg1MlowfzELMAkGA1UEBhMCVVMxEzARBgNVBAgMCkNhbGlmb3JuaWExFDAS
BgNVBAcMC1NhbnRhIENsYXJhMQ0wCwYDVQQKDARwa2c1MQ0wCwYDVQQLDAR0YTEw
MRIwEAYDVQQDDAlsb2NhbGhvc3QxEzARBgkqhkiG9w0BCQEWBHRhMTAwggEiMA0G
CSqGSIb3DQEBAQUAA4IBDwAwggEKAoIBAQDJ6LtQiMjB4CwbGXbOXTAIfj1v9b/K
ddMytsZXt+wWztsubrXJq08dyY+Y3YmPV/T7C+UDmsKDWkl6vF48GBdM1zKB7jqj
xv8JxYIY6rvkZyAvUn+O/6lp2DKXlYMfm4fXucw0iHJdJIPaIjTV1s34DnoDgVYv
uGJAFM4vUB42Dt289ZiSOvALEQY1/BC2/SST2SWqyE/w+VgofnGIUA/qqcdAS0kj
QvV2A/O4i+gZvNaRbG9ULfZXB+Vu7ROqLveWqQVUz9ohjVupFYinRIWGda5fo+bP
V3qqn+7arBG8xIxFlffCat2hT+JZ/j0EvxQ1JBGIKM5mukbfjxmWUsB7AgMBAAGj
UDBOMB0GA1UdDgQWBBT7jPC6ulmuKGy1u1gqYyBynhi1aDAfBgNVHSMEGDAWgBT7
jPC6ulmuKGy1u1gqYyBynhi1aDAMBgNVHRMEBTADAQH/MA0GCSqGSIb3DQEBCwUA
A4IBAQApRx7JFBUqg4Q+9T/enGC/zdGoJopVPvgnV5EMFYeiacOAkmyduDdQB5dD
KFuyRT/7uwT57ca+syWkMkFdhsje7hOgsorEIOR/r+AtBmMD11cnUXuITTcTV2uS
Wb2icMV9ncu3I/X75O+qPTBcwup3bo/79SLLFYu0h0kICM4C74KMTCliZvh7gyBQ
wwW9fUstV55PI7OvwswxWwEm9qE7wEXcISKDIkF/CFHlQ5OF9qidnJ5N3P8COb7m
gx7FQdNsndVWjYSg+zUBO4nB1LImuIAx0FUjFMk3/Tmh1R0n00ZMEBAPCxVBiCUL
0EDdq4Z/bttqcSbdZQn8aTIexNuG
-----END CERTIFICATE-----
Certificate:
    Data:
        Version: 3 (0x2)
        Serial Number:
            99:48:67:85:b6:6e:46:d0
    Signature Algorithm: sha256WithRSAEncryption
        Issuer: C=US, ST=California, L=Santa Clara, O=pkg5, OU=ta11, CN=localhost/emailAddress=ta11
        Validity
            Not Before: Nov 16 10:58:52 2017 GMT
            Not After : Aug 12 10:58:52 2020 GMT
        Subject: C=US, ST=California, L=Santa Clara, O=pkg5, OU=ta11, CN=localhost/emailAddress=ta11
        Subject Public Key Info:
            Public Key Algorithm: rsaEncryption
                Public-Key: (2048 bit)
                Modulus:
                    00:d2:f3:41:22:97:fd:19:eb:01:f6:7f:5b:f5:df:
                    f2:4a:ed:7d:d8:3a:d4:8c:5c:2a:43:1f:bd:32:1b:
                    82:92:e5:03:30:50:e5:19:9e:91:43:e2:05:c3:13:
                    51:40:64:bd:b1:42:47:d0:c2:bb:fa:f1:24:da:82:
                    30:aa:b7:0a:c0:84:7b:95:77:a8:e3:96:1f:26:dc:
                    fa:8a:0e:1f:27:91:01:51:92:d6:60:6e:e0:4d:3c:
                    8d:46:e6:37:63:8c:3f:12:17:c2:b4:3e:5d:3d:8c:
                    96:fa:52:1c:be:2a:fd:e7:6e:5e:ca:13:f0:1e:7a:
                    f6:a2:3b:99:1c:38:1b:4b:47:2e:4d:82:44:2e:16:
                    74:e2:24:b5:33:88:fa:90:9e:f0:6e:16:41:e9:b4:
                    16:b9:a9:5e:b9:84:cf:1e:b5:9c:3f:7e:03:22:71:
                    85:00:52:8f:3e:8c:9a:ab:37:ac:61:15:79:bf:82:
                    d0:6d:84:e6:ea:b8:76:32:a2:be:ea:a9:fb:bc:1d:
                    24:f3:66:52:7f:7b:b8:8d:35:6e:a6:57:20:79:7e:
                    d6:37:65:bc:a5:a5:da:80:14:2e:6a:fd:fa:fe:df:
                    08:2c:b0:d5:9f:da:e5:58:0d:a8:dd:4f:23:bd:a9:
                    59:02:f0:18:0d:0a:79:48:1e:ff:c3:6c:1f:e4:ec:
                    1e:f9
                Exponent: 65537 (0x10001)
        X509v3 extensions:
            X509v3 Subject Key Identifier: 
                3F:00:D3:16:52:59:75:37:BF:9C:8D:DC:42:BA:5D:20:F4:3F:60:6F
            X509v3 Authority Key Identifier: 
                keyid:3F:00:D3:16:52:59:75:37:BF:9C:8D:DC:42:BA:5D:20:F4:3F:60:6F

            X509v3 Basic Constraints: 
                CA:TRUE
    Signature Algorithm: sha256WithRSAEncryption
         43:16:ca:04:96:1f:e9:b2:61:e5:c2:7a:5c:c1:ea:7d:f4:6a:
         b0:28:f1:f0:28:9c:67:27:88:89:20:b9:82:6d:a8:ec:b7:94:
         58:62:b5:3a:51:65:f4:12:2f:50:4f:a9:9b:4d:3e:3b:fa:b9:
         27:0f:e7:94:36:61:ad:80:e0:ea:aa:06:79:61:78:1d:f9:d9:
         b1:8a:7a:03:57:75:a6:7f:3c:59:1e:b3:a1:77:b2:5d:2b:a5:
         91:7e:30:3f:e9:3c:bc:dc:75:2d:01:87:69:1a:26:1e:73:57:
         82:72:dc:e5:22:e4:30:c0:43:dc:0b:98:d1:d4:61:b2:67:c7:
         a0:8a:70:2c:62:7e:c1:29:e9:4d:b3:53:d4:fb:78:69:63:f1:
         81:6e:25:11:b6:f2:a8:84:e0:24:4e:b3:bd:03:37:86:bb:63:
         3e:ff:bd:06:12:c2:1a:b6:44:65:c2:2f:46:4f:e5:b5:ad:3e:
         99:f0:c0:30:fd:4e:60:cf:9c:3f:97:a1:d7:d1:eb:21:f0:f0:
         05:d0:5e:4f:80:fe:71:1b:9b:f6:38:d9:2d:05:7c:0a:62:25:
         3d:be:42:10:c5:30:ad:d0:eb:b2:7b:fb:75:50:c2:76:49:7f:
         6f:68:eb:8d:71:d4:58:46:6a:f7:3c:03:46:c4:2d:88:f5:0c:
         b1:32:2e:e0
-----BEGIN CERTIFICATE-----
MIID0TCCArmgAwIBAgIJAJlIZ4W2bkbQMA0GCSqGSIb3DQEBCwUAMH8xCzAJBgNV
BAYTAlVTMRMwEQYDVQQIDApDYWxpZm9ybmlhMRQwEgYDVQQHDAtTYW50YSBDbGFy
YTENMAsGA1UECgwEcGtnNTENMAsGA1UECwwEdGExMTESMBAGA1UEAwwJbG9jYWxo
b3N0MRMwEQYJKoZIhvcNAQkBFgR0YTExMB4XDTE3MTExNjEwNTg1MloXDTIwMDgx
MjEwNTg1MlowfzELMAkGA1UEBhMCVVMxEzARBgNVBAgMCkNhbGlmb3JuaWExFDAS
BgNVBAcMC1NhbnRhIENsYXJhMQ0wCwYDVQQKDARwa2c1MQ0wCwYDVQQLDAR0YTEx
MRIwEAYDVQQDDAlsb2NhbGhvc3QxEzARBgkqhkiG9w0BCQEWBHRhMTEwggEiMA0G
CSqGSIb3DQEBAQUAA4IBDwAwggEKAoIBAQDS80Eil/0Z6wH2f1v13/JK7X3YOtSM
XCpDH70yG4KS5QMwUOUZnpFD4gXDE1FAZL2xQkfQwrv68STagjCqtwrAhHuVd6jj
lh8m3PqKDh8nkQFRktZgbuBNPI1G5jdjjD8SF8K0Pl09jJb6Uhy+Kv3nbl7KE/Ae
evaiO5kcOBtLRy5NgkQuFnTiJLUziPqQnvBuFkHptBa5qV65hM8etZw/fgMicYUA
Uo8+jJqrN6xhFXm/gtBthObquHYyor7qqfu8HSTzZlJ/e7iNNW6mVyB5ftY3Zbyl
pdqAFC5q/fr+3wgssNWf2uVYDajdTyO9qVkC8BgNCnlIHv/DbB/k7B75AgMBAAGj
UDBOMB0GA1UdDgQWBBQ/ANMWUll1N7+cjdxCul0g9D9gbzAfBgNVHSMEGDAWgBQ/
ANMWUll1N7+cjdxCul0g9D9gbzAMBgNVHRMEBTADAQH/MA0GCSqGSIb3DQEBCwUA
A4IBAQBDFsoElh/psmHlwnpcwep99GqwKPHwKJxnJ4iJILmCbajst5RYYrU6UWX0
Ei9QT6mbTT47+rknD+eUNmGtgODqqgZ5YXgd+dmxinoDV3WmfzxZHrOhd7JdK6WR
fjA/6Ty83HUtAYdpGiYec1eCctzlIuQwwEPcC5jR1GGyZ8eginAsYn7BKelNs1PU
+3hpY/GBbiURtvKohOAkTrO9AzeGu2M+/70GEsIatkRlwi9GT+W1rT6Z8MAw/U5g
z5w/l6HX0esh8PAF0F5PgP5xG5v2ONktBXwKYiU9vkIQxTCt0Ouye/t1UMJ2SX9v
aOuNcdRYRmr3PANGxC2I9QyxMi7g
-----END CERTIFICATE-----
