Certificate:
    Data:
        Version: 3 (0x2)
        Serial Number:
            19:d9:c6:2e:73:7d:a3:d4:69:76:e5:13:83:ce:bd:cc:99:f1:cf:1b
        Signature Algorithm: sha256WithRSAEncryption
        Issuer: C=US, ST=California, L=Santa Clara, O=pkg5, OU=ta6, CN=localhost, emailAddress=ta6
        Validity
            Not Before: Nov 14 14:26:58 2024 GMT
            Not After : Aug 11 14:26:58 2027 GMT
        Subject: C=US, ST=California, L=Santa Clara, O=pkg5, OU=ta6, CN=localhost, emailAddress=ta6
        Subject Public Key Info:
            Public Key Algorithm: rsaEncryption
                Public-Key: (2048 bit)
                Modulus:
                    00:d1:7f:39:74:db:0e:0b:74:71:05:01:6d:6a:09:
                    62:87:70:79:bd:80:f1:bb:e3:1a:2a:16:a3:0d:a8:
                    bb:9b:22:6a:9b:e5:c1:51:82:0a:53:dd:f5:f9:5f:
                    e8:11:1f:b0:90:64:5c:30:70:f3:ff:28:00:a3:17:
                    61:6d:96:ca:0d:41:d3:be:ec:09:4d:12:f9:a8:89:
                    80:7d:fd:31:a5:64:ba:6a:8a:9d:52:78:4d:46:04:
                    64:37:4a:e2:ca:bc:b1:5c:f8:69:a8:28:df:ad:8e:
                    73:7e:5b:67:5e:0f:ab:5c:ee:58:3e:2d:2e:2f:85:
                    01:12:d9:c3:9f:c2:ec:8b:ce:dd:4b:d7:e9:48:b7:
                    0a:be:83:8c:a4:a8:eb:56:8d:6a:23:13:ce:0d:41:
                    d7:80:f4:d1:97:f6:dc:41:3a:8c:16:d9:59:85:76:
                    46:bc:19:ad:b2:e0:21:9a:19:22:84:c1:93:59:74:
                    a4:e8:cf:64:d1:9b:0e:b5:7f:0a:fc:48:92:7c:a7:
                    24:c4:48:1f:fe:75:11:df:d7:2e:06:dd:ba:fc:19:
                    38:ca:ad:f4:c3:f2:b9:fd:d6:c8:4c:c2:56:4b:67:
                    80:65:f8:50:bb:05:ca:4a:07:22:c4:95:0b:d5:42:
                    72:3c:13:09:ec:69:a8:69:62:e5:da:33:38:87:84:
                    d5:01
                Exponent: 65537 (0x10001)
        X509v3 extensions:
            X509v3 Subject Key Identifier: 
                7E:28:23:4E:6C:E7:4A:5B:C8:3E:CC:DF:9A:48:28:BE:7E:81:89:D0
            X509v3 Authority Key Identifier: 
                7E:28:23:4E:6C:E7:4A:5B:C8:3E:CC:DF:9A:48:28:BE:7E:81:89:D0
            X509v3 Basic Constraints: critical
                CA:TRUE
    Signature Algorithm: sha256WithRSAEncryption
    Signature Value:
        d0:43:fd:db:bf:b1:10:90:bc:01:cd:18:63:8f:58:6e:6b:fd:
        c0:62:43:5e:82:9a:37:fd:48:7d:1c:2c:b7:0c:85:f7:e1:14:
        47:bd:64:b7:15:e9:a7:34:bf:8a:8f:3f:4d:b9:18:76:ef:82:
        79:1b:ed:9c:f1:b9:7d:7b:3e:24:f8:5c:a6:57:6e:d7:84:68:
        d0:fc:92:73:ac:bc:3a:2b:39:9f:20:1c:61:b8:d4:81:bc:77:
        8f:22:f3:eb:9c:df:37:48:c7:4c:13:0a:4b:33:2f:43:6e:de:
        47:7f:db:c5:28:97:c1:0f:88:32:4f:01:01:fb:43:da:fa:32:
        af:3f:8a:7c:47:cb:96:c3:17:14:b1:2c:35:fd:39:26:a1:64:
        75:e5:48:90:3c:34:ff:65:1a:d2:fa:1e:9e:65:fd:18:6e:cf:
        86:18:4f:1e:3d:c7:21:f0:42:6e:84:10:4a:99:34:9a:51:bf:
        88:80:36:71:a5:20:9f:88:2e:fa:88:aa:ab:53:4a:72:a2:ae:
        98:ed:f2:5e:03:56:78:db:31:32:fa:e8:40:c7:e2:34:d0:a5:
        cd:06:78:7e:5e:28:48:60:1d:72:c8:f9:ea:bb:c3:f7:05:fd:
        bd:0c:27:18:99:31:40:80:ad:d8:5c:5c:69:ec:56:b5:bf:bd:
        ae:25:35:d0
-----BEGIN CERTIFICATE-----
MIID2zCCAsOgAwIBAgIUGdnGLnN9o9RpduUTg869zJnxzxswDQYJKoZIhvcNAQEL
BQAwfTELMAkGA1UEBhMCVVMxEzARBgNVBAgMCkNhbGlmb3JuaWExFDASBgNVBAcM
C1NhbnRhIENsYXJhMQ0wCwYDVQQKDARwa2c1MQwwCgYDVQQLDAN0YTYxEjAQBgNV
BAMMCWxvY2FsaG9zdDESMBAGCSqGSIb3DQEJARYDdGE2MB4XDTI0MTExNDE0MjY1
OFoXDTI3MDgxMTE0MjY1OFowfTELMAkGA1UEBhMCVVMxEzARBgNVBAgMCkNhbGlm
b3JuaWExFDASBgNVBAcMC1NhbnRhIENsYXJhMQ0wCwYDVQQKDARwa2c1MQwwCgYD
VQQLDAN0YTYxEjAQBgNVBAMMCWxvY2FsaG9zdDESMBAGCSqGSIb3DQEJARYDdGE2
MIIBIjANBgkqhkiG9w0BAQEFAAOCAQ8AMIIBCgKCAQEA0X85dNsOC3RxBQFtagli
h3B5vYDxu+MaKhajDai7myJqm+XBUYIKU931+V/oER+wkGRcMHDz/ygAoxdhbZbK
DUHTvuwJTRL5qImAff0xpWS6aoqdUnhNRgRkN0riyryxXPhpqCjfrY5zfltnXg+r
XO5YPi0uL4UBEtnDn8Lsi87dS9fpSLcKvoOMpKjrVo1qIxPODUHXgPTRl/bcQTqM
FtlZhXZGvBmtsuAhmhkihMGTWXSk6M9k0ZsOtX8K/EiSfKckxEgf/nUR39cuBt26
/Bk4yq30w/K5/dbITMJWS2eAZfhQuwXKSgcixJUL1UJyPBMJ7GmoaWLl2jM4h4TV
AQIDAQABo1MwUTAdBgNVHQ4EFgQUfigjTmznSlvIPszfmkgovn6BidAwHwYDVR0j
BBgwFoAUfigjTmznSlvIPszfmkgovn6BidAwDwYDVR0TAQH/BAUwAwEB/zANBgkq
hkiG9w0BAQsFAAOCAQEA0EP927+xEJC8Ac0YY49Ybmv9wGJDXoKaN/1IfRwstwyF
9+EUR71ktxXppzS/io8/TbkYdu+CeRvtnPG5fXs+JPhcpldu14Ro0PySc6y8Ois5
nyAcYbjUgbx3jyLz65zfN0jHTBMKSzMvQ27eR3/bxSiXwQ+IMk8BAftD2voyrz+K
fEfLlsMXFLEsNf05JqFkdeVIkDw0/2Ua0voenmX9GG7PhhhPHj3HIfBCboQQSpk0
mlG/iIA2caUgn4gu+oiqq1NKcqKumO3yXgNWeNsxMvroQMfiNNClzQZ4fl4oSGAd
csj56rvD9wX9vQwnGJkxQICt2FxcaexWtb+9riU10A==
-----END CERTIFICATE-----
Certificate:
    Data:
        Version: 3 (0x2)
        Serial Number:
            50:54:43:e0:36:15:35:10:23:ea:c1:39:58:24:a3:72:d7:e5:f5:d9
        Signature Algorithm: sha256WithRSAEncryption
        Issuer: C=US, ST=California, L=Santa Clara, O=pkg5, OU=ta8, CN=localhost, emailAddress=ta8
        Validity
            Not Before: Nov 14 14:26:58 2024 GMT
            Not After : Aug 11 14:26:58 2027 GMT
        Subject: C=US, ST=California, L=Santa Clara, O=pkg5, OU=ta8, CN=localhost, emailAddress=ta8
        Subject Public Key Info:
            Public Key Algorithm: rsaEncryption
                Public-Key: (2048 bit)
                Modulus:
                    00:ec:f8:73:04:e0:76:5a:a9:30:2c:f2:8e:74:28:
                    68:8d:8b:39:10:9b:b7:be:2f:d2:2b:a2:f2:28:37:
                    77:5a:e5:c8:fe:50:5c:bc:de:60:12:e7:37:6f:9a:
                    12:86:bf:ad:5c:6c:3a:a9:4a:d1:c1:5c:29:25:ec:
                    66:00:ed:b9:75:00:77:c4:09:1f:91:be:c2:df:27:
                    7b:02:13:d6:c8:22:63:ea:fe:de:57:ba:07:52:df:
                    c5:28:ef:ed:33:88:fb:cc:06:d1:16:29:2d:5d:89:
                    53:bc:92:80:b6:22:37:c6:1e:62:72:30:8f:24:b4:
                    8f:1f:b6:38:34:8f:01:a9:f8:09:20:51:35:1a:0f:
                    41:84:99:1a:53:98:da:22:df:c3:53:a3:62:a0:e2:
                    97:03:6a:90:78:b8:fc:54:5f:59:81:1f:e9:0f:96:
                    1e:6f:d5:c1:d7:c1:34:5d:d5:7b:6c:68:05:e8:e9:
                    9d:30:12:16:d3:cc:fc:fa:65:0e:51:b6:2d:47:a2:
                    00:46:07:85:b3:f0:0f:c3:66:21:c3:8d:35:3d:ae:
                    af:22:92:d8:86:b8:67:b7:c0:0d:de:e1:41:2e:13:
                    1c:1b:ac:5a:7c:1c:72:a1:ba:45:a4:a7:b5:aa:f2:
                    c9:96:78:f0:4d:a4:9a:e9:fd:20:c0:60:f4:00:c7:
                    ad:d1
                Exponent: 65537 (0x10001)
        X509v3 extensions:
            X509v3 Subject Key Identifier: 
                E3:10:28:82:9A:2B:55:B9:7E:36:A8:AE:AF:FD:FF:C6:61:C2:F3:80
            X509v3 Authority Key Identifier: 
                E3:10:28:82:9A:2B:55:B9:7E:36:A8:AE:AF:FD:FF:C6:61:C2:F3:80
            X509v3 Basic Constraints: critical
                CA:TRUE
    Signature Algorithm: sha256WithRSAEncryption
    Signature Value:
        4e:28:c5:52:b8:2e:5c:25:f0:c9:be:83:b3:3e:1a:53:bf:a6:
        e6:a8:b8:7a:36:5e:a7:3a:cf:ce:81:96:26:9b:3f:37:f4:52:
        60:67:1d:64:05:fc:5b:6f:2a:04:de:ed:11:6f:68:05:71:22:
        f2:de:d9:6c:90:94:6c:de:ca:26:51:32:1a:08:5b:a7:5d:b5:
        71:d0:ca:0a:a5:ed:b5:83:23:85:cc:ac:0d:f4:ca:76:bd:ce:
        1f:6c:43:50:f7:86:57:b6:cf:a9:1f:a5:ca:1e:9f:40:9d:76:
        d3:5c:aa:1c:8f:0a:e5:cc:c3:00:da:5d:2a:a6:5d:65:5f:8c:
        28:2f:0a:33:86:98:11:9b:f0:08:3f:70:ad:dd:f4:15:48:b7:
        4a:42:54:1e:5b:f8:2d:80:84:7f:42:a0:ba:a5:b7:c6:0d:33:
        35:1e:7a:d3:67:ca:52:a4:61:44:25:69:4a:1c:4b:9c:88:42:
        7b:a4:44:fb:19:4a:ea:96:b9:a3:77:20:2f:7e:39:1c:c0:2f:
        b5:67:c5:c0:95:da:2d:33:49:f9:44:0d:43:87:31:2c:38:c6:
        6b:2a:20:ed:38:ba:c1:42:ff:7f:69:01:0e:4a:ca:69:ac:f4:
        87:93:64:11:ab:e0:53:aa:59:93:bf:15:b7:89:33:a7:a6:5c:
        99:39:97:0b
-----BEGIN CERTIFICATE-----
MIID2zCCAsOgAwIBAgIUUFRD4DYVNRAj6sE5WCSjctfl9dkwDQYJKoZIhvcNAQEL
BQAwfTELMAkGA1UEBhMCVVMxEzARBgNVBAgMCkNhbGlmb3JuaWExFDASBgNVBAcM
C1NhbnRhIENsYXJhMQ0wCwYDVQQKDARwa2c1MQwwCgYDVQQLDAN0YTgxEjAQBgNV
BAMMCWxvY2FsaG9zdDESMBAGCSqGSIb3DQEJARYDdGE4MB4XDTI0MTExNDE0MjY1
OFoXDTI3MDgxMTE0MjY1OFowfTELMAkGA1UEBhMCVVMxEzARBgNVBAgMCkNhbGlm
b3JuaWExFDASBgNVBAcMC1NhbnRhIENsYXJhMQ0wCwYDVQQKDARwa2c1MQwwCgYD
VQQLDAN0YTgxEjAQBgNVBAMMCWxvY2FsaG9zdDESMBAGCSqGSIb3DQEJARYDdGE4
MIIBIjANBgkqhkiG9w0BAQEFAAOCAQ8AMIIBCgKCAQEA7PhzBOB2WqkwLPKOdCho
jYs5EJu3vi/SK6LyKDd3WuXI/lBcvN5gEuc3b5oShr+tXGw6qUrRwVwpJexmAO25
dQB3xAkfkb7C3yd7AhPWyCJj6v7eV7oHUt/FKO/tM4j7zAbRFiktXYlTvJKAtiI3
xh5icjCPJLSPH7Y4NI8BqfgJIFE1Gg9BhJkaU5jaIt/DU6NioOKXA2qQeLj8VF9Z
gR/pD5Yeb9XB18E0XdV7bGgF6OmdMBIW08z8+mUOUbYtR6IARgeFs/APw2Yhw401
Pa6vIpLYhrhnt8AN3uFBLhMcG6xafBxyobpFpKe1qvLJlnjwTaSa6f0gwGD0AMet
0QIDAQABo1MwUTAdBgNVHQ4EFgQU4xAogporVbl+Nqiur/3/xmHC84AwHwYDVR0j
BBgwFoAU4xAogporVbl+Nqiur/3/xmHC84AwDwYDVR0TAQH/BAUwAwEB/zANBgkq
hkiG9w0BAQsFAAOCAQEATijFUrguXCXwyb6Dsz4aU7+m5qi4ejZepzrPzoGWJps/
N/RSYGcdZAX8W28qBN7tEW9oBXEi8t7ZbJCUbN7KJlEyGghbp121cdDKCqXttYMj
hcysDfTKdr3OH2xDUPeGV7bPqR+lyh6fQJ1201yqHI8K5czDANpdKqZdZV+MKC8K
M4aYEZvwCD9wrd30FUi3SkJUHlv4LYCEf0KguqW3xg0zNR5602fKUqRhRCVpShxL
nIhCe6RE+xlK6pa5o3cgL345HMAvtWfFwJXaLTNJ+UQNQ4cxLDjGayog7Ti6wUL/
f2kBDkrKaaz0h5NkEavgU6pZk78Vt4kzp6ZcmTmXCw==
-----END CERTIFICATE-----
Certificate:
    Data:
        Version: 3 (0x2)
        Serial Number:
            57:f0:33:29:67:d0:37:43:20:b1:9c:3a:96:fd:be:b1:b5:ff:39:88
        Signature Algorithm: sha256WithRSAEncryption
        Issuer: C=US, ST=California, L=Santa Clara, O=pkg5, OU=ta9, CN=localhost, emailAddress=ta9
        Validity
            Not Before: Nov 14 14:26:59 2024 GMT
            Not After : Aug 11 14:26:59 2027 GMT
        Subject: C=US, ST=California, L=Santa Clara, O=pkg5, OU=ta9, CN=localhost, emailAddress=ta9
        Subject Public Key Info:
            Public Key Algorithm: rsaEncryption
                Public-Key: (2048 bit)
                Modulus:
                    00:bf:3f:1d:fd:14:3b:de:0d:c1:1e:4c:11:0d:56:
                    89:93:ea:e6:a7:0d:6e:9b:57:21:b5:88:ed:49:08:
                    a7:38:c1:c2:0b:06:ce:c8:4a:02:1a:43:3e:ec:33:
                    4d:6c:ca:b0:a5:63:6d:f0:ba:78:d3:1b:da:25:ca:
                    b3:76:de:22:53:8a:f6:d1:0d:57:1d:bc:3c:1f:d3:
                    c9:3d:c8:fa:1f:9a:93:e0:38:c3:8b:26:ae:67:ee:
                    3c:9b:27:ec:cf:ba:2f:62:d0:7c:39:59:14:b9:36:
                    ca:c6:3d:78:0c:9c:75:6c:3d:bb:a2:3f:bd:84:71:
                    df:f3:2d:03:68:c6:e2:47:52:7d:af:83:ad:e3:c3:
                    98:37:c1:16:6d:a8:3d:57:93:68:b6:83:ee:ee:51:
                    99:25:cf:7d:85:b7:da:36:98:a5:53:c8:c0:64:9a:
                    a4:c7:ac:8d:f7:c8:3c:ba:1a:ca:3a:70:f8:27:51:
                    b5:06:94:d5:6b:20:b5:99:aa:57:44:19:1f:cb:7f:
                    4c:ea:02:81:d8:ec:5c:ee:6f:9a:0d:c2:dd:3d:9a:
                    9c:a0:be:a9:23:16:a3:53:d7:03:b5:2d:7e:c8:b6:
                    2d:f6:99:a7:3b:91:d2:d2:1f:20:76:54:4b:2b:c9:
                    78:0c:e6:08:df:b5:04:c7:48:4a:7c:b5:18:32:36:
                    75:51
                Exponent: 65537 (0x10001)
        X509v3 extensions:
            X509v3 Subject Key Identifier: 
                3A:05:F9:04:EE:10:DA:84:B3:69:85:0E:67:45:8F:27:21:2D:AF:54
            X509v3 Authority Key Identifier: 
                3A:05:F9:04:EE:10:DA:84:B3:69:85:0E:67:45:8F:27:21:2D:AF:54
            X509v3 Basic Constraints: critical
                CA:TRUE
    Signature Algorithm: sha256WithRSAEncryption
    Signature Value:
        90:8f:29:d7:99:b5:39:a0:35:a5:30:b9:4b:6e:cd:8b:9e:53:
        7d:34:ec:df:5f:1f:dd:3f:00:e8:4a:7c:a7:ec:0f:e5:3e:bb:
        df:6a:a9:e3:79:9a:37:e4:e2:4b:ba:f6:07:ed:71:f0:af:25:
        d6:17:85:9d:bd:17:31:9f:3c:73:fb:8f:80:15:de:9a:de:f9:
        cb:0f:21:d7:3d:9d:c9:3c:48:8a:03:31:ab:be:d8:8a:7f:97:
        a8:ce:38:c0:03:c4:d5:0b:15:bf:6c:55:a3:19:eb:9d:2a:2c:
        62:fd:7f:5b:e6:e5:27:e3:9a:87:f4:e1:91:71:d7:c1:38:d0:
        70:64:47:0f:ff:90:74:ca:c5:13:e8:b0:ff:a3:42:68:05:d6:
        6f:88:a2:0c:98:ea:f7:e5:2f:68:4f:96:23:7b:51:2f:fc:48:
        27:be:5a:66:1d:81:46:26:da:91:af:f9:0f:61:eb:4b:e0:e2:
        8a:2c:93:a7:ff:87:bb:aa:37:fb:57:c2:74:aa:0d:5a:e3:4c:
        9d:e2:28:3e:97:50:cd:03:79:46:52:e4:a0:bf:01:d6:d0:b6:
        86:67:65:36:cb:80:e9:4a:35:e1:de:0d:97:94:31:3f:85:88:
        49:8e:42:70:75:20:8e:b8:07:ce:0a:bd:13:ed:52:53:09:46:
        9f:30:f2:f6
-----BEGIN CERTIFICATE-----
MIID2zCCAsOgAwIBAgIUV/AzKWfQN0MgsZw6lv2+sbX/OYgwDQYJKoZIhvcNAQEL
BQAwfTELMAkGA1UEBhMCVVMxEzARBgNVBAgMCkNhbGlmb3JuaWExFDASBgNVBAcM
C1NhbnRhIENsYXJhMQ0wCwYDVQQKDARwa2c1MQwwCgYDVQQLDAN0YTkxEjAQBgNV
BAMMCWxvY2FsaG9zdDESMBAGCSqGSIb3DQEJARYDdGE5MB4XDTI0MTExNDE0MjY1
OVoXDTI3MDgxMTE0MjY1OVowfTELMAkGA1UEBhMCVVMxEzARBgNVBAgMCkNhbGlm
b3JuaWExFDASBgNVBAcMC1NhbnRhIENsYXJhMQ0wCwYDVQQKDARwa2c1MQwwCgYD
VQQLDAN0YTkxEjAQBgNVBAMMCWxvY2FsaG9zdDESMBAGCSqGSIb3DQEJARYDdGE5
MIIBIjANBgkqhkiG9w0BAQEFAAOCAQ8AMIIBCgKCAQEAvz8d/RQ73g3BHkwRDVaJ
k+rmpw1um1chtYjtSQinOMHCCwbOyEoCGkM+7DNNbMqwpWNt8Lp40xvaJcqzdt4i
U4r20Q1XHbw8H9PJPcj6H5qT4DjDiyauZ+48myfsz7ovYtB8OVkUuTbKxj14DJx1
bD27oj+9hHHf8y0DaMbiR1J9r4Ot48OYN8EWbag9V5NotoPu7lGZJc99hbfaNpil
U8jAZJqkx6yN98g8uhrKOnD4J1G1BpTVayC1mapXRBkfy39M6gKB2Oxc7m+aDcLd
PZqcoL6pIxajU9cDtS1+yLYt9pmnO5HS0h8gdlRLK8l4DOYI37UEx0hKfLUYMjZ1
UQIDAQABo1MwUTAdBgNVHQ4EFgQUOgX5BO4Q2oSzaYUOZ0WPJyEtr1QwHwYDVR0j
BBgwFoAUOgX5BO4Q2oSzaYUOZ0WPJyEtr1QwDwYDVR0TAQH/BAUwAwEB/zANBgkq
hkiG9w0BAQsFAAOCAQEAkI8p15m1OaA1pTC5S27Ni55TfTTs318f3T8A6Ep8p+wP
5T6732qp43maN+TiS7r2B+1x8K8l1heFnb0XMZ88c/uPgBXemt75yw8h1z2dyTxI
igMxq77Yin+XqM44wAPE1QsVv2xVoxnrnSosYv1/W+blJ+Oah/ThkXHXwTjQcGRH
D/+QdMrFE+iw/6NCaAXWb4iiDJjq9+UvaE+WI3tRL/xIJ75aZh2BRibaka/5D2Hr
S+DiiiyTp/+Hu6o3+1fCdKoNWuNMneIoPpdQzQN5RlLkoL8B1tC2hmdlNsuA6Uo1
4d4Nl5QxP4WISY5CcHUgjrgHzgq9E+1SUwlGnzDy9g==
-----END CERTIFICATE-----
Certificate:
    Data:
        Version: 3 (0x2)
        Serial Number:
            71:41:11:20:9a:6d:8c:e1:d9:c3:39:57:f6:c3:25:ad:d7:db:eb:85
        Signature Algorithm: sha256WithRSAEncryption
        Issuer: C=US, ST=California, L=Santa Clara, O=pkg5, OU=ta10, CN=localhost, emailAddress=ta10
        Validity
            Not Before: Nov 14 14:26:59 2024 GMT
            Not After : Aug 11 14:26:59 2027 GMT
        Subject: C=US, ST=California, L=Santa Clara, O=pkg5, OU=ta10, CN=localhost, emailAddress=ta10
        Subject Public Key Info:
            Public Key Algorithm: rsaEncryption
                Public-Key: (2048 bit)
                Modulus:
                    00:d9:d3:ee:7a:db:33:40:08:9e:4f:27:0d:98:4f:
                    ef:f8:1e:0f:b5:a6:cf:da:f9:bd:a4:70:e9:5e:b9:
                    d8:08:3a:1f:3a:fa:7b:4b:d1:f6:6f:d1:10:53:81:
                    22:a8:76:93:f2:af:46:2c:f1:8b:d4:3c:21:0f:49:
                    aa:10:0b:f0:5a:69:a1:2a:7d:19:d0:dc:14:37:ca:
                    b6:6e:41:8e:13:6b:f8:15:af:b6:a8:d7:91:0e:28:
                    44:59:7d:a3:ba:b1:2c:09:6e:32:50:c5:fa:d8:22:
                    58:a9:ec:ed:92:52:ba:69:c5:7a:70:75:06:8b:9f:
                    a9:10:de:74:dc:d1:be:09:8f:76:3f:08:eb:b0:14:
                    ab:92:81:b6:8c:1b:c4:7b:21:6b:22:04:0b:5c:b9:
                    af:97:39:e3:a6:9a:2c:71:c6:a9:6f:f6:4f:0b:f5:
                    69:46:97:bb:06:1d:7c:30:bd:9b:d9:80:1f:7d:8b:
                    d5:70:93:49:d0:ae:db:59:d6:fd:b2:74:ee:1e:94:
                    38:7d:54:21:e4:a1:e0:f9:a6:d5:00:de:88:fa:73:
                    5b:00:b5:3a:0b:c5:f6:2c:39:d4:af:8c:bc:4d:dc:
                    b5:51:59:72:5f:2f:da:a0:77:b4:7e:dc:d4:1e:1e:
                    0f:b4:58:ea:6d:bc:c6:06:9c:38:d6:f3:3b:fa:ce:
                    ab:45
                Exponent: 65537 (0x10001)
        X509v3 extensions:
            X509v3 Subject Key Identifier: 
                F8:7C:96:9A:77:BC:2E:9B:C5:09:D4:08:D9:E6:31:2E:98:80:89:46
            X509v3 Authority Key Identifier: 
                F8:7C:96:9A:77:BC:2E:9B:C5:09:D4:08:D9:E6:31:2E:98:80:89:46
            X509v3 Basic Constraints: critical
                CA:TRUE
    Signature Algorithm: sha256WithRSAEncryption
    Signature Value:
        5a:cc:bf:23:89:a9:f2:d8:5b:50:40:42:52:f6:61:42:cc:cb:
        2f:57:d4:f5:4d:83:2b:c2:50:84:fe:7a:69:eb:2d:c2:ec:63:
        ff:8b:bf:2b:c0:19:8a:3b:b7:85:b7:c2:c4:19:9f:c7:2d:8b:
        d7:80:2f:10:79:73:24:9b:8b:34:3f:7b:d6:e5:11:41:83:03:
        77:b4:af:0d:b3:ff:35:fd:a2:d3:3f:2d:c9:c2:83:fe:45:7e:
        75:29:02:a7:47:c1:54:3f:1c:fe:cf:bc:b5:8c:69:4c:83:b2:
        ac:b5:4b:56:62:e6:3c:f1:2e:dd:3b:87:fd:8e:49:2c:cc:38:
        1c:3d:9a:f3:ba:e8:1e:d0:7e:56:29:7b:c5:26:3c:83:5b:e1:
        0d:c1:1d:82:c1:cd:a0:ee:fe:32:93:a5:7c:8a:a8:f9:95:53:
        69:a4:d7:7b:73:12:59:85:b1:26:bf:7b:ad:e4:53:b7:f9:0b:
        94:c1:f5:da:ab:6e:8b:c8:f3:cb:ac:8f:e5:8e:6d:4c:dc:9c:
        a9:ed:e4:81:18:2e:c6:f9:eb:65:c8:36:5d:27:df:d9:12:b0:
        ec:e2:2d:15:49:11:4c:0e:51:9e:d4:40:f6:a6:1e:21:a0:eb:
        7e:e0:a1:b2:e0:d1:e7:00:5c:f7:0d:aa:8f:b3:e6:19:b2:e2:
        e6:56:d6:55
-----BEGIN CERTIFICATE-----
MIID3zCCAsegAwIBAgIUcUERIJptjOHZwzlX9sMlrdfb64UwDQYJKoZIhvcNAQEL
BQAwfzELMAkGA1UEBhMCVVMxEzARBgNVBAgMCkNhbGlmb3JuaWExFDASBgNVBAcM
C1NhbnRhIENsYXJhMQ0wCwYDVQQKDARwa2c1MQ0wCwYDVQQLDAR0YTEwMRIwEAYD
VQQDDAlsb2NhbGhvc3QxEzARBgkqhkiG9w0BCQEWBHRhMTAwHhcNMjQxMTE0MTQy
NjU5WhcNMjcwODExMTQyNjU5WjB/MQswCQYDVQQGEwJVUzETMBEGA1UECAwKQ2Fs
aWZvcm5pYTEUMBIGA1UEBwwLU2FudGEgQ2xhcmExDTALBgNVBAoMBHBrZzUxDTAL
BgNVBAsMBHRhMTAxEjAQBgNVBAMMCWxvY2FsaG9zdDETMBEGCSqGSIb3DQEJARYE
dGExMDCCASIwDQYJKoZIhvcNAQEBBQADggEPADCCAQoCggEBANnT7nrbM0AInk8n
DZhP7/geD7Wmz9r5vaRw6V652Ag6Hzr6e0vR9m/REFOBIqh2k/KvRizxi9Q8IQ9J
qhAL8FppoSp9GdDcFDfKtm5BjhNr+BWvtqjXkQ4oRFl9o7qxLAluMlDF+tgiWKns
7ZJSumnFenB1BoufqRDedNzRvgmPdj8I67AUq5KBtowbxHshayIEC1y5r5c546aa
LHHGqW/2Twv1aUaXuwYdfDC9m9mAH32L1XCTSdCu21nW/bJ07h6UOH1UIeSh4Pmm
1QDeiPpzWwC1OgvF9iw51K+MvE3ctVFZcl8v2qB3tH7c1B4eD7RY6m28xgacONbz
O/rOq0UCAwEAAaNTMFEwHQYDVR0OBBYEFPh8lpp3vC6bxQnUCNnmMS6YgIlGMB8G
A1UdIwQYMBaAFPh8lpp3vC6bxQnUCNnmMS6YgIlGMA8GA1UdEwEB/wQFMAMBAf8w
DQYJKoZIhvcNAQELBQADggEBAFrMvyOJqfLYW1BAQlL2YULMyy9X1PVNgyvCUIT+
emnrLcLsY/+LvyvAGYo7t4W3wsQZn8cti9eALxB5cySbizQ/e9blEUGDA3e0rw2z
/zX9otM/LcnCg/5FfnUpAqdHwVQ/HP7PvLWMaUyDsqy1S1Zi5jzxLt07h/2OSSzM
OBw9mvO66B7QflYpe8UmPINb4Q3BHYLBzaDu/jKTpXyKqPmVU2mk13tzElmFsSa/
e63kU7f5C5TB9dqrbovI88usj+WObUzcnKnt5IEYLsb562XINl0n39kSsOziLRVJ
EUwOUZ7UQPamHiGg637gobLg0ecAXPcNqo+z5hmy4uZW1lU=
-----END CERTIFICATE-----
Certificate:
    Data:
        Version: 3 (0x2)
        Serial Number:
            65:57:6b:d5:3b:88:78:53:ec:dc:7f:43:2e:43:92:f7:48:db:f3:07
        Signature Algorithm: sha256WithRSAEncryption
        Issuer: C=US, ST=California, L=Santa Clara, O=pkg5, OU=ta11, CN=localhost, emailAddress=ta11
        Validity
            Not Before: Nov 14 14:26:59 2024 GMT
            Not After : Aug 11 14:26:59 2027 GMT
        Subject: C=US, ST=California, L=Santa Clara, O=pkg5, OU=ta11, CN=localhost, emailAddress=ta11
        Subject Public Key Info:
            Public Key Algorithm: rsaEncryption
                Public-Key: (2048 bit)
                Modulus:
                    00:d2:9f:81:e3:ff:e7:03:50:de:7f:c0:aa:7e:8e:
                    97:a1:fd:61:f7:25:36:8c:9f:c1:36:48:29:5f:11:
                    2a:ee:52:bf:f4:21:44:4e:19:7d:2d:18:d7:12:a8:
                    b3:97:f9:dd:24:c2:8a:76:9a:aa:c5:3f:23:37:a8:
                    ff:f3:8c:14:79:bf:a2:1c:30:69:f0:00:91:52:03:
                    9e:8e:3d:42:3a:8c:02:1e:35:1e:5f:35:89:84:ac:
                    18:a6:d1:19:f6:60:12:61:e9:38:a7:1b:3e:5a:80:
                    4e:f4:29:1c:40:02:09:eb:95:e5:a5:46:0d:69:11:
                    30:51:76:47:98:bf:0c:43:46:50:c6:fa:dd:fc:1e:
                    8d:2a:5d:aa:2a:00:7a:30:ec:fd:dc:08:3f:b1:84:
                    b6:98:72:39:ea:e9:99:57:19:15:7b:cc:e7:0e:76:
                    6a:54:0d:97:be:9a:b1:5f:ce:d2:20:2a:23:e9:93:
                    35:54:9a:3b:01:23:e1:96:4f:76:a5:ce:e7:01:3d:
                    75:91:e9:a3:31:db:97:03:a8:95:65:c7:ea:5a:0e:
                    fe:2f:af:68:e5:6a:b8:87:28:aa:a7:bf:da:0a:b4:
                    1c:d5:26:58:16:2d:fe:e1:db:74:fa:3e:21:9c:81:
                    ae:0b:a0:90:b1:17:23:5a:eb:62:8e:e8:9f:a9:b0:
                    84:b9
                Exponent: 65537 (0x10001)
        X509v3 extensions:
            X509v3 Subject Key Identifier: 
                79:F2:26:F0:30:39:D6:D9:43:60:6F:CA:41:D8:06:FB:B8:5C:78:30
            X509v3 Authority Key Identifier: 
                79:F2:26:F0:30:39:D6:D9:43:60:6F:CA:41:D8:06:FB:B8:5C:78:30
            X509v3 Basic Constraints: critical
                CA:TRUE
    Signature Algorithm: sha256WithRSAEncryption
    Signature Value:
        84:3f:1d:a0:28:83:54:54:07:ba:2e:2a:5f:f5:e3:a6:82:52:
        8e:54:5a:13:27:bb:35:1a:7a:98:81:13:b2:ad:f6:8b:2b:9a:
        6d:92:ec:40:25:b1:92:8e:1c:a9:fd:7f:63:29:43:e2:2e:3d:
        34:d0:7c:44:5f:a0:ec:66:20:cb:04:06:cf:48:58:7b:5b:c7:
        df:ff:41:fa:c5:6c:2d:1a:29:41:29:22:f3:54:8d:af:57:c8:
        45:ef:ab:ac:56:8d:da:2a:9c:35:85:e2:4b:37:47:b2:27:84:
        54:cc:f8:6b:ce:55:72:5a:9c:36:36:40:ed:fc:20:3f:17:d5:
        66:0d:b0:4e:30:d3:59:d0:07:ab:18:3e:b5:00:b4:32:35:64:
        10:cf:ee:e8:5d:04:76:27:a3:14:a9:aa:79:ed:06:90:47:ae:
        ee:fe:14:ed:f2:13:d2:20:da:86:70:18:d7:4e:fd:cf:09:b8:
        1b:f6:7d:41:73:7e:3e:5d:6f:05:4c:a9:78:c7:6c:32:7c:ed:
        2e:b0:04:24:30:14:fb:9c:7d:18:a5:31:34:77:3e:08:ca:35:
        cc:4e:6a:41:b7:1e:9e:b4:6b:b8:92:76:21:1d:e0:70:ff:32:
        68:1c:03:30:65:af:5f:f3:06:25:a8:25:42:6e:50:52:92:d7:
        de:34:be:b7
-----BEGIN CERTIFICATE-----
MIID3zCCAsegAwIBAgIUZVdr1TuIeFPs3H9DLkOS90jb8wcwDQYJKoZIhvcNAQEL
BQAwfzELMAkGA1UEBhMCVVMxEzARBgNVBAgMCkNhbGlmb3JuaWExFDASBgNVBAcM
C1NhbnRhIENsYXJhMQ0wCwYDVQQKDARwa2c1MQ0wCwYDVQQLDAR0YTExMRIwEAYD
VQQDDAlsb2NhbGhvc3QxEzARBgkqhkiG9w0BCQEWBHRhMTEwHhcNMjQxMTE0MTQy
NjU5WhcNMjcwODExMTQyNjU5WjB/MQswCQYDVQQGEwJVUzETMBEGA1UECAwKQ2Fs
aWZvcm5pYTEUMBIGA1UEBwwLU2FudGEgQ2xhcmExDTALBgNVBAoMBHBrZzUxDTAL
BgNVBAsMBHRhMTExEjAQBgNVBAMMCWxvY2FsaG9zdDETMBEGCSqGSIb3DQEJARYE
dGExMTCCASIwDQYJKoZIhvcNAQEBBQADggEPADCCAQoCggEBANKfgeP/5wNQ3n/A
qn6Ol6H9YfclNoyfwTZIKV8RKu5Sv/QhRE4ZfS0Y1xKos5f53STCinaaqsU/Izeo
//OMFHm/ohwwafAAkVIDno49QjqMAh41Hl81iYSsGKbRGfZgEmHpOKcbPlqATvQp
HEACCeuV5aVGDWkRMFF2R5i/DENGUMb63fwejSpdqioAejDs/dwIP7GEtphyOerp
mVcZFXvM5w52alQNl76asV/O0iAqI+mTNVSaOwEj4ZZPdqXO5wE9dZHpozHblwOo
lWXH6loO/i+vaOVquIcoqqe/2gq0HNUmWBYt/uHbdPo+IZyBrgugkLEXI1rrYo7o
n6mwhLkCAwEAAaNTMFEwHQYDVR0OBBYEFHnyJvAwOdbZQ2BvykHYBvu4XHgwMB8G
A1UdIwQYMBaAFHnyJvAwOdbZQ2BvykHYBvu4XHgwMA8GA1UdEwEB/wQFMAMBAf8w
DQYJKoZIhvcNAQELBQADggEBAIQ/HaAog1RUB7ouKl/146aCUo5UWhMnuzUaepiB
E7Kt9osrmm2S7EAlsZKOHKn9f2MpQ+IuPTTQfERfoOxmIMsEBs9IWHtbx9//QfrF
bC0aKUEpIvNUja9XyEXvq6xWjdoqnDWF4ks3R7InhFTM+GvOVXJanDY2QO38ID8X
1WYNsE4w01nQB6sYPrUAtDI1ZBDP7uhdBHYnoxSpqnntBpBHru7+FO3yE9Ig2oZw
GNdO/c8JuBv2fUFzfj5dbwVMqXjHbDJ87S6wBCQwFPucfRilMTR3PgjKNcxOakG3
Hp60a7iSdiEd4HD/MmgcAzBlr1/zBiWoJUJuUFKS1940vrc=
-----END CERTIFICATE-----
