Certificate:
    Data:
        Version: 3 (0x2)
        Serial Number:
            4a:b0:af:7c:c5:7a:4c:d3:ce:c9:7b:ad:36:6d:63:16:80:38:e6:f1
        Signature Algorithm: sha256WithRSAEncryption
        Issuer: C = US, ST = California, L = Santa Clara, O = pkg5, CN = ta5, emailAddress = ta5
        Validity
            Not Before: Dec 15 15:37:30 2022 GMT
            Not After : Sep 10 15:37:30 2025 GMT
        Subject: C = US, ST = California, L = Santa Clara, O = pkg5, CN = ta5, emailAddress = ta5
        Subject Public Key Info:
            Public Key Algorithm: rsaEncryption
                Public-Key: (2048 bit)
                Modulus:
                    00:8d:80:b9:de:07:c3:5a:a9:2e:55:50:8b:d5:0a:
                    c3:5a:fc:38:ea:01:a0:cc:34:8c:6d:07:a4:11:ec:
                    d6:95:3b:53:7f:84:3e:01:cf:37:3e:02:cf:9b:12:
                    21:14:e7:38:b2:73:82:c4:33:ef:1c:fb:e7:6a:a4:
                    33:1a:70:59:66:33:a0:3e:54:18:35:bb:e1:dc:4e:
                    6a:e8:5c:48:31:5c:15:4d:cb:fc:8b:61:c7:d7:ec:
                    de:b1:a5:a4:e0:b5:79:75:17:34:ba:46:fc:cc:56:
                    f4:06:3f:07:4b:0c:f6:eb:05:1f:72:2d:e7:82:b4:
                    1b:34:bc:b6:1e:0f:22:3f:f7:fc:a2:5a:3b:0e:87:
                    20:df:e2:7a:c8:55:97:c9:49:1f:64:a0:86:af:32:
                    37:33:18:8c:3b:d2:02:1e:cd:27:1e:2d:78:e4:dd:
                    0a:6b:c7:3c:f7:54:ef:b8:86:97:20:56:4d:b0:cf:
                    53:a2:1a:fc:a1:61:ec:cb:b2:15:9a:95:49:83:20:
                    05:a3:cd:98:33:df:4d:35:4a:f2:62:24:38:9d:c1:
                    76:c6:08:85:89:f7:0d:a6:14:e0:6e:c1:82:fb:3b:
                    eb:69:55:2e:60:9c:cc:28:2a:ec:50:37:c5:87:9e:
                    aa:bd:cf:ac:96:fe:11:5c:2c:00:97:ce:dd:d5:05:
                    15:f9
                Exponent: 65537 (0x10001)
        X509v3 extensions:
            X509v3 Subject Key Identifier: 
                91:36:11:B7:86:7E:75:74:39:F5:7F:F3:58:B2:09:77:7F:10:1D:7C
            X509v3 Authority Key Identifier: 
                91:36:11:B7:86:7E:75:74:39:F5:7F:F3:58:B2:09:77:7F:10:1D:7C
            X509v3 Basic Constraints: critical
                CA:TRUE
    Signature Algorithm: sha256WithRSAEncryption
    Signature Value:
        8a:e0:ba:7c:10:41:12:2e:f1:78:75:28:3c:3e:e1:8d:70:07:
        ba:5b:3d:88:71:4f:e1:a7:81:c2:37:2e:31:18:75:9e:91:29:
        80:0d:6e:73:f0:67:b7:4c:51:f5:c3:74:6f:f1:1e:7f:b4:8c:
        42:84:a2:67:fe:4d:fc:4a:6f:b4:44:72:65:05:e9:e7:e3:16:
        f8:5d:00:c4:dd:ee:b9:03:6f:5e:ca:4f:74:b3:e1:2c:40:41:
        67:67:77:3d:5a:10:a8:f8:1a:e3:3c:1b:73:a7:1f:75:01:0c:
        1a:7c:e0:2f:fe:2a:61:7b:d5:09:3d:eb:3f:40:af:ab:9f:9f:
        f3:fa:c0:75:87:fd:bc:92:85:b9:9f:b3:4b:d1:6c:aa:95:e4:
        6a:36:de:31:11:7c:cf:d9:0c:14:72:1e:99:2f:4e:55:57:5e:
        03:de:a8:a1:bb:d7:4a:87:ba:61:30:83:a5:ca:66:80:db:f0:
        23:c5:ee:2d:d2:c2:67:b0:b8:fc:5a:bd:8f:1b:f8:17:f4:60:
        83:93:c1:8f:a7:01:ab:44:52:17:bb:89:71:15:b5:73:ce:d5:
        74:45:37:b6:f1:32:d3:50:10:3b:ec:72:d3:57:63:5e:fa:03:
        a8:2f:47:10:c0:9d:fa:ff:d7:2a:7e:a7:22:e6:6a:a5:83:cf:
        fa:79:a0:89
-----BEGIN CERTIFICATE-----
MIIDszCCApugAwIBAgIUSrCvfMV6TNPOyXutNm1jFoA45vEwDQYJKoZIhvcNAQEL
BQAwaTELMAkGA1UEBhMCVVMxEzARBgNVBAgMCkNhbGlmb3JuaWExFDASBgNVBAcM
C1NhbnRhIENsYXJhMQ0wCwYDVQQKDARwa2c1MQwwCgYDVQQDDAN0YTUxEjAQBgkq
hkiG9w0BCQEWA3RhNTAeFw0yMjEyMTUxNTM3MzBaFw0yNTA5MTAxNTM3MzBaMGkx
CzAJBgNVBAYTAlVTMRMwEQYDVQQIDApDYWxpZm9ybmlhMRQwEgYDVQQHDAtTYW50
YSBDbGFyYTENMAsGA1UECgwEcGtnNTEMMAoGA1UEAwwDdGE1MRIwEAYJKoZIhvcN
AQkBFgN0YTUwggEiMA0GCSqGSIb3DQEBAQUAA4IBDwAwggEKAoIBAQCNgLneB8Na
qS5VUIvVCsNa/DjqAaDMNIxtB6QR7NaVO1N/hD4Bzzc+As+bEiEU5ziyc4LEM+8c
++dqpDMacFlmM6A+VBg1u+HcTmroXEgxXBVNy/yLYcfX7N6xpaTgtXl1FzS6RvzM
VvQGPwdLDPbrBR9yLeeCtBs0vLYeDyI/9/yiWjsOhyDf4nrIVZfJSR9koIavMjcz
GIw70gIezSceLXjk3Qprxzz3VO+4hpcgVk2wz1OiGvyhYezLshWalUmDIAWjzZgz
3001SvJiJDidwXbGCIWJ9w2mFOBuwYL7O+tpVS5gnMwoKuxQN8WHnqq9z6yW/hFc
LACXzt3VBRX5AgMBAAGjUzBRMB0GA1UdDgQWBBSRNhG3hn51dDn1f/NYsgl3fxAd
fDAfBgNVHSMEGDAWgBSRNhG3hn51dDn1f/NYsgl3fxAdfDAPBgNVHRMBAf8EBTAD
AQH/MA0GCSqGSIb3DQEBCwUAA4IBAQCK4Lp8EEESLvF4dSg8PuGNcAe6Wz2IcU/h
p4HCNy4xGHWekSmADW5z8Ge3TFH1w3Rv8R5/tIxChKJn/k38Sm+0RHJlBenn4xb4
XQDE3e65A29eyk90s+EsQEFnZ3c9WhCo+BrjPBtzpx91AQwafOAv/iphe9UJPes/
QK+rn5/z+sB1h/28koW5n7NL0WyqleRqNt4xEXzP2QwUch6ZL05VV14D3qihu9dK
h7phMIOlymaA2/Ajxe4t0sJnsLj8Wr2PG/gX9GCDk8GPpwGrRFIXu4lxFbVzztV0
RTe28TLTUBA77HLTV2Ne+gOoL0cQwJ36/9cqfqci5mqlg8/6eaCJ
-----END CERTIFICATE-----
