Certificate:
    Data:
        Version: 3 (0x2)
        Serial Number:
            4f:0b:e0:a1:ba:e5:6a:ce:9d:28:c8:50:7b:91:31:49:29:38:80:19
        Signature Algorithm: sha256WithRSAEncryption
        Issuer: C = US, ST = California, L = Santa Clara, O = pkg5, CN = ta5, emailAddress = ta5
        Validity
            Not Before: May 23 15:47:21 2024 GMT
            Not After : Feb 17 15:47:21 2027 GMT
        Subject: C = US, ST = California, L = Santa Clara, O = pkg5, CN = ta5, emailAddress = ta5
        Subject Public Key Info:
            Public Key Algorithm: rsaEncryption
                Public-Key: (2048 bit)
                Modulus:
                    00:da:39:1e:58:62:a2:ee:df:93:42:71:36:69:48:
                    22:52:9b:9d:3d:31:9c:7a:dc:9a:bd:75:70:8b:55:
                    6e:23:ff:a5:36:22:66:c0:ba:bb:55:e8:90:c0:76:
                    eb:bd:09:2f:ee:1c:b4:a4:fd:c4:e9:1a:56:ed:41:
                    e0:82:39:2d:17:ac:94:19:80:a2:a5:68:07:f7:17:
                    c8:8a:b0:c9:56:e4:6e:aa:5f:4f:35:c3:b3:8d:22:
                    df:23:e8:cb:c3:81:34:f6:a4:e2:64:a5:e5:f9:f2:
                    f8:79:f2:3f:83:66:5e:4f:7a:d0:b4:7d:ce:e5:ac:
                    96:7d:30:86:a0:d1:ad:ae:94:ab:56:4b:bf:91:ac:
                    bf:a4:59:cb:43:f4:e2:af:e6:37:1e:38:71:4f:82:
                    9d:e8:70:90:01:b7:da:89:a2:6b:f5:f6:d2:47:25:
                    ae:dd:f0:c5:49:50:ed:34:d4:7e:a3:09:d6:95:92:
                    f6:6d:22:85:21:1c:18:60:84:4f:04:42:e5:5f:c3:
                    a3:28:53:25:a0:c5:8c:c9:cc:68:aa:dc:ae:43:97:
                    63:48:1f:cd:c1:20:cd:3c:2d:d6:62:68:74:1a:f1:
                    fa:4a:b0:28:a6:52:c0:3f:f8:21:3d:48:c4:d3:54:
                    00:5b:b6:e0:88:fd:6c:02:ee:12:80:c9:6e:b3:62:
                    ae:cf
                Exponent: 65537 (0x10001)
        X509v3 extensions:
            X509v3 Subject Key Identifier: 
                08:32:47:05:B4:E3:A5:30:CF:31:42:E4:CE:66:D7:32:E2:3D:7F:7F
            X509v3 Authority Key Identifier: 
                08:32:47:05:B4:E3:A5:30:CF:31:42:E4:CE:66:D7:32:E2:3D:7F:7F
            X509v3 Basic Constraints: critical
                CA:TRUE
    Signature Algorithm: sha256WithRSAEncryption
    Signature Value:
        11:a7:27:1c:7d:74:86:88:f9:e6:49:16:9a:d3:6a:dc:15:49:
        3d:ad:23:b3:17:28:f9:76:a8:de:93:74:12:a0:88:87:4f:b6:
        8f:30:ba:52:7c:af:9b:46:63:60:7e:61:19:a5:92:d8:35:2a:
        ae:a6:e8:06:be:23:3b:bd:77:c4:8b:6e:9d:86:d5:28:0e:77:
        f0:4d:0d:0e:3a:54:4b:81:b4:08:dc:8d:8f:91:fe:0e:85:1d:
        ac:5b:2b:8c:6f:e8:fe:5e:53:bd:5f:48:bb:bc:25:f8:9f:c0:
        69:26:23:29:c8:36:78:9a:49:99:af:46:d4:d0:97:63:09:47:
        1b:b2:fc:b3:97:77:4e:6a:9b:96:f9:f9:e4:41:38:a2:29:86:
        bd:e9:43:c4:b4:9d:9f:6c:2d:5c:c2:49:9c:cf:91:6d:8f:cf:
        11:df:ac:cb:b9:6b:48:c9:8e:18:72:e7:22:17:55:86:ed:87:
        40:7c:e0:5c:cf:e6:37:17:71:73:9a:d2:94:bb:45:47:91:01:
        fb:90:6a:a0:05:08:8c:4c:61:5a:ac:c1:94:c9:f8:01:6f:95:
        f2:20:ce:df:b8:75:6e:26:24:0f:68:93:81:28:e0:3e:96:62:
        ef:49:43:1b:bf:8c:a9:b6:69:ff:49:65:ee:ef:11:03:7a:31:
        9a:86:cd:b3
-----BEGIN CERTIFICATE-----
MIIDszCCApugAwIBAgIUTwvgobrlas6dKMhQe5ExSSk4gBkwDQYJKoZIhvcNAQEL
BQAwaTELMAkGA1UEBhMCVVMxEzARBgNVBAgMCkNhbGlmb3JuaWExFDASBgNVBAcM
C1NhbnRhIENsYXJhMQ0wCwYDVQQKDARwa2c1MQwwCgYDVQQDDAN0YTUxEjAQBgkq
hkiG9w0BCQEWA3RhNTAeFw0yNDA1MjMxNTQ3MjFaFw0yNzAyMTcxNTQ3MjFaMGkx
CzAJBgNVBAYTAlVTMRMwEQYDVQQIDApDYWxpZm9ybmlhMRQwEgYDVQQHDAtTYW50
YSBDbGFyYTENMAsGA1UECgwEcGtnNTEMMAoGA1UEAwwDdGE1MRIwEAYJKoZIhvcN
AQkBFgN0YTUwggEiMA0GCSqGSIb3DQEBAQUAA4IBDwAwggEKAoIBAQDaOR5YYqLu
35NCcTZpSCJSm509MZx63Jq9dXCLVW4j/6U2ImbAurtV6JDAduu9CS/uHLSk/cTp
GlbtQeCCOS0XrJQZgKKlaAf3F8iKsMlW5G6qX081w7ONIt8j6MvDgTT2pOJkpeX5
8vh58j+DZl5PetC0fc7lrJZ9MIag0a2ulKtWS7+RrL+kWctD9OKv5jceOHFPgp3o
cJABt9qJomv19tJHJa7d8MVJUO001H6jCdaVkvZtIoUhHBhghE8EQuVfw6MoUyWg
xYzJzGiq3K5Dl2NIH83BIM08LdZiaHQa8fpKsCimUsA/+CE9SMTTVABbtuCI/WwC
7hKAyW6zYq7PAgMBAAGjUzBRMB0GA1UdDgQWBBQIMkcFtOOlMM8xQuTOZtcy4j1/
fzAfBgNVHSMEGDAWgBQIMkcFtOOlMM8xQuTOZtcy4j1/fzAPBgNVHRMBAf8EBTAD
AQH/MA0GCSqGSIb3DQEBCwUAA4IBAQARpyccfXSGiPnmSRaa02rcFUk9rSOzFyj5
dqjek3QSoIiHT7aPMLpSfK+bRmNgfmEZpZLYNSqupugGviM7vXfEi26dhtUoDnfw
TQ0OOlRLgbQI3I2Pkf4OhR2sWyuMb+j+XlO9X0i7vCX4n8BpJiMpyDZ4mkmZr0bU
0JdjCUcbsvyzl3dOapuW+fnkQTiiKYa96UPEtJ2fbC1cwkmcz5Ftj88R36zLuWtI
yY4YcuciF1WG7YdAfOBcz+Y3F3FzmtKUu0VHkQH7kGqgBQiMTGFarMGUyfgBb5Xy
IM7fuHVuJiQPaJOBKOA+lmLvSUMbv4yptmn/SWXu7xEDejGahs2z
-----END CERTIFICATE-----
