Certificate:
    Data:
        Version: 3 (0x2)
        Serial Number:
            36:4b:98:76:0a:5c:42:7b:41:ef:1e:cc:ac:86:03:01:54:49:94:c0
        Signature Algorithm: sha256WithRSAEncryption
        Issuer: C = US, ST = California, L = Santa Clara, O = pkg5, CN = ta5, emailAddress = ta5
        Validity
            Not Before: Oct 24 21:43:13 2023 GMT
            Not After : Jul 20 21:43:13 2026 GMT
        Subject: C = US, ST = California, L = Santa Clara, O = pkg5, CN = ta5, emailAddress = ta5
        Subject Public Key Info:
            Public Key Algorithm: rsaEncryption
                Public-Key: (2048 bit)
                Modulus:
                    00:b9:35:ac:44:b3:3f:f7:87:5a:f6:cb:6f:e7:86:
                    ae:81:e6:6d:65:d0:af:56:f1:ed:0e:6f:3c:68:77:
                    1a:7d:fa:24:02:27:e7:28:b4:e7:af:fc:39:b3:82:
                    bb:3c:af:0e:83:44:91:df:b8:57:97:eb:39:be:a3:
                    0f:e4:08:a1:b7:c4:5a:db:c9:95:d4:9c:2a:13:82:
                    d9:29:ad:56:ec:02:27:a7:c7:22:eb:70:dc:6d:fb:
                    04:e7:4d:52:7b:6f:fc:d3:04:a6:48:b7:ff:30:c6:
                    ea:87:d2:08:e1:e3:53:3a:71:67:ff:70:2e:cf:ef:
                    43:08:4b:8d:5b:db:6e:79:1f:92:8f:b5:62:7a:63:
                    b2:14:16:ac:de:99:1a:86:b3:33:07:77:4f:08:da:
                    78:80:1b:4c:56:47:ba:1b:52:99:5c:5d:4f:ca:3b:
                    15:62:47:37:65:9f:f6:17:4a:41:bc:c5:af:ae:ed:
                    8a:36:b7:c6:44:4f:db:89:26:cf:35:59:28:31:8d:
                    d6:90:4f:53:85:e4:61:78:8c:06:12:41:73:d1:c4:
                    42:3d:94:8c:e8:4a:e1:af:dc:ab:50:51:ef:24:eb:
                    2a:e6:bd:4e:0d:81:b6:45:9b:1a:4b:ee:9d:77:a2:
                    ce:a1:11:36:c2:9d:f6:1c:25:26:32:69:fb:c4:bf:
                    dc:13
                Exponent: 65537 (0x10001)
        X509v3 extensions:
            X509v3 Subject Key Identifier: 
                0A:64:AF:3B:AC:A1:C2:3D:AF:43:F9:33:AE:4D:2F:AE:C4:85:4D:4F
            X509v3 Authority Key Identifier: 
                0A:64:AF:3B:AC:A1:C2:3D:AF:43:F9:33:AE:4D:2F:AE:C4:85:4D:4F
            X509v3 Basic Constraints: critical
                CA:TRUE
    Signature Algorithm: sha256WithRSAEncryption
    Signature Value:
        a0:aa:dd:92:2c:37:44:0c:ff:ae:f6:32:99:7c:67:a9:8e:47:
        84:2d:41:43:18:6e:45:d8:a3:ac:03:4b:54:02:f1:35:86:50:
        16:c2:98:55:8a:29:13:9e:bd:22:1e:3e:ea:8f:54:2d:26:0a:
        93:c7:33:82:22:ce:cf:6f:50:4b:1c:62:81:b8:67:33:58:f8:
        4a:29:fa:f6:81:4c:b9:a1:a2:63:10:26:b1:bf:ec:ff:6b:19:
        85:ba:83:b3:f4:7c:0e:cd:0b:42:0f:7b:21:c9:a9:be:1c:e7:
        f5:26:12:84:6c:bd:3f:3b:e3:35:89:e4:3b:76:44:fb:c6:62:
        81:6f:7e:1d:99:f6:30:60:e2:a5:1b:d7:4e:b4:76:e4:95:ad:
        2a:1a:dc:49:43:3e:3f:92:70:24:eb:2c:34:67:60:bc:71:21:
        4b:1f:10:e7:bb:ed:65:90:a3:9e:3c:08:85:1d:4c:3e:34:e4:
        20:f0:7b:45:01:a3:46:97:57:1e:8c:d7:ba:2d:52:06:6a:d1:
        6d:62:a2:f7:a3:e5:7f:6e:44:54:90:33:cc:31:3c:ec:3e:fe:
        f9:60:a7:3e:bb:bc:23:fc:3c:08:1a:7d:cf:dd:ca:6b:3c:63:
        d5:c0:92:99:a7:fb:ec:5d:57:14:37:29:af:ce:27:1a:f0:94:
        1c:56:1a:86
-----BEGIN CERTIFICATE-----
MIIDszCCApugAwIBAgIUNkuYdgpcQntB7x7MrIYDAVRJlMAwDQYJKoZIhvcNAQEL
BQAwaTELMAkGA1UEBhMCVVMxEzARBgNVBAgMCkNhbGlmb3JuaWExFDASBgNVBAcM
C1NhbnRhIENsYXJhMQ0wCwYDVQQKDARwa2c1MQwwCgYDVQQDDAN0YTUxEjAQBgkq
hkiG9w0BCQEWA3RhNTAeFw0yMzEwMjQyMTQzMTNaFw0yNjA3MjAyMTQzMTNaMGkx
CzAJBgNVBAYTAlVTMRMwEQYDVQQIDApDYWxpZm9ybmlhMRQwEgYDVQQHDAtTYW50
YSBDbGFyYTENMAsGA1UECgwEcGtnNTEMMAoGA1UEAwwDdGE1MRIwEAYJKoZIhvcN
AQkBFgN0YTUwggEiMA0GCSqGSIb3DQEBAQUAA4IBDwAwggEKAoIBAQC5NaxEsz/3
h1r2y2/nhq6B5m1l0K9W8e0Obzxodxp9+iQCJ+cotOev/Dmzgrs8rw6DRJHfuFeX
6zm+ow/kCKG3xFrbyZXUnCoTgtkprVbsAienxyLrcNxt+wTnTVJ7b/zTBKZIt/8w
xuqH0gjh41M6cWf/cC7P70MIS41b2255H5KPtWJ6Y7IUFqzemRqGszMHd08I2niA
G0xWR7obUplcXU/KOxViRzdln/YXSkG8xa+u7Yo2t8ZET9uJJs81WSgxjdaQT1OF
5GF4jAYSQXPRxEI9lIzoSuGv3KtQUe8k6yrmvU4NgbZFmxpL7p13os6hETbCnfYc
JSYyafvEv9wTAgMBAAGjUzBRMB0GA1UdDgQWBBQKZK87rKHCPa9D+TOuTS+uxIVN
TzAfBgNVHSMEGDAWgBQKZK87rKHCPa9D+TOuTS+uxIVNTzAPBgNVHRMBAf8EBTAD
AQH/MA0GCSqGSIb3DQEBCwUAA4IBAQCgqt2SLDdEDP+u9jKZfGepjkeELUFDGG5F
2KOsA0tUAvE1hlAWwphViikTnr0iHj7qj1QtJgqTxzOCIs7Pb1BLHGKBuGczWPhK
Kfr2gUy5oaJjECaxv+z/axmFuoOz9HwOzQtCD3shyam+HOf1JhKEbL0/O+M1ieQ7
dkT7xmKBb34dmfYwYOKlG9dOtHbkla0qGtxJQz4/knAk6yw0Z2C8cSFLHxDnu+1l
kKOePAiFHUw+NOQg8HtFAaNGl1cejNe6LVIGatFtYqL3o+V/bkRUkDPMMTzsPv75
YKc+u7wj/DwIGn3P3cprPGPVwJKZp/vsXVcUNymvzica8JQcVhqG
-----END CERTIFICATE-----
