Certificate:
    Data:
        Version: 3 (0x2)
        Serial Number:
            46:37:ca:5b:9e:9a:2a:a8:1b:f9:39:80:fa:f0:ad:12:e4:5d:e1:5c
        Signature Algorithm: sha256WithRSAEncryption
        Issuer: C=US, ST=California, L=Santa Clara, O=pkg5, CN=ta5, emailAddress=ta5
        Validity
            Not Before: Nov 14 14:26:57 2024 GMT
            Not After : Aug 11 14:26:57 2027 GMT
        Subject: C=US, ST=California, L=Santa Clara, O=pkg5, CN=ta5, emailAddress=ta5
        Subject Public Key Info:
            Public Key Algorithm: rsaEncryption
                Public-Key: (2048 bit)
                Modulus:
                    00:a3:0a:6d:80:0a:eb:80:51:f9:22:1a:58:91:7c:
                    41:0e:ad:17:33:c4:f9:44:01:c7:d5:e3:d6:2c:bb:
                    31:fd:d4:4d:2b:b9:1c:6d:24:6c:54:9f:7d:3b:c0:
                    38:03:f5:63:fc:5b:e2:88:56:aa:a4:56:61:5f:35:
                    96:46:07:25:f0:b2:50:52:e3:24:45:d6:16:42:5c:
                    98:ad:a7:e7:33:a6:00:42:0e:6c:d9:77:75:f7:45:
                    ce:0e:ce:e7:13:9b:9b:aa:bb:23:72:0a:ad:36:6b:
                    63:a7:f1:42:00:58:35:54:9a:d4:09:cc:a2:c3:8b:
                    09:83:9b:fc:80:f8:4c:ef:cc:25:19:41:72:91:30:
                    99:50:73:c2:5d:56:a8:7d:d6:22:b9:f5:58:1c:d8:
                    d7:ba:28:78:c4:28:83:5a:dd:05:58:b3:bd:41:f5:
                    d6:18:6e:6e:e1:13:f4:25:2f:b3:12:8f:7e:e0:66:
                    fe:00:b9:b1:45:1f:f8:84:8a:1f:37:70:d2:2f:fa:
                    4e:3a:4d:14:5c:b2:8c:16:9a:be:ab:6a:3f:29:1b:
                    f1:57:11:d3:d3:2a:67:6d:61:8e:16:52:3b:20:1f:
                    ec:6e:e6:00:e1:90:90:5a:a2:1d:dc:ce:e7:2c:dd:
                    fe:48:b9:8d:2c:1b:3a:20:7d:22:9d:72:27:79:e2:
                    1f:81
                Exponent: 65537 (0x10001)
        X509v3 extensions:
            X509v3 Subject Key Identifier: 
                2B:83:48:57:08:41:30:49:47:74:8B:A4:64:BE:3B:6E:EE:0B:91:88
            X509v3 Authority Key Identifier: 
                2B:83:48:57:08:41:30:49:47:74:8B:A4:64:BE:3B:6E:EE:0B:91:88
            X509v3 Basic Constraints: critical
                CA:TRUE
    Signature Algorithm: sha256WithRSAEncryption
    Signature Value:
        05:21:cc:fa:01:b8:5c:78:fa:d1:b9:25:2c:72:ec:3b:bc:74:
        19:e3:4e:d0:e4:25:47:bb:a2:80:ff:b8:33:72:a6:23:26:1a:
        78:42:da:aa:07:30:07:f9:b9:58:6a:37:a5:f8:cc:f5:5a:f9:
        39:a9:76:bb:da:a6:a4:b0:d3:fa:6f:d7:34:60:76:e9:65:77:
        b6:9d:f6:07:8f:e3:e0:77:6a:5b:91:d9:d6:5e:9d:bf:4c:fb:
        48:6d:0f:4c:d8:a0:cb:6d:0e:91:49:b4:2a:16:c5:18:55:5b:
        06:c6:c2:d8:8d:de:fc:af:55:e9:94:96:a0:23:35:dc:7b:54:
        9e:e5:2b:06:bd:87:01:87:6b:59:a6:99:0a:05:63:b1:ed:f0:
        a8:c8:48:8b:f7:22:49:ea:2d:20:a4:74:75:a2:75:4c:60:bf:
        92:5e:15:3b:cd:39:db:12:d3:1b:8e:05:7e:a9:fd:20:1d:31:
        b2:59:00:79:a8:25:11:8c:93:12:c1:6c:8d:9e:7e:74:de:90:
        22:8d:c4:ca:a2:07:a5:88:6b:a8:46:45:d9:89:ee:23:a1:6b:
        e6:ba:a9:4d:6e:70:ca:73:ef:db:5f:2a:1e:d1:cf:00:8a:f4:
        4c:e1:40:8d:3a:85:bf:87:67:b5:07:7e:72:11:71:b3:1c:80:
        dc:51:e4:85
-----BEGIN CERTIFICATE-----
MIIDszCCApugAwIBAgIURjfKW56aKqgb+TmA+vCtEuRd4VwwDQYJKoZIhvcNAQEL
BQAwaTELMAkGA1UEBhMCVVMxEzARBgNVBAgMCkNhbGlmb3JuaWExFDASBgNVBAcM
C1NhbnRhIENsYXJhMQ0wCwYDVQQKDARwa2c1MQwwCgYDVQQDDAN0YTUxEjAQBgkq
hkiG9w0BCQEWA3RhNTAeFw0yNDExMTQxNDI2NTdaFw0yNzA4MTExNDI2NTdaMGkx
CzAJBgNVBAYTAlVTMRMwEQYDVQQIDApDYWxpZm9ybmlhMRQwEgYDVQQHDAtTYW50
YSBDbGFyYTENMAsGA1UECgwEcGtnNTEMMAoGA1UEAwwDdGE1MRIwEAYJKoZIhvcN
AQkBFgN0YTUwggEiMA0GCSqGSIb3DQEBAQUAA4IBDwAwggEKAoIBAQCjCm2ACuuA
UfkiGliRfEEOrRczxPlEAcfV49YsuzH91E0ruRxtJGxUn307wDgD9WP8W+KIVqqk
VmFfNZZGByXwslBS4yRF1hZCXJitp+czpgBCDmzZd3X3Rc4OzucTm5uquyNyCq02
a2On8UIAWDVUmtQJzKLDiwmDm/yA+EzvzCUZQXKRMJlQc8JdVqh91iK59Vgc2Ne6
KHjEKINa3QVYs71B9dYYbm7hE/QlL7MSj37gZv4AubFFH/iEih83cNIv+k46TRRc
sowWmr6raj8pG/FXEdPTKmdtYY4WUjsgH+xu5gDhkJBaoh3czucs3f5IuY0sGzog
fSKdcid54h+BAgMBAAGjUzBRMB0GA1UdDgQWBBQrg0hXCEEwSUd0i6Rkvjtu7guR
iDAfBgNVHSMEGDAWgBQrg0hXCEEwSUd0i6Rkvjtu7guRiDAPBgNVHRMBAf8EBTAD
AQH/MA0GCSqGSIb3DQEBCwUAA4IBAQAFIcz6AbhcePrRuSUscuw7vHQZ407Q5CVH
u6KA/7gzcqYjJhp4QtqqBzAH+blYajel+Mz1Wvk5qXa72qaksNP6b9c0YHbpZXe2
nfYHj+Pgd2pbkdnWXp2/TPtIbQ9M2KDLbQ6RSbQqFsUYVVsGxsLYjd78r1XplJag
IzXce1Se5SsGvYcBh2tZppkKBWOx7fCoyEiL9yJJ6i0gpHR1onVMYL+SXhU7zTnb
EtMbjgV+qf0gHTGyWQB5qCURjJMSwWyNnn503pAijcTKogeliGuoRkXZie4joWvm
uqlNbnDKc+/bXyoe0c8AivRM4UCNOoW/h2e1B35yEXGzHIDcUeSF
-----END CERTIFICATE-----
