Certificate:
    Data:
        Version: 3 (0x2)
        Serial Number:
            bb:f4:1e:3f:c5:39:ac:f4
    Signature Algorithm: sha256WithRSAEncryption
        Issuer: C=US, ST=California, L=Santa Clara, O=pkg5, CN=ta5/emailAddress=ta5
        Validity
            Not Before: Mar 20 10:20:55 2018 GMT
            Not After : Dec 14 10:20:55 2020 GMT
        Subject: C=US, ST=California, L=Santa Clara, O=pkg5, CN=ta5/emailAddress=ta5
        Subject Public Key Info:
            Public Key Algorithm: rsaEncryption
                Public-Key: (2048 bit)
                Modulus:
                    00:cf:31:9e:c7:e9:c7:9c:01:30:55:bb:01:81:14:
                    c5:a1:b6:e3:e7:d2:51:99:63:83:79:61:a3:3b:4d:
                    bd:fb:d6:99:ca:28:09:48:e6:51:dc:59:07:78:ba:
                    91:48:e8:1b:de:1e:cf:07:6c:8c:4d:29:55:39:17:
                    7e:b6:20:3b:2d:06:65:3b:d1:18:5e:2c:72:b6:8d:
                    74:6a:7a:7b:1b:94:01:ef:c8:2e:f5:49:05:46:8c:
                    d3:1d:45:64:44:5b:79:02:92:52:c6:90:5e:59:b0:
                    47:da:cc:3a:39:30:f2:bd:34:eb:6e:93:b6:11:e2:
                    47:49:ce:b3:88:64:a0:45:31:4b:f4:7b:8b:7c:3a:
                    5d:c9:31:df:17:01:ef:29:53:f8:72:f1:7d:eb:4e:
                    43:f7:32:cb:8e:48:21:11:50:9e:15:d4:1e:ae:55:
                    c5:63:64:b6:25:a1:4f:eb:9a:91:0d:95:70:90:83:
                    b0:52:24:1b:98:b0:e2:f9:4b:04:1f:e8:69:5a:06:
                    1c:3a:0c:5f:91:50:26:b1:69:cb:f4:a5:34:b4:b8:
                    ef:7a:0c:21:f0:13:f0:08:5c:4f:f2:1f:17:b6:b7:
                    9d:40:35:b2:ff:1e:42:dc:6c:3d:d9:ee:cc:f8:5f:
                    31:70:b7:18:66:af:10:b0:e8:33:c9:6e:ae:a2:8f:
                    23:df
                Exponent: 65537 (0x10001)
        X509v3 extensions:
            X509v3 Subject Key Identifier: 
                CE:9C:A1:7F:DB:6D:80:E4:8B:FE:52:7E:C8:B3:75:C6:7B:AC:4D:38
            X509v3 Authority Key Identifier: 
                keyid:CE:9C:A1:7F:DB:6D:80:E4:8B:FE:52:7E:C8:B3:75:C6:7B:AC:4D:38

            X509v3 Basic Constraints: 
                CA:TRUE
    Signature Algorithm: sha256WithRSAEncryption
         68:2a:99:97:a1:b1:74:23:3e:78:b4:73:ef:95:df:97:8c:dd:
         33:4e:77:7e:31:c9:42:6f:e2:c6:70:6a:13:1c:94:07:38:f2:
         9e:96:44:18:39:11:15:b0:f4:13:07:eb:46:8f:7a:6e:fe:1f:
         c1:c2:10:2c:9b:ca:e3:02:7b:ff:24:bd:e2:68:17:a5:22:64:
         49:ea:a4:2e:4e:5a:c7:45:fd:c9:1f:ef:03:a8:18:98:97:21:
         f4:57:bd:01:38:e1:cf:8c:bb:a9:9a:ce:a5:fb:c8:dd:46:66:
         2f:77:22:01:0f:58:d6:5b:f6:10:1a:7a:a4:d5:d4:e3:df:55:
         c0:a0:e4:7f:95:bb:88:e4:01:68:fd:ba:70:6b:07:58:b9:69:
         29:3e:40:92:0c:09:8f:a4:0b:92:cc:f0:da:d1:87:2c:8f:18:
         4f:ab:b7:d9:c1:eb:f7:73:f0:3a:54:c8:9f:29:f1:da:ce:b3:
         d7:d6:7b:45:36:68:8a:27:49:8d:7d:20:f7:01:6e:54:bc:4a:
         16:23:4d:92:60:3d:df:f8:f0:43:5b:07:76:ac:0c:40:b9:d9:
         1b:35:ff:29:c0:1d:2c:e6:39:e6:07:03:b0:d3:6e:6f:40:7e:
         a5:f0:ea:73:6e:82:4e:d5:7f:c0:71:28:d8:77:51:cd:22:60:
         fd:fe:6b:84
-----BEGIN CERTIFICATE-----
MIIDpTCCAo2gAwIBAgIJALv0Hj/FOaz0MA0GCSqGSIb3DQEBCwUAMGkxCzAJBgNV
BAYTAlVTMRMwEQYDVQQIDApDYWxpZm9ybmlhMRQwEgYDVQQHDAtTYW50YSBDbGFy
YTENMAsGA1UECgwEcGtnNTEMMAoGA1UEAwwDdGE1MRIwEAYJKoZIhvcNAQkBFgN0
YTUwHhcNMTgwMzIwMTAyMDU1WhcNMjAxMjE0MTAyMDU1WjBpMQswCQYDVQQGEwJV
UzETMBEGA1UECAwKQ2FsaWZvcm5pYTEUMBIGA1UEBwwLU2FudGEgQ2xhcmExDTAL
BgNVBAoMBHBrZzUxDDAKBgNVBAMMA3RhNTESMBAGCSqGSIb3DQEJARYDdGE1MIIB
IjANBgkqhkiG9w0BAQEFAAOCAQ8AMIIBCgKCAQEAzzGex+nHnAEwVbsBgRTFobbj
59JRmWODeWGjO029+9aZyigJSOZR3FkHeLqRSOgb3h7PB2yMTSlVORd+tiA7LQZl
O9EYXixyto10anp7G5QB78gu9UkFRozTHUVkRFt5ApJSxpBeWbBH2sw6OTDyvTTr
bpO2EeJHSc6ziGSgRTFL9HuLfDpdyTHfFwHvKVP4cvF9605D9zLLjkghEVCeFdQe
rlXFY2S2JaFP65qRDZVwkIOwUiQbmLDi+UsEH+hpWgYcOgxfkVAmsWnL9KU0tLjv
egwh8BPwCFxP8h8XtredQDWy/x5C3Gw92e7M+F8xcLcYZq8QsOgzyW6uoo8j3wID
AQABo1AwTjAdBgNVHQ4EFgQUzpyhf9ttgOSL/lJ+yLN1xnusTTgwHwYDVR0jBBgw
FoAUzpyhf9ttgOSL/lJ+yLN1xnusTTgwDAYDVR0TBAUwAwEB/zANBgkqhkiG9w0B
AQsFAAOCAQEAaCqZl6GxdCM+eLRz75Xfl4zdM053fjHJQm/ixnBqExyUBzjynpZE
GDkRFbD0EwfrRo96bv4fwcIQLJvK4wJ7/yS94mgXpSJkSeqkLk5ax0X9yR/vA6gY
mJch9Fe9ATjhz4y7qZrOpfvI3UZmL3ciAQ9Y1lv2EBp6pNXU499VwKDkf5W7iOQB
aP26cGsHWLlpKT5AkgwJj6QLkszw2tGHLI8YT6u32cHr93PwOlTInynx2s6z19Z7
RTZoiidJjX0g9wFuVLxKFiNNkmA93/jwQ1sHdqwMQLnZGzX/KcAdLOY55gcDsNNu
b0B+pfDqc26CTtV/wHEo2HdRzSJg/f5rhA==
-----END CERTIFICATE-----
