Certificate:
    Data:
        Version: 3 (0x2)
        Serial Number:
            1a:52:3c:53:58:f4:14:9c:f4:d2:90:e9:e7:c4:ff:cf:cc:c8:9a:6b
        Signature Algorithm: sha256WithRSAEncryption
        Issuer: C = US, ST = California, L = Santa Clara, O = pkg5, CN = ta5, emailAddress = ta5
        Validity
            Not Before: Nov 17 23:01:33 2020 GMT
            Not After : Aug 14 23:01:33 2023 GMT
        Subject: C = US, ST = California, L = Santa Clara, O = pkg5, CN = ta5, emailAddress = ta5
        Subject Public Key Info:
            Public Key Algorithm: rsaEncryption
                RSA Public-Key: (2048 bit)
                Modulus:
                    00:f7:87:3d:3b:18:9d:e2:aa:fc:33:40:48:9a:0f:
                    6f:c0:05:ba:7f:0f:e2:32:65:3a:63:da:74:c1:ad:
                    52:7c:3d:b7:e9:e6:28:c5:c6:29:9c:26:67:8d:b1:
                    6b:d5:58:83:b8:d8:d8:02:eb:fa:19:26:fc:39:be:
                    b5:79:bf:00:cd:ad:dc:21:a9:bd:fe:e9:ae:e8:42:
                    df:e2:9b:2a:b2:22:03:8f:06:b0:89:32:46:61:6b:
                    ca:96:aa:a0:9e:be:bd:34:c0:7b:6c:35:7f:a9:e3:
                    f5:70:d6:fb:01:34:16:21:2b:c0:a0:66:94:ee:4d:
                    4f:ec:6b:b0:3d:a6:91:f3:e5:c0:09:8e:53:a6:86:
                    2c:5b:2c:71:86:21:6b:bf:58:13:c1:16:d5:12:f8:
                    2c:31:10:6b:12:0b:fb:ae:df:d3:5e:b3:0f:b8:f3:
                    18:e5:cc:f8:90:6a:ee:2e:b7:2c:16:88:a2:ed:3d:
                    62:c9:f1:44:48:ab:06:59:e9:eb:b9:e4:4b:88:ac:
                    e1:aa:e4:ab:df:7d:a2:ad:9d:20:66:5f:11:bd:be:
                    ad:de:55:21:8a:16:fe:4e:a3:a9:22:fd:87:11:fa:
                    8c:a6:e5:89:f8:84:6d:c5:d2:66:c9:43:82:27:16:
                    7d:a3:b8:ef:0d:dd:24:00:44:b2:5b:30:04:8e:1a:
                    3a:27
                Exponent: 65537 (0x10001)
        X509v3 extensions:
            X509v3 Subject Key Identifier: 
                87:66:C3:47:FC:70:11:B7:5C:28:8B:0B:02:3A:17:31:EE:D6:31:E4
            X509v3 Authority Key Identifier: 
                keyid:87:66:C3:47:FC:70:11:B7:5C:28:8B:0B:02:3A:17:31:EE:D6:31:E4

            X509v3 Basic Constraints: critical
                CA:TRUE
    Signature Algorithm: sha256WithRSAEncryption
         de:89:00:a3:3c:5e:c1:ba:7f:a4:c0:a3:0a:fb:ca:ff:fb:e5:
         d8:20:e6:0f:a7:e4:ea:9d:fb:03:ae:4a:05:9e:c8:69:af:7c:
         1a:4e:9f:b7:dd:72:01:f9:2d:39:da:f5:9a:12:29:5f:b6:a4:
         a2:c2:4f:43:48:f4:43:28:d0:2d:11:ac:de:91:08:8e:2a:85:
         35:64:5d:6e:9c:e0:38:99:0c:04:6c:75:19:24:d3:f7:a1:f8:
         21:0b:fe:05:9a:36:eb:da:d0:98:ea:ae:70:72:3a:99:ad:ef:
         26:f6:65:54:1e:eb:e6:45:f0:a2:e2:4f:db:d1:43:47:fe:2c:
         70:c5:a4:10:8e:3a:bb:a2:ad:9c:1b:b6:14:30:cd:56:87:bb:
         af:32:10:e7:80:d2:d8:86:80:9d:0d:5a:bd:6f:a2:89:6b:e5:
         87:87:10:0d:9b:5e:88:41:40:b8:b9:98:f8:69:98:ec:f5:9b:
         49:48:62:2a:2d:86:15:45:d8:c1:12:7e:53:d9:be:4f:51:1a:
         49:a9:17:5c:e4:18:31:c0:cd:f4:c0:78:fa:1f:45:db:e4:cc:
         8c:e5:1c:d6:d1:6f:58:63:e1:cc:65:66:11:fd:6d:a1:7d:ab:
         48:9a:d3:1e:12:5d:29:32:c8:75:04:08:cc:3b:ac:fc:56:11:
         5a:06:8e:72
-----BEGIN CERTIFICATE-----
MIIDszCCApugAwIBAgIUGlI8U1j0FJz00pDp58T/z8zImmswDQYJKoZIhvcNAQEL
BQAwaTELMAkGA1UEBhMCVVMxEzARBgNVBAgMCkNhbGlmb3JuaWExFDASBgNVBAcM
C1NhbnRhIENsYXJhMQ0wCwYDVQQKDARwa2c1MQwwCgYDVQQDDAN0YTUxEjAQBgkq
hkiG9w0BCQEWA3RhNTAeFw0yMDExMTcyMzAxMzNaFw0yMzA4MTQyMzAxMzNaMGkx
CzAJBgNVBAYTAlVTMRMwEQYDVQQIDApDYWxpZm9ybmlhMRQwEgYDVQQHDAtTYW50
YSBDbGFyYTENMAsGA1UECgwEcGtnNTEMMAoGA1UEAwwDdGE1MRIwEAYJKoZIhvcN
AQkBFgN0YTUwggEiMA0GCSqGSIb3DQEBAQUAA4IBDwAwggEKAoIBAQD3hz07GJ3i
qvwzQEiaD2/ABbp/D+IyZTpj2nTBrVJ8Pbfp5ijFximcJmeNsWvVWIO42NgC6/oZ
Jvw5vrV5vwDNrdwhqb3+6a7oQt/imyqyIgOPBrCJMkZha8qWqqCevr00wHtsNX+p
4/Vw1vsBNBYhK8CgZpTuTU/sa7A9ppHz5cAJjlOmhixbLHGGIWu/WBPBFtUS+Cwx
EGsSC/uu39Nesw+48xjlzPiQau4utywWiKLtPWLJ8URIqwZZ6eu55EuIrOGq5Kvf
faKtnSBmXxG9vq3eVSGKFv5Oo6ki/YcR+oym5Yn4hG3F0mbJQ4InFn2juO8N3SQA
RLJbMASOGjonAgMBAAGjUzBRMB0GA1UdDgQWBBSHZsNH/HARt1woiwsCOhcx7tYx
5DAfBgNVHSMEGDAWgBSHZsNH/HARt1woiwsCOhcx7tYx5DAPBgNVHRMBAf8EBTAD
AQH/MA0GCSqGSIb3DQEBCwUAA4IBAQDeiQCjPF7Bun+kwKMK+8r/++XYIOYPp+Tq
nfsDrkoFnshpr3waTp+33XIB+S052vWaEilftqSiwk9DSPRDKNAtEazekQiOKoU1
ZF1unOA4mQwEbHUZJNP3ofghC/4Fmjbr2tCY6q5wcjqZre8m9mVUHuvmRfCi4k/b
0UNH/ixwxaQQjjq7oq2cG7YUMM1Wh7uvMhDngNLYhoCdDVq9b6KJa+WHhxANm16I
QUC4uZj4aZjs9ZtJSGIqLYYVRdjBEn5T2b5PURpJqRdc5BgxwM30wHj6H0Xb5MyM
5RzW0W9YY+HMZWYR/W2hfatImtMeEl0pMsh1BAjMO6z8VhFaBo5y
-----END CERTIFICATE-----
