Certificate:
    Data:
        Version: 3 (0x2)
        Serial Number:
            76:92:a7:ea:5a:47:7c:02:7a:58:30:be:44:2f:1f:84:94:9c:c0:b2
        Signature Algorithm: sha256WithRSAEncryption
        Issuer: C = US, ST = California, L = Santa Clara, O = pkg5, OU = ta8, CN = localhost, emailAddress = ta8
        Validity
            Not Before: Oct 24 21:43:16 2023 GMT
            Not After : Jul 20 21:43:16 2026 GMT
        Subject: C = US, ST = California, L = Santa Clara, O = pkg5, OU = ta8, CN = localhost, emailAddress = ta8
        Subject Public Key Info:
            Public Key Algorithm: rsaEncryption
                Public-Key: (2048 bit)
                Modulus:
                    00:a8:6e:ae:ef:eb:da:d5:4b:1b:c8:b1:a0:d8:b3:
                    33:50:bc:28:a7:cd:7d:bb:e0:c1:56:d4:35:e9:42:
                    af:35:5e:3b:72:35:88:42:ec:88:24:20:74:d0:b4:
                    01:c5:6d:3b:a4:cf:22:2f:b6:f7:6d:aa:90:fe:57:
                    4d:10:b1:d7:fc:8f:dd:31:a3:4b:7b:52:16:d2:f0:
                    38:9b:ef:7d:0b:45:e6:a3:26:8a:af:1c:7b:49:49:
                    9e:8f:b5:fd:21:47:66:7a:30:4f:20:a3:da:c1:f7:
                    3e:62:89:61:82:fc:8d:03:ce:cc:09:57:12:ab:6c:
                    c3:67:27:e8:7a:09:df:e4:72:f7:95:3d:70:be:cc:
                    32:b3:2f:e9:0e:0a:23:b7:9a:45:8c:fd:88:8b:ef:
                    51:57:94:16:e9:7f:f5:3a:76:9b:c0:6e:1f:69:d2:
                    a4:32:17:1a:36:ef:57:00:0e:fc:e1:6c:38:64:3e:
                    ff:13:01:a2:be:f1:cd:74:71:6e:83:86:2d:f3:a1:
                    6b:67:69:4c:f0:09:69:d7:c9:33:4d:2a:a9:bd:70:
                    66:f7:ba:f4:7f:20:21:16:6a:a2:be:a8:d3:0f:0f:
                    7b:77:45:3f:5b:81:61:bc:3d:4d:58:d0:d3:70:fc:
                    67:a0:b9:58:77:87:5f:ed:ff:29:a4:b3:60:9f:82:
                    7b:91
                Exponent: 65537 (0x10001)
        X509v3 extensions:
            X509v3 Subject Key Identifier: 
                48:C6:16:3D:73:3A:9F:8C:D4:93:83:65:4A:96:F9:D3:C3:23:E4:CF
            X509v3 Authority Key Identifier: 
                48:C6:16:3D:73:3A:9F:8C:D4:93:83:65:4A:96:F9:D3:C3:23:E4:CF
            X509v3 Basic Constraints: critical
                CA:TRUE
    Signature Algorithm: sha256WithRSAEncryption
    Signature Value:
        03:8b:7e:da:b5:97:df:b4:13:de:0f:8b:af:e9:ac:c9:b5:08:
        99:6f:09:e2:76:4a:31:5a:d4:57:a5:3a:a4:c2:24:5b:5e:b8:
        14:30:74:24:3e:0a:3f:0d:33:5c:01:10:ea:4d:ef:d2:d9:c1:
        31:c4:a9:5c:ea:49:06:13:03:4f:bd:42:f5:9f:78:4e:e6:1a:
        b5:e5:28:03:26:b4:e9:fd:48:08:92:8d:2f:ef:39:e3:20:d4:
        52:74:66:c9:28:c6:aa:d8:24:6a:39:25:69:32:55:3f:a7:b0:
        fa:43:2f:b1:2a:7c:e0:48:f1:fc:1d:be:7f:52:01:aa:53:80:
        f1:17:fe:66:eb:84:9a:7d:70:de:67:b2:f0:cd:31:98:fe:86:
        2d:e2:17:23:e0:fb:fb:ce:c8:58:06:d2:66:7b:b5:bf:66:15:
        63:db:4d:11:0c:cf:45:9b:f7:ad:c6:4e:9d:16:fa:52:e1:f3:
        fb:31:c6:6b:a9:2a:de:02:94:60:73:75:db:22:c3:77:84:00:
        92:71:e7:44:c2:44:a2:13:d4:ee:ba:be:12:25:66:b5:16:82:
        06:8d:7c:79:60:36:db:df:d0:4b:8d:bd:fb:39:51:68:34:4d:
        41:bc:f8:4b:bc:a0:63:be:a8:7e:45:7b:c4:59:c5:eb:85:73:
        02:4e:21:47
-----BEGIN CERTIFICATE-----
MIID2zCCAsOgAwIBAgIUdpKn6lpHfAJ6WDC+RC8fhJScwLIwDQYJKoZIhvcNAQEL
BQAwfTELMAkGA1UEBhMCVVMxEzARBgNVBAgMCkNhbGlmb3JuaWExFDASBgNVBAcM
C1NhbnRhIENsYXJhMQ0wCwYDVQQKDARwa2c1MQwwCgYDVQQLDAN0YTgxEjAQBgNV
BAMMCWxvY2FsaG9zdDESMBAGCSqGSIb3DQEJARYDdGE4MB4XDTIzMTAyNDIxNDMx
NloXDTI2MDcyMDIxNDMxNlowfTELMAkGA1UEBhMCVVMxEzARBgNVBAgMCkNhbGlm
b3JuaWExFDASBgNVBAcMC1NhbnRhIENsYXJhMQ0wCwYDVQQKDARwa2c1MQwwCgYD
VQQLDAN0YTgxEjAQBgNVBAMMCWxvY2FsaG9zdDESMBAGCSqGSIb3DQEJARYDdGE4
MIIBIjANBgkqhkiG9w0BAQEFAAOCAQ8AMIIBCgKCAQEAqG6u7+va1UsbyLGg2LMz
ULwop819u+DBVtQ16UKvNV47cjWIQuyIJCB00LQBxW07pM8iL7b3baqQ/ldNELHX
/I/dMaNLe1IW0vA4m+99C0XmoyaKrxx7SUmej7X9IUdmejBPIKPawfc+YolhgvyN
A87MCVcSq2zDZyfoegnf5HL3lT1wvswysy/pDgojt5pFjP2Ii+9RV5QW6X/1Onab
wG4fadKkMhcaNu9XAA784Ww4ZD7/EwGivvHNdHFug4Yt86FrZ2lM8Alp18kzTSqp
vXBm97r0fyAhFmqivqjTDw97d0U/W4FhvD1NWNDTcPxnoLlYd4df7f8ppLNgn4J7
kQIDAQABo1MwUTAdBgNVHQ4EFgQUSMYWPXM6n4zUk4NlSpb508Mj5M8wHwYDVR0j
BBgwFoAUSMYWPXM6n4zUk4NlSpb508Mj5M8wDwYDVR0TAQH/BAUwAwEB/zANBgkq
hkiG9w0BAQsFAAOCAQEAA4t+2rWX37QT3g+Lr+msybUImW8J4nZKMVrUV6U6pMIk
W164FDB0JD4KPw0zXAEQ6k3v0tnBMcSpXOpJBhMDT71C9Z94TuYateUoAya06f1I
CJKNL+854yDUUnRmySjGqtgkajklaTJVP6ew+kMvsSp84Ejx/B2+f1IBqlOA8Rf+
ZuuEmn1w3mey8M0xmP6GLeIXI+D7+87IWAbSZnu1v2YVY9tNEQzPRZv3rcZOnRb6
UuHz+zHGa6kq3gKUYHN12yLDd4QAknHnRMJEohPU7rq+EiVmtRaCBo18eWA229/Q
S429+zlRaDRNQbz4S7ygY76ofkV7xFnF64VzAk4hRw==
-----END CERTIFICATE-----
