Certificate:
    Data:
        Version: 3 (0x2)
        Serial Number:
            9a:7a:90:fe:35:30:16:09
    Signature Algorithm: sha256WithRSAEncryption
        Issuer: C=US, ST=California, L=Santa Clara, O=pkg5, OU=ta8, CN=localhost/emailAddress=ta8
        Validity
            Not Before: Mar 20 10:20:56 2018 GMT
            Not After : Dec 14 10:20:56 2020 GMT
        Subject: C=US, ST=California, L=Santa Clara, O=pkg5, OU=ta8, CN=localhost/emailAddress=ta8
        Subject Public Key Info:
            Public Key Algorithm: rsaEncryption
                Public-Key: (2048 bit)
                Modulus:
                    00:d5:3f:62:9c:d3:77:80:b5:1c:70:d1:f6:d1:ed:
                    d8:b5:57:26:a2:6d:a2:5e:0f:46:08:ed:d7:60:75:
                    18:c3:35:95:51:5f:88:45:ad:c4:63:1e:8c:12:bd:
                    9e:92:f6:3c:bb:82:6e:7b:c0:07:8c:35:0b:4f:3c:
                    9b:5c:e8:a2:c7:87:14:58:f6:b8:3f:7b:0f:87:ea:
                    37:14:c7:e1:76:20:cd:cf:68:5c:7f:b4:f7:87:5e:
                    11:91:48:1f:8b:59:e6:c8:9e:7e:a0:e8:f9:c4:99:
                    20:4b:98:b2:84:42:9d:6b:57:35:7e:9e:68:27:bc:
                    4a:0c:8b:64:5e:2a:ab:88:dc:1c:3e:40:24:5f:72:
                    cd:ff:f6:8b:c4:fc:12:d1:77:43:ea:27:e8:5c:39:
                    7b:d8:d1:6d:d0:f5:8e:07:e0:5c:bf:56:26:e1:21:
                    88:1b:8c:7e:2f:67:61:57:e2:39:47:e1:d9:ac:de:
                    5d:e0:51:94:04:c5:52:f1:43:09:9d:a6:cb:e4:01:
                    43:a4:ac:d1:d0:7a:bd:a2:4a:ec:17:07:b9:43:80:
                    bd:08:f6:3e:6d:a0:5d:df:5b:a6:0d:21:c0:58:c1:
                    8b:68:66:20:b7:2b:93:48:10:a0:4a:ac:f8:63:d8:
                    c4:24:41:c9:7a:69:c5:89:8d:d0:64:15:0d:2a:db:
                    0a:8f
                Exponent: 65537 (0x10001)
        X509v3 extensions:
            X509v3 Subject Key Identifier: 
                15:57:68:F9:D7:BF:8F:23:74:F4:CD:5C:2B:EA:43:03:08:DB:85:09
            X509v3 Authority Key Identifier: 
                keyid:15:57:68:F9:D7:BF:8F:23:74:F4:CD:5C:2B:EA:43:03:08:DB:85:09

            X509v3 Basic Constraints: 
                CA:TRUE
    Signature Algorithm: sha256WithRSAEncryption
         ba:b5:5c:c6:54:ee:2b:1f:44:85:08:2b:28:c7:5f:2b:c8:7c:
         b4:03:32:b1:74:9e:80:28:ab:c8:5d:a4:76:7c:ae:ae:fc:3c:
         c0:bb:a0:13:f2:3d:df:d8:02:12:ac:72:0a:1a:d7:ec:a1:c1:
         2f:95:f4:54:f5:a3:eb:a3:4b:5a:64:14:2f:6f:8c:ba:e6:80:
         42:e6:70:96:18:f4:a8:aa:eb:54:94:1d:5b:90:27:c3:38:a3:
         20:af:02:66:d8:aa:ce:9d:5c:ef:ab:7b:b8:e7:97:d2:18:63:
         9e:69:84:69:d5:cb:90:30:df:14:be:11:cf:67:81:c4:ef:95:
         06:56:b8:87:21:8a:6d:3e:2c:f6:ae:8d:dd:70:f4:fe:d9:56:
         be:58:20:60:64:5d:19:90:b1:d6:48:90:9d:44:b3:c4:9b:3c:
         5e:5c:da:35:22:95:c3:cc:3c:77:2c:a7:fe:2d:15:1d:78:4a:
         01:d6:d4:89:15:44:57:7e:3a:1f:ca:5a:6f:31:24:c0:bf:9a:
         c9:de:76:97:b6:36:00:76:6f:bb:2f:0f:b4:bf:70:3a:93:f1:
         87:4b:d8:bf:1d:7e:ec:4d:91:18:6a:b3:66:c0:a0:56:f8:32:
         c3:36:c6:a7:f1:df:73:44:e6:e9:00:71:82:9f:35:5d:c4:13:
         90:0b:6f:5d
-----BEGIN CERTIFICATE-----
MIIDzTCCArWgAwIBAgIJAJp6kP41MBYJMA0GCSqGSIb3DQEBCwUAMH0xCzAJBgNV
BAYTAlVTMRMwEQYDVQQIDApDYWxpZm9ybmlhMRQwEgYDVQQHDAtTYW50YSBDbGFy
YTENMAsGA1UECgwEcGtnNTEMMAoGA1UECwwDdGE4MRIwEAYDVQQDDAlsb2NhbGhv
c3QxEjAQBgkqhkiG9w0BCQEWA3RhODAeFw0xODAzMjAxMDIwNTZaFw0yMDEyMTQx
MDIwNTZaMH0xCzAJBgNVBAYTAlVTMRMwEQYDVQQIDApDYWxpZm9ybmlhMRQwEgYD
VQQHDAtTYW50YSBDbGFyYTENMAsGA1UECgwEcGtnNTEMMAoGA1UECwwDdGE4MRIw
EAYDVQQDDAlsb2NhbGhvc3QxEjAQBgkqhkiG9w0BCQEWA3RhODCCASIwDQYJKoZI
hvcNAQEBBQADggEPADCCAQoCggEBANU/YpzTd4C1HHDR9tHt2LVXJqJtol4PRgjt
12B1GMM1lVFfiEWtxGMejBK9npL2PLuCbnvAB4w1C088m1zooseHFFj2uD97D4fq
NxTH4XYgzc9oXH+094deEZFIH4tZ5siefqDo+cSZIEuYsoRCnWtXNX6eaCe8SgyL
ZF4qq4jcHD5AJF9yzf/2i8T8EtF3Q+on6Fw5e9jRbdD1jgfgXL9WJuEhiBuMfi9n
YVfiOUfh2azeXeBRlATFUvFDCZ2my+QBQ6Ss0dB6vaJK7BcHuUOAvQj2Pm2gXd9b
pg0hwFjBi2hmILcrk0gQoEqs+GPYxCRByXppxYmN0GQVDSrbCo8CAwEAAaNQME4w
HQYDVR0OBBYEFBVXaPnXv48jdPTNXCvqQwMI24UJMB8GA1UdIwQYMBaAFBVXaPnX
v48jdPTNXCvqQwMI24UJMAwGA1UdEwQFMAMBAf8wDQYJKoZIhvcNAQELBQADggEB
ALq1XMZU7isfRIUIKyjHXyvIfLQDMrF0noAoq8hdpHZ8rq78PMC7oBPyPd/YAhKs
cgoa1+yhwS+V9FT1o+ujS1pkFC9vjLrmgELmcJYY9Kiq61SUHVuQJ8M4oyCvAmbY
qs6dXO+re7jnl9IYY55phGnVy5Aw3xS+Ec9ngcTvlQZWuIchim0+LPaujd1w9P7Z
Vr5YIGBkXRmQsdZIkJ1Es8SbPF5c2jUilcPMPHcsp/4tFR14SgHW1IkVRFd+Oh/K
Wm8xJMC/msnedpe2NgB2b7svD7S/cDqT8YdL2L8dfuxNkRhqs2bAoFb4MsM2xqfx
33NE5ukAcYKfNV3EE5ALb10=
-----END CERTIFICATE-----
