Certificate:
    Data:
        Version: 3 (0x2)
        Serial Number:
            59:1c:15:fe:85:5d:84:99:9f:38:61:d9:cb:db:e1:96:db:8e:72:05
        Signature Algorithm: sha256WithRSAEncryption
        Issuer: C = US, ST = California, L = Santa Clara, O = pkg5, OU = ta8, CN = localhost, emailAddress = ta8
        Validity
            Not Before: Nov 17 23:01:34 2020 GMT
            Not After : Aug 14 23:01:34 2023 GMT
        Subject: C = US, ST = California, L = Santa Clara, O = pkg5, OU = ta8, CN = localhost, emailAddress = ta8
        Subject Public Key Info:
            Public Key Algorithm: rsaEncryption
                RSA Public-Key: (2048 bit)
                Modulus:
                    00:c8:1c:9c:19:24:7e:dd:ee:e4:78:22:5f:9b:f8:
                    d9:69:6c:63:9d:87:bd:88:e4:40:c6:a1:cf:d2:3c:
                    66:83:eb:b5:1e:d4:5c:4e:8f:aa:ad:e8:7d:33:a6:
                    c2:01:d6:48:a9:5a:0f:d2:1b:5a:df:85:aa:aa:f9:
                    6f:ae:27:f0:b2:84:92:13:69:13:8a:e0:bb:7c:12:
                    37:a8:5d:44:c8:3d:aa:e4:e1:1a:c6:66:8e:4c:8f:
                    55:1b:7c:30:74:9d:f6:1e:48:e5:a7:4b:ff:7d:97:
                    e6:3d:99:c9:b5:30:e0:a6:6c:11:ba:12:95:09:db:
                    94:c6:b6:c5:95:01:18:8d:76:73:cf:17:fa:b4:c4:
                    45:87:e6:ae:7d:2a:fa:d4:ef:6a:8d:22:7e:0a:d0:
                    d0:c4:cb:6e:37:61:ed:4c:5d:40:ea:6d:48:7c:71:
                    e3:0d:dc:de:c6:ec:69:b1:ac:6a:0e:29:ea:2e:cd:
                    46:92:74:1c:7b:5e:ab:c8:b3:36:7b:ee:87:4d:97:
                    90:85:7f:a7:d5:69:dc:82:33:e0:7a:b3:84:f7:f9:
                    35:81:1a:2d:4f:ea:1c:ce:60:a0:ce:b4:81:0b:62:
                    97:c2:ea:df:85:46:73:32:9b:2b:3f:32:34:9f:73:
                    c9:19:b3:e0:bc:9d:44:6f:9a:bc:6c:25:06:c1:08:
                    3b:87
                Exponent: 65537 (0x10001)
        X509v3 extensions:
            X509v3 Subject Key Identifier: 
                FA:12:1D:47:01:20:EB:55:8A:6B:C0:A0:4B:4E:44:EC:6F:0A:3F:D4
            X509v3 Authority Key Identifier: 
                keyid:FA:12:1D:47:01:20:EB:55:8A:6B:C0:A0:4B:4E:44:EC:6F:0A:3F:D4

            X509v3 Basic Constraints: critical
                CA:TRUE
    Signature Algorithm: sha256WithRSAEncryption
         1c:87:7e:c2:3c:d3:85:b9:46:6c:61:e7:60:50:37:4b:44:1f:
         d5:f3:50:f0:2e:c6:4a:c9:d4:62:ec:69:4d:f0:22:a4:8d:de:
         6f:b0:ca:bc:48:bd:79:44:33:70:78:23:b0:82:30:22:7d:0f:
         e9:35:64:b8:46:e1:bd:73:a7:9f:2e:77:14:b4:5d:73:f6:f0:
         3a:ef:67:89:4f:b2:dc:4d:da:ad:58:18:67:c7:39:d0:01:ae:
         33:8b:79:1c:25:0c:3d:9b:68:6e:a7:44:6b:5d:aa:d0:58:35:
         35:de:62:d8:76:49:39:26:d5:14:3f:7c:55:35:eb:ed:7e:ec:
         62:c6:6d:c1:fa:30:63:f1:12:cd:9c:ef:15:d5:7a:7a:66:30:
         70:55:0f:e2:d2:67:17:2c:bf:ab:91:bd:da:6b:6a:c2:cb:0d:
         70:8a:bf:99:c2:42:ae:0d:6f:4e:10:a0:ac:06:0f:3f:22:9a:
         c1:aa:e8:b1:e0:0d:d6:b1:e8:4e:2e:ee:ea:cc:02:50:b7:97:
         8c:90:7d:a3:f8:2b:9a:db:34:6f:dd:fd:a1:2e:31:24:e9:0e:
         55:99:f7:0f:1c:43:64:1b:55:66:20:d6:7e:f8:a4:37:1c:ad:
         6d:d2:5b:be:1f:67:e6:e7:62:8f:a3:37:b2:48:9a:54:04:0b:
         7d:7e:9f:3d
-----BEGIN CERTIFICATE-----
MIID2zCCAsOgAwIBAgIUWRwV/oVdhJmfOGHZy9vhltuOcgUwDQYJKoZIhvcNAQEL
BQAwfTELMAkGA1UEBhMCVVMxEzARBgNVBAgMCkNhbGlmb3JuaWExFDASBgNVBAcM
C1NhbnRhIENsYXJhMQ0wCwYDVQQKDARwa2c1MQwwCgYDVQQLDAN0YTgxEjAQBgNV
BAMMCWxvY2FsaG9zdDESMBAGCSqGSIb3DQEJARYDdGE4MB4XDTIwMTExNzIzMDEz
NFoXDTIzMDgxNDIzMDEzNFowfTELMAkGA1UEBhMCVVMxEzARBgNVBAgMCkNhbGlm
b3JuaWExFDASBgNVBAcMC1NhbnRhIENsYXJhMQ0wCwYDVQQKDARwa2c1MQwwCgYD
VQQLDAN0YTgxEjAQBgNVBAMMCWxvY2FsaG9zdDESMBAGCSqGSIb3DQEJARYDdGE4
MIIBIjANBgkqhkiG9w0BAQEFAAOCAQ8AMIIBCgKCAQEAyBycGSR+3e7keCJfm/jZ
aWxjnYe9iORAxqHP0jxmg+u1HtRcTo+qreh9M6bCAdZIqVoP0hta34Wqqvlvrifw
soSSE2kTiuC7fBI3qF1EyD2q5OEaxmaOTI9VG3wwdJ32Hkjlp0v/fZfmPZnJtTDg
pmwRuhKVCduUxrbFlQEYjXZzzxf6tMRFh+aufSr61O9qjSJ+CtDQxMtuN2HtTF1A
6m1IfHHjDdzexuxpsaxqDinqLs1GknQce16ryLM2e+6HTZeQhX+n1WncgjPgerOE
9/k1gRotT+oczmCgzrSBC2KXwurfhUZzMpsrPzI0n3PJGbPgvJ1Eb5q8bCUGwQg7
hwIDAQABo1MwUTAdBgNVHQ4EFgQU+hIdRwEg61WKa8CgS05E7G8KP9QwHwYDVR0j
BBgwFoAU+hIdRwEg61WKa8CgS05E7G8KP9QwDwYDVR0TAQH/BAUwAwEB/zANBgkq
hkiG9w0BAQsFAAOCAQEAHId+wjzThblGbGHnYFA3S0Qf1fNQ8C7GSsnUYuxpTfAi
pI3eb7DKvEi9eUQzcHgjsIIwIn0P6TVkuEbhvXOnny53FLRdc/bwOu9niU+y3E3a
rVgYZ8c50AGuM4t5HCUMPZtobqdEa12q0Fg1Nd5i2HZJOSbVFD98VTXr7X7sYsZt
wfowY/ESzZzvFdV6emYwcFUP4tJnFyy/q5G92mtqwssNcIq/mcJCrg1vThCgrAYP
PyKawaroseAN1rHoTi7u6swCULeXjJB9o/grmts0b939oS4xJOkOVZn3DxxDZBtV
ZiDWfvikNxytbdJbvh9n5udij6M3skiaVAQLfX6fPQ==
-----END CERTIFICATE-----
