Certificate:
    Data:
        Version: 3 (0x2)
        Serial Number:
            d4:74:ff:da:e2:93:5e:a2
    Signature Algorithm: sha256WithRSAEncryption
        Issuer: C=US, ST=California, L=Santa Clara, O=pkg5, OU=ta8, CN=localhost/emailAddress=ta8
        Validity
            Not Before: Nov 28 22:50:58 2016 GMT
            Not After : Aug 25 22:50:58 2019 GMT
        Subject: C=US, ST=California, L=Santa Clara, O=pkg5, OU=ta8, CN=localhost/emailAddress=ta8
        Subject Public Key Info:
            Public Key Algorithm: rsaEncryption
                Public-Key: (2048 bit)
                Modulus:
                    00:bd:e9:f9:77:1d:f5:41:91:af:09:65:30:bd:0d:
                    3f:cc:e9:be:5f:94:f7:0b:8a:65:ca:6f:dd:0a:ff:
                    51:7a:d2:eb:13:34:db:32:84:7d:db:1b:02:5b:b2:
                    88:1b:93:62:a7:74:ed:65:a3:b6:fb:ed:75:da:5c:
                    d2:06:9f:1f:d1:75:46:75:1c:0e:d0:51:a7:06:ab:
                    f1:c7:5f:01:ae:91:02:4f:83:49:c4:cf:96:bd:19:
                    ab:0a:5c:39:b7:f9:b2:56:6e:2f:91:ec:e3:d1:7b:
                    79:78:32:10:2b:7a:42:b3:d5:ee:c2:53:e7:e0:90:
                    2c:81:95:3c:79:a2:93:ef:d0:b5:4e:f5:02:84:a1:
                    53:92:b3:d0:51:d0:43:57:e5:b9:b3:d1:28:b8:5b:
                    b9:51:b3:44:db:b4:c0:ac:42:be:79:5e:fd:f7:e3:
                    29:5a:4a:cc:6c:d0:a3:1f:d2:f5:84:69:dc:9f:7c:
                    cd:a4:8f:e9:18:99:23:42:4c:d8:e7:98:e3:e4:d0:
                    b7:d5:19:30:dc:5d:db:a4:30:47:d6:7e:27:6d:36:
                    5c:07:11:05:94:b9:8c:5d:18:7a:b7:5a:f0:2e:e6:
                    87:be:a4:a8:0e:80:e9:b7:54:55:85:cf:04:47:12:
                    48:48:11:db:9b:cb:66:90:ba:b4:87:cf:22:6d:5f:
                    78:c9
                Exponent: 65537 (0x10001)
        X509v3 extensions:
            X509v3 Subject Key Identifier: 
                13:56:BE:1A:9D:91:9F:40:8B:9A:6A:29:A4:D1:19:CF:B1:1F:D7:FB
            X509v3 Authority Key Identifier: 
                keyid:13:56:BE:1A:9D:91:9F:40:8B:9A:6A:29:A4:D1:19:CF:B1:1F:D7:FB

            X509v3 Basic Constraints: 
                CA:TRUE
    Signature Algorithm: sha256WithRSAEncryption
         92:3f:0f:e6:3c:5c:08:f4:cc:27:7b:8e:bc:d9:48:78:cd:94:
         20:ce:a0:0c:1d:7b:df:9e:de:06:8c:2e:0d:4e:d4:2d:ec:3f:
         af:85:ee:6f:7b:af:86:6b:b9:16:26:fb:f5:1e:e8:e0:d3:51:
         56:b1:6e:87:78:7d:dd:1b:fe:2f:65:4f:3e:ba:95:65:06:aa:
         a1:53:e4:9b:38:d2:32:0d:c3:25:c1:b1:6a:12:a0:91:92:36:
         18:7e:d2:6f:66:01:99:8f:2a:e8:c6:4b:db:dd:fe:26:04:41:
         d1:aa:86:1b:38:b2:3d:88:bc:d9:0d:5c:cc:8d:05:a0:dd:b6:
         74:7c:06:6b:94:37:01:e8:1f:b7:0c:f5:98:70:a9:25:0b:71:
         cd:51:ae:82:b6:9c:13:a4:0a:b6:97:5a:c4:0f:dc:0c:f7:14:
         87:99:e1:fe:84:a2:e3:92:42:fd:24:55:71:3d:05:a8:7a:60:
         5f:b4:17:ff:64:8c:b5:15:2d:d8:e8:b8:93:a1:fc:58:5f:f1:
         94:16:b2:0e:d9:77:69:2a:cc:6a:2c:9f:dc:de:57:29:01:4d:
         8e:fd:ec:7b:7b:5e:9e:36:46:d2:6a:f0:78:44:6a:82:f0:dd:
         35:91:e7:b1:e5:7d:3f:26:4f:26:80:63:5e:13:d0:c4:1e:14:
         09:17:d4:7b
-----BEGIN CERTIFICATE-----
MIIDzTCCArWgAwIBAgIJANR0/9rik16iMA0GCSqGSIb3DQEBCwUAMH0xCzAJBgNV
BAYTAlVTMRMwEQYDVQQIDApDYWxpZm9ybmlhMRQwEgYDVQQHDAtTYW50YSBDbGFy
YTENMAsGA1UECgwEcGtnNTEMMAoGA1UECwwDdGE4MRIwEAYDVQQDDAlsb2NhbGhv
c3QxEjAQBgkqhkiG9w0BCQEWA3RhODAeFw0xNjExMjgyMjUwNThaFw0xOTA4MjUy
MjUwNThaMH0xCzAJBgNVBAYTAlVTMRMwEQYDVQQIDApDYWxpZm9ybmlhMRQwEgYD
VQQHDAtTYW50YSBDbGFyYTENMAsGA1UECgwEcGtnNTEMMAoGA1UECwwDdGE4MRIw
EAYDVQQDDAlsb2NhbGhvc3QxEjAQBgkqhkiG9w0BCQEWA3RhODCCASIwDQYJKoZI
hvcNAQEBBQADggEPADCCAQoCggEBAL3p+Xcd9UGRrwllML0NP8zpvl+U9wuKZcpv
3Qr/UXrS6xM02zKEfdsbAluyiBuTYqd07WWjtvvtddpc0gafH9F1RnUcDtBRpwar
8cdfAa6RAk+DScTPlr0ZqwpcObf5slZuL5Hs49F7eXgyECt6QrPV7sJT5+CQLIGV
PHmik+/QtU71AoShU5Kz0FHQQ1flubPRKLhbuVGzRNu0wKxCvnle/ffjKVpKzGzQ
ox/S9YRp3J98zaSP6RiZI0JM2OeY4+TQt9UZMNxd26QwR9Z+J202XAcRBZS5jF0Y
erda8C7mh76kqA6A6bdUVYXPBEcSSEgR25vLZpC6tIfPIm1feMkCAwEAAaNQME4w
HQYDVR0OBBYEFBNWvhqdkZ9Ai5pqKaTRGc+xH9f7MB8GA1UdIwQYMBaAFBNWvhqd
kZ9Ai5pqKaTRGc+xH9f7MAwGA1UdEwQFMAMBAf8wDQYJKoZIhvcNAQELBQADggEB
AJI/D+Y8XAj0zCd7jrzZSHjNlCDOoAwde9+e3gaMLg1O1C3sP6+F7m97r4ZruRYm
+/Ue6ODTUVaxbod4fd0b/i9lTz66lWUGqqFT5Js40jINwyXBsWoSoJGSNhh+0m9m
AZmPKujGS9vd/iYEQdGqhhs4sj2IvNkNXMyNBaDdtnR8BmuUNwHoH7cM9ZhwqSUL
cc1RroK2nBOkCraXWsQP3Az3FIeZ4f6EouOSQv0kVXE9Bah6YF+0F/9kjLUVLdjo
uJOh/Fhf8ZQWsg7Zd2kqzGosn9zeVykBTY797Ht7Xp42RtJq8HhEaoLw3TWR57Hl
fT8mTyaAY14T0MQeFAkX1Hs=
-----END CERTIFICATE-----
