Certificate:
    Data:
        Version: 3 (0x2)
        Serial Number:
            0f:ed:32:fa:42:c0:64:46:8f:57:37:01:2b:e8:87:b1:a4:1d:ca:55
        Signature Algorithm: sha256WithRSAEncryption
        Issuer: C = US, ST = California, L = Santa Clara, O = pkg5, OU = ta10, CN = localhost, emailAddress = ta10
        Validity
            Not Before: Dec 15 15:37:34 2022 GMT
            Not After : Sep 10 15:37:34 2025 GMT
        Subject: C = US, ST = California, L = Santa Clara, O = pkg5, OU = ta10, CN = localhost, emailAddress = ta10
        Subject Public Key Info:
            Public Key Algorithm: rsaEncryption
                Public-Key: (2048 bit)
                Modulus:
                    00:c3:28:f7:06:11:73:93:40:34:91:c4:d1:e9:cd:
                    fa:da:ae:55:33:2c:41:68:16:28:c8:22:0b:8c:9c:
                    da:18:00:1d:ea:4f:e0:7d:3e:80:1a:62:0d:e3:27:
                    4e:85:92:ab:b2:e0:aa:cb:22:12:ed:9d:8f:79:1e:
                    87:04:9f:1e:ab:a8:f9:c7:9b:0e:e1:04:74:34:65:
                    ab:3c:e6:8d:ae:ce:c9:45:c9:7d:ab:85:cc:63:c0:
                    31:66:80:21:9a:80:18:57:e3:8d:cb:74:8e:d2:19:
                    a2:72:a8:93:b8:35:b1:9a:0e:72:e2:7a:eb:85:5d:
                    ee:43:0c:05:1a:f4:52:e0:6b:8f:cb:6e:ff:de:00:
                    bc:4f:6d:9d:2a:01:43:aa:64:c8:5f:89:b5:ac:05:
                    ae:50:0f:1b:53:79:4e:b3:52:fc:b2:d7:0d:e1:82:
                    d6:92:f8:cd:eb:62:34:16:c2:c5:15:38:a6:74:54:
                    6a:35:5d:ae:93:7f:e4:e5:62:90:65:5d:2d:13:ea:
                    62:06:b0:7d:ed:bb:a5:07:34:3f:e5:72:e6:27:10:
                    cb:cd:14:26:f6:86:a3:f1:74:b5:e4:d9:23:ce:d8:
                    9d:01:38:6b:49:2d:79:99:cc:ed:6e:4f:80:f4:31:
                    f2:4e:6b:c5:23:95:bd:40:f6:4e:00:a0:6c:bc:05:
                    3b:d1
                Exponent: 65537 (0x10001)
        X509v3 extensions:
            X509v3 Subject Key Identifier: 
                E2:2F:42:6D:CB:8E:D4:7E:4F:28:20:2B:10:5C:3A:80:00:D8:B0:06
            X509v3 Authority Key Identifier: 
                E2:2F:42:6D:CB:8E:D4:7E:4F:28:20:2B:10:5C:3A:80:00:D8:B0:06
            X509v3 Basic Constraints: critical
                CA:TRUE
    Signature Algorithm: sha256WithRSAEncryption
    Signature Value:
        5a:8c:96:7e:f9:76:94:f0:e9:1f:8f:8a:dc:15:eb:b4:af:18:
        61:61:43:21:75:ca:04:fb:7a:25:43:50:4a:c6:b1:0d:4c:6c:
        3f:d4:6c:84:cb:c3:20:02:0f:97:76:47:9d:84:88:ae:77:a8:
        4f:a8:6c:d9:5c:83:93:7e:6e:e5:51:4f:48:ae:11:70:a0:df:
        c1:61:45:2a:0f:dc:0e:46:e3:04:34:e9:2b:a6:bf:83:9b:b7:
        ab:5d:77:9e:8c:00:47:50:62:01:5f:4c:f1:a0:c8:4e:ef:15:
        07:ed:7d:c4:99:b4:0e:54:8f:58:a4:6c:77:f8:f5:1d:8f:0d:
        9f:a2:55:61:15:64:6a:2f:ca:78:cf:ec:d5:24:76:83:15:39:
        79:3e:75:28:ce:65:e6:62:5c:30:11:99:72:6b:5a:21:47:33:
        63:bd:76:44:dc:3b:d9:f3:bc:a2:0f:61:0d:be:69:08:7b:fa:
        0e:1c:59:af:50:e3:fa:25:b9:d2:04:f5:fc:8f:67:33:fc:f4:
        c5:6b:4e:98:16:40:0a:0a:11:92:c0:5e:cd:21:f3:71:25:3e:
        9e:f5:d8:49:56:d6:8f:52:ef:16:e7:cd:ae:65:5b:65:f7:7d:
        6f:79:f4:98:21:45:b2:c0:1f:1a:26:62:cf:fa:84:b3:ed:a4:
        48:28:bb:a8
-----BEGIN CERTIFICATE-----
MIID3zCCAsegAwIBAgIUD+0y+kLAZEaPVzcBK+iHsaQdylUwDQYJKoZIhvcNAQEL
BQAwfzELMAkGA1UEBhMCVVMxEzARBgNVBAgMCkNhbGlmb3JuaWExFDASBgNVBAcM
C1NhbnRhIENsYXJhMQ0wCwYDVQQKDARwa2c1MQ0wCwYDVQQLDAR0YTEwMRIwEAYD
VQQDDAlsb2NhbGhvc3QxEzARBgkqhkiG9w0BCQEWBHRhMTAwHhcNMjIxMjE1MTUz
NzM0WhcNMjUwOTEwMTUzNzM0WjB/MQswCQYDVQQGEwJVUzETMBEGA1UECAwKQ2Fs
aWZvcm5pYTEUMBIGA1UEBwwLU2FudGEgQ2xhcmExDTALBgNVBAoMBHBrZzUxDTAL
BgNVBAsMBHRhMTAxEjAQBgNVBAMMCWxvY2FsaG9zdDETMBEGCSqGSIb3DQEJARYE
dGExMDCCASIwDQYJKoZIhvcNAQEBBQADggEPADCCAQoCggEBAMMo9wYRc5NANJHE
0enN+tquVTMsQWgWKMgiC4yc2hgAHepP4H0+gBpiDeMnToWSq7LgqssiEu2dj3ke
hwSfHquo+cebDuEEdDRlqzzmja7OyUXJfauFzGPAMWaAIZqAGFfjjct0jtIZonKo
k7g1sZoOcuJ664Vd7kMMBRr0UuBrj8tu/94AvE9tnSoBQ6pkyF+JtawFrlAPG1N5
TrNS/LLXDeGC1pL4zetiNBbCxRU4pnRUajVdrpN/5OVikGVdLRPqYgawfe27pQc0
P+Vy5icQy80UJvaGo/F0teTZI87YnQE4a0kteZnM7W5PgPQx8k5rxSOVvUD2TgCg
bLwFO9ECAwEAAaNTMFEwHQYDVR0OBBYEFOIvQm3LjtR+TyggKxBcOoAA2LAGMB8G
A1UdIwQYMBaAFOIvQm3LjtR+TyggKxBcOoAA2LAGMA8GA1UdEwEB/wQFMAMBAf8w
DQYJKoZIhvcNAQELBQADggEBAFqMln75dpTw6R+PitwV67SvGGFhQyF1ygT7eiVD
UErGsQ1MbD/UbITLwyACD5d2R52EiK53qE+obNlcg5N+buVRT0iuEXCg38FhRSoP
3A5G4wQ06Sumv4Obt6tdd56MAEdQYgFfTPGgyE7vFQftfcSZtA5Uj1ikbHf49R2P
DZ+iVWEVZGovynjP7NUkdoMVOXk+dSjOZeZiXDARmXJrWiFHM2O9dkTcO9nzvKIP
YQ2+aQh7+g4cWa9Q4/oludIE9fyPZzP89MVrTpgWQAoKEZLAXs0h83ElPp712ElW
1o9S7xbnza5lW2X3fW959JghRbLAHxomYs/6hLPtpEgou6g=
-----END CERTIFICATE-----
