Certificate:
    Data:
        Version: 3 (0x2)
        Serial Number: 11736474315682620125 (0xa2e0553525c222dd)
    Signature Algorithm: sha256WithRSAEncryption
        Issuer: C=US, ST=California, L=Santa Clara, O=pkg5, OU=ta10, CN=localhost/emailAddress=ta10
        Validity
            Not Before: Dec  6 03:06:44 2014 GMT
            Not After : Sep  1 03:06:44 2017 GMT
        Subject: C=US, ST=California, L=Santa Clara, O=pkg5, OU=ta10, CN=localhost/emailAddress=ta10
        Subject Public Key Info:
            Public Key Algorithm: rsaEncryption
                Public-Key: (1024 bit)
                Modulus:
                    00:dc:79:ee:57:38:41:42:e5:84:4b:1b:91:95:13:
                    1c:cf:f0:b8:d7:e7:ca:25:96:5b:a9:58:ab:f7:81:
                    63:b8:48:52:02:d2:d8:09:93:72:d7:4a:1f:d1:cc:
                    84:8e:16:94:c1:42:9f:2d:87:4f:82:71:47:19:a9:
                    3d:28:7a:08:4a:a5:89:9d:bd:e5:9c:3b:16:04:96:
                    0c:9d:66:80:23:22:8a:bc:fc:bb:97:a2:e2:56:67:
                    36:c4:6e:ec:33:46:1c:51:6f:81:f8:85:16:24:97:
                    ce:40:1d:22:86:79:66:ff:ad:cd:e8:c4:a6:0a:59:
                    82:ec:22:a0:1c:9f:fc:b1:25
                Exponent: 65537 (0x10001)
        X509v3 extensions:
            X509v3 Subject Key Identifier: 
                76:35:C1:F7:66:0C:63:57:10:AC:67:60:E5:0F:97:43:A3:92:F4:64
            X509v3 Authority Key Identifier: 
                keyid:76:35:C1:F7:66:0C:63:57:10:AC:67:60:E5:0F:97:43:A3:92:F4:64

            X509v3 Basic Constraints: 
                CA:TRUE
    Signature Algorithm: sha256WithRSAEncryption
         c9:a0:8e:b7:3e:92:a3:df:34:2b:d6:84:c6:91:e2:31:ca:b2:
         74:34:8a:d5:74:6e:43:e6:ec:2a:a6:90:4b:83:72:0d:df:9c:
         01:d0:d3:2e:99:60:7e:ac:49:05:85:65:cb:52:c5:63:ea:c4:
         c3:03:cc:00:55:5d:8f:85:c5:3a:11:52:f5:50:f3:5e:ec:3c:
         3a:40:4b:a1:32:ac:30:76:e8:45:4f:f3:32:e5:16:2b:35:26:
         98:3f:98:46:a2:c3:22:35:26:00:15:a9:34:9b:00:71:b4:9c:
         20:95:aa:4e:db:d4:b7:f6:6f:20:b6:0a:6e:36:65:dc:d9:74:
         0f:98
-----BEGIN CERTIFICATE-----
MIICzDCCAjWgAwIBAgIJAKLgVTUlwiLdMA0GCSqGSIb3DQEBCwUAMH8xCzAJBgNV
BAYTAlVTMRMwEQYDVQQIDApDYWxpZm9ybmlhMRQwEgYDVQQHDAtTYW50YSBDbGFy
YTENMAsGA1UECgwEcGtnNTENMAsGA1UECwwEdGExMDESMBAGA1UEAwwJbG9jYWxo
b3N0MRMwEQYJKoZIhvcNAQkBFgR0YTEwMB4XDTE0MTIwNjAzMDY0NFoXDTE3MDkw
MTAzMDY0NFowfzELMAkGA1UEBhMCVVMxEzARBgNVBAgMCkNhbGlmb3JuaWExFDAS
BgNVBAcMC1NhbnRhIENsYXJhMQ0wCwYDVQQKDARwa2c1MQ0wCwYDVQQLDAR0YTEw
MRIwEAYDVQQDDAlsb2NhbGhvc3QxEzARBgkqhkiG9w0BCQEWBHRhMTAwgZ8wDQYJ
KoZIhvcNAQEBBQADgY0AMIGJAoGBANx57lc4QULlhEsbkZUTHM/wuNfnyiWWW6lY
q/eBY7hIUgLS2AmTctdKH9HMhI4WlMFCny2HT4JxRxmpPSh6CEqliZ295Zw7FgSW
DJ1mgCMiirz8u5ei4lZnNsRu7DNGHFFvgfiFFiSXzkAdIoZ5Zv+tzejEpgpZguwi
oByf/LElAgMBAAGjUDBOMB0GA1UdDgQWBBR2NcH3ZgxjVxCsZ2DlD5dDo5L0ZDAf
BgNVHSMEGDAWgBR2NcH3ZgxjVxCsZ2DlD5dDo5L0ZDAMBgNVHRMEBTADAQH/MA0G
CSqGSIb3DQEBCwUAA4GBAMmgjrc+kqPfNCvWhMaR4jHKsnQ0itV0bkPm7CqmkEuD
cg3fnAHQ0y6ZYH6sSQWFZctSxWPqxMMDzABVXY+FxToRUvVQ817sPDpAS6EyrDB2
6EVP8zLlFis1Jpg/mEaiwyI1JgAVqTSbAHG0nCCVqk7b1Lf2byC2Cm42ZdzZdA+Y
-----END CERTIFICATE-----
