Certificate:
    Data:
        Version: 3 (0x2)
        Serial Number:
            57:23:3b:2a:f6:d1:95:08:eb:23:de:b1:c2:2f:18:73:c3:bd:27:72
        Signature Algorithm: sha256WithRSAEncryption
        Issuer: C = US, ST = California, L = Santa Clara, O = pkg5, OU = ta10, CN = localhost, emailAddress = ta10
        Validity
            Not Before: Oct 22 10:15:24 2021 GMT
            Not After : Jul 18 10:15:24 2024 GMT
        Subject: C = US, ST = California, L = Santa Clara, O = pkg5, OU = ta10, CN = localhost, emailAddress = ta10
        Subject Public Key Info:
            Public Key Algorithm: rsaEncryption
                Public-Key: (2048 bit)
                Modulus:
                    00:af:04:43:23:17:44:e1:ad:9b:01:e5:df:21:ce:
                    aa:43:3d:93:98:17:50:22:cd:75:a5:de:6c:d0:75:
                    0f:ab:f6:60:5b:ff:29:3a:cc:17:15:c2:58:35:f0:
                    33:ea:10:fa:35:54:5c:8c:69:97:c9:82:ef:1d:6b:
                    a8:bb:60:4e:42:a8:52:a7:7d:36:c1:18:84:28:37:
                    e7:1f:ef:a9:1e:47:69:d2:74:5a:41:e8:7b:fc:52:
                    90:bb:f5:45:2a:09:43:0f:6b:5d:b9:53:dd:71:4d:
                    49:2b:ad:b3:f3:d0:c8:2a:1a:50:e1:0e:92:bd:bd:
                    f4:60:b5:37:5e:2b:1b:ac:ff:e5:e3:ae:53:ac:78:
                    37:10:04:1f:bd:a9:30:9d:9f:ee:80:ff:09:c2:76:
                    5c:d4:a5:2f:00:b6:18:ff:25:ea:68:4f:bc:28:b8:
                    7f:6c:9c:5e:9b:01:59:8d:67:d7:9d:b1:53:e2:b5:
                    3c:a1:34:2c:1c:94:1e:ad:b8:46:3f:50:0d:86:27:
                    20:aa:82:ed:70:3e:3d:e4:57:35:50:cd:f2:4f:aa:
                    49:bd:0e:4d:b8:fe:02:d6:c2:4e:9d:b9:ae:76:76:
                    82:ec:51:0a:d6:c0:da:74:13:8e:a9:6e:01:14:4b:
                    07:0d:b8:06:4a:53:13:56:a0:e7:62:3d:14:b0:de:
                    5e:ed
                Exponent: 65537 (0x10001)
        X509v3 extensions:
            X509v3 Subject Key Identifier: 
                17:54:F8:20:78:B1:75:23:B6:CC:28:EC:F2:F4:F5:4A:45:2C:8D:3D
            X509v3 Authority Key Identifier: 
                17:54:F8:20:78:B1:75:23:B6:CC:28:EC:F2:F4:F5:4A:45:2C:8D:3D
            X509v3 Basic Constraints: critical
                CA:TRUE
    Signature Algorithm: sha256WithRSAEncryption
    Signature Value:
        4b:4a:fc:92:70:e5:c1:ed:4b:19:c3:73:f0:d9:c3:6f:71:0a:
        2e:d9:de:f1:07:e6:5d:f4:59:12:90:28:09:97:3c:9e:50:eb:
        13:14:33:aa:64:94:ac:73:1f:1b:2c:13:cf:6b:4f:fd:9c:0a:
        e8:11:e6:e6:2c:ce:49:a1:b5:a6:59:dc:5c:7d:ec:de:8a:fb:
        b5:e6:f4:9d:07:22:ab:60:3e:28:8d:f1:13:08:50:c2:7f:14:
        5b:1a:86:48:aa:90:1d:a2:85:7b:08:36:14:6a:9f:25:67:78:
        4c:51:fd:3b:87:f6:ba:26:01:83:5d:eb:1d:74:9a:76:0c:93:
        44:f4:77:9d:23:5b:b5:a2:7e:26:3f:24:05:bb:52:24:21:52:
        da:37:65:75:34:d3:3e:21:a8:a5:6f:70:dc:17:02:2f:c7:03:
        dc:7b:75:a8:5d:35:fa:b5:fe:3b:38:c0:bb:fc:ff:02:37:d1:
        82:41:88:be:b4:8b:3c:97:62:1d:44:fa:9a:5b:6a:59:19:3f:
        fd:61:ce:cc:93:c5:2f:10:cc:30:7a:6f:92:bf:29:d6:81:7e:
        02:5c:91:d1:4e:db:e2:86:73:b0:19:e6:87:45:68:41:db:63:
        e3:e0:f8:4f:14:a0:3d:09:f0:7a:84:4d:46:1e:a3:6d:cc:e7:
        b1:02:05:ac
-----BEGIN CERTIFICATE-----
MIID3zCCAsegAwIBAgIUVyM7KvbRlQjrI96xwi8Yc8O9J3IwDQYJKoZIhvcNAQEL
BQAwfzELMAkGA1UEBhMCVVMxEzARBgNVBAgMCkNhbGlmb3JuaWExFDASBgNVBAcM
C1NhbnRhIENsYXJhMQ0wCwYDVQQKDARwa2c1MQ0wCwYDVQQLDAR0YTEwMRIwEAYD
VQQDDAlsb2NhbGhvc3QxEzARBgkqhkiG9w0BCQEWBHRhMTAwHhcNMjExMDIyMTAx
NTI0WhcNMjQwNzE4MTAxNTI0WjB/MQswCQYDVQQGEwJVUzETMBEGA1UECAwKQ2Fs
aWZvcm5pYTEUMBIGA1UEBwwLU2FudGEgQ2xhcmExDTALBgNVBAoMBHBrZzUxDTAL
BgNVBAsMBHRhMTAxEjAQBgNVBAMMCWxvY2FsaG9zdDETMBEGCSqGSIb3DQEJARYE
dGExMDCCASIwDQYJKoZIhvcNAQEBBQADggEPADCCAQoCggEBAK8EQyMXROGtmwHl
3yHOqkM9k5gXUCLNdaXebNB1D6v2YFv/KTrMFxXCWDXwM+oQ+jVUXIxpl8mC7x1r
qLtgTkKoUqd9NsEYhCg35x/vqR5HadJ0WkHoe/xSkLv1RSoJQw9rXblT3XFNSSut
s/PQyCoaUOEOkr299GC1N14rG6z/5eOuU6x4NxAEH72pMJ2f7oD/CcJ2XNSlLwC2
GP8l6mhPvCi4f2ycXpsBWY1n152xU+K1PKE0LByUHq24Rj9QDYYnIKqC7XA+PeRX
NVDN8k+qSb0OTbj+AtbCTp25rnZ2guxRCtbA2nQTjqluARRLBw24BkpTE1ag52I9
FLDeXu0CAwEAAaNTMFEwHQYDVR0OBBYEFBdU+CB4sXUjtswo7PL09UpFLI09MB8G
A1UdIwQYMBaAFBdU+CB4sXUjtswo7PL09UpFLI09MA8GA1UdEwEB/wQFMAMBAf8w
DQYJKoZIhvcNAQELBQADggEBAEtK/JJw5cHtSxnDc/DZw29xCi7Z3vEH5l30WRKQ
KAmXPJ5Q6xMUM6pklKxzHxssE89rT/2cCugR5uYszkmhtaZZ3Fx97N6K+7Xm9J0H
IqtgPiiN8RMIUMJ/FFsahkiqkB2ihXsINhRqnyVneExR/TuH9romAYNd6x10mnYM
k0T0d50jW7WifiY/JAW7UiQhUto3ZXU00z4hqKVvcNwXAi/HA9x7dahdNfq1/js4
wLv8/wI30YJBiL60izyXYh1E+ppbalkZP/1hzsyTxS8QzDB6b5K/KdaBfgJckdFO
2+KGc7AZ5odFaEHbY+Pg+E8UoD0J8HqETUYeo23M57ECBaw=
-----END CERTIFICATE-----
