Certificate:
    Data:
        Version: 3 (0x2)
        Serial Number:
            1a:c5:50:22:34:28:c6:0e:7d:09:bd:ba:d1:48:6b:af:b4:75:18:40
        Signature Algorithm: sha256WithRSAEncryption
        Issuer: C = US, ST = California, L = Santa Clara, O = pkg5, OU = ta10, CN = localhost, emailAddress = ta10
        Validity
            Not Before: Nov 17 23:01:35 2020 GMT
            Not After : Aug 14 23:01:35 2023 GMT
        Subject: C = US, ST = California, L = Santa Clara, O = pkg5, OU = ta10, CN = localhost, emailAddress = ta10
        Subject Public Key Info:
            Public Key Algorithm: rsaEncryption
                RSA Public-Key: (2048 bit)
                Modulus:
                    00:e6:39:20:1f:ad:3f:f6:09:dd:2b:2b:d3:81:8d:
                    a5:8d:a1:53:7b:8b:ec:82:ce:0b:de:7e:45:57:74:
                    54:32:c1:0d:80:92:b3:93:59:db:0e:96:38:a5:fd:
                    5c:06:7b:9e:2e:92:24:7b:08:ed:aa:b4:f8:fa:38:
                    15:ba:c2:72:46:65:15:3f:5b:0e:63:c6:10:23:99:
                    a5:4c:af:ad:93:f1:be:07:0b:ed:10:27:49:3f:25:
                    6b:b3:4b:6e:da:13:15:b3:36:f0:8b:79:86:b3:ca:
                    b4:e3:aa:85:1d:19:49:1b:83:55:59:93:c4:35:27:
                    b6:5b:1e:4c:26:8f:1f:97:e3:44:ed:3a:ef:da:55:
                    7d:81:40:d3:cd:28:de:d9:94:53:fa:d7:0e:fb:6f:
                    75:28:35:0d:81:26:e6:0f:1a:f3:3e:ae:a9:e8:b6:
                    4f:a8:74:14:64:25:41:3f:21:64:4d:45:1a:21:83:
                    7f:c0:f4:e2:ea:90:d8:5c:9f:8c:05:a2:76:2c:92:
                    30:4f:b5:21:69:09:29:6b:c0:d4:b4:a4:97:a9:72:
                    64:ea:9a:e9:5e:91:f7:8e:32:bd:ae:d4:ca:b0:dd:
                    72:d2:30:5e:f0:43:55:29:7c:dc:6d:07:23:ef:51:
                    24:72:18:29:bf:2a:85:52:fd:97:63:2c:33:e6:58:
                    b4:85
                Exponent: 65537 (0x10001)
        X509v3 extensions:
            X509v3 Subject Key Identifier: 
                4B:25:0D:2E:9C:41:54:E7:4A:05:F5:2E:04:BA:4C:4C:6C:77:72:1C
            X509v3 Authority Key Identifier: 
                keyid:4B:25:0D:2E:9C:41:54:E7:4A:05:F5:2E:04:BA:4C:4C:6C:77:72:1C

            X509v3 Basic Constraints: critical
                CA:TRUE
    Signature Algorithm: sha256WithRSAEncryption
         58:89:9f:67:6a:b4:f8:21:0c:91:54:e7:e7:bd:10:88:31:b2:
         19:f8:de:8f:6b:73:3d:03:58:b0:4e:ea:29:bb:81:ae:3a:57:
         64:63:22:9b:06:ca:10:6a:47:21:c6:71:e1:b6:58:b7:e0:1f:
         bc:06:35:c5:c1:45:7f:2b:d7:68:2b:0d:d2:8e:34:5e:1d:24:
         0e:03:6f:55:e7:26:7e:d7:f2:ec:a2:71:9c:c3:6a:3e:7c:d5:
         e1:53:72:c3:8c:82:0b:0c:5f:0c:f4:91:99:1b:48:50:cd:ca:
         85:7f:17:c5:31:25:3d:d0:19:f5:b3:8d:ee:4b:9b:b2:4a:68:
         ea:ce:18:20:20:a1:95:e0:c1:02:54:7b:63:3e:38:a9:fb:4c:
         57:a5:a0:e7:02:7a:40:70:ec:52:2a:c4:3c:9b:eb:60:44:4f:
         04:e5:d2:12:d0:51:26:3d:bc:99:14:80:c9:46:42:71:8a:8d:
         b3:5d:4a:37:03:a9:5a:32:f9:78:1c:9c:6d:33:84:94:6c:14:
         16:92:ab:54:7b:a3:1b:c9:70:99:56:e4:03:e2:39:cc:a7:29:
         bd:e8:c7:32:ed:16:d5:75:f0:42:bf:43:24:37:f4:63:d8:b6:
         59:c7:c0:45:70:a2:29:79:f5:30:01:fe:2e:ba:8b:11:92:40:
         54:a5:97:e5
-----BEGIN CERTIFICATE-----
MIID3zCCAsegAwIBAgIUGsVQIjQoxg59Cb260Uhrr7R1GEAwDQYJKoZIhvcNAQEL
BQAwfzELMAkGA1UEBhMCVVMxEzARBgNVBAgMCkNhbGlmb3JuaWExFDASBgNVBAcM
C1NhbnRhIENsYXJhMQ0wCwYDVQQKDARwa2c1MQ0wCwYDVQQLDAR0YTEwMRIwEAYD
VQQDDAlsb2NhbGhvc3QxEzARBgkqhkiG9w0BCQEWBHRhMTAwHhcNMjAxMTE3MjMw
MTM1WhcNMjMwODE0MjMwMTM1WjB/MQswCQYDVQQGEwJVUzETMBEGA1UECAwKQ2Fs
aWZvcm5pYTEUMBIGA1UEBwwLU2FudGEgQ2xhcmExDTALBgNVBAoMBHBrZzUxDTAL
BgNVBAsMBHRhMTAxEjAQBgNVBAMMCWxvY2FsaG9zdDETMBEGCSqGSIb3DQEJARYE
dGExMDCCASIwDQYJKoZIhvcNAQEBBQADggEPADCCAQoCggEBAOY5IB+tP/YJ3Ssr
04GNpY2hU3uL7ILOC95+RVd0VDLBDYCSs5NZ2w6WOKX9XAZ7ni6SJHsI7aq0+Po4
FbrCckZlFT9bDmPGECOZpUyvrZPxvgcL7RAnST8la7NLbtoTFbM28It5hrPKtOOq
hR0ZSRuDVVmTxDUntlseTCaPH5fjRO0679pVfYFA080o3tmUU/rXDvtvdSg1DYEm
5g8a8z6uqei2T6h0FGQlQT8hZE1FGiGDf8D04uqQ2FyfjAWidiySME+1IWkJKWvA
1LSkl6lyZOqa6V6R944yva7UyrDdctIwXvBDVSl83G0HI+9RJHIYKb8qhVL9l2Ms
M+ZYtIUCAwEAAaNTMFEwHQYDVR0OBBYEFEslDS6cQVTnSgX1LgS6TExsd3IcMB8G
A1UdIwQYMBaAFEslDS6cQVTnSgX1LgS6TExsd3IcMA8GA1UdEwEB/wQFMAMBAf8w
DQYJKoZIhvcNAQELBQADggEBAFiJn2dqtPghDJFU5+e9EIgxshn43o9rcz0DWLBO
6im7ga46V2RjIpsGyhBqRyHGceG2WLfgH7wGNcXBRX8r12grDdKONF4dJA4Db1Xn
Jn7X8uyicZzDaj581eFTcsOMggsMXwz0kZkbSFDNyoV/F8UxJT3QGfWzje5Lm7JK
aOrOGCAgoZXgwQJUe2M+OKn7TFeloOcCekBw7FIqxDyb62BETwTl0hLQUSY9vJkU
gMlGQnGKjbNdSjcDqVoy+XgcnG0zhJRsFBaSq1R7oxvJcJlW5APiOcynKb3oxzLt
FtV18EK/QyQ39GPYtlnHwEVwoil59TAB/i66ixGSQFSll+U=
-----END CERTIFICATE-----
