Certificate:
    Data:
        Version: 3 (0x2)
        Serial Number: 6 (0x6)
    Signature Algorithm: sha256WithRSAEncryption
        Issuer: C=US, ST=California, L=Santa Clara, O=pkg5, CN=ch5_ta1/emailAddress=ch5_ta1
        Validity
            Not Before: Nov 16 10:58:47 2017 GMT
            Not After : Aug 12 10:58:47 2020 GMT
        Subject: C=US, ST=California, L=Santa Clara, O=pkg5, CN=cs1_ch5_ta1/emailAddress=cs1_ch5_ta1
        Subject Public Key Info:
            Public Key Algorithm: rsaEncryption
                Public-Key: (1024 bit)
                Modulus:
                    00:db:e7:ba:1b:f0:7a:85:37:4e:44:83:37:57:46:
                    3f:75:81:6c:8e:39:3d:56:02:58:20:c5:90:fb:94:
                    fd:c5:9f:5e:c7:11:91:7e:a1:ba:dc:bf:14:4c:2f:
                    46:ea:fc:36:89:d8:59:a9:21:62:b4:01:0b:0f:67:
                    04:82:b3:a2:84:54:c6:1f:50:0d:5a:8d:e6:bf:6e:
                    12:a6:ac:2f:09:32:ad:19:65:b1:ed:94:4a:19:58:
                    9f:d6:e3:ab:79:a0:3c:c3:f9:d0:e3:97:1a:8f:3a:
                    73:f5:67:2a:72:68:8d:2a:6e:68:b8:61:01:7d:7f:
                    1c:6e:e2:63:c0:5b:dd:e5:3b
                Exponent: 65537 (0x10001)
        X509v3 extensions:
            X509v3 Basic Constraints: critical
                CA:FALSE
            X509v3 Key Usage: critical
                Digital Signature
    Signature Algorithm: sha256WithRSAEncryption
         26:c1:32:af:99:c6:99:24:28:12:bb:56:47:6c:13:9c:cd:0d:
         15:1a:a9:a9:e8:ba:44:a9:1d:e9:3f:b0:4c:e9:df:9e:8c:f0:
         c4:9a:f0:49:d4:22:b8:05:31:e0:31:74:87:5f:f8:76:06:fb:
         c8:2f:63:b2:73:2e:dc:37:34:33:59:e0:9c:24:bb:07:f9:ea:
         bb:41:31:0f:ee:99:8f:e7:47:cd:6c:c7:87:e5:c7:9d:73:6b:
         38:74:4a:2e:14:97:c9:96:e6:84:dd:d7:1d:f8:35:71:2b:7a:
         da:6e:49:4d:22:fa:a3:76:dd:f1:7c:41:9d:22:72:d7:4c:0a:
         e3:37:0a:3c:c5:dd:86:fe:5d:55:9c:96:02:cd:44:ee:fa:f9:
         16:37:96:1b:7f:86:5d:36:82:6e:6a:9f:35:6b:1e:62:ae:f8:
         46:99:46:2f:3b:5d:51:eb:8b:24:7b:76:6a:b7:bb:98:c3:3a:
         45:91:bf:1d:83:0a:16:58:2b:2d:88:06:f1:97:42:82:09:94:
         d5:9c:8f:cd:a3:7f:dd:9f:2c:31:62:3c:4f:a5:77:ec:07:07:
         c6:dc:93:b3:de:ad:6f:e8:27:62:15:bd:c3:47:5e:f1:e6:29:
         98:82:14:76:8a:79:7f:2f:80:d8:93:68:7a:e4:d0:3f:2c:d9:
         bc:72:0e:26
-----BEGIN CERTIFICATE-----
MIIDATCCAemgAwIBAgIBBjANBgkqhkiG9w0BAQsFADBxMQswCQYDVQQGEwJVUzET
MBEGA1UECAwKQ2FsaWZvcm5pYTEUMBIGA1UEBwwLU2FudGEgQ2xhcmExDTALBgNV
BAoMBHBrZzUxEDAOBgNVBAMMB2NoNV90YTExFjAUBgkqhkiG9w0BCQEWB2NoNV90
YTEwHhcNMTcxMTE2MTA1ODQ3WhcNMjAwODEyMTA1ODQ3WjB5MQswCQYDVQQGEwJV
UzETMBEGA1UECAwKQ2FsaWZvcm5pYTEUMBIGA1UEBwwLU2FudGEgQ2xhcmExDTAL
BgNVBAoMBHBrZzUxFDASBgNVBAMMC2NzMV9jaDVfdGExMRowGAYJKoZIhvcNAQkB
FgtjczFfY2g1X3RhMTCBnzANBgkqhkiG9w0BAQEFAAOBjQAwgYkCgYEA2+e6G/B6
hTdORIM3V0Y/dYFsjjk9VgJYIMWQ+5T9xZ9exxGRfqG63L8UTC9G6vw2idhZqSFi
tAELD2cEgrOihFTGH1ANWo3mv24SpqwvCTKtGWWx7ZRKGVif1uOreaA8w/nQ45ca
jzpz9WcqcmiNKm5ouGEBfX8cbuJjwFvd5TsCAwEAAaMgMB4wDAYDVR0TAQH/BAIw
ADAOBgNVHQ8BAf8EBAMCB4AwDQYJKoZIhvcNAQELBQADggEBACbBMq+ZxpkkKBK7
VkdsE5zNDRUaqanoukSpHek/sEzp356M8MSa8EnUIrgFMeAxdIdf+HYG+8gvY7Jz
Ltw3NDNZ4Jwkuwf56rtBMQ/umY/nR81sx4flx51zazh0Si4Ul8mW5oTd1x34NXEr
etpuSU0i+qN23fF8QZ0ictdMCuM3CjzF3Yb+XVWclgLNRO76+RY3lht/hl02gm5q
nzVrHmKu+EaZRi87XVHriyR7dmq3u5jDOkWRvx2DChZYKy2IBvGXQoIJlNWcj82j
f92fLDFiPE+ld+wHB8bck7PerW/oJ2IVvcNHXvHmKZiCFHaKeX8vgNiTaHrk0D8s
2bxyDiY=
-----END CERTIFICATE-----
