Certificate:
    Data:
        Version: 3 (0x2)
        Serial Number: 6 (0x6)
        Signature Algorithm: sha256WithRSAEncryption
        Issuer: C=US, ST=California, L=Santa Clara, O=pkg5, CN=ch5_ta1/emailAddress=ch5_ta1
        Validity
            Not Before: Nov 17 23:01:28 2020 GMT
            Not After : Aug 14 23:01:28 2023 GMT
        Subject: C=US, ST=California, L=Santa Clara, O=pkg5, CN=cs1_ch5_ta1/emailAddress=cs1_ch5_ta1
        Subject Public Key Info:
            Public Key Algorithm: rsaEncryption
                RSA Public-Key: (1024 bit)
                Modulus:
                    00:c1:f4:e6:dd:7a:03:fe:6a:11:47:a8:ce:f1:04:
                    ef:03:8a:8b:0d:df:88:3f:63:15:dc:64:fd:6e:e4:
                    19:c7:ac:e4:a2:de:29:0a:a2:00:1b:f4:4b:fb:71:
                    7b:2d:71:d2:a5:55:cb:fd:20:13:98:69:f0:bb:ca:
                    61:06:7f:c5:f5:a5:06:d1:ff:94:32:17:ee:11:8a:
                    e7:ca:aa:37:80:00:fa:f0:5d:dc:bc:77:c2:8e:dd:
                    8c:40:71:1f:9f:05:af:c7:e4:37:dd:23:cd:b2:56:
                    f9:3e:a1:e0:75:f6:99:57:59:b0:23:0f:ca:d6:9f:
                    a4:64:d4:fe:f1:59:bf:7a:65
                Exponent: 65537 (0x10001)
        X509v3 extensions:
            X509v3 Basic Constraints: critical
                CA:FALSE
            X509v3 Key Usage: critical
                Digital Signature
    Signature Algorithm: sha256WithRSAEncryption
         04:30:ce:5e:b5:71:ff:e2:1b:53:d2:62:68:60:6c:7a:1f:f3:
         5c:de:f0:18:90:89:74:c8:05:72:c0:ae:5b:30:64:58:7b:3e:
         15:86:51:05:ee:3f:18:48:8a:1c:6f:5f:f7:d4:a9:31:41:0f:
         31:36:de:d1:71:e6:65:82:e1:78:e7:a2:bd:49:b5:e6:99:e8:
         95:81:1e:e3:30:6d:bd:fa:1f:03:7b:29:73:9e:99:4c:dc:62:
         fc:c4:9a:a8:aa:9f:e9:04:a0:24:73:96:55:11:05:ba:f4:ab:
         55:bd:f1:d1:1d:89:15:2a:65:6b:25:75:a4:8a:e9:d5:3b:75:
         df:0a:04:5b:ae:bc:02:ee:d4:35:c5:e7:e9:29:c5:a5:19:27:
         7b:6c:5b:9f:4d:4e:ec:e4:92:94:ac:71:ae:64:49:4f:09:cf:
         de:11:09:b2:2d:b4:95:9e:0a:99:a8:7c:02:8c:0c:6c:30:08:
         49:5b:af:76:d6:79:91:b0:9d:96:e9:73:70:b1:a0:27:d4:c8:
         71:c0:15:fa:6b:ae:c1:be:e7:aa:fa:62:86:04:59:a0:37:29:
         1c:08:58:5c:6f:8b:b9:4b:e4:40:2d:0f:f1:c3:5e:4a:cd:14:
         31:46:57:10:50:a0:26:44:bc:79:83:03:f4:a7:df:7b:46:26:
         94:cb:91:26
-----BEGIN CERTIFICATE-----
MIIDATCCAemgAwIBAgIBBjANBgkqhkiG9w0BAQsFADBxMQswCQYDVQQGEwJVUzET
MBEGA1UECAwKQ2FsaWZvcm5pYTEUMBIGA1UEBwwLU2FudGEgQ2xhcmExDTALBgNV
BAoMBHBrZzUxEDAOBgNVBAMMB2NoNV90YTExFjAUBgkqhkiG9w0BCQEWB2NoNV90
YTEwHhcNMjAxMTE3MjMwMTI4WhcNMjMwODE0MjMwMTI4WjB5MQswCQYDVQQGEwJV
UzETMBEGA1UECAwKQ2FsaWZvcm5pYTEUMBIGA1UEBwwLU2FudGEgQ2xhcmExDTAL
BgNVBAoMBHBrZzUxFDASBgNVBAMMC2NzMV9jaDVfdGExMRowGAYJKoZIhvcNAQkB
FgtjczFfY2g1X3RhMTCBnzANBgkqhkiG9w0BAQEFAAOBjQAwgYkCgYEAwfTm3XoD
/moRR6jO8QTvA4qLDd+IP2MV3GT9buQZx6zkot4pCqIAG/RL+3F7LXHSpVXL/SAT
mGnwu8phBn/F9aUG0f+UMhfuEYrnyqo3gAD68F3cvHfCjt2MQHEfnwWvx+Q33SPN
slb5PqHgdfaZV1mwIw/K1p+kZNT+8Vm/emUCAwEAAaMgMB4wDAYDVR0TAQH/BAIw
ADAOBgNVHQ8BAf8EBAMCB4AwDQYJKoZIhvcNAQELBQADggEBAAQwzl61cf/iG1PS
YmhgbHof81ze8BiQiXTIBXLArlswZFh7PhWGUQXuPxhIihxvX/fUqTFBDzE23tFx
5mWC4Xjnor1JteaZ6JWBHuMwbb36HwN7KXOemUzcYvzEmqiqn+kEoCRzllURBbr0
q1W98dEdiRUqZWsldaSK6dU7dd8KBFuuvALu1DXF5+kpxaUZJ3tsW59NTuzkkpSs
ca5kSU8Jz94RCbIttJWeCpmofAKMDGwwCElbr3bWeZGwnZbpc3CxoCfUyHHAFfpr
rsG+56r6YoYEWaA3KRwIWFxvi7lL5EAtD/HDXkrNFDFGVxBQoCZEvHmDA/Sn33tG
JpTLkSY=
-----END CERTIFICATE-----
