Certificate:
    Data:
        Version: 3 (0x2)
        Serial Number: 6 (0x6)
        Signature Algorithm: sha256WithRSAEncryption
        Issuer: C=US, ST=California, L=Santa Clara, O=pkg5, CN=ch5_ta1/emailAddress=ch5_ta1
        Validity
            Not Before: Oct 22 10:15:06 2021 GMT
            Not After : Jul 18 10:15:06 2024 GMT
        Subject: C=US, ST=California, L=Santa Clara, O=pkg5, CN=cs1_ch5_ta1/emailAddress=cs1_ch5_ta1
        Subject Public Key Info:
            Public Key Algorithm: rsaEncryption
                Public-Key: (2048 bit)
                Modulus:
                    00:a7:01:74:82:2e:5f:4c:b3:65:d8:10:dd:d0:2a:
                    3c:f5:af:dd:11:4c:9c:c6:9f:d3:5c:41:06:ef:82:
                    e0:37:4b:ed:61:ae:51:00:dd:f5:67:0a:62:dd:26:
                    62:bc:98:cf:b9:0e:34:88:e5:a0:07:18:af:80:fa:
                    82:0b:59:2e:4e:18:37:67:ca:b3:8c:f9:46:ba:9a:
                    83:86:bb:15:e3:2a:51:8e:12:62:8b:a3:22:60:cd:
                    4f:3d:75:13:d9:2c:60:03:55:37:48:24:8d:4e:eb:
                    b8:64:de:9e:bd:56:f7:a2:eb:45:cd:05:04:76:e4:
                    7a:1c:3e:1a:ba:95:f8:33:97:f7:d5:a3:66:ae:1d:
                    77:6b:72:c2:ca:29:54:6d:03:eb:c5:4b:da:04:15:
                    0b:3a:dc:e5:6e:22:72:d1:a1:57:4b:ef:c2:b0:56:
                    e2:c7:f8:c9:ee:6d:2d:d5:97:ce:6e:ac:f4:ad:4b:
                    9c:40:f0:8d:68:02:c3:ea:9a:00:dd:0e:16:3d:55:
                    17:f6:c3:91:65:d9:9a:d2:55:a8:e3:87:c8:64:bc:
                    8a:e1:3b:37:83:3c:63:ec:17:4f:b7:84:4b:3a:dd:
                    b4:fb:e3:eb:28:3f:6a:35:9b:4f:06:a2:e5:d1:94:
                    9d:a6:e8:b0:2a:09:81:32:b6:87:57:6a:8d:02:68:
                    21:a9
                Exponent: 65537 (0x10001)
        X509v3 extensions:
            X509v3 Basic Constraints: critical
                CA:FALSE
            X509v3 Key Usage: critical
                Digital Signature
            X509v3 Subject Key Identifier: 
                50:7F:C4:BB:2A:E3:79:DC:ED:48:28:AD:01:B1:5D:48:40:F9:40:95
            X509v3 Authority Key Identifier: 
                25:8E:1A:B1:48:1B:60:70:E3:30:8F:09:7A:37:5A:D1:4E:24:CD:79
    Signature Algorithm: sha256WithRSAEncryption
    Signature Value:
        87:de:0c:b7:00:d2:bf:b5:e7:90:d8:37:d3:34:f6:a0:aa:cf:
        95:0b:4d:66:21:02:1d:f7:3d:9b:d8:4a:ff:93:fa:ee:00:1f:
        1e:f1:cc:a7:4c:5c:f2:14:e6:17:c5:cd:e7:d9:ae:f0:fb:60:
        5d:68:52:79:3c:cc:a5:af:56:2d:72:3c:b7:df:2a:c9:6d:79:
        7c:2a:65:12:af:a3:e1:bd:2c:bb:c3:2d:7c:0c:a7:fb:78:d2:
        cd:e5:f9:52:f2:31:98:42:2a:a0:e3:22:3f:85:7d:94:e2:3c:
        df:f9:b9:d8:33:7b:d6:71:33:1f:8f:60:7b:0a:7c:0c:ae:01:
        9e:b8:c2:16:24:20:e7:b5:38:2a:a2:e7:db:7c:8e:40:aa:a8:
        53:b0:61:a7:41:ff:7b:e2:7e:77:f6:1c:d7:88:6c:ba:cd:bb:
        d2:7f:0b:3a:a6:a0:ba:2e:0f:3e:3f:90:9e:ce:51:ea:24:6a:
        66:d0:73:03:97:33:0f:bd:8f:4e:8b:4c:51:b7:c7:cd:3b:6e:
        a2:9f:5e:1f:28:de:a6:7c:41:96:6b:d3:7a:5a:90:15:c5:d6:
        bc:59:0c:f3:4a:e3:77:01:06:2f:70:83:3c:f0:cf:6a:db:5e:
        be:80:8a:db:08:14:ae:d5:da:b8:aa:33:fc:fa:06:8c:a2:4b:
        5a:d4:3a:c5
-----BEGIN CERTIFICATE-----
MIIDxTCCAq2gAwIBAgIBBjANBgkqhkiG9w0BAQsFADBxMQswCQYDVQQGEwJVUzET
MBEGA1UECAwKQ2FsaWZvcm5pYTEUMBIGA1UEBwwLU2FudGEgQ2xhcmExDTALBgNV
BAoMBHBrZzUxEDAOBgNVBAMMB2NoNV90YTExFjAUBgkqhkiG9w0BCQEWB2NoNV90
YTEwHhcNMjExMDIyMTAxNTA2WhcNMjQwNzE4MTAxNTA2WjB5MQswCQYDVQQGEwJV
UzETMBEGA1UECAwKQ2FsaWZvcm5pYTEUMBIGA1UEBwwLU2FudGEgQ2xhcmExDTAL
BgNVBAoMBHBrZzUxFDASBgNVBAMMC2NzMV9jaDVfdGExMRowGAYJKoZIhvcNAQkB
FgtjczFfY2g1X3RhMTCCASIwDQYJKoZIhvcNAQEBBQADggEPADCCAQoCggEBAKcB
dIIuX0yzZdgQ3dAqPPWv3RFMnMaf01xBBu+C4DdL7WGuUQDd9WcKYt0mYryYz7kO
NIjloAcYr4D6ggtZLk4YN2fKs4z5Rrqag4a7FeMqUY4SYoujImDNTz11E9ksYANV
N0gkjU7ruGTenr1W96LrRc0FBHbkehw+GrqV+DOX99WjZq4dd2tywsopVG0D68VL
2gQVCzrc5W4ictGhV0vvwrBW4sf4ye5tLdWXzm6s9K1LnEDwjWgCw+qaAN0OFj1V
F/bDkWXZmtJVqOOHyGS8iuE7N4M8Y+wXT7eESzrdtPvj6yg/ajWbTwai5dGUnabo
sCoJgTK2h1dqjQJoIakCAwEAAaNgMF4wDAYDVR0TAQH/BAIwADAOBgNVHQ8BAf8E
BAMCB4AwHQYDVR0OBBYEFFB/xLsq43nc7UgorQGxXUhA+UCVMB8GA1UdIwQYMBaA
FCWOGrFIG2Bw4zCPCXo3WtFOJM15MA0GCSqGSIb3DQEBCwUAA4IBAQCH3gy3ANK/
teeQ2DfTNPagqs+VC01mIQId9z2b2Er/k/ruAB8e8cynTFzyFOYXxc3n2a7w+2Bd
aFJ5PMylr1Ytcjy33yrJbXl8KmUSr6PhvSy7wy18DKf7eNLN5flS8jGYQiqg4yI/
hX2U4jzf+bnYM3vWcTMfj2B7CnwMrgGeuMIWJCDntTgqoufbfI5AqqhTsGGnQf97
4n539hzXiGy6zbvSfws6pqC6Lg8+P5CezlHqJGpm0HMDlzMPvY9Oi0xRt8fNO26i
n14fKN6mfEGWa9N6WpAVxda8WQzzSuN3AQYvcIM88M9q216+gIrbCBSu1dq4qjP8
+gaMokta1DrF
-----END CERTIFICATE-----
