Certificate:
    Data:
        Version: 3 (0x2)
        Serial Number: 6 (0x6)
    Signature Algorithm: sha256WithRSAEncryption
        Issuer: C=US, ST=California, L=Santa Clara, O=pkg5, CN=ch5_ta1/emailAddress=ch5_ta1
        Validity
            Not Before: Nov 28 22:50:55 2016 GMT
            Not After : Aug 25 22:50:55 2019 GMT
        Subject: C=US, ST=California, L=Santa Clara, O=pkg5, CN=cs1_ch5_ta1/emailAddress=cs1_ch5_ta1
        Subject Public Key Info:
            Public Key Algorithm: rsaEncryption
                Public-Key: (1024 bit)
                Modulus:
                    00:97:08:c3:76:29:32:f8:52:e1:b6:0f:ec:29:cb:
                    d1:a1:69:65:6f:78:4d:b5:1c:0a:35:5f:aa:c2:2d:
                    3e:08:9a:ec:2b:d3:b7:c3:6d:5b:10:40:5c:d0:f7:
                    1b:5a:a9:0e:01:48:ad:eb:8f:1d:7e:6d:be:81:c1:
                    e0:98:83:ac:05:38:0b:71:78:01:45:26:b4:74:6c:
                    ec:d8:29:1d:fc:c9:c3:8c:ac:d8:a4:fe:92:10:b3:
                    fa:a4:23:65:7f:69:7e:a8:de:2f:5d:23:0a:56:9a:
                    98:0e:8a:0c:e6:a5:71:fc:c6:38:19:5e:00:43:81:
                    01:2f:0a:2b:b4:92:49:0e:05
                Exponent: 65537 (0x10001)
        X509v3 extensions:
            X509v3 Basic Constraints: critical
                CA:FALSE
            X509v3 Key Usage: critical
                Digital Signature
    Signature Algorithm: sha256WithRSAEncryption
         a1:3a:45:d2:15:bb:13:b0:c5:89:9c:3f:e0:01:80:3d:f8:6d:
         07:17:9f:d8:7d:9b:55:fe:f4:46:7d:c1:35:ca:34:6f:a6:fe:
         1e:bc:07:4d:c6:9a:52:df:1e:40:b1:62:11:24:dc:5b:29:c6:
         cb:65:a0:33:b3:3d:db:3f:ae:e8:45:e9:6e:21:0c:c0:ae:30:
         0a:4d:0b:97:07:00:b5:3f:4e:ea:ec:9d:a3:c1:4f:7d:01:6f:
         95:fd:ae:95:51:7e:31:ae:de:28:a4:fd:95:50:d8:c7:85:89:
         7f:4c:6c:c5:18:fa:88:3e:05:f2:47:f6:ff:2d:cc:62:19:0f:
         fb:bf:d9:18:c8:b4:d3:2d:34:39:bb:5b:5d:12:dc:54:9c:35:
         27:41:93:ee:a7:d3:18:4c:e2:ae:1d:b9:c2:cc:83:c1:5c:d1:
         c6:a7:b5:ee:8d:8e:36:2f:02:e8:94:9a:ef:3f:b9:e3:ab:c9:
         78:d7:2f:0e:e5:cd:2b:ed:e8:1a:26:a8:9d:d5:0d:a7:e9:1a:
         13:4e:06:0e:78:ce:ef:ae:7c:17:75:8c:a8:2a:17:2d:6a:8d:
         a0:1f:a0:48:38:69:8f:1f:37:0c:46:e5:c8:05:e7:44:3a:f4:
         89:3c:e2:64:df:b4:f9:49:ad:bf:e7:47:52:8e:f4:d4:45:8d:
         d0:e0:29:26
-----BEGIN CERTIFICATE-----
MIIDATCCAemgAwIBAgIBBjANBgkqhkiG9w0BAQsFADBxMQswCQYDVQQGEwJVUzET
MBEGA1UECAwKQ2FsaWZvcm5pYTEUMBIGA1UEBwwLU2FudGEgQ2xhcmExDTALBgNV
BAoMBHBrZzUxEDAOBgNVBAMMB2NoNV90YTExFjAUBgkqhkiG9w0BCQEWB2NoNV90
YTEwHhcNMTYxMTI4MjI1MDU1WhcNMTkwODI1MjI1MDU1WjB5MQswCQYDVQQGEwJV
UzETMBEGA1UECAwKQ2FsaWZvcm5pYTEUMBIGA1UEBwwLU2FudGEgQ2xhcmExDTAL
BgNVBAoMBHBrZzUxFDASBgNVBAMMC2NzMV9jaDVfdGExMRowGAYJKoZIhvcNAQkB
FgtjczFfY2g1X3RhMTCBnzANBgkqhkiG9w0BAQEFAAOBjQAwgYkCgYEAlwjDdiky
+FLhtg/sKcvRoWllb3hNtRwKNV+qwi0+CJrsK9O3w21bEEBc0PcbWqkOAUit648d
fm2+gcHgmIOsBTgLcXgBRSa0dGzs2Ckd/MnDjKzYpP6SELP6pCNlf2l+qN4vXSMK
VpqYDooM5qVx/MY4GV4AQ4EBLwortJJJDgUCAwEAAaMgMB4wDAYDVR0TAQH/BAIw
ADAOBgNVHQ8BAf8EBAMCB4AwDQYJKoZIhvcNAQELBQADggEBAKE6RdIVuxOwxYmc
P+ABgD34bQcXn9h9m1X+9EZ9wTXKNG+m/h68B03GmlLfHkCxYhEk3FspxstloDOz
Pds/ruhF6W4hDMCuMApNC5cHALU/TursnaPBT30Bb5X9rpVRfjGu3iik/ZVQ2MeF
iX9MbMUY+og+BfJH9v8tzGIZD/u/2RjItNMtNDm7W10S3FScNSdBk+6n0xhM4q4d
ucLMg8Fc0cante6NjjYvAuiUmu8/ueOryXjXLw7lzSvt6BomqJ3VDafpGhNOBg54
zu+ufBd1jKgqFy1qjaAfoEg4aY8fNwxG5cgF50Q69Ik84mTftPlJrb/nR1KO9NRF
jdDgKSY=
-----END CERTIFICATE-----
