Certificate:
    Data:
        Version: 3 (0x2)
        Serial Number: 6 (0x6)
        Signature Algorithm: sha256WithRSAEncryption
        Issuer: C=US, ST=California, L=Santa Clara, O=pkg5, CN=ch5_ta1/emailAddress=ch5_ta1
        Validity
            Not Before: Nov 14 14:26:51 2024 GMT
            Not After : Aug 11 14:26:51 2027 GMT
        Subject: C=US, ST=California, L=Santa Clara, O=pkg5, CN=cs1_ch5_ta1/emailAddress=cs1_ch5_ta1
        Subject Public Key Info:
            Public Key Algorithm: rsaEncryption
                Public-Key: (2048 bit)
                Modulus:
                    00:95:b7:9d:c5:1f:99:fa:b8:7d:b6:79:3f:51:c3:
                    80:14:3a:47:04:c2:c5:ea:4c:bd:09:e2:de:84:ca:
                    27:85:f1:f9:67:df:d9:7d:0f:a8:03:91:26:a0:0a:
                    63:2c:98:37:a2:5f:c9:35:53:10:62:cc:bf:3d:c6:
                    54:7d:85:b4:52:44:66:e0:52:f9:87:2e:42:a6:80:
                    90:5b:3b:da:64:95:78:18:bc:07:59:6b:9f:16:64:
                    9c:e0:da:d3:37:2c:ad:78:d8:54:9b:7f:cb:0d:28:
                    c7:60:10:b0:22:38:40:51:bc:f4:32:cf:b7:c0:2e:
                    c8:3b:59:6c:bf:40:f2:88:45:dc:77:06:87:6f:4d:
                    40:4e:67:5a:7b:f3:d8:26:73:3a:f2:1c:43:44:91:
                    c9:4b:6b:f9:3a:1c:3b:c6:23:ff:d1:ab:6c:b4:ea:
                    55:02:e4:11:92:27:68:ee:4d:a8:78:23:b3:6e:d3:
                    3c:e4:27:69:fa:f6:a4:07:7c:15:a5:3a:a6:58:a1:
                    71:a1:1c:1c:fb:69:cf:ab:8c:54:04:fb:04:71:66:
                    48:29:b6:30:14:f8:dc:ed:0d:30:af:db:62:17:bf:
                    7a:7f:1f:d0:cf:6a:0b:84:cd:d0:a3:58:c0:02:bc:
                    f0:94:30:2a:f6:81:4b:d7:a3:bb:af:67:ac:60:e1:
                    0e:73
                Exponent: 65537 (0x10001)
        X509v3 extensions:
            X509v3 Basic Constraints: critical
                CA:FALSE
            X509v3 Key Usage: critical
                Digital Signature
            X509v3 Subject Key Identifier: 
                2D:C9:5D:D9:4F:4D:6C:98:2E:3C:6E:6B:F8:0E:29:A8:7B:40:E0:5B
            X509v3 Authority Key Identifier: 
                D6:AC:B5:CE:15:A5:A5:63:ED:CD:0D:D2:64:2C:B3:B0:31:C4:86:C8
    Signature Algorithm: sha256WithRSAEncryption
    Signature Value:
        8a:e2:60:05:b6:84:3d:52:ea:f5:49:66:e4:7e:30:6d:9f:a2:
        36:8c:55:bb:9d:23:2f:80:d4:9d:7b:14:76:f6:ac:0a:f1:7c:
        8f:bd:26:0b:03:96:7a:60:8d:40:cf:b5:ae:89:dc:e2:ec:b8:
        3e:10:a9:ab:17:7e:7a:a4:8a:78:2b:40:4b:43:c7:22:ea:9a:
        c7:be:a7:70:30:b6:16:28:66:31:e2:69:83:50:13:f7:07:47:
        4c:02:2e:e5:a1:e1:78:fd:b4:94:c5:47:d0:e7:c3:38:3b:8d:
        08:01:c6:2e:a3:68:94:0b:05:32:83:aa:e1:36:71:58:70:e7:
        ed:21:22:84:03:11:ff:c2:dd:8c:1e:e7:55:ff:02:1a:5b:68:
        f3:7e:c9:8b:3e:87:44:b1:3a:25:09:7a:62:8a:91:c3:69:17:
        7b:08:dd:18:4a:fe:78:4a:0f:ca:a8:17:9c:92:56:1b:83:d5:
        be:64:f7:05:96:13:ac:16:4f:d7:17:f6:f4:e5:c9:42:e7:b8:
        9f:8b:a0:2a:5a:50:74:95:3b:21:65:11:7d:42:64:54:66:8b:
        00:3b:d7:59:2f:85:4d:cc:91:23:11:aa:14:6c:4b:34:65:ca:
        86:38:14:05:70:9c:18:13:92:9c:ef:5f:7b:f6:38:a0:3b:bc:
        67:71:d3:13
-----BEGIN CERTIFICATE-----
MIIDxTCCAq2gAwIBAgIBBjANBgkqhkiG9w0BAQsFADBxMQswCQYDVQQGEwJVUzET
MBEGA1UECAwKQ2FsaWZvcm5pYTEUMBIGA1UEBwwLU2FudGEgQ2xhcmExDTALBgNV
BAoMBHBrZzUxEDAOBgNVBAMMB2NoNV90YTExFjAUBgkqhkiG9w0BCQEWB2NoNV90
YTEwHhcNMjQxMTE0MTQyNjUxWhcNMjcwODExMTQyNjUxWjB5MQswCQYDVQQGEwJV
UzETMBEGA1UECAwKQ2FsaWZvcm5pYTEUMBIGA1UEBwwLU2FudGEgQ2xhcmExDTAL
BgNVBAoMBHBrZzUxFDASBgNVBAMMC2NzMV9jaDVfdGExMRowGAYJKoZIhvcNAQkB
FgtjczFfY2g1X3RhMTCCASIwDQYJKoZIhvcNAQEBBQADggEPADCCAQoCggEBAJW3
ncUfmfq4fbZ5P1HDgBQ6RwTCxepMvQni3oTKJ4Xx+Wff2X0PqAORJqAKYyyYN6Jf
yTVTEGLMvz3GVH2FtFJEZuBS+YcuQqaAkFs72mSVeBi8B1lrnxZknODa0zcsrXjY
VJt/yw0ox2AQsCI4QFG89DLPt8AuyDtZbL9A8ohF3HcGh29NQE5nWnvz2CZzOvIc
Q0SRyUtr+TocO8Yj/9GrbLTqVQLkEZInaO5NqHgjs27TPOQnafr2pAd8FaU6plih
caEcHPtpz6uMVAT7BHFmSCm2MBT43O0NMK/bYhe/en8f0M9qC4TN0KNYwAK88JQw
KvaBS9eju69nrGDhDnMCAwEAAaNgMF4wDAYDVR0TAQH/BAIwADAOBgNVHQ8BAf8E
BAMCB4AwHQYDVR0OBBYEFC3JXdlPTWyYLjxua/gOKah7QOBbMB8GA1UdIwQYMBaA
FNastc4VpaVj7c0N0mQss7AxxIbIMA0GCSqGSIb3DQEBCwUAA4IBAQCK4mAFtoQ9
Uur1SWbkfjBtn6I2jFW7nSMvgNSdexR29qwK8XyPvSYLA5Z6YI1Az7Wuidzi7Lg+
EKmrF356pIp4K0BLQ8ci6prHvqdwMLYWKGYx4mmDUBP3B0dMAi7loeF4/bSUxUfQ
58M4O40IAcYuo2iUCwUyg6rhNnFYcOftISKEAxH/wt2MHudV/wIaW2jzfsmLPodE
sTolCXpiipHDaRd7CN0YSv54Sg/KqBecklYbg9W+ZPcFlhOsFk/XF/b05clC57if
i6AqWlB0lTshZRF9QmRUZosAO9dZL4VNzJEjEaoUbEs0ZcqGOBQFcJwYE5Kc7197
9jigO7xncdMT
-----END CERTIFICATE-----
