Certificate:
    Data:
        Version: 3 (0x2)
        Serial Number: 6 (0x6)
    Signature Algorithm: sha256WithRSAEncryption
        Issuer: C=US, ST=California, L=Santa Clara, O=pkg5, CN=ch5_ta1/emailAddress=ch5_ta1
        Validity
            Not Before: Dec  6 03:06:42 2014 GMT
            Not After : Sep  1 03:06:42 2017 GMT
        Subject: C=US, ST=California, L=Santa Clara, O=pkg5, CN=cs1_ch5_ta1/emailAddress=cs1_ch5_ta1
        Subject Public Key Info:
            Public Key Algorithm: rsaEncryption
                Public-Key: (1024 bit)
                Modulus:
                    00:dd:d4:90:b6:46:0c:61:ac:10:16:f6:19:8e:2f:
                    bb:d4:a0:1a:cc:25:ad:1d:30:28:b9:e8:ac:cc:cd:
                    9d:ff:54:8d:2d:5c:a6:6e:a1:77:43:8a:33:d9:bf:
                    de:28:52:bc:29:c5:a9:a4:b4:d8:62:a6:c9:2b:e4:
                    a2:45:d2:e8:70:73:97:a3:25:88:b3:a5:aa:f6:e7:
                    b6:27:2a:3e:24:e7:ac:7c:0a:ec:ce:09:de:7b:69:
                    0e:78:57:f6:7d:57:e7:22:be:0e:20:89:7a:08:c9:
                    e4:b1:94:c9:91:14:b5:d0:24:13:74:12:2d:7b:16:
                    62:ee:49:c7:c5:71:43:13:07
                Exponent: 65537 (0x10001)
        X509v3 extensions:
            X509v3 Basic Constraints: critical
                CA:FALSE
            X509v3 Key Usage: critical
                Digital Signature
    Signature Algorithm: sha256WithRSAEncryption
         62:3f:a5:31:57:0a:8e:41:6a:cb:79:2f:0e:c2:6a:e9:bf:af:
         9d:84:59:d7:89:37:74:9a:52:f6:ff:3e:1c:ce:0d:bc:4b:e7:
         d0:3e:f2:1a:fe:fb:8f:0a:bc:dc:2e:84:42:4f:42:bc:cb:d5:
         cf:dd:6b:56:7e:cd:00:3a:2f:3b:34:76:09:9f:6f:b0:17:a1:
         59:06:63:ac:30:7b:5e:7e:a8:9d:21:10:56:b3:82:b1:9f:2e:
         ff:4d:33:f5:66:db:36:3e:ab:bf:34:a9:32:44:c6:50:6b:36:
         6d:39:fd:30:2b:f6:16:2c:c5:b4:8c:3b:15:35:43:cd:6b:8d:
         fd:fd
-----BEGIN CERTIFICATE-----
MIICgDCCAemgAwIBAgIBBjANBgkqhkiG9w0BAQsFADBxMQswCQYDVQQGEwJVUzET
MBEGA1UECAwKQ2FsaWZvcm5pYTEUMBIGA1UEBwwLU2FudGEgQ2xhcmExDTALBgNV
BAoMBHBrZzUxEDAOBgNVBAMMB2NoNV90YTExFjAUBgkqhkiG9w0BCQEWB2NoNV90
YTEwHhcNMTQxMjA2MDMwNjQyWhcNMTcwOTAxMDMwNjQyWjB5MQswCQYDVQQGEwJV
UzETMBEGA1UECAwKQ2FsaWZvcm5pYTEUMBIGA1UEBwwLU2FudGEgQ2xhcmExDTAL
BgNVBAoMBHBrZzUxFDASBgNVBAMMC2NzMV9jaDVfdGExMRowGAYJKoZIhvcNAQkB
FgtjczFfY2g1X3RhMTCBnzANBgkqhkiG9w0BAQEFAAOBjQAwgYkCgYEA3dSQtkYM
YawQFvYZji+71KAazCWtHTAoueiszM2d/1SNLVymbqF3Q4oz2b/eKFK8KcWppLTY
YqbJK+SiRdLocHOXoyWIs6Wq9ue2Jyo+JOesfArszgnee2kOeFf2fVfnIr4OIIl6
CMnksZTJkRS10CQTdBItexZi7knHxXFDEwcCAwEAAaMgMB4wDAYDVR0TAQH/BAIw
ADAOBgNVHQ8BAf8EBAMCB4AwDQYJKoZIhvcNAQELBQADgYEAYj+lMVcKjkFqy3kv
DsJq6b+vnYRZ14k3dJpS9v8+HM4NvEvn0D7yGv77jwq83C6EQk9CvMvVz91rVn7N
ADovOzR2CZ9vsBehWQZjrDB7Xn6onSEQVrOCsZ8u/00z9WbbNj6rvzSpMkTGUGs2
bTn9MCv2FizFtIw7FTVDzWuN/f0=
-----END CERTIFICATE-----
