Certificate:
    Data:
        Version: 3 (0x2)
        Serial Number: 7 (0x7)
        Signature Algorithm: sha256WithRSAEncryption
        Issuer: C=US, ST=California, L=Santa Clara, O=pkg5, CN=ch5_ta1/emailAddress=ch5_ta1
        Validity
            Not Before: Oct 24 21:43:00 2023 GMT
            Not After : Jul 20 21:43:00 2026 GMT
        Subject: C=US, ST=California, L=Santa Clara, O=pkg5, CN=cs2_ch5_ta1/emailAddress=cs2_ch5_ta1
        Subject Public Key Info:
            Public Key Algorithm: rsaEncryption
                Public-Key: (2048 bit)
                Modulus:
                    00:8f:ac:65:69:2a:3a:b0:80:2a:bd:52:eb:ed:38:
                    7a:25:4b:69:5a:cc:3e:9c:3e:8d:f0:77:d2:9e:39:
                    50:d5:6a:9a:87:f0:1a:87:f3:18:09:1e:70:b1:c4:
                    13:83:4e:83:c6:32:c1:76:90:ca:1f:35:c8:65:a9:
                    3b:3b:ad:da:8a:22:7c:e1:ac:6c:23:b5:7d:40:4a:
                    86:c8:e6:66:48:67:3c:02:e1:32:ec:87:c3:d0:45:
                    09:a5:9e:4f:10:2e:72:66:49:17:03:1a:e3:0e:59:
                    76:64:1a:7a:e0:0c:4d:58:25:6b:82:f8:70:9f:e0:
                    06:1b:f9:1c:b8:ce:9e:01:44:c8:e2:89:1d:7d:c9:
                    69:1e:be:83:0d:b6:ca:bb:06:ab:14:f0:0a:2e:af:
                    79:00:53:3e:a6:73:5b:f5:47:bc:b3:2d:d9:b8:44:
                    61:78:cd:7c:0c:e0:90:1c:e3:f9:89:d7:bc:c1:d5:
                    d4:45:58:63:fb:7c:43:4d:1c:fe:b5:21:81:cd:4f:
                    91:76:68:f8:6f:4f:ba:fb:77:96:c5:db:ae:9e:bc:
                    73:66:b0:fa:6c:ad:8b:77:a8:12:46:b1:06:1d:38:
                    5e:91:76:05:11:3d:eb:5b:5e:cd:98:c4:0b:8b:d6:
                    89:01:b1:95:51:82:82:84:7a:0f:af:4d:18:6b:6a:
                    86:6f
                Exponent: 65537 (0x10001)
        X509v3 extensions:
            X509v3 Basic Constraints: critical
                CA:FALSE
            X509v3 CRL Distribution Points: 
                Full Name:
                  URI:http://localhost:12001/file/0/ch5_ta1_crl.pem
            X509v3 Subject Key Identifier: 
                05:53:BA:98:2D:BB:DA:BA:20:C4:00:32:70:0E:0F:BF:2C:8A:9C:6E
            X509v3 Authority Key Identifier: 
                45:27:9F:DE:4D:50:48:45:6D:EF:42:7A:12:3D:AC:95:FA:F8:9B:D6
    Signature Algorithm: sha256WithRSAEncryption
    Signature Value:
        2a:75:50:4f:70:9b:01:ed:27:d8:0a:76:57:61:96:27:41:43:
        28:ec:20:16:33:ea:cc:e2:75:09:e6:38:b0:8e:10:61:e2:ab:
        35:da:a0:02:56:6e:4b:33:7c:f6:f1:bd:7c:5e:26:6d:88:55:
        4a:ea:7f:b1:2d:2d:b3:ce:99:a3:59:54:fc:fa:40:e8:b3:52:
        51:ea:58:7e:5d:7c:ea:e3:f9:1e:37:b8:54:ab:58:3e:97:08:
        72:48:a4:07:f9:bc:f4:87:5d:45:53:7b:5f:75:1b:23:d3:78:
        09:bf:0b:9b:05:e1:7d:bf:96:65:76:ff:a3:15:25:90:dc:9b:
        a3:a6:c7:94:69:e0:ef:b4:65:f4:a5:5f:92:f6:a5:43:69:b6:
        13:53:f2:b2:fe:ba:c9:16:4e:43:50:91:c4:97:82:d4:cd:33:
        30:d3:66:12:55:d2:dd:ed:dd:3c:77:1d:b3:58:93:6a:03:f9:
        f6:50:f4:58:a3:2a:54:6c:4b:da:2e:c6:2b:0c:90:a6:b0:0d:
        d2:dd:a1:e8:f4:7c:ae:84:05:3e:b7:3a:8e:cc:f9:f8:b6:40:
        9e:0c:17:a8:8c:73:92:f4:a1:62:6e:d7:d4:aa:38:50:17:36:
        7b:93:f6:af:34:ca:bc:60:a7:6a:9c:b9:cd:11:f1:d9:38:bc:
        82:fc:53:a3
-----BEGIN CERTIFICATE-----
MIID9zCCAt+gAwIBAgIBBzANBgkqhkiG9w0BAQsFADBxMQswCQYDVQQGEwJVUzET
MBEGA1UECAwKQ2FsaWZvcm5pYTEUMBIGA1UEBwwLU2FudGEgQ2xhcmExDTALBgNV
BAoMBHBrZzUxEDAOBgNVBAMMB2NoNV90YTExFjAUBgkqhkiG9w0BCQEWB2NoNV90
YTEwHhcNMjMxMDI0MjE0MzAwWhcNMjYwNzIwMjE0MzAwWjB5MQswCQYDVQQGEwJV
UzETMBEGA1UECAwKQ2FsaWZvcm5pYTEUMBIGA1UEBwwLU2FudGEgQ2xhcmExDTAL
BgNVBAoMBHBrZzUxFDASBgNVBAMMC2NzMl9jaDVfdGExMRowGAYJKoZIhvcNAQkB
FgtjczJfY2g1X3RhMTCCASIwDQYJKoZIhvcNAQEBBQADggEPADCCAQoCggEBAI+s
ZWkqOrCAKr1S6+04eiVLaVrMPpw+jfB30p45UNVqmofwGofzGAkecLHEE4NOg8Yy
wXaQyh81yGWpOzut2ooifOGsbCO1fUBKhsjmZkhnPALhMuyHw9BFCaWeTxAucmZJ
FwMa4w5ZdmQaeuAMTVgla4L4cJ/gBhv5HLjOngFEyOKJHX3JaR6+gw22yrsGqxTw
Ci6veQBTPqZzW/VHvLMt2bhEYXjNfAzgkBzj+YnXvMHV1EVYY/t8Q00c/rUhgc1P
kXZo+G9Puvt3lsXbrp68c2aw+myti3eoEkaxBh04XpF2BRE961tezZjEC4vWiQGx
lVGCgoR6D69NGGtqhm8CAwEAAaOBkTCBjjAMBgNVHRMBAf8EAjAAMD4GA1UdHwQ3
MDUwM6AxoC+GLWh0dHA6Ly9sb2NhbGhvc3Q6MTIwMDEvZmlsZS8wL2NoNV90YTFf
Y3JsLnBlbTAdBgNVHQ4EFgQUBVO6mC272rogxAAycA4PvyyKnG4wHwYDVR0jBBgw
FoAURSef3k1QSEVt70J6Ej2slfr4m9YwDQYJKoZIhvcNAQELBQADggEBACp1UE9w
mwHtJ9gKdldhlidBQyjsIBYz6szidQnmOLCOEGHiqzXaoAJWbkszfPbxvXxeJm2I
VUrqf7EtLbPOmaNZVPz6QOizUlHqWH5dfOrj+R43uFSrWD6XCHJIpAf5vPSHXUVT
e191GyPTeAm/C5sF4X2/lmV2/6MVJZDcm6Omx5Rp4O+0ZfSlX5L2pUNpthNT8rL+
uskWTkNQkcSXgtTNMzDTZhJV0t3t3Tx3HbNYk2oD+fZQ9FijKlRsS9ouxisMkKaw
DdLdoej0fK6EBT63Oo7M+fi2QJ4MF6iMc5L0oWJu19SqOFAXNnuT9q80yrxgp2qc
uc0R8dk4vIL8U6M=
-----END CERTIFICATE-----
