Certificate:
    Data:
        Version: 3 (0x2)
        Serial Number: 7 (0x7)
        Signature Algorithm: sha256WithRSAEncryption
        Issuer: C=US, ST=California, L=Santa Clara, O=pkg5, CN=ch5_ta1/emailAddress=ch5_ta1
        Validity
            Not Before: Nov 17 23:01:28 2020 GMT
            Not After : Aug 14 23:01:28 2023 GMT
        Subject: C=US, ST=California, L=Santa Clara, O=pkg5, CN=cs2_ch5_ta1/emailAddress=cs2_ch5_ta1
        Subject Public Key Info:
            Public Key Algorithm: rsaEncryption
                RSA Public-Key: (1024 bit)
                Modulus:
                    00:b3:87:c3:39:2f:72:8f:27:44:57:5e:90:f1:b4:
                    e7:4b:ec:72:f8:18:3b:39:37:b0:9f:86:59:d6:b0:
                    74:d5:af:88:de:89:75:0b:38:3a:38:98:17:5f:ea:
                    a6:0a:b4:6a:9b:ea:8a:ce:73:59:42:c0:35:23:0a:
                    82:99:75:bf:7e:ec:66:1e:55:e8:3f:05:9a:3c:b6:
                    b7:09:d2:de:a0:16:ce:ef:db:ec:9c:f4:2e:2d:f3:
                    c3:26:26:28:ef:c0:70:75:f2:c3:7e:7e:69:2b:f7:
                    9b:7d:04:8f:42:c8:72:40:a3:58:77:f5:44:2c:9c:
                    36:5b:1f:27:1c:19:cb:2f:09
                Exponent: 65537 (0x10001)
        X509v3 extensions:
            X509v3 Basic Constraints: critical
                CA:FALSE
            X509v3 CRL Distribution Points: 

                Full Name:
                  URI:http://localhost:12001/file/0/ch5_ta1_crl.pem

    Signature Algorithm: sha256WithRSAEncryption
         61:98:c4:dd:f5:04:74:e4:93:83:58:45:58:b9:3a:8e:ae:f4:
         41:63:a3:09:89:da:f7:d0:6f:05:0b:fa:62:0c:f8:aa:d7:ac:
         68:92:f8:8b:62:d6:b3:51:ac:8f:5a:34:52:54:46:46:1f:7f:
         1c:10:63:bb:72:45:47:51:c9:2e:a9:8f:8c:85:9e:f8:78:50:
         8b:2e:d6:e4:58:52:3e:4e:fe:c2:ab:10:5a:46:8a:08:7d:6f:
         0b:9b:81:ed:ff:63:e4:bd:55:b0:fb:7e:51:20:d0:db:e7:0f:
         c1:40:c4:a8:40:50:fe:72:40:ee:3e:a7:ea:57:1d:9c:dc:b3:
         8c:23:7c:e5:76:92:e3:08:c2:bd:0f:c5:73:ba:a2:cd:4b:f3:
         62:d1:56:73:86:ec:19:2d:e0:55:1a:4f:7b:9f:f2:54:60:24:
         bd:6c:41:5c:6b:47:df:93:cd:59:35:4a:be:21:a2:ee:2d:7f:
         05:9a:36:1f:31:bc:c9:90:33:7d:07:db:61:ca:91:b9:af:8d:
         75:c6:66:3c:29:2a:48:c3:75:f2:55:f4:98:64:38:1d:8e:63:
         76:32:c9:c0:f7:32:1b:2a:d9:be:c0:d8:a5:26:58:57:9c:3f:
         7f:98:3f:cc:45:80:8b:ae:0d:ab:86:be:e8:e8:a6:e1:6d:62:
         2c:d5:45:cd
-----BEGIN CERTIFICATE-----
MIIDMTCCAhmgAwIBAgIBBzANBgkqhkiG9w0BAQsFADBxMQswCQYDVQQGEwJVUzET
MBEGA1UECAwKQ2FsaWZvcm5pYTEUMBIGA1UEBwwLU2FudGEgQ2xhcmExDTALBgNV
BAoMBHBrZzUxEDAOBgNVBAMMB2NoNV90YTExFjAUBgkqhkiG9w0BCQEWB2NoNV90
YTEwHhcNMjAxMTE3MjMwMTI4WhcNMjMwODE0MjMwMTI4WjB5MQswCQYDVQQGEwJV
UzETMBEGA1UECAwKQ2FsaWZvcm5pYTEUMBIGA1UEBwwLU2FudGEgQ2xhcmExDTAL
BgNVBAoMBHBrZzUxFDASBgNVBAMMC2NzMl9jaDVfdGExMRowGAYJKoZIhvcNAQkB
FgtjczJfY2g1X3RhMTCBnzANBgkqhkiG9w0BAQEFAAOBjQAwgYkCgYEAs4fDOS9y
jydEV16Q8bTnS+xy+Bg7OTewn4ZZ1rB01a+I3ol1Czg6OJgXX+qmCrRqm+qKznNZ
QsA1IwqCmXW/fuxmHlXoPwWaPLa3CdLeoBbO79vsnPQuLfPDJiYo78BwdfLDfn5p
K/ebfQSPQshyQKNYd/VELJw2Wx8nHBnLLwkCAwEAAaNQME4wDAYDVR0TAQH/BAIw
ADA+BgNVHR8ENzA1MDOgMaAvhi1odHRwOi8vbG9jYWxob3N0OjEyMDAxL2ZpbGUv
MC9jaDVfdGExX2NybC5wZW0wDQYJKoZIhvcNAQELBQADggEBAGGYxN31BHTkk4NY
RVi5Oo6u9EFjowmJ2vfQbwUL+mIM+KrXrGiS+Iti1rNRrI9aNFJURkYffxwQY7ty
RUdRyS6pj4yFnvh4UIsu1uRYUj5O/sKrEFpGigh9bwubge3/Y+S9VbD7flEg0Nvn
D8FAxKhAUP5yQO4+p+pXHZzcs4wjfOV2kuMIwr0PxXO6os1L82LRVnOG7Bkt4FUa
T3uf8lRgJL1sQVxrR9+TzVk1Sr4hou4tfwWaNh8xvMmQM30H22HKkbmvjXXGZjwp
KkjDdfJV9JhkOB2OY3YyycD3Mhsq2b7A2KUmWFecP3+YP8xFgIuuDauGvujopuFt
YizVRc0=
-----END CERTIFICATE-----
