Certificate:
    Data:
        Version: 3 (0x2)
        Serial Number: 7 (0x7)
        Signature Algorithm: sha256WithRSAEncryption
        Issuer: C=US, ST=California, L=Santa Clara, O=pkg5, CN=ch5_ta1/emailAddress=ch5_ta1
        Validity
            Not Before: May 23 15:47:15 2024 GMT
            Not After : Feb 17 15:47:15 2027 GMT
        Subject: C=US, ST=California, L=Santa Clara, O=pkg5, CN=cs2_ch5_ta1/emailAddress=cs2_ch5_ta1
        Subject Public Key Info:
            Public Key Algorithm: rsaEncryption
                Public-Key: (2048 bit)
                Modulus:
                    00:ad:9f:16:e3:ea:d1:5b:67:6b:46:6a:18:3d:98:
                    54:bd:40:7e:96:a3:ee:42:06:56:29:e0:e7:e1:30:
                    eb:36:78:f7:6a:fc:42:25:ac:29:99:07:d3:59:b6:
                    85:9c:fe:79:4b:de:64:c0:5c:0f:41:fe:5d:b0:59:
                    b5:3c:7b:3f:b1:d8:e4:3e:e8:98:6e:f6:23:75:fd:
                    04:f3:a5:f6:7f:8b:77:cb:90:2a:92:ce:9c:a8:26:
                    a0:a2:51:a3:a0:e0:ff:2f:29:7f:93:db:35:a5:9b:
                    3e:35:7d:f2:b3:a5:c2:fd:0d:44:10:ed:dc:cc:e7:
                    06:94:a9:de:b8:6c:a5:fd:7d:5d:ab:34:e9:fc:e5:
                    73:7e:0d:2f:eb:cf:d0:64:5a:c1:bc:d7:34:4a:e2:
                    22:97:87:b4:dc:7a:16:e2:91:3b:af:b0:98:4c:54:
                    12:06:3f:9e:e1:24:20:a8:dc:c7:2d:99:c6:ea:fc:
                    e1:c3:b3:ff:db:13:53:b1:2a:61:7d:b2:ee:b9:49:
                    e0:99:20:05:7a:3a:b9:6a:a3:f0:3b:de:f5:3d:7e:
                    e7:25:2d:70:8c:91:3c:4b:3d:de:a0:c4:01:ed:44:
                    00:17:6f:51:31:71:b3:88:14:a9:e8:1a:18:c1:be:
                    f2:01:32:10:35:59:f3:7f:51:32:78:03:ae:d4:76:
                    5b:61
                Exponent: 65537 (0x10001)
        X509v3 extensions:
            X509v3 Basic Constraints: critical
                CA:FALSE
            X509v3 CRL Distribution Points: 
                Full Name:
                  URI:http://localhost:12001/file/0/ch5_ta1_crl.pem
            X509v3 Subject Key Identifier: 
                BD:63:02:D7:FA:4C:C1:C5:18:FC:5F:C0:78:3E:39:CD:0E:04:DF:A4
            X509v3 Authority Key Identifier: 
                7D:3C:C1:C8:B7:6C:80:5F:63:BD:43:AA:06:EA:CF:00:3E:C8:D2:BC
    Signature Algorithm: sha256WithRSAEncryption
    Signature Value:
        5e:b6:ba:df:9e:7d:69:4e:08:e4:dc:19:95:be:34:14:4a:de:
        b5:4f:a4:56:f8:8f:bd:40:db:f0:cd:2c:ca:59:79:38:3c:00:
        f3:f5:e0:2f:2f:6b:9f:1f:d0:78:03:62:dd:43:e8:a0:f6:90:
        06:f7:01:da:53:5f:e9:9c:7a:ef:90:2e:eb:00:28:d3:50:f2:
        eb:87:77:95:50:e0:9a:3a:40:32:39:ee:2b:a3:9d:bb:c5:8d:
        0f:a5:c1:6b:28:e4:ba:92:3e:f7:dd:36:45:fa:cf:90:41:bf:
        c0:70:93:b7:43:c2:c8:e2:22:16:f1:ea:c3:38:36:6a:06:07:
        22:a7:87:a3:15:fa:c1:eb:a6:d7:f5:2f:9e:24:ea:1c:54:f5:
        cb:fa:8a:c7:54:7d:3d:47:df:2e:54:89:c3:42:67:22:6b:69:
        5a:1a:ea:cd:bf:19:95:0c:f8:5b:cd:51:ee:52:82:0d:0a:ba:
        42:43:ce:cf:20:77:08:87:bb:db:10:c6:40:5a:60:5f:4d:26:
        96:0c:0f:96:14:b6:8a:0e:73:a4:36:0b:40:2d:44:ba:3d:75:
        c3:a1:4a:0a:66:b5:a2:46:ae:1f:1e:a2:23:40:ea:45:69:0f:
        89:83:e5:f0:6a:c6:6a:a1:ca:f6:bb:de:fb:4e:1c:b6:83:58:
        e2:6f:9b:2c
-----BEGIN CERTIFICATE-----
MIID9zCCAt+gAwIBAgIBBzANBgkqhkiG9w0BAQsFADBxMQswCQYDVQQGEwJVUzET
MBEGA1UECAwKQ2FsaWZvcm5pYTEUMBIGA1UEBwwLU2FudGEgQ2xhcmExDTALBgNV
BAoMBHBrZzUxEDAOBgNVBAMMB2NoNV90YTExFjAUBgkqhkiG9w0BCQEWB2NoNV90
YTEwHhcNMjQwNTIzMTU0NzE1WhcNMjcwMjE3MTU0NzE1WjB5MQswCQYDVQQGEwJV
UzETMBEGA1UECAwKQ2FsaWZvcm5pYTEUMBIGA1UEBwwLU2FudGEgQ2xhcmExDTAL
BgNVBAoMBHBrZzUxFDASBgNVBAMMC2NzMl9jaDVfdGExMRowGAYJKoZIhvcNAQkB
FgtjczJfY2g1X3RhMTCCASIwDQYJKoZIhvcNAQEBBQADggEPADCCAQoCggEBAK2f
FuPq0Vtna0ZqGD2YVL1Afpaj7kIGVing5+Ew6zZ492r8QiWsKZkH01m2hZz+eUve
ZMBcD0H+XbBZtTx7P7HY5D7omG72I3X9BPOl9n+Ld8uQKpLOnKgmoKJRo6Dg/y8p
f5PbNaWbPjV98rOlwv0NRBDt3MznBpSp3rhspf19Xas06fzlc34NL+vP0GRawbzX
NEriIpeHtNx6FuKRO6+wmExUEgY/nuEkIKjcxy2Zxur84cOz/9sTU7EqYX2y7rlJ
4JkgBXo6uWqj8Dve9T1+5yUtcIyRPEs93qDEAe1EABdvUTFxs4gUqegaGMG+8gEy
EDVZ839RMngDrtR2W2ECAwEAAaOBkTCBjjAMBgNVHRMBAf8EAjAAMD4GA1UdHwQ3
MDUwM6AxoC+GLWh0dHA6Ly9sb2NhbGhvc3Q6MTIwMDEvZmlsZS8wL2NoNV90YTFf
Y3JsLnBlbTAdBgNVHQ4EFgQUvWMC1/pMwcUY/F/AeD45zQ4E36QwHwYDVR0jBBgw
FoAUfTzByLdsgF9jvUOqBurPAD7I0rwwDQYJKoZIhvcNAQELBQADggEBAF62ut+e
fWlOCOTcGZW+NBRK3rVPpFb4j71A2/DNLMpZeTg8APP14C8va58f0HgDYt1D6KD2
kAb3AdpTX+mceu+QLusAKNNQ8uuHd5VQ4Jo6QDI57iujnbvFjQ+lwWso5LqSPvfd
NkX6z5BBv8Bwk7dDwsjiIhbx6sM4NmoGByKnh6MV+sHrptf1L54k6hxU9cv6isdU
fT1H3y5UicNCZyJraVoa6s2/GZUM+FvNUe5Sgg0KukJDzs8gdwiHu9sQxkBaYF9N
JpYMD5YUtooOc6Q2C0AtRLo9dcOhSgpmtaJGrh8eoiNA6kVpD4mD5fBqxmqhyva7
3vtOHLaDWOJvmyw=
-----END CERTIFICATE-----
