Certificate:
    Data:
        Version: 3 (0x2)
        Serial Number: 7 (0x7)
    Signature Algorithm: sha256WithRSAEncryption
        Issuer: C=US, ST=California, L=Santa Clara, O=pkg5, CN=ch5_ta1/emailAddress=ch5_ta1
        Validity
            Not Before: Nov 28 22:50:55 2016 GMT
            Not After : Aug 25 22:50:55 2019 GMT
        Subject: C=US, ST=California, L=Santa Clara, O=pkg5, CN=cs2_ch5_ta1/emailAddress=cs2_ch5_ta1
        Subject Public Key Info:
            Public Key Algorithm: rsaEncryption
                Public-Key: (1024 bit)
                Modulus:
                    00:ad:54:b2:ab:d5:e5:8c:48:e9:0a:82:9d:02:95:
                    6c:91:97:73:9f:5e:69:89:12:9a:0e:b8:b3:2f:28:
                    af:87:5e:d0:71:4a:ea:de:fb:05:38:a6:3c:01:52:
                    d7:e4:32:65:f4:c2:4e:42:f7:d8:37:43:7e:72:d7:
                    14:d3:30:9f:50:e6:3e:52:c5:c4:ac:73:57:4b:b6:
                    a4:d0:7e:7b:97:60:af:a3:0f:46:d4:85:1f:a9:49:
                    7e:0b:c5:66:d6:57:09:5a:f7:a1:58:50:ca:14:24:
                    c0:85:4f:f4:aa:57:d4:c4:46:63:31:4f:7c:e9:0d:
                    1e:00:9d:60:1e:ad:cd:c4:57
                Exponent: 65537 (0x10001)
        X509v3 extensions:
            X509v3 Basic Constraints: critical
                CA:FALSE
            X509v3 CRL Distribution Points: 

                Full Name:
                  URI:http://localhost:12001/file/0/ch5_ta1_crl.pem

    Signature Algorithm: sha256WithRSAEncryption
         8a:9d:0d:d5:88:75:5f:7d:14:f1:c8:fe:1d:2e:5a:46:51:41:
         ad:d9:ad:a2:e1:c0:17:70:05:5c:b1:4e:f9:93:4a:d1:e3:b8:
         70:8f:49:34:37:3e:06:e7:c8:e8:4b:85:42:fb:07:73:db:1c:
         be:10:29:ff:c3:65:92:d7:33:62:18:d8:c2:28:f2:b4:bc:fd:
         b6:35:ea:09:b1:79:4a:03:b3:f2:67:84:29:49:e2:fc:39:36:
         87:8a:2c:0e:6e:12:9b:8c:53:df:9a:a6:f9:cb:44:0a:de:55:
         e1:ba:b2:a2:aa:23:30:8d:8a:6d:59:3f:9a:e0:37:8e:61:de:
         98:4e:45:db:76:45:bf:97:a3:7c:17:f5:32:9d:76:2b:e0:c6:
         2b:04:99:53:7b:d7:88:e6:46:e4:9a:f4:9b:4c:3e:c1:08:73:
         03:aa:75:9b:5e:9e:f7:1a:0c:38:a2:70:ed:29:c0:27:3e:c3:
         2c:81:3f:9f:91:81:c7:b0:9c:29:11:9e:e9:79:46:43:2b:96:
         d7:68:85:09:94:32:ee:c0:fa:ab:bd:26:59:e3:7b:0c:37:ec:
         22:59:8e:93:16:5f:e7:f7:e4:61:f5:45:c5:54:dd:41:f8:6f:
         88:a9:c5:24:bd:8c:0f:5d:5f:5f:22:bf:2c:74:ea:fb:d1:e5:
         81:8d:16:49
-----BEGIN CERTIFICATE-----
MIIDMTCCAhmgAwIBAgIBBzANBgkqhkiG9w0BAQsFADBxMQswCQYDVQQGEwJVUzET
MBEGA1UECAwKQ2FsaWZvcm5pYTEUMBIGA1UEBwwLU2FudGEgQ2xhcmExDTALBgNV
BAoMBHBrZzUxEDAOBgNVBAMMB2NoNV90YTExFjAUBgkqhkiG9w0BCQEWB2NoNV90
YTEwHhcNMTYxMTI4MjI1MDU1WhcNMTkwODI1MjI1MDU1WjB5MQswCQYDVQQGEwJV
UzETMBEGA1UECAwKQ2FsaWZvcm5pYTEUMBIGA1UEBwwLU2FudGEgQ2xhcmExDTAL
BgNVBAoMBHBrZzUxFDASBgNVBAMMC2NzMl9jaDVfdGExMRowGAYJKoZIhvcNAQkB
FgtjczJfY2g1X3RhMTCBnzANBgkqhkiG9w0BAQEFAAOBjQAwgYkCgYEArVSyq9Xl
jEjpCoKdApVskZdzn15piRKaDrizLyivh17QcUrq3vsFOKY8AVLX5DJl9MJOQvfY
N0N+ctcU0zCfUOY+UsXErHNXS7ak0H57l2Cvow9G1IUfqUl+C8Vm1lcJWvehWFDK
FCTAhU/0qlfUxEZjMU986Q0eAJ1gHq3NxFcCAwEAAaNQME4wDAYDVR0TAQH/BAIw
ADA+BgNVHR8ENzA1MDOgMaAvhi1odHRwOi8vbG9jYWxob3N0OjEyMDAxL2ZpbGUv
MC9jaDVfdGExX2NybC5wZW0wDQYJKoZIhvcNAQELBQADggEBAIqdDdWIdV99FPHI
/h0uWkZRQa3ZraLhwBdwBVyxTvmTStHjuHCPSTQ3PgbnyOhLhUL7B3PbHL4QKf/D
ZZLXM2IY2MIo8rS8/bY16gmxeUoDs/JnhClJ4vw5NoeKLA5uEpuMU9+apvnLRAre
VeG6sqKqIzCNim1ZP5rgN45h3phORdt2Rb+Xo3wX9TKddivgxisEmVN714jmRuSa
9JtMPsEIcwOqdZtenvcaDDiicO0pwCc+wyyBP5+RgcewnCkRnul5RkMrltdohQmU
Mu7A+qu9Jlnjeww37CJZjpMWX+f35GH1RcVU3UH4b4ipxSS9jA9dX18ivyx06vvR
5YGNFkk=
-----END CERTIFICATE-----
