Certificate:
    Data:
        Version: 3 (0x2)
        Serial Number: 7 (0x7)
    Signature Algorithm: sha256WithRSAEncryption
        Issuer: C=US, ST=California, L=Santa Clara, O=pkg5, CN=ch5_ta1/emailAddress=ch5_ta1
        Validity
            Not Before: Dec  6 03:06:42 2014 GMT
            Not After : Sep  1 03:06:42 2017 GMT
        Subject: C=US, ST=California, L=Santa Clara, O=pkg5, CN=cs2_ch5_ta1/emailAddress=cs2_ch5_ta1
        Subject Public Key Info:
            Public Key Algorithm: rsaEncryption
                Public-Key: (1024 bit)
                Modulus:
                    00:cc:2b:96:34:19:76:8b:ed:94:e5:c4:39:c5:46:
                    60:01:49:b9:7b:1d:1b:11:72:66:dd:d6:12:2b:0e:
                    31:42:aa:04:77:75:4e:29:b9:d0:e6:dc:cc:cb:cc:
                    21:f6:1e:fd:f9:18:f3:4c:4c:58:a8:b2:fe:e1:36:
                    2b:41:ad:09:7c:c3:d9:7a:2e:08:b8:01:fc:8b:82:
                    4d:43:ad:12:8c:ec:02:d7:7d:d9:f8:40:c1:21:63:
                    9a:c2:6e:f4:e1:68:bc:be:cd:11:dd:cf:cd:03:67:
                    18:e0:93:54:42:57:0b:dc:a4:96:0e:63:bd:03:a1:
                    89:44:db:69:41:19:45:95:3b
                Exponent: 65537 (0x10001)
        X509v3 extensions:
            X509v3 Basic Constraints: critical
                CA:FALSE
            X509v3 CRL Distribution Points: 

                Full Name:
                  URI:http://localhost:12001/file/0/ch5_ta1_crl.pem

    Signature Algorithm: sha256WithRSAEncryption
         cb:80:ca:60:f6:80:05:8d:a8:1a:f9:b3:55:6d:ab:5c:58:f8:
         42:39:26:9e:73:50:15:99:20:d6:3f:d2:d4:ba:06:90:44:79:
         2e:1d:73:3b:54:04:60:2b:5e:68:5b:0a:af:56:7e:8e:02:42:
         13:7b:9d:95:10:9f:4f:94:59:d8:4e:27:2c:24:b3:04:34:7d:
         77:b8:58:8d:9d:3e:7c:42:05:fc:5f:4f:bc:57:25:dc:34:4e:
         c3:6e:ac:0a:f4:34:d2:f6:18:a1:3b:ef:5b:85:90:33:08:72:
         39:c1:98:17:5b:d7:f3:37:b2:c4:d1:dd:af:3e:ae:6a:3e:7d:
         a5:7d
-----BEGIN CERTIFICATE-----
MIICsDCCAhmgAwIBAgIBBzANBgkqhkiG9w0BAQsFADBxMQswCQYDVQQGEwJVUzET
MBEGA1UECAwKQ2FsaWZvcm5pYTEUMBIGA1UEBwwLU2FudGEgQ2xhcmExDTALBgNV
BAoMBHBrZzUxEDAOBgNVBAMMB2NoNV90YTExFjAUBgkqhkiG9w0BCQEWB2NoNV90
YTEwHhcNMTQxMjA2MDMwNjQyWhcNMTcwOTAxMDMwNjQyWjB5MQswCQYDVQQGEwJV
UzETMBEGA1UECAwKQ2FsaWZvcm5pYTEUMBIGA1UEBwwLU2FudGEgQ2xhcmExDTAL
BgNVBAoMBHBrZzUxFDASBgNVBAMMC2NzMl9jaDVfdGExMRowGAYJKoZIhvcNAQkB
FgtjczJfY2g1X3RhMTCBnzANBgkqhkiG9w0BAQEFAAOBjQAwgYkCgYEAzCuWNBl2
i+2U5cQ5xUZgAUm5ex0bEXJm3dYSKw4xQqoEd3VOKbnQ5tzMy8wh9h79+RjzTExY
qLL+4TYrQa0JfMPZei4IuAH8i4JNQ60SjOwC133Z+EDBIWOawm704Wi8vs0R3c/N
A2cY4JNUQlcL3KSWDmO9A6GJRNtpQRlFlTsCAwEAAaNQME4wDAYDVR0TAQH/BAIw
ADA+BgNVHR8ENzA1MDOgMaAvhi1odHRwOi8vbG9jYWxob3N0OjEyMDAxL2ZpbGUv
MC9jaDVfdGExX2NybC5wZW0wDQYJKoZIhvcNAQELBQADgYEAy4DKYPaABY2oGvmz
VW2rXFj4QjkmnnNQFZkg1j/S1LoGkER5Lh1zO1QEYCteaFsKr1Z+jgJCE3udlRCf
T5RZ2E4nLCSzBDR9d7hYjZ0+fEIF/F9PvFcl3DROw26sCvQ00vYYoTvvW4WQMwhy
OcGYF1vX8zeyxNHdrz6uaj59pX0=
-----END CERTIFICATE-----
