Certificate:
    Data:
        Version: 3 (0x2)
        Serial Number: 7 (0x7)
        Signature Algorithm: sha256WithRSAEncryption
        Issuer: C=US, ST=California, L=Santa Clara, O=pkg5, CN=ch5_ta1/emailAddress=ch5_ta1
        Validity
            Not Before: Oct 22 10:15:06 2021 GMT
            Not After : Jul 18 10:15:06 2024 GMT
        Subject: C=US, ST=California, L=Santa Clara, O=pkg5, CN=cs2_ch5_ta1/emailAddress=cs2_ch5_ta1
        Subject Public Key Info:
            Public Key Algorithm: rsaEncryption
                Public-Key: (2048 bit)
                Modulus:
                    00:8f:7a:ba:34:e1:d3:c2:9e:76:db:c5:83:61:58:
                    b2:60:b4:3c:71:de:1c:93:98:13:8f:db:a9:79:ae:
                    d8:2b:1b:32:e4:df:0a:43:4c:73:97:aa:5e:f4:86:
                    bc:61:c3:85:ef:44:f0:3f:f9:b5:51:e7:41:e2:bc:
                    8a:d7:19:4f:50:c9:05:2f:27:e3:8d:82:fc:99:41:
                    47:7c:9d:ad:10:df:6f:56:9f:93:47:3a:a0:d9:13:
                    ed:c5:6d:b5:bb:29:c3:20:4f:85:37:5c:64:64:49:
                    a4:be:37:68:74:d9:b7:66:97:32:35:cf:2e:d7:69:
                    63:26:37:3b:d3:3c:e5:6c:71:4e:34:d8:3e:a5:30:
                    40:2c:de:4a:4f:52:a5:2d:ef:0b:59:82:db:cd:e1:
                    e0:91:dd:b3:6d:92:3e:27:87:92:4c:0c:62:a4:05:
                    48:bd:2f:37:df:71:2c:0c:2d:5d:72:1d:e9:c3:96:
                    a1:49:f8:5b:ca:2c:16:b5:75:a9:34:ad:13:90:01:
                    f4:16:d7:da:54:8b:77:27:90:c6:17:16:f0:0d:6d:
                    7d:32:1d:18:b4:33:0c:4c:37:91:a8:88:93:b5:1a:
                    83:31:1b:ec:de:42:a4:91:51:ed:35:39:50:02:14:
                    44:9e:01:a7:60:ab:79:db:4b:db:a2:a7:06:73:a5:
                    32:89
                Exponent: 65537 (0x10001)
        X509v3 extensions:
            X509v3 Basic Constraints: critical
                CA:FALSE
            X509v3 CRL Distribution Points: 
                Full Name:
                  URI:http://localhost:12001/file/0/ch5_ta1_crl.pem
            X509v3 Subject Key Identifier: 
                A0:DB:B5:4B:93:78:98:63:CD:23:25:DB:B2:61:96:59:F1:6D:2E:E1
            X509v3 Authority Key Identifier: 
                25:8E:1A:B1:48:1B:60:70:E3:30:8F:09:7A:37:5A:D1:4E:24:CD:79
    Signature Algorithm: sha256WithRSAEncryption
    Signature Value:
        0f:e2:ca:cc:ef:e5:54:6e:f9:ab:ec:2d:0a:68:4d:10:b3:1b:
        8c:dc:83:ca:9a:08:1a:8d:23:86:e8:d6:8a:cc:10:c3:2e:ce:
        2a:42:d1:3a:35:d8:8b:68:ea:91:04:e7:51:73:e6:84:d1:4e:
        16:f7:4a:d3:c0:0f:cf:df:0a:39:9c:c7:0c:34:25:59:34:a0:
        1f:86:61:94:d2:1a:48:4c:9e:3e:7e:79:50:45:d1:a7:14:26:
        33:5f:00:a9:1a:0b:62:d6:9a:00:d8:1d:db:19:b5:b6:b1:67:
        06:ca:f3:db:8e:b3:16:14:6b:e8:51:54:9b:21:35:5d:82:d3:
        d5:26:00:77:65:67:e0:66:63:10:3e:1e:30:88:19:27:b1:dc:
        cb:06:a6:f7:6c:b6:ea:54:38:f3:5a:15:75:72:ff:68:f3:c7:
        6b:12:17:e5:35:ca:32:4c:b4:3e:d9:6a:43:91:53:c3:88:2d:
        e2:2f:1e:3c:d8:bc:17:a1:6d:5a:ca:fa:2c:1b:9b:d2:f3:4c:
        6e:5c:b0:93:d4:3c:3a:40:be:f1:32:0c:96:08:b4:91:52:7c:
        51:f5:7a:a1:3b:da:f9:2f:59:6c:73:a8:f8:ef:3d:d0:b6:df:
        14:bf:b1:6a:ba:93:e5:92:7c:40:a2:3f:9b:b6:aa:f3:6d:9d:
        e9:84:5e:ad
-----BEGIN CERTIFICATE-----
MIID9zCCAt+gAwIBAgIBBzANBgkqhkiG9w0BAQsFADBxMQswCQYDVQQGEwJVUzET
MBEGA1UECAwKQ2FsaWZvcm5pYTEUMBIGA1UEBwwLU2FudGEgQ2xhcmExDTALBgNV
BAoMBHBrZzUxEDAOBgNVBAMMB2NoNV90YTExFjAUBgkqhkiG9w0BCQEWB2NoNV90
YTEwHhcNMjExMDIyMTAxNTA2WhcNMjQwNzE4MTAxNTA2WjB5MQswCQYDVQQGEwJV
UzETMBEGA1UECAwKQ2FsaWZvcm5pYTEUMBIGA1UEBwwLU2FudGEgQ2xhcmExDTAL
BgNVBAoMBHBrZzUxFDASBgNVBAMMC2NzMl9jaDVfdGExMRowGAYJKoZIhvcNAQkB
FgtjczJfY2g1X3RhMTCCASIwDQYJKoZIhvcNAQEBBQADggEPADCCAQoCggEBAI96
ujTh08KedtvFg2FYsmC0PHHeHJOYE4/bqXmu2CsbMuTfCkNMc5eqXvSGvGHDhe9E
8D/5tVHnQeK8itcZT1DJBS8n442C/JlBR3ydrRDfb1afk0c6oNkT7cVttbspwyBP
hTdcZGRJpL43aHTZt2aXMjXPLtdpYyY3O9M85WxxTjTYPqUwQCzeSk9SpS3vC1mC
283h4JHds22SPieHkkwMYqQFSL0vN99xLAwtXXId6cOWoUn4W8osFrV1qTStE5AB
9BbX2lSLdyeQxhcW8A1tfTIdGLQzDEw3kaiIk7UagzEb7N5CpJFR7TU5UAIURJ4B
p2CredtL26KnBnOlMokCAwEAAaOBkTCBjjAMBgNVHRMBAf8EAjAAMD4GA1UdHwQ3
MDUwM6AxoC+GLWh0dHA6Ly9sb2NhbGhvc3Q6MTIwMDEvZmlsZS8wL2NoNV90YTFf
Y3JsLnBlbTAdBgNVHQ4EFgQUoNu1S5N4mGPNIyXbsmGWWfFtLuEwHwYDVR0jBBgw
FoAUJY4asUgbYHDjMI8Jejda0U4kzXkwDQYJKoZIhvcNAQELBQADggEBAA/iyszv
5VRu+avsLQpoTRCzG4zcg8qaCBqNI4bo1orMEMMuzipC0To12Ito6pEE51Fz5oTR
Thb3StPAD8/fCjmcxww0JVk0oB+GYZTSGkhMnj5+eVBF0acUJjNfAKkaC2LWmgDY
HdsZtbaxZwbK89uOsxYUa+hRVJshNV2C09UmAHdlZ+BmYxA+HjCIGSex3MsGpvds
tupUOPNaFXVy/2jzx2sSF+U1yjJMtD7ZakORU8OILeIvHjzYvBehbVrK+iwbm9Lz
TG5csJPUPDpAvvEyDJYItJFSfFH1eqE72vkvWWxzqPjvPdC23xS/sWq6k+WSfECi
P5u2qvNtnemEXq0=
-----END CERTIFICATE-----
