Certificate:
    Data:
        Version: 3 (0x2)
        Serial Number: 9 (0x9)
        Signature Algorithm: sha256WithRSAEncryption
        Issuer: C=US, ST=California, L=Santa Clara, O=pkg5, CN=ch5.1_ta1/emailAddress=ch5.1_ta1
        Validity
            Not Before: May 23 15:47:15 2024 GMT
            Not After : Feb 17 15:47:15 2027 GMT
        Subject: C=US, ST=California, L=Santa Clara, O=pkg5, CN=cs1_ch5.1_ta1/emailAddress=cs1_ch5.1_ta1
        Subject Public Key Info:
            Public Key Algorithm: rsaEncryption
                Public-Key: (2048 bit)
                Modulus:
                    00:c7:49:8d:69:35:15:cd:55:30:62:79:1a:6e:94:
                    a6:d8:75:1a:7b:db:a3:40:59:62:a6:6c:84:c5:ed:
                    01:1a:b3:ed:43:e6:e4:e9:a3:9f:3f:7a:69:03:41:
                    de:d3:c3:fd:db:6d:79:03:0a:cb:9d:d3:e2:ff:9f:
                    54:0e:a0:7e:2b:8a:be:2b:12:4c:7f:6e:66:87:cc:
                    31:1f:6c:a4:9e:bb:ab:f3:2f:92:bd:13:c3:df:2f:
                    e4:32:c6:ca:18:84:e8:d0:92:26:6c:f8:57:93:1b:
                    eb:ba:ef:b7:f7:ef:f2:03:de:fe:22:1b:a6:12:5f:
                    4e:b0:f7:84:39:2f:a4:89:c3:5b:ee:be:44:a3:4c:
                    7d:43:e9:91:ec:f9:b9:d0:23:01:6c:85:16:96:86:
                    05:3b:8e:14:5c:d5:c3:7a:41:2b:48:75:4f:81:77:
                    d4:03:ae:c0:33:e7:de:a5:33:ea:5a:18:ad:3e:e8:
                    75:81:a1:72:c6:99:9e:b4:48:41:b6:94:56:b6:42:
                    14:bc:3d:32:cd:38:86:ee:bb:71:43:76:6d:68:85:
                    2a:a5:2e:fb:e5:a1:70:ef:21:56:ca:f8:32:07:cb:
                    3c:b5:42:15:87:e7:8e:4e:14:55:a3:fe:84:73:f6:
                    32:71:c3:af:ff:a3:2a:3f:7d:ba:f1:de:38:98:83:
                    42:01
                Exponent: 65537 (0x10001)
        X509v3 extensions:
            X509v3 Basic Constraints: critical
                CA:FALSE
            X509v3 Key Usage: critical
                Digital Signature
            X509v3 Subject Key Identifier: 
                17:E6:72:B4:4B:E6:1E:6E:21:FE:95:8C:EA:41:C8:1F:09:1C:D2:F7
            X509v3 Authority Key Identifier: 
                D7:FA:53:00:34:53:12:16:B0:4A:EA:28:E0:72:1F:B0:78:5D:BF:55
    Signature Algorithm: sha256WithRSAEncryption
    Signature Value:
        50:f2:10:4a:81:94:ac:99:b3:99:b9:ec:17:de:6e:44:09:4e:
        be:bc:a1:00:0f:ad:a0:ba:fd:c3:27:ed:9a:b5:88:8f:ec:8b:
        78:8c:bd:5e:ab:03:1e:81:2c:04:d4:22:fb:2b:29:94:cf:a2:
        bc:98:b1:d2:42:20:8f:26:8d:c3:d1:59:63:9b:ab:67:0c:df:
        2a:77:62:d7:cf:10:81:82:c3:11:f7:63:60:b6:5a:8c:db:45:
        b5:a6:aa:a9:38:5f:72:1c:73:9e:84:a6:0b:51:18:14:88:da:
        dd:ff:f9:98:6e:51:5d:e4:24:1c:08:28:d5:69:aa:81:c2:fb:
        54:95:da:2c:d3:59:0b:a3:50:ea:b4:34:7b:a9:59:bc:c1:64:
        71:37:a1:eb:9d:4a:42:95:79:51:8a:40:b1:4d:1d:13:b2:0e:
        ec:41:ac:3a:e9:01:92:02:fd:29:04:02:bb:f0:20:11:f8:64:
        24:0d:d6:37:01:7b:a4:a6:fb:aa:4e:22:6d:db:9d:34:a9:7f:
        cb:b1:5b:f1:a9:eb:79:87:45:19:92:87:0d:09:c1:75:b9:18:
        77:71:7f:23:62:03:80:51:66:d6:af:44:11:bf:46:b8:16:64:
        3a:9a:8d:35:57:84:95:3b:2f:74:76:e7:b4:b0:24:26:ff:81:
        d9:88:9a:ce
-----BEGIN CERTIFICATE-----
MIIDzTCCArWgAwIBAgIBCTANBgkqhkiG9w0BAQsFADB1MQswCQYDVQQGEwJVUzET
MBEGA1UECAwKQ2FsaWZvcm5pYTEUMBIGA1UEBwwLU2FudGEgQ2xhcmExDTALBgNV
BAoMBHBrZzUxEjAQBgNVBAMMCWNoNS4xX3RhMTEYMBYGCSqGSIb3DQEJARYJY2g1
LjFfdGExMB4XDTI0MDUyMzE1NDcxNVoXDTI3MDIxNzE1NDcxNVowfTELMAkGA1UE
BhMCVVMxEzARBgNVBAgMCkNhbGlmb3JuaWExFDASBgNVBAcMC1NhbnRhIENsYXJh
MQ0wCwYDVQQKDARwa2c1MRYwFAYDVQQDDA1jczFfY2g1LjFfdGExMRwwGgYJKoZI
hvcNAQkBFg1jczFfY2g1LjFfdGExMIIBIjANBgkqhkiG9w0BAQEFAAOCAQ8AMIIB
CgKCAQEAx0mNaTUVzVUwYnkabpSm2HUae9ujQFlipmyExe0BGrPtQ+bk6aOfP3pp
A0He08P92215AwrLndPi/59UDqB+K4q+KxJMf25mh8wxH2yknrur8y+SvRPD3y/k
MsbKGITo0JImbPhXkxvruu+39+/yA97+IhumEl9OsPeEOS+kicNb7r5Eo0x9Q+mR
7Pm50CMBbIUWloYFO44UXNXDekErSHVPgXfUA67AM+fepTPqWhitPuh1gaFyxpme
tEhBtpRWtkIUvD0yzTiG7rtxQ3ZtaIUqpS775aFw7yFWyvgyB8s8tUIVh+eOThRV
o/6Ec/YyccOv/6MqP3268d44mINCAQIDAQABo2AwXjAMBgNVHRMBAf8EAjAAMA4G
A1UdDwEB/wQEAwIHgDAdBgNVHQ4EFgQUF+ZytEvmHm4h/pWM6kHIHwkc0vcwHwYD
VR0jBBgwFoAU1/pTADRTEhawSuoo4HIfsHhdv1UwDQYJKoZIhvcNAQELBQADggEB
AFDyEEqBlKyZs5m57BfebkQJTr68oQAPraC6/cMn7Zq1iI/si3iMvV6rAx6BLATU
IvsrKZTPoryYsdJCII8mjcPRWWObq2cM3yp3YtfPEIGCwxH3Y2C2WozbRbWmqqk4
X3Icc56EpgtRGBSI2t3/+ZhuUV3kJBwIKNVpqoHC+1SV2izTWQujUOq0NHupWbzB
ZHE3oeudSkKVeVGKQLFNHROyDuxBrDrpAZIC/SkEArvwIBH4ZCQN1jcBe6Sm+6pO
Im3bnTSpf8uxW/Gp63mHRRmShw0JwXW5GHdxfyNiA4BRZtavRBG/RrgWZDqajTVX
hJU7L3R257SwJCb/gdmIms4=
-----END CERTIFICATE-----
