Certificate:
    Data:
        Version: 3 (0x2)
        Serial Number: 9 (0x9)
    Signature Algorithm: sha256WithRSAEncryption
        Issuer: C=US, ST=California, L=Santa Clara, O=pkg5, CN=ch5.1_ta1/emailAddress=ch5.1_ta1
        Validity
            Not Before: Nov 16 10:58:47 2017 GMT
            Not After : Aug 12 10:58:47 2020 GMT
        Subject: C=US, ST=California, L=Santa Clara, O=pkg5, CN=cs1_ch5.1_ta1/emailAddress=cs1_ch5.1_ta1
        Subject Public Key Info:
            Public Key Algorithm: rsaEncryption
                Public-Key: (1024 bit)
                Modulus:
                    00:99:36:45:b5:d3:1c:00:dd:00:54:38:74:cc:52:
                    72:8d:b5:26:52:c8:8b:cc:3d:f6:10:93:21:63:72:
                    d7:58:f9:3d:ac:cb:cb:12:1e:80:ed:b9:77:f1:41:
                    0e:73:cd:b1:ea:66:db:da:92:af:eb:b0:8a:d8:6a:
                    a8:34:43:5c:9d:9e:c3:b0:63:09:dc:bb:79:60:11:
                    05:b2:91:6f:71:3e:2e:a5:8f:ef:06:1f:8f:29:1d:
                    7d:14:0f:71:5d:5d:84:27:28:6b:c1:50:57:92:d9:
                    5c:2b:66:1c:c7:b0:be:b7:05:2c:0b:2b:0c:2a:18:
                    83:73:40:f4:98:08:5a:93:67
                Exponent: 65537 (0x10001)
        X509v3 extensions:
            X509v3 Basic Constraints: critical
                CA:FALSE
            X509v3 Key Usage: critical
                Digital Signature
    Signature Algorithm: sha256WithRSAEncryption
         09:c0:02:25:b0:4c:f7:8e:b8:ae:11:f0:1b:72:3d:c0:13:1b:
         93:53:b4:42:38:ef:6c:73:d9:f5:ee:4f:06:32:3a:bf:2b:ad:
         16:00:f0:61:25:85:4a:c0:6a:84:b0:bb:b1:6b:53:36:71:31:
         0c:de:59:f7:cd:d3:d9:cd:70:f9:c7:b9:30:a5:5c:46:67:d1:
         03:95:c6:01:ac:4a:23:cb:77:31:f8:07:5e:66:7e:69:15:23:
         0a:bd:f0:00:4a:7f:f8:f9:a9:e5:2a:99:7b:6a:10:8f:0e:8b:
         4c:ae:98:4c:4b:25:35:38:0e:c1:d5:87:30:ed:d3:1a:07:c8:
         6a:f4:a3:7e:a2:1f:8c:c5:93:60:2e:27:a4:90:0b:6b:ad:3c:
         f5:73:fa:77:f0:d5:a7:08:4e:05:95:e4:6b:c1:2d:69:4b:9d:
         21:28:b6:c0:ad:ea:c5:53:5a:e5:08:f3:0c:cd:21:31:dc:a0:
         25:2c:47:22:32:13:34:db:13:01:ce:85:26:30:29:ff:03:b7:
         4f:54:21:9d:12:44:61:2b:86:dd:4a:48:95:d6:2e:0b:d3:83:
         84:56:cc:69:10:97:18:5b:88:ae:8d:2a:e2:7f:ea:38:34:84:
         39:f9:81:00:a8:27:38:d9:30:ac:aa:c2:30:77:b7:33:df:18:
         85:39:c5:e9
-----BEGIN CERTIFICATE-----
MIIDCTCCAfGgAwIBAgIBCTANBgkqhkiG9w0BAQsFADB1MQswCQYDVQQGEwJVUzET
MBEGA1UECAwKQ2FsaWZvcm5pYTEUMBIGA1UEBwwLU2FudGEgQ2xhcmExDTALBgNV
BAoMBHBrZzUxEjAQBgNVBAMMCWNoNS4xX3RhMTEYMBYGCSqGSIb3DQEJARYJY2g1
LjFfdGExMB4XDTE3MTExNjEwNTg0N1oXDTIwMDgxMjEwNTg0N1owfTELMAkGA1UE
BhMCVVMxEzARBgNVBAgMCkNhbGlmb3JuaWExFDASBgNVBAcMC1NhbnRhIENsYXJh
MQ0wCwYDVQQKDARwa2c1MRYwFAYDVQQDDA1jczFfY2g1LjFfdGExMRwwGgYJKoZI
hvcNAQkBFg1jczFfY2g1LjFfdGExMIGfMA0GCSqGSIb3DQEBAQUAA4GNADCBiQKB
gQCZNkW10xwA3QBUOHTMUnKNtSZSyIvMPfYQkyFjctdY+T2sy8sSHoDtuXfxQQ5z
zbHqZtvakq/rsIrYaqg0Q1ydnsOwYwncu3lgEQWykW9xPi6lj+8GH48pHX0UD3Fd
XYQnKGvBUFeS2VwrZhzHsL63BSwLKwwqGINzQPSYCFqTZwIDAQABoyAwHjAMBgNV
HRMBAf8EAjAAMA4GA1UdDwEB/wQEAwIHgDANBgkqhkiG9w0BAQsFAAOCAQEACcAC
JbBM9464rhHwG3I9wBMbk1O0QjjvbHPZ9e5PBjI6vyutFgDwYSWFSsBqhLC7sWtT
NnExDN5Z983T2c1w+ce5MKVcRmfRA5XGAaxKI8t3MfgHXmZ+aRUjCr3wAEp/+Pmp
5SqZe2oQjw6LTK6YTEslNTgOwdWHMO3TGgfIavSjfqIfjMWTYC4npJALa6089XP6
d/DVpwhOBZXka8EtaUudISi2wK3qxVNa5QjzDM0hMdygJSxHIjITNNsTAc6FJjAp
/wO3T1QhnRJEYSuG3UpIldYuC9ODhFbMaRCXGFuIro0q4n/qODSEOfmBAKgnONkw
rKrCMHe3M98YhTnF6Q==
-----END CERTIFICATE-----
