Certificate:
    Data:
        Version: 3 (0x2)
        Serial Number: 9 (0x9)
        Signature Algorithm: sha256WithRSAEncryption
        Issuer: C=US, ST=California, L=Santa Clara, O=pkg5, CN=ch5.1_ta1/emailAddress=ch5.1_ta1
        Validity
            Not Before: Dec 15 15:37:17 2022 GMT
            Not After : Sep 10 15:37:17 2025 GMT
        Subject: C=US, ST=California, L=Santa Clara, O=pkg5, CN=cs1_ch5.1_ta1/emailAddress=cs1_ch5.1_ta1
        Subject Public Key Info:
            Public Key Algorithm: rsaEncryption
                Public-Key: (2048 bit)
                Modulus:
                    00:95:03:b1:87:b0:e2:17:aa:37:a9:45:56:15:8d:
                    32:fa:6a:d9:20:1a:55:c9:15:ad:83:07:8c:69:a4:
                    45:ca:e1:10:4b:f3:3e:ba:66:46:ef:5e:bf:87:e5:
                    bb:ab:19:38:3c:74:b0:73:dc:32:a3:d6:b7:51:14:
                    4f:1b:b1:3e:99:00:b1:3d:15:2f:3a:fc:9b:dd:06:
                    b7:80:9a:b3:4d:b7:72:f9:57:8e:43:68:86:6a:91:
                    25:fa:a3:fb:59:f9:b0:08:32:11:19:69:9f:c5:d5:
                    3d:a4:7c:c1:9a:35:7f:4e:77:49:ac:4a:94:a5:19:
                    20:7e:aa:df:49:d8:19:04:d9:f8:de:1d:85:48:f3:
                    2f:ad:41:be:50:8a:31:4f:77:ad:be:25:93:c6:7a:
                    7a:72:b6:e5:f6:8b:91:1e:1c:40:ad:67:0e:f6:ad:
                    0c:66:79:05:76:03:47:37:56:1c:a0:5f:4e:38:bb:
                    57:a0:04:1d:64:ca:9d:d5:c0:67:87:c4:f1:d1:25:
                    68:85:6c:58:87:ae:60:0a:bd:53:9b:f2:75:dd:c1:
                    b1:f5:b7:36:1c:3d:74:16:bb:ed:5d:b2:76:80:51:
                    4e:f5:6c:21:9f:16:c2:2b:9a:15:2e:d2:3b:70:75:
                    10:1e:89:f5:88:b0:c9:b0:7c:82:06:d8:76:be:31:
                    ee:cb
                Exponent: 65537 (0x10001)
        X509v3 extensions:
            X509v3 Basic Constraints: critical
                CA:FALSE
            X509v3 Key Usage: critical
                Digital Signature
            X509v3 Subject Key Identifier: 
                2A:CD:70:6E:6E:6C:BA:46:94:C2:8D:00:13:B2:38:49:A3:EE:A2:DE
            X509v3 Authority Key Identifier: 
                0E:F9:88:97:FA:08:4B:C9:20:8B:FA:CC:C5:A8:6D:54:64:84:12:57
    Signature Algorithm: sha256WithRSAEncryption
    Signature Value:
        cd:82:4c:c9:d8:5b:94:73:be:56:d4:12:62:a0:4c:d0:db:1b:
        41:b2:b9:83:08:c0:17:78:db:33:f1:99:8e:b9:87:f0:a8:c9:
        3d:fb:42:ce:1e:90:3f:be:14:ef:2c:16:fb:9d:6b:cb:a6:10:
        fa:d2:a3:8f:d6:04:c5:1f:bb:bf:d5:c8:82:86:01:bd:53:95:
        a2:85:5e:f4:12:e4:c4:e7:20:1c:fd:79:b9:aa:63:4b:c4:cf:
        70:a7:58:67:0b:c2:81:1b:97:e1:67:c9:ac:52:b4:e6:3a:6d:
        7c:5f:ad:25:d1:02:a1:fb:da:c8:50:c5:d2:27:d8:27:92:3a:
        d4:73:72:22:76:8b:a5:6c:37:7e:33:50:07:81:10:72:3f:b5:
        e5:56:a0:c3:b0:2b:24:cb:96:8e:bc:20:72:3b:fb:ce:b9:d9:
        4f:b0:2a:9d:0a:38:6d:1e:4f:ed:3e:56:1f:43:ee:d9:42:6c:
        83:ec:b1:ef:e2:a3:0d:5e:e0:62:46:7c:cc:26:80:a4:35:75:
        0d:12:a4:06:f1:5c:f6:a8:42:ee:2a:2b:a8:4f:df:ad:89:18:
        e8:cb:d7:2f:b8:60:1c:2a:a2:b2:0b:49:82:02:f7:ad:66:e3:
        c9:2d:ef:53:d8:86:c3:9e:1a:f3:7f:55:20:72:e7:ab:a4:75:
        3b:72:03:1b
-----BEGIN CERTIFICATE-----
MIIDzTCCArWgAwIBAgIBCTANBgkqhkiG9w0BAQsFADB1MQswCQYDVQQGEwJVUzET
MBEGA1UECAwKQ2FsaWZvcm5pYTEUMBIGA1UEBwwLU2FudGEgQ2xhcmExDTALBgNV
BAoMBHBrZzUxEjAQBgNVBAMMCWNoNS4xX3RhMTEYMBYGCSqGSIb3DQEJARYJY2g1
LjFfdGExMB4XDTIyMTIxNTE1MzcxN1oXDTI1MDkxMDE1MzcxN1owfTELMAkGA1UE
BhMCVVMxEzARBgNVBAgMCkNhbGlmb3JuaWExFDASBgNVBAcMC1NhbnRhIENsYXJh
MQ0wCwYDVQQKDARwa2c1MRYwFAYDVQQDDA1jczFfY2g1LjFfdGExMRwwGgYJKoZI
hvcNAQkBFg1jczFfY2g1LjFfdGExMIIBIjANBgkqhkiG9w0BAQEFAAOCAQ8AMIIB
CgKCAQEAlQOxh7DiF6o3qUVWFY0y+mrZIBpVyRWtgweMaaRFyuEQS/M+umZG716/
h+W7qxk4PHSwc9wyo9a3URRPG7E+mQCxPRUvOvyb3Qa3gJqzTbdy+VeOQ2iGapEl
+qP7WfmwCDIRGWmfxdU9pHzBmjV/TndJrEqUpRkgfqrfSdgZBNn43h2FSPMvrUG+
UIoxT3etviWTxnp6crbl9ouRHhxArWcO9q0MZnkFdgNHN1YcoF9OOLtXoAQdZMqd
1cBnh8Tx0SVohWxYh65gCr1Tm/J13cGx9bc2HD10FrvtXbJ2gFFO9WwhnxbCK5oV
LtI7cHUQHon1iLDJsHyCBth2vjHuywIDAQABo2AwXjAMBgNVHRMBAf8EAjAAMA4G
A1UdDwEB/wQEAwIHgDAdBgNVHQ4EFgQUKs1wbm5sukaUwo0AE7I4SaPuot4wHwYD
VR0jBBgwFoAUDvmIl/oIS8kgi/rMxahtVGSEElcwDQYJKoZIhvcNAQELBQADggEB
AM2CTMnYW5RzvlbUEmKgTNDbG0GyuYMIwBd42zPxmY65h/CoyT37Qs4ekD++FO8s
Fvuda8umEPrSo4/WBMUfu7/VyIKGAb1TlaKFXvQS5MTnIBz9ebmqY0vEz3CnWGcL
woEbl+FnyaxStOY6bXxfrSXRAqH72shQxdIn2CeSOtRzciJ2i6VsN34zUAeBEHI/
teVWoMOwKyTLlo68IHI7+8652U+wKp0KOG0eT+0+Vh9D7tlCbIPsse/iow1e4GJG
fMwmgKQ1dQ0SpAbxXPaoQu4qK6hP362JGOjL1y+4YBwqorILSYIC961m48kt71PY
hsOeGvN/VSBy56ukdTtyAxs=
-----END CERTIFICATE-----
