Certificate:
    Data:
        Version: 3 (0x2)
        Serial Number: 9 (0x9)
        Signature Algorithm: sha256WithRSAEncryption
        Issuer: C=US, ST=California, L=Santa Clara, O=pkg5, CN=ch5.1_ta1/emailAddress=ch5.1_ta1
        Validity
            Not Before: Nov 14 14:26:52 2024 GMT
            Not After : Aug 11 14:26:52 2027 GMT
        Subject: C=US, ST=California, L=Santa Clara, O=pkg5, CN=cs1_ch5.1_ta1/emailAddress=cs1_ch5.1_ta1
        Subject Public Key Info:
            Public Key Algorithm: rsaEncryption
                Public-Key: (2048 bit)
                Modulus:
                    00:d8:65:7f:bd:79:e8:00:f8:3f:33:1c:f7:8d:49:
                    94:71:2f:25:9a:9d:75:d2:49:44:85:60:96:37:a5:
                    cf:ff:f5:7a:e8:64:40:f5:4e:ee:77:fb:e9:2b:8b:
                    07:b8:07:c5:3c:42:65:88:90:f2:62:9e:09:99:a3:
                    51:ae:d3:49:d7:bd:d9:ad:c4:e3:ef:de:d8:2a:14:
                    8f:13:65:79:b6:6e:34:1d:4c:4a:02:ce:5a:77:93:
                    17:62:9e:5e:85:cf:ea:b1:83:1c:fc:3c:05:26:29:
                    ea:14:db:d6:4e:5b:5f:b1:31:3a:10:85:b8:89:b5:
                    af:c8:14:57:3f:92:a2:71:35:0c:d2:e9:df:55:1b:
                    13:bc:51:16:a9:5b:37:ee:a9:5b:3d:10:f7:d3:09:
                    14:a2:f9:33:f3:c8:9a:4e:04:0e:ab:1e:5e:89:fa:
                    21:43:f6:a3:b1:88:60:74:c8:ca:7e:05:83:dc:d1:
                    3e:f4:58:85:2a:99:f7:36:e1:62:b1:0a:fd:78:0d:
                    ed:2e:de:f3:82:93:9c:77:01:3e:33:2f:dc:e2:2c:
                    f2:0a:a9:07:3c:78:4d:e5:b0:b1:2c:e1:f2:d4:5d:
                    a2:f7:f6:fc:4e:78:87:e9:cb:69:4f:3c:f7:5d:60:
                    99:fe:36:23:4b:71:a9:c6:63:48:a4:47:c0:e0:d3:
                    ac:33
                Exponent: 65537 (0x10001)
        X509v3 extensions:
            X509v3 Basic Constraints: critical
                CA:FALSE
            X509v3 Key Usage: critical
                Digital Signature
            X509v3 Subject Key Identifier: 
                AA:6B:85:A9:93:59:B8:EB:76:02:FA:43:D7:95:CD:45:33:44:76:D1
            X509v3 Authority Key Identifier: 
                98:85:B2:1D:27:3C:A5:E9:14:A2:47:C9:86:47:28:5E:E7:BE:D2:E9
    Signature Algorithm: sha256WithRSAEncryption
    Signature Value:
        52:dc:36:92:37:e8:ac:0a:c6:16:50:63:f2:98:a8:9e:4d:a7:
        da:24:9f:52:bc:d0:30:89:ba:75:ba:b2:b6:8a:78:3e:d4:3e:
        29:fa:ea:b1:bd:13:85:91:aa:90:85:1e:c4:e6:35:79:a5:3b:
        6c:32:2d:62:83:46:b9:e4:d6:a6:df:cf:21:d0:cc:81:fb:ae:
        71:18:b5:a8:95:e9:89:3a:9f:0a:eb:8a:81:96:30:19:0d:04:
        1f:b2:99:70:f9:26:cb:b9:e3:88:28:ff:9e:64:0a:51:21:a4:
        a2:5a:e0:15:fc:25:97:45:2e:aa:d2:66:8e:47:16:2f:d8:76:
        27:09:d9:eb:0b:15:f7:7d:cb:f8:c1:ce:1d:cb:56:54:05:8c:
        69:e9:0b:ce:5b:2c:a3:38:31:39:b6:75:76:9c:05:91:62:08:
        32:bf:f9:ca:be:67:9f:ff:a0:bb:e3:4a:fe:82:49:18:eb:6f:
        9e:3d:a9:c6:d8:cf:0d:0e:72:26:9f:50:f3:04:dc:7a:94:ad:
        42:18:79:29:54:79:b1:93:54:bc:74:bd:9f:72:0d:f2:48:58:
        0b:e0:22:06:e4:5c:5e:50:ec:31:7d:77:88:83:1b:4f:b8:df:
        6b:b1:ed:1c:ff:97:53:3e:a7:dd:4b:6d:c1:8a:b2:ec:09:bf:
        4a:bb:90:7a
-----BEGIN CERTIFICATE-----
MIIDzTCCArWgAwIBAgIBCTANBgkqhkiG9w0BAQsFADB1MQswCQYDVQQGEwJVUzET
MBEGA1UECAwKQ2FsaWZvcm5pYTEUMBIGA1UEBwwLU2FudGEgQ2xhcmExDTALBgNV
BAoMBHBrZzUxEjAQBgNVBAMMCWNoNS4xX3RhMTEYMBYGCSqGSIb3DQEJARYJY2g1
LjFfdGExMB4XDTI0MTExNDE0MjY1MloXDTI3MDgxMTE0MjY1MlowfTELMAkGA1UE
BhMCVVMxEzARBgNVBAgMCkNhbGlmb3JuaWExFDASBgNVBAcMC1NhbnRhIENsYXJh
MQ0wCwYDVQQKDARwa2c1MRYwFAYDVQQDDA1jczFfY2g1LjFfdGExMRwwGgYJKoZI
hvcNAQkBFg1jczFfY2g1LjFfdGExMIIBIjANBgkqhkiG9w0BAQEFAAOCAQ8AMIIB
CgKCAQEA2GV/vXnoAPg/Mxz3jUmUcS8lmp110klEhWCWN6XP//V66GRA9U7ud/vp
K4sHuAfFPEJliJDyYp4JmaNRrtNJ173ZrcTj797YKhSPE2V5tm40HUxKAs5ad5MX
Yp5ehc/qsYMc/DwFJinqFNvWTltfsTE6EIW4ibWvyBRXP5KicTUM0unfVRsTvFEW
qVs37qlbPRD30wkUovkz88iaTgQOqx5eifohQ/ajsYhgdMjKfgWD3NE+9FiFKpn3
NuFisQr9eA3tLt7zgpOcdwE+My/c4izyCqkHPHhN5bCxLOHy1F2i9/b8TniH6ctp
Tzz3XWCZ/jYjS3GpxmNIpEfA4NOsMwIDAQABo2AwXjAMBgNVHRMBAf8EAjAAMA4G
A1UdDwEB/wQEAwIHgDAdBgNVHQ4EFgQUqmuFqZNZuOt2AvpD15XNRTNEdtEwHwYD
VR0jBBgwFoAUmIWyHSc8pekUokfJhkcoXue+0ukwDQYJKoZIhvcNAQELBQADggEB
AFLcNpI36KwKxhZQY/KYqJ5Np9okn1K80DCJunW6sraKeD7UPin66rG9E4WRqpCF
HsTmNXmlO2wyLWKDRrnk1qbfzyHQzIH7rnEYtaiV6Yk6nwrrioGWMBkNBB+ymXD5
Jsu544go/55kClEhpKJa4BX8JZdFLqrSZo5HFi/YdicJ2esLFfd9y/jBzh3LVlQF
jGnpC85bLKM4MTm2dXacBZFiCDK/+cq+Z5//oLvjSv6CSRjrb549qcbYzw0Ociaf
UPME3HqUrUIYeSlUebGTVLx0vZ9yDfJIWAvgIgbkXF5Q7DF9d4iDG0+432ux7Rz/
l1M+p91LbcGKsuwJv0q7kHo=
-----END CERTIFICATE-----
