Certificate:
    Data:
        Version: 3 (0x2)
        Serial Number: 9 (0x9)
        Signature Algorithm: sha256WithRSAEncryption
        Issuer: C=US, ST=California, L=Santa Clara, O=pkg5, CN=ch5.1_ta1/emailAddress=ch5.1_ta1
        Validity
            Not Before: Nov 17 23:01:28 2020 GMT
            Not After : Aug 14 23:01:28 2023 GMT
        Subject: C=US, ST=California, L=Santa Clara, O=pkg5, CN=cs1_ch5.1_ta1/emailAddress=cs1_ch5.1_ta1
        Subject Public Key Info:
            Public Key Algorithm: rsaEncryption
                RSA Public-Key: (1024 bit)
                Modulus:
                    00:b6:85:fe:3f:16:43:d3:36:bd:1e:18:bd:64:1f:
                    02:2b:5d:d3:2c:94:83:b2:08:b0:cc:ac:25:eb:04:
                    97:92:46:83:48:d7:63:4c:b7:02:9d:22:c4:75:22:
                    ac:3d:0f:fd:c9:c0:c2:b9:fd:ed:0d:53:47:c3:a0:
                    5c:57:28:83:a1:de:ee:06:11:d2:8f:82:17:f9:7b:
                    58:0f:a5:f5:dc:26:c8:42:90:2c:8a:bf:7d:d9:b1:
                    a9:a8:31:09:d2:2d:78:f2:c7:cb:a8:1d:37:67:f2:
                    28:b9:82:f1:a3:4e:3d:06:ab:86:d8:63:ee:c2:a3:
                    9e:f1:ae:2c:1c:30:34:a7:c9
                Exponent: 65537 (0x10001)
        X509v3 extensions:
            X509v3 Basic Constraints: critical
                CA:FALSE
            X509v3 Key Usage: critical
                Digital Signature
    Signature Algorithm: sha256WithRSAEncryption
         3a:55:d0:73:ca:be:67:df:92:23:98:49:c0:e7:a3:b0:41:7f:
         0c:12:4c:27:36:f6:7d:14:db:81:b6:93:aa:6f:f8:e8:0b:90:
         74:95:8a:2a:7f:56:da:31:ae:6c:0a:48:51:26:62:c3:3c:b0:
         1f:25:49:23:fa:4e:16:51:9a:54:78:b9:f7:1c:80:0e:1e:ca:
         b7:f5:9f:33:ce:e4:08:f2:b0:ac:01:c0:73:90:a9:65:cd:a3:
         a5:1a:6d:19:26:7d:8e:2c:c3:da:25:ec:c8:40:b9:4a:97:35:
         ef:ba:5e:85:4b:be:77:20:0a:5f:d1:ef:c3:2d:2b:a2:9f:c8:
         7a:39:02:5a:a6:9c:e2:7a:e1:1f:dc:1e:96:f2:1c:a8:b2:f3:
         25:a6:5b:04:66:b8:79:9b:29:8f:b0:4b:5a:f1:c8:87:6c:99:
         f1:6b:fe:7e:76:bd:af:65:60:67:d3:82:5e:bf:68:0a:51:56:
         d1:60:1c:a9:a7:ad:88:9e:33:1c:fe:ee:41:1d:76:80:9a:bf:
         e9:ca:96:60:30:9e:9b:7c:6b:45:d4:ac:85:08:d5:ef:ea:92:
         51:96:4c:cb:02:65:80:da:d2:16:e9:91:2a:98:dc:f9:af:76:
         f8:fa:a4:3c:bf:4f:88:b1:56:bf:15:b4:23:85:04:34:0b:da:
         02:3b:87:54
-----BEGIN CERTIFICATE-----
MIIDCTCCAfGgAwIBAgIBCTANBgkqhkiG9w0BAQsFADB1MQswCQYDVQQGEwJVUzET
MBEGA1UECAwKQ2FsaWZvcm5pYTEUMBIGA1UEBwwLU2FudGEgQ2xhcmExDTALBgNV
BAoMBHBrZzUxEjAQBgNVBAMMCWNoNS4xX3RhMTEYMBYGCSqGSIb3DQEJARYJY2g1
LjFfdGExMB4XDTIwMTExNzIzMDEyOFoXDTIzMDgxNDIzMDEyOFowfTELMAkGA1UE
BhMCVVMxEzARBgNVBAgMCkNhbGlmb3JuaWExFDASBgNVBAcMC1NhbnRhIENsYXJh
MQ0wCwYDVQQKDARwa2c1MRYwFAYDVQQDDA1jczFfY2g1LjFfdGExMRwwGgYJKoZI
hvcNAQkBFg1jczFfY2g1LjFfdGExMIGfMA0GCSqGSIb3DQEBAQUAA4GNADCBiQKB
gQC2hf4/FkPTNr0eGL1kHwIrXdMslIOyCLDMrCXrBJeSRoNI12NMtwKdIsR1Iqw9
D/3JwMK5/e0NU0fDoFxXKIOh3u4GEdKPghf5e1gPpfXcJshCkCyKv33ZsamoMQnS
LXjyx8uoHTdn8ii5gvGjTj0Gq4bYY+7Co57xriwcMDSnyQIDAQABoyAwHjAMBgNV
HRMBAf8EAjAAMA4GA1UdDwEB/wQEAwIHgDANBgkqhkiG9w0BAQsFAAOCAQEAOlXQ
c8q+Z9+SI5hJwOejsEF/DBJMJzb2fRTbgbaTqm/46AuQdJWKKn9W2jGubApIUSZi
wzywHyVJI/pOFlGaVHi59xyADh7Kt/WfM87kCPKwrAHAc5CpZc2jpRptGSZ9jizD
2iXsyEC5Spc177pehUu+dyAKX9Hvwy0rop/IejkCWqac4nrhH9welvIcqLLzJaZb
BGa4eZspj7BLWvHIh2yZ8Wv+fna9r2VgZ9OCXr9oClFW0WAcqaetiJ4zHP7uQR12
gJq/6cqWYDCem3xrRdSshQjV7+qSUZZMywJlgNrSFumRKpjc+a92+PqkPL9PiLFW
vxW0I4UENAvaAjuHVA==
-----END CERTIFICATE-----
