Certificate:
    Data:
        Version: 3 (0x2)
        Serial Number: 9 (0x9)
    Signature Algorithm: sha256WithRSAEncryption
        Issuer: C=US, ST=California, L=Santa Clara, O=pkg5, CN=ch5.1_ta1/emailAddress=ch5.1_ta1
        Validity
            Not Before: Nov 28 22:50:55 2016 GMT
            Not After : Aug 25 22:50:55 2019 GMT
        Subject: C=US, ST=California, L=Santa Clara, O=pkg5, CN=cs1_ch5.1_ta1/emailAddress=cs1_ch5.1_ta1
        Subject Public Key Info:
            Public Key Algorithm: rsaEncryption
                Public-Key: (1024 bit)
                Modulus:
                    00:b8:f8:72:c4:29:30:36:ae:3f:ea:35:b7:41:06:
                    42:88:bb:ca:f2:53:b4:f0:76:61:db:bb:6b:32:37:
                    0e:fe:67:6a:66:e1:5f:d6:e2:0b:8a:c2:53:fa:43:
                    16:25:b6:c7:be:fa:fa:1d:65:e2:f1:1c:ef:4c:a6:
                    64:2e:b6:7c:05:0e:02:d0:14:68:a6:1e:29:6f:1a:
                    6d:17:f0:ff:e1:e7:4d:e9:71:1d:48:93:0b:17:e4:
                    69:b2:6f:d6:89:b0:8e:46:ed:38:82:11:07:b1:20:
                    ab:13:3a:01:f8:4f:d7:35:0b:94:11:65:a3:dd:03:
                    a0:00:70:d9:ff:cf:83:bc:eb
                Exponent: 65537 (0x10001)
        X509v3 extensions:
            X509v3 Basic Constraints: critical
                CA:FALSE
            X509v3 Key Usage: critical
                Digital Signature
    Signature Algorithm: sha256WithRSAEncryption
         4f:92:66:45:fa:8a:3e:0a:b9:12:71:f6:29:ca:c9:5a:96:6e:
         22:35:68:c8:6d:bb:0b:0b:eb:af:db:9f:5b:81:e7:de:32:6f:
         2b:2a:25:6c:a0:24:4f:0f:4f:27:d4:3c:08:9c:83:16:9f:89:
         18:ac:fa:92:cf:bc:b9:2a:5f:ae:3c:52:84:1a:8e:ce:8b:fd:
         c6:b2:ef:da:10:4e:cf:6f:6c:54:99:44:12:43:30:0b:84:11:
         67:09:41:c6:1b:99:48:a5:22:56:7f:df:d7:22:54:1e:c1:a7:
         57:dd:25:2f:1d:8a:9e:db:4e:61:83:a6:6d:a6:e5:57:ae:be:
         46:a9:38:9a:0d:7e:57:21:fe:10:8d:fb:7c:80:6c:b8:1b:45:
         a4:1a:88:3c:e5:be:07:3a:92:7c:c4:19:0e:30:df:e8:0a:2e:
         c3:7a:20:ff:f3:a2:a2:bf:9b:0a:54:7a:d2:ff:63:f8:39:66:
         9a:74:30:2b:25:63:1a:df:86:fa:60:7b:99:03:10:15:90:18:
         8d:58:e6:e0:da:29:db:56:2d:7d:48:39:99:65:a9:fa:66:f3:
         68:35:d4:35:84:72:47:c8:16:91:fa:b6:d1:08:86:a1:b1:73:
         6c:41:7e:8d:5e:02:f2:8b:a8:c0:73:8a:13:b0:e3:df:71:a0:
         25:34:e2:5d
-----BEGIN CERTIFICATE-----
MIIDCTCCAfGgAwIBAgIBCTANBgkqhkiG9w0BAQsFADB1MQswCQYDVQQGEwJVUzET
MBEGA1UECAwKQ2FsaWZvcm5pYTEUMBIGA1UEBwwLU2FudGEgQ2xhcmExDTALBgNV
BAoMBHBrZzUxEjAQBgNVBAMMCWNoNS4xX3RhMTEYMBYGCSqGSIb3DQEJARYJY2g1
LjFfdGExMB4XDTE2MTEyODIyNTA1NVoXDTE5MDgyNTIyNTA1NVowfTELMAkGA1UE
BhMCVVMxEzARBgNVBAgMCkNhbGlmb3JuaWExFDASBgNVBAcMC1NhbnRhIENsYXJh
MQ0wCwYDVQQKDARwa2c1MRYwFAYDVQQDDA1jczFfY2g1LjFfdGExMRwwGgYJKoZI
hvcNAQkBFg1jczFfY2g1LjFfdGExMIGfMA0GCSqGSIb3DQEBAQUAA4GNADCBiQKB
gQC4+HLEKTA2rj/qNbdBBkKIu8ryU7TwdmHbu2syNw7+Z2pm4V/W4guKwlP6QxYl
tse++vodZeLxHO9MpmQutnwFDgLQFGimHilvGm0X8P/h503pcR1IkwsX5Gmyb9aJ
sI5G7TiCEQexIKsTOgH4T9c1C5QRZaPdA6AAcNn/z4O86wIDAQABoyAwHjAMBgNV
HRMBAf8EAjAAMA4GA1UdDwEB/wQEAwIHgDANBgkqhkiG9w0BAQsFAAOCAQEAT5Jm
RfqKPgq5EnH2KcrJWpZuIjVoyG27Cwvrr9ufW4Hn3jJvKyolbKAkTw9PJ9Q8CJyD
Fp+JGKz6ks+8uSpfrjxShBqOzov9xrLv2hBOz29sVJlEEkMwC4QRZwlBxhuZSKUi
Vn/f1yJUHsGnV90lLx2KnttOYYOmbablV66+Rqk4mg1+VyH+EI37fIBsuBtFpBqI
POW+BzqSfMQZDjDf6Aouw3og//Oior+bClR60v9j+DlmmnQwKyVjGt+G+mB7mQMQ
FZAYjVjm4Nop21YtfUg5mWWp+mbzaDXUNYRyR8gWkfq20QiGobFzbEF+jV4C8ouo
wHOKE7Dj33GgJTTiXQ==
-----END CERTIFICATE-----
