Certificate:
    Data:
        Version: 3 (0x2)
        Serial Number: 9 (0x9)
    Signature Algorithm: sha256WithRSAEncryption
        Issuer: C=US, ST=California, L=Santa Clara, O=pkg5, CN=ch5.1_ta1/emailAddress=ch5.1_ta1
        Validity
            Not Before: Dec  6 03:06:42 2014 GMT
            Not After : Sep  1 03:06:42 2017 GMT
        Subject: C=US, ST=California, L=Santa Clara, O=pkg5, CN=cs1_ch5.1_ta1/emailAddress=cs1_ch5.1_ta1
        Subject Public Key Info:
            Public Key Algorithm: rsaEncryption
                Public-Key: (1024 bit)
                Modulus:
                    00:b1:8b:2c:dd:89:65:f6:dc:8e:e8:9f:6e:2b:bf:
                    da:36:fd:02:7f:d3:c7:40:50:32:4c:e4:32:a3:2a:
                    a2:a0:78:10:2a:1a:e3:f8:ef:84:7a:0c:51:df:75:
                    d6:da:5f:a9:d5:bd:8d:17:6f:fb:d7:11:f0:d5:01:
                    6a:5a:e9:b4:1c:13:71:5c:0c:93:ac:0e:09:36:fe:
                    8b:0e:d4:40:4a:e5:d5:86:05:af:e8:a0:01:b4:aa:
                    1c:2c:ac:24:0e:54:e1:81:6c:a8:7a:21:bc:13:fc:
                    a0:e0:81:9a:ff:8a:ce:91:90:f3:bb:25:45:09:64:
                    ec:37:40:dd:96:ff:20:ec:d9
                Exponent: 65537 (0x10001)
        X509v3 extensions:
            X509v3 Basic Constraints: critical
                CA:FALSE
            X509v3 Key Usage: critical
                Digital Signature
    Signature Algorithm: sha256WithRSAEncryption
         5c:fd:29:ff:ba:16:52:17:3c:9e:41:4c:c6:bd:76:c4:68:9b:
         e2:31:c7:c9:04:73:da:6b:1d:a3:24:13:c5:7b:03:21:c8:60:
         36:28:7e:cc:d1:fb:c8:8d:4d:57:3d:8b:04:18:ab:44:e8:60:
         23:5c:23:1d:b8:ba:36:11:49:c6:c8:43:60:90:73:2e:52:53:
         5d:5b:a1:3b:7b:4e:b6:93:49:11:e9:1e:b2:cf:60:cc:07:d1:
         ac:71:5e:aa:9e:b9:e3:aa:9b:60:cf:77:76:2c:fe:29:0f:de:
         8b:a3:d2:98:82:e1:75:73:9c:20:2c:ba:e3:c2:ca:f6:eb:d3:
         64:a4
-----BEGIN CERTIFICATE-----
MIICiDCCAfGgAwIBAgIBCTANBgkqhkiG9w0BAQsFADB1MQswCQYDVQQGEwJVUzET
MBEGA1UECAwKQ2FsaWZvcm5pYTEUMBIGA1UEBwwLU2FudGEgQ2xhcmExDTALBgNV
BAoMBHBrZzUxEjAQBgNVBAMMCWNoNS4xX3RhMTEYMBYGCSqGSIb3DQEJARYJY2g1
LjFfdGExMB4XDTE0MTIwNjAzMDY0MloXDTE3MDkwMTAzMDY0MlowfTELMAkGA1UE
BhMCVVMxEzARBgNVBAgMCkNhbGlmb3JuaWExFDASBgNVBAcMC1NhbnRhIENsYXJh
MQ0wCwYDVQQKDARwa2c1MRYwFAYDVQQDDA1jczFfY2g1LjFfdGExMRwwGgYJKoZI
hvcNAQkBFg1jczFfY2g1LjFfdGExMIGfMA0GCSqGSIb3DQEBAQUAA4GNADCBiQKB
gQCxiyzdiWX23I7on24rv9o2/QJ/08dAUDJM5DKjKqKgeBAqGuP474R6DFHfddba
X6nVvY0Xb/vXEfDVAWpa6bQcE3FcDJOsDgk2/osO1EBK5dWGBa/ooAG0qhwsrCQO
VOGBbKh6IbwT/KDggZr/is6RkPO7JUUJZOw3QN2W/yDs2QIDAQABoyAwHjAMBgNV
HRMBAf8EAjAAMA4GA1UdDwEB/wQEAwIHgDANBgkqhkiG9w0BAQsFAAOBgQBc/Sn/
uhZSFzyeQUzGvXbEaJviMcfJBHPaax2jJBPFewMhyGA2KH7M0fvIjU1XPYsEGKtE
6GAjXCMduLo2EUnGyENgkHMuUlNdW6E7e062k0kR6R6yz2DMB9GscV6qnrnjqptg
z3d2LP4pD96Lo9KYguF1c5wgLLrjwsr269NkpA==
-----END CERTIFICATE-----
