Certificate:
    Data:
        Version: 3 (0x2)
        Serial Number: 11 (0xb)
    Signature Algorithm: sha256WithRSAEncryption
        Issuer: C=US, ST=California, L=Santa Clara, O=pkg5, CN=ch5.2_ta1/emailAddress=ch5.2_ta1
        Validity
            Not Before: Dec  6 03:06:42 2014 GMT
            Not After : Sep  1 03:06:42 2017 GMT
        Subject: C=US, ST=California, L=Santa Clara, O=pkg5, CN=cs1_ch5.2_ta1/emailAddress=cs1_ch5.2_ta1
        Subject Public Key Info:
            Public Key Algorithm: rsaEncryption
                Public-Key: (1024 bit)
                Modulus:
                    00:b6:f8:5d:4c:2c:3b:c0:55:3e:eb:66:9d:d3:a7:
                    e1:43:61:c4:f9:1a:7b:a0:5d:c7:b8:53:89:f3:37:
                    d3:01:d3:bc:84:0e:5f:12:17:d8:c9:5b:ed:0b:c8:
                    3a:46:13:6e:c2:3b:c0:ce:39:e5:a1:a9:03:86:31:
                    d2:5c:1a:b4:a2:f9:a3:06:92:ae:35:34:0b:45:20:
                    9b:3c:5b:67:85:70:cb:af:b0:a2:f0:14:53:3d:e6:
                    1c:79:a6:77:79:82:e6:44:ac:7e:db:e0:fd:48:01:
                    69:10:ec:53:d7:3b:64:52:74:26:3f:b9:70:b8:96:
                    97:f7:ba:59:22:b7:1f:ca:4f
                Exponent: 65537 (0x10001)
        X509v3 extensions:
            X509v3 Basic Constraints: critical
                CA:FALSE
            X509v3 Key Usage: critical
                Digital Signature
    Signature Algorithm: sha256WithRSAEncryption
         0f:5a:6d:ae:9b:47:33:11:32:83:4b:91:a1:a2:f4:8f:63:8f:
         c7:a3:33:a9:26:81:03:92:ba:eb:c0:c9:19:2a:19:7c:63:09:
         58:8b:f2:c4:2b:f9:93:c6:2d:39:9b:96:91:68:8d:ae:bd:cb:
         05:bd:80:35:fb:fa:05:e9:e2:f6:10:a9:33:08:29:86:76:ca:
         66:42:39:b3:f2:8b:ff:52:1d:d1:66:bf:e5:68:d3:0e:df:6e:
         0c:ae:50:4c:0a:a1:26:85:0a:42:98:37:ae:35:29:e9:54:73:
         f1:ca:17:24:f7:a7:ab:f9:22:07:28:de:63:42:5d:3d:29:39:
         b0:28
-----BEGIN CERTIFICATE-----
MIICiDCCAfGgAwIBAgIBCzANBgkqhkiG9w0BAQsFADB1MQswCQYDVQQGEwJVUzET
MBEGA1UECAwKQ2FsaWZvcm5pYTEUMBIGA1UEBwwLU2FudGEgQ2xhcmExDTALBgNV
BAoMBHBrZzUxEjAQBgNVBAMMCWNoNS4yX3RhMTEYMBYGCSqGSIb3DQEJARYJY2g1
LjJfdGExMB4XDTE0MTIwNjAzMDY0MloXDTE3MDkwMTAzMDY0MlowfTELMAkGA1UE
BhMCVVMxEzARBgNVBAgMCkNhbGlmb3JuaWExFDASBgNVBAcMC1NhbnRhIENsYXJh
MQ0wCwYDVQQKDARwa2c1MRYwFAYDVQQDDA1jczFfY2g1LjJfdGExMRwwGgYJKoZI
hvcNAQkBFg1jczFfY2g1LjJfdGExMIGfMA0GCSqGSIb3DQEBAQUAA4GNADCBiQKB
gQC2+F1MLDvAVT7rZp3Tp+FDYcT5GnugXce4U4nzN9MB07yEDl8SF9jJW+0LyDpG
E27CO8DOOeWhqQOGMdJcGrSi+aMGkq41NAtFIJs8W2eFcMuvsKLwFFM95hx5pnd5
guZErH7b4P1IAWkQ7FPXO2RSdCY/uXC4lpf3ulkitx/KTwIDAQABoyAwHjAMBgNV
HRMBAf8EAjAAMA4GA1UdDwEB/wQEAwIHgDANBgkqhkiG9w0BAQsFAAOBgQAPWm2u
m0czETKDS5GhovSPY4/HozOpJoEDkrrrwMkZKhl8YwlYi/LEK/mTxi05m5aRaI2u
vcsFvYA1+/oF6eL2EKkzCCmGdspmQjmz8ov/Uh3RZr/laNMO324MrlBMCqEmhQpC
mDeuNSnpVHPxyhck96er+SIHKN5jQl09KTmwKA==
-----END CERTIFICATE-----
