Certificate:
    Data:
        Version: 3 (0x2)
        Serial Number: 11 (0xb)
    Signature Algorithm: sha256WithRSAEncryption
        Issuer: C=US, ST=California, L=Santa Clara, O=pkg5, CN=ch5.2_ta1/emailAddress=ch5.2_ta1
        Validity
            Not Before: Mar 20 10:20:53 2018 GMT
            Not After : Dec 14 10:20:53 2020 GMT
        Subject: C=US, ST=California, L=Santa Clara, O=pkg5, CN=cs1_ch5.2_ta1/emailAddress=cs1_ch5.2_ta1
        Subject Public Key Info:
            Public Key Algorithm: rsaEncryption
                Public-Key: (1024 bit)
                Modulus:
                    00:a1:da:d8:1b:46:cb:d0:92:94:af:9b:8c:54:b7:
                    7f:d9:d8:64:57:67:3d:69:ac:72:52:07:7a:92:41:
                    69:d0:bc:2d:91:0f:e3:83:6d:d8:ca:72:a2:9f:89:
                    6e:85:09:6d:95:39:7d:d9:6f:6a:76:d8:ba:61:98:
                    d3:43:c9:a7:5b:ae:00:86:b3:b3:d0:6b:14:fc:e6:
                    eb:c8:9b:18:11:f8:c3:6b:87:29:42:96:96:eb:d5:
                    47:ce:a8:56:fd:fd:44:0b:19:2d:74:01:ed:54:d5:
                    0c:4f:cf:89:f9:fb:7a:35:ca:cd:c1:64:5e:cd:eb:
                    5d:c5:9d:3b:0f:31:47:1f:1f
                Exponent: 65537 (0x10001)
        X509v3 extensions:
            X509v3 Basic Constraints: critical
                CA:FALSE
            X509v3 Key Usage: critical
                Digital Signature
    Signature Algorithm: sha256WithRSAEncryption
         1f:2b:a6:6f:c3:48:f0:fc:0d:5c:35:70:7c:8f:76:fe:2b:b0:
         ee:b3:4f:53:a7:e1:52:db:06:0a:9f:6d:ae:44:b0:bd:99:ca:
         f1:0d:b1:e6:cf:32:ba:31:50:2a:80:b9:f0:fa:c1:0e:73:8e:
         65:4e:d0:d6:2c:74:2f:97:81:e0:3f:7e:c2:5e:4d:f0:05:e3:
         a9:53:45:f4:d4:90:1c:90:67:63:bd:60:02:f5:f1:86:b8:84:
         ec:b3:04:f0:50:51:1e:ed:46:ac:73:f7:c9:f6:50:0e:f2:d0:
         47:a9:2c:e7:f3:93:be:dd:58:a9:61:41:ae:ed:56:2b:d3:b5:
         ae:6b:e0:ff:19:57:98:9d:60:5b:87:8c:7a:ca:f8:58:dd:88:
         12:ff:f2:4c:80:24:bd:d1:d0:fe:a5:ec:a1:c7:5b:1e:0d:06:
         ab:cc:71:a1:39:ad:93:a5:a9:45:da:c8:d3:3d:9a:e4:3c:8e:
         a8:74:29:15:0f:f6:89:e6:7e:d2:6e:93:28:8e:60:1d:26:af:
         4e:33:38:db:4a:c7:5e:5a:ef:12:b4:ad:7f:0d:b2:bb:64:d0:
         e8:4f:9d:35:76:0a:53:1d:e4:02:7a:58:57:39:4d:d2:48:10:
         aa:75:e4:d8:aa:5a:a8:cc:5b:a5:41:be:d2:24:1e:b1:dd:68:
         c0:5c:8b:92
-----BEGIN CERTIFICATE-----
MIIDCTCCAfGgAwIBAgIBCzANBgkqhkiG9w0BAQsFADB1MQswCQYDVQQGEwJVUzET
MBEGA1UECAwKQ2FsaWZvcm5pYTEUMBIGA1UEBwwLU2FudGEgQ2xhcmExDTALBgNV
BAoMBHBrZzUxEjAQBgNVBAMMCWNoNS4yX3RhMTEYMBYGCSqGSIb3DQEJARYJY2g1
LjJfdGExMB4XDTE4MDMyMDEwMjA1M1oXDTIwMTIxNDEwMjA1M1owfTELMAkGA1UE
BhMCVVMxEzARBgNVBAgMCkNhbGlmb3JuaWExFDASBgNVBAcMC1NhbnRhIENsYXJh
MQ0wCwYDVQQKDARwa2c1MRYwFAYDVQQDDA1jczFfY2g1LjJfdGExMRwwGgYJKoZI
hvcNAQkBFg1jczFfY2g1LjJfdGExMIGfMA0GCSqGSIb3DQEBAQUAA4GNADCBiQKB
gQCh2tgbRsvQkpSvm4xUt3/Z2GRXZz1prHJSB3qSQWnQvC2RD+ODbdjKcqKfiW6F
CW2VOX3Zb2p22LphmNNDyadbrgCGs7PQaxT85uvImxgR+MNrhylClpbr1UfOqFb9
/UQLGS10Ae1U1QxPz4n5+3o1ys3BZF7N613FnTsPMUcfHwIDAQABoyAwHjAMBgNV
HRMBAf8EAjAAMA4GA1UdDwEB/wQEAwIHgDANBgkqhkiG9w0BAQsFAAOCAQEAHyum
b8NI8PwNXDVwfI92/iuw7rNPU6fhUtsGCp9trkSwvZnK8Q2x5s8yujFQKoC58PrB
DnOOZU7Q1ix0L5eB4D9+wl5N8AXjqVNF9NSQHJBnY71gAvXxhriE7LME8FBRHu1G
rHP3yfZQDvLQR6ks5/OTvt1YqWFBru1WK9O1rmvg/xlXmJ1gW4eMesr4WN2IEv/y
TIAkvdHQ/qXsocdbHg0Gq8xxoTmtk6WpRdrI0z2a5DyOqHQpFQ/2ieZ+0m6TKI5g
HSavTjM420rHXlrvErStfw2yu2TQ6E+dNXYKUx3kAnpYVzlN0kgQqnXk2KpaqMxb
pUG+0iQesd1owFyLkg==
-----END CERTIFICATE-----
