Certificate:
    Data:
        Version: 3 (0x2)
        Serial Number: 11 (0xb)
    Signature Algorithm: sha256WithRSAEncryption
        Issuer: C=US, ST=California, L=Santa Clara, O=pkg5, CN=ch5.2_ta1/emailAddress=ch5.2_ta1
        Validity
            Not Before: Nov 28 22:50:55 2016 GMT
            Not After : Aug 25 22:50:55 2019 GMT
        Subject: C=US, ST=California, L=Santa Clara, O=pkg5, CN=cs1_ch5.2_ta1/emailAddress=cs1_ch5.2_ta1
        Subject Public Key Info:
            Public Key Algorithm: rsaEncryption
                Public-Key: (1024 bit)
                Modulus:
                    00:b2:3a:63:3e:73:fb:a3:24:e5:86:02:96:55:4a:
                    cd:b3:a8:cb:12:29:60:26:b0:25:86:9e:78:7a:40:
                    f1:5d:b7:e3:59:34:ce:fd:56:6d:58:bc:49:9e:92:
                    13:81:04:11:a5:bd:ca:4a:d6:4c:71:fd:67:a2:a4:
                    7f:42:9d:d7:3d:90:ab:07:71:5b:a0:8d:03:29:e2:
                    41:d7:83:59:4c:b5:ed:2f:ec:cb:ed:6b:4e:eb:c4:
                    1e:d4:2a:3d:53:4f:e4:ab:a7:b7:c9:2d:12:1b:3b:
                    bf:2a:a6:dc:06:27:82:d4:49:a4:6d:5f:8b:38:e4:
                    11:f3:9d:9b:bb:7d:48:c0:4d
                Exponent: 65537 (0x10001)
        X509v3 extensions:
            X509v3 Basic Constraints: critical
                CA:FALSE
            X509v3 Key Usage: critical
                Digital Signature
    Signature Algorithm: sha256WithRSAEncryption
         34:3f:fb:91:3e:be:88:62:2a:7d:ef:4a:45:f8:1b:85:5d:c5:
         e8:a6:23:a7:86:41:4c:98:3f:a1:b1:26:70:b6:c6:f0:ed:89:
         9d:b2:42:a1:e5:1e:c3:b8:79:8d:cc:07:aa:86:5f:30:0d:96:
         ac:9c:54:5b:85:a3:e9:92:2f:24:57:97:57:45:03:60:a8:75:
         85:1c:74:ac:7b:13:c9:a7:e8:07:08:02:77:1f:52:66:6f:91:
         b4:2f:16:19:5e:a2:70:94:ca:b7:1a:c5:db:75:c7:f8:54:7e:
         38:00:86:c6:7f:c6:ed:82:7f:46:44:66:d4:0e:56:d2:8f:06:
         c8:57:fc:6a:8c:00:a6:84:9c:bd:12:8c:67:f5:1d:e7:ed:00:
         f3:c1:64:e1:56:91:2d:0f:7a:c6:87:69:c6:46:48:e4:84:9c:
         85:82:7a:da:51:8f:d9:f5:45:78:6b:ff:d2:c2:8c:c2:46:2c:
         6e:fa:11:94:6b:5a:65:31:22:81:94:76:b7:0e:f4:1b:85:4f:
         31:09:56:e7:84:54:7f:02:a5:ca:f8:2e:60:89:a8:6b:85:e3:
         b9:f6:d8:9a:f8:70:fe:96:9a:21:eb:41:09:6d:42:5d:db:44:
         fa:23:c6:54:96:5d:4a:4e:9b:c8:15:1f:3c:ec:d7:0f:60:47:
         16:7c:ca:ad
-----BEGIN CERTIFICATE-----
MIIDCTCCAfGgAwIBAgIBCzANBgkqhkiG9w0BAQsFADB1MQswCQYDVQQGEwJVUzET
MBEGA1UECAwKQ2FsaWZvcm5pYTEUMBIGA1UEBwwLU2FudGEgQ2xhcmExDTALBgNV
BAoMBHBrZzUxEjAQBgNVBAMMCWNoNS4yX3RhMTEYMBYGCSqGSIb3DQEJARYJY2g1
LjJfdGExMB4XDTE2MTEyODIyNTA1NVoXDTE5MDgyNTIyNTA1NVowfTELMAkGA1UE
BhMCVVMxEzARBgNVBAgMCkNhbGlmb3JuaWExFDASBgNVBAcMC1NhbnRhIENsYXJh
MQ0wCwYDVQQKDARwa2c1MRYwFAYDVQQDDA1jczFfY2g1LjJfdGExMRwwGgYJKoZI
hvcNAQkBFg1jczFfY2g1LjJfdGExMIGfMA0GCSqGSIb3DQEBAQUAA4GNADCBiQKB
gQCyOmM+c/ujJOWGApZVSs2zqMsSKWAmsCWGnnh6QPFdt+NZNM79Vm1YvEmekhOB
BBGlvcpK1kxx/WeipH9Cndc9kKsHcVugjQMp4kHXg1lMte0v7Mvta07rxB7UKj1T
T+Srp7fJLRIbO78qptwGJ4LUSaRtX4s45BHznZu7fUjATQIDAQABoyAwHjAMBgNV
HRMBAf8EAjAAMA4GA1UdDwEB/wQEAwIHgDANBgkqhkiG9w0BAQsFAAOCAQEAND/7
kT6+iGIqfe9KRfgbhV3F6KYjp4ZBTJg/obEmcLbG8O2JnbJCoeUew7h5jcwHqoZf
MA2WrJxUW4Wj6ZIvJFeXV0UDYKh1hRx0rHsTyafoBwgCdx9SZm+RtC8WGV6icJTK
txrF23XH+FR+OACGxn/G7YJ/RkRm1A5W0o8GyFf8aowApoScvRKMZ/Ud5+0A88Fk
4VaRLQ96xodpxkZI5ISchYJ62lGP2fVFeGv/0sKMwkYsbvoRlGtaZTEigZR2tw70
G4VPMQlW54RUfwKlyvguYImoa4XjufbYmvhw/paaIetBCW1CXdtE+iPGVJZdSk6b
yBUfPOzXD2BHFnzKrQ==
-----END CERTIFICATE-----
