Certificate:
    Data:
        Version: 3 (0x2)
        Serial Number: 11 (0xb)
        Signature Algorithm: sha256WithRSAEncryption
        Issuer: C=US, ST=California, L=Santa Clara, O=pkg5, CN=ch5.2_ta1/emailAddress=ch5.2_ta1
        Validity
            Not Before: Nov 17 23:01:28 2020 GMT
            Not After : Aug 14 23:01:28 2023 GMT
        Subject: C=US, ST=California, L=Santa Clara, O=pkg5, CN=cs1_ch5.2_ta1/emailAddress=cs1_ch5.2_ta1
        Subject Public Key Info:
            Public Key Algorithm: rsaEncryption
                RSA Public-Key: (1024 bit)
                Modulus:
                    00:bd:40:f0:f9:69:a5:14:20:72:cb:0b:14:fb:fa:
                    8a:b3:20:f9:8d:84:6b:4e:3f:1b:1c:4a:bb:a8:ad:
                    ba:72:4a:8d:16:5d:d2:7d:85:29:92:e6:78:ef:d6:
                    65:21:20:61:fb:ca:ea:ab:13:c9:52:e1:37:09:32:
                    d4:af:85:fb:a6:a6:ad:19:21:8f:37:39:1a:63:f8:
                    c2:72:81:9e:7b:f4:ac:01:e0:38:56:58:9e:af:5c:
                    9b:2b:ca:21:88:d5:a0:d7:a8:0a:4d:a4:66:3e:a8:
                    b8:6c:08:46:4f:a5:73:bf:43:51:8a:13:65:07:18:
                    2c:3a:d4:69:d8:22:03:08:51
                Exponent: 65537 (0x10001)
        X509v3 extensions:
            X509v3 Basic Constraints: critical
                CA:FALSE
            X509v3 Key Usage: critical
                Digital Signature
    Signature Algorithm: sha256WithRSAEncryption
         ed:60:8a:04:69:e2:e4:b7:9d:60:1f:3f:a5:63:c2:c4:12:7b:
         a6:2e:c8:00:51:f9:c4:ad:dc:2d:26:1d:c4:6d:e6:cc:af:13:
         f6:b9:fe:92:40:6d:1d:a0:01:35:60:39:53:1a:b1:73:86:16:
         46:58:bf:1a:d9:c0:c0:99:d9:78:51:0b:02:0b:d0:c9:7e:44:
         db:91:d6:99:b9:94:17:c4:90:2b:41:44:4d:ca:98:b2:c8:e4:
         f5:17:2e:26:a2:bf:ab:68:fa:9b:2d:49:0d:65:dc:9d:19:47:
         86:2f:29:eb:f2:db:be:36:f4:33:85:43:8b:50:27:0d:95:2a:
         ef:7e:b4:e2:b9:2d:39:59:cf:1c:90:0e:7c:7e:ec:8b:e8:fc:
         a0:7a:0b:cc:ed:76:dd:bb:85:c0:c7:93:e7:79:b4:c1:e0:af:
         e5:19:30:6a:1a:c1:94:0d:19:d0:12:c3:10:fc:a8:d5:69:97:
         df:16:c8:55:dc:be:d9:2a:5e:03:10:20:e9:20:2a:41:77:42:
         57:15:0f:eb:c3:a5:0f:2c:90:19:32:85:13:9e:83:20:02:b7:
         28:70:89:f7:32:c1:01:8f:9a:2c:0c:de:d9:87:86:1a:a4:95:
         9f:12:b7:ff:e8:dc:6d:c8:66:0d:e5:25:23:3a:81:54:83:7c:
         1c:ec:cc:c3
-----BEGIN CERTIFICATE-----
MIIDCTCCAfGgAwIBAgIBCzANBgkqhkiG9w0BAQsFADB1MQswCQYDVQQGEwJVUzET
MBEGA1UECAwKQ2FsaWZvcm5pYTEUMBIGA1UEBwwLU2FudGEgQ2xhcmExDTALBgNV
BAoMBHBrZzUxEjAQBgNVBAMMCWNoNS4yX3RhMTEYMBYGCSqGSIb3DQEJARYJY2g1
LjJfdGExMB4XDTIwMTExNzIzMDEyOFoXDTIzMDgxNDIzMDEyOFowfTELMAkGA1UE
BhMCVVMxEzARBgNVBAgMCkNhbGlmb3JuaWExFDASBgNVBAcMC1NhbnRhIENsYXJh
MQ0wCwYDVQQKDARwa2c1MRYwFAYDVQQDDA1jczFfY2g1LjJfdGExMRwwGgYJKoZI
hvcNAQkBFg1jczFfY2g1LjJfdGExMIGfMA0GCSqGSIb3DQEBAQUAA4GNADCBiQKB
gQC9QPD5aaUUIHLLCxT7+oqzIPmNhGtOPxscSruorbpySo0WXdJ9hSmS5njv1mUh
IGH7yuqrE8lS4TcJMtSvhfumpq0ZIY83ORpj+MJygZ579KwB4DhWWJ6vXJsryiGI
1aDXqApNpGY+qLhsCEZPpXO/Q1GKE2UHGCw61GnYIgMIUQIDAQABoyAwHjAMBgNV
HRMBAf8EAjAAMA4GA1UdDwEB/wQEAwIHgDANBgkqhkiG9w0BAQsFAAOCAQEA7WCK
BGni5LedYB8/pWPCxBJ7pi7IAFH5xK3cLSYdxG3mzK8T9rn+kkBtHaABNWA5Uxqx
c4YWRli/GtnAwJnZeFELAgvQyX5E25HWmbmUF8SQK0FETcqYssjk9RcuJqK/q2j6
my1JDWXcnRlHhi8p6/Lbvjb0M4VDi1AnDZUq73604rktOVnPHJAOfH7si+j8oHoL
zO123buFwMeT53m0weCv5RkwahrBlA0Z0BLDEPyo1WmX3xbIVdy+2SpeAxAg6SAq
QXdCVxUP68OlDyyQGTKFE56DIAK3KHCJ9zLBAY+aLAze2YeGGqSVnxK3/+jcbchm
DeUlIzqBVIN8HOzMww==
-----END CERTIFICATE-----
