Certificate:
    Data:
        Version: 3 (0x2)
        Serial Number: 11 (0xb)
        Signature Algorithm: sha256WithRSAEncryption
        Issuer: C=US, ST=California, L=Santa Clara, O=pkg5, CN=ch5.2_ta1/emailAddress=ch5.2_ta1
        Validity
            Not Before: May 23 15:47:15 2024 GMT
            Not After : Feb 17 15:47:15 2027 GMT
        Subject: C=US, ST=California, L=Santa Clara, O=pkg5, CN=cs1_ch5.2_ta1/emailAddress=cs1_ch5.2_ta1
        Subject Public Key Info:
            Public Key Algorithm: rsaEncryption
                Public-Key: (2048 bit)
                Modulus:
                    00:9d:29:7d:fd:4d:90:7a:90:41:64:b4:77:be:5d:
                    7a:02:d3:2b:2f:f9:de:f0:67:5d:c1:81:cc:9e:7b:
                    78:fd:dd:45:64:03:91:94:7f:77:9b:37:d3:64:14:
                    b0:f0:96:ce:51:08:3b:99:70:31:ce:c4:13:75:87:
                    8f:c6:9d:ac:c7:c7:88:f9:5f:ff:21:88:b5:32:a4:
                    81:34:e7:d5:bc:62:01:c9:89:cd:40:ea:aa:74:d6:
                    74:2f:68:bf:b7:09:a7:ae:8f:13:0a:63:82:15:82:
                    9c:ac:e0:eb:e3:40:97:70:f8:f9:57:99:fb:af:18:
                    73:ff:18:f2:3d:04:82:d3:e6:ca:1b:c3:27:f1:56:
                    0c:32:4a:63:9c:4c:05:d0:7a:bf:7c:f0:ce:1a:5b:
                    a3:2a:bd:ec:e0:23:b1:e2:d4:5a:98:5e:08:65:3c:
                    0c:36:09:d4:0f:53:80:07:9a:a2:f5:ae:f5:ca:34:
                    a5:f7:01:e8:4b:2c:d7:3e:56:13:04:76:e5:7c:60:
                    0d:87:ca:8a:a7:2e:df:a6:e7:e1:e1:c2:06:96:97:
                    90:e7:bb:c9:a5:34:9e:4a:10:f1:0a:35:37:ac:08:
                    af:82:64:ed:de:0e:d3:36:2d:f0:cc:2b:5d:93:3d:
                    b3:2f:6c:f0:b1:6f:6f:48:53:c0:63:43:ed:f2:66:
                    46:e3
                Exponent: 65537 (0x10001)
        X509v3 extensions:
            X509v3 Basic Constraints: critical
                CA:FALSE
            X509v3 Key Usage: critical
                Digital Signature
            X509v3 Subject Key Identifier: 
                AF:0B:B2:37:2B:B8:B4:89:74:5A:99:79:3E:AC:57:23:4B:CE:49:4A
            X509v3 Authority Key Identifier: 
                5C:D1:31:08:36:2F:7E:E2:09:3F:6C:86:20:F9:33:56:A8:D4:FC:FA
    Signature Algorithm: sha256WithRSAEncryption
    Signature Value:
        b9:60:98:18:78:d1:52:7b:71:fa:62:7a:d2:5a:2c:a4:0c:3b:
        b5:5c:be:8e:89:48:7c:9e:20:97:16:13:7f:27:ec:f8:56:e6:
        de:de:4f:5b:08:aa:bc:f9:37:ee:0d:ae:82:fd:8e:35:75:49:
        5f:77:34:a2:ba:58:47:68:70:d8:fb:4c:fe:75:b7:ca:94:7a:
        fb:78:35:76:c2:8b:dc:5c:15:ee:b4:35:71:0a:a0:4a:63:eb:
        d9:db:50:d8:73:26:c9:f9:3e:7a:b8:4d:66:9d:f7:99:5e:fe:
        b8:ec:51:17:80:47:e4:88:97:45:0f:f5:c3:d4:28:06:e7:3d:
        dc:93:f5:e7:c4:32:10:61:a6:3a:f8:2c:9b:11:b9:62:b4:63:
        2b:b9:a9:7d:2f:fe:72:e0:85:97:f1:9d:b5:d4:b8:bf:24:2e:
        51:25:6a:9d:ae:aa:17:95:bc:af:d9:d5:47:63:6c:20:3c:ab:
        71:e5:51:de:6f:35:7d:27:f6:bb:de:35:02:18:ae:80:a6:e5:
        e3:5e:e2:94:5c:68:c6:45:80:a4:4d:0b:31:b0:07:3d:4c:20:
        b8:12:ac:67:55:57:8e:11:a0:04:da:55:4f:50:d5:d0:c8:72:
        39:4b:45:c5:6f:c7:af:2b:3a:44:5e:b4:f5:67:d1:bd:37:0e:
        b4:bd:bc:c6
-----BEGIN CERTIFICATE-----
MIIDzTCCArWgAwIBAgIBCzANBgkqhkiG9w0BAQsFADB1MQswCQYDVQQGEwJVUzET
MBEGA1UECAwKQ2FsaWZvcm5pYTEUMBIGA1UEBwwLU2FudGEgQ2xhcmExDTALBgNV
BAoMBHBrZzUxEjAQBgNVBAMMCWNoNS4yX3RhMTEYMBYGCSqGSIb3DQEJARYJY2g1
LjJfdGExMB4XDTI0MDUyMzE1NDcxNVoXDTI3MDIxNzE1NDcxNVowfTELMAkGA1UE
BhMCVVMxEzARBgNVBAgMCkNhbGlmb3JuaWExFDASBgNVBAcMC1NhbnRhIENsYXJh
MQ0wCwYDVQQKDARwa2c1MRYwFAYDVQQDDA1jczFfY2g1LjJfdGExMRwwGgYJKoZI
hvcNAQkBFg1jczFfY2g1LjJfdGExMIIBIjANBgkqhkiG9w0BAQEFAAOCAQ8AMIIB
CgKCAQEAnSl9/U2QepBBZLR3vl16AtMrL/ne8GddwYHMnnt4/d1FZAORlH93mzfT
ZBSw8JbOUQg7mXAxzsQTdYePxp2sx8eI+V//IYi1MqSBNOfVvGIByYnNQOqqdNZ0
L2i/twmnro8TCmOCFYKcrODr40CXcPj5V5n7rxhz/xjyPQSC0+bKG8Mn8VYMMkpj
nEwF0Hq/fPDOGlujKr3s4COx4tRamF4IZTwMNgnUD1OAB5qi9a71yjSl9wHoSyzX
PlYTBHblfGANh8qKpy7fpufh4cIGlpeQ57vJpTSeShDxCjU3rAivgmTt3g7TNi3w
zCtdkz2zL2zwsW9vSFPAY0Pt8mZG4wIDAQABo2AwXjAMBgNVHRMBAf8EAjAAMA4G
A1UdDwEB/wQEAwIHgDAdBgNVHQ4EFgQUrwuyNyu4tIl0Wpl5PqxXI0vOSUowHwYD
VR0jBBgwFoAUXNExCDYvfuIJP2yGIPkzVqjU/PowDQYJKoZIhvcNAQELBQADggEB
ALlgmBh40VJ7cfpietJaLKQMO7Vcvo6JSHyeIJcWE38n7PhW5t7eT1sIqrz5N+4N
roL9jjV1SV93NKK6WEdocNj7TP51t8qUevt4NXbCi9xcFe60NXEKoEpj69nbUNhz
Jsn5Pnq4TWad95le/rjsUReAR+SIl0UP9cPUKAbnPdyT9efEMhBhpjr4LJsRuWK0
Yyu5qX0v/nLghZfxnbXUuL8kLlElap2uqheVvK/Z1UdjbCA8q3HlUd5vNX0n9rve
NQIYroCm5eNe4pRcaMZFgKRNCzGwBz1MILgSrGdVV44RoATaVU9Q1dDIcjlLRcVv
x68rOkRetPVn0b03DrS9vMY=
-----END CERTIFICATE-----
