Certificate:
    Data:
        Version: 3 (0x2)
        Serial Number: 14 (0xe)
        Signature Algorithm: sha256WithRSAEncryption
        Issuer: C=US, ST=California, L=Santa Clara, O=pkg5, CN=ch5.3_ta1/emailAddress=ch5.3_ta1
        Validity
            Not Before: May 23 15:47:16 2024 GMT
            Not After : Feb 17 15:47:16 2027 GMT
        Subject: C=US, ST=California, L=Santa Clara, O=pkg5, CN=cs1_ch5.3_ta1/emailAddress=cs1_ch5.3_ta1
        Subject Public Key Info:
            Public Key Algorithm: rsaEncryption
                Public-Key: (2048 bit)
                Modulus:
                    00:8a:b6:07:c6:f8:f1:a3:d7:5e:39:04:68:38:3b:
                    19:df:e5:d9:93:16:87:bb:70:2e:0e:a8:0f:9c:d6:
                    50:fd:8b:36:91:c1:83:0d:42:05:6c:bb:f8:88:c6:
                    71:32:ee:fa:9b:43:24:78:82:72:b3:9f:36:80:e7:
                    c0:8f:81:ef:3e:c9:ec:2d:7c:63:81:1e:cb:1c:38:
                    38:b1:ac:22:68:9a:e8:d1:f5:3b:ac:a7:40:97:bd:
                    06:53:59:31:85:2d:95:ea:57:0e:e8:2f:b6:5c:7f:
                    f2:60:2a:76:08:f9:68:a5:fc:5f:8a:af:ac:93:3f:
                    14:1c:9a:29:36:11:bf:c3:73:9b:5b:87:86:c0:0c:
                    36:64:c3:98:55:ff:c3:a0:d1:59:9b:69:37:3f:0f:
                    64:10:32:4c:a8:30:c4:42:4e:73:b1:0b:b3:7d:80:
                    15:dc:60:2f:8b:04:5c:aa:00:16:33:8f:54:0c:ef:
                    0e:f5:cb:b1:73:38:14:a7:87:b7:c5:f1:ef:f2:09:
                    fd:b9:d5:93:55:60:bd:e6:31:7c:b4:ff:af:99:68:
                    75:49:a2:67:07:d5:ab:d6:47:1b:d8:6f:6d:98:0a:
                    99:2a:d1:ea:f0:e1:8d:7a:a4:9c:4d:b3:d1:1f:de:
                    5c:3a:de:7d:ee:1d:1f:b8:f6:a7:7d:25:b0:81:f4:
                    cc:b9
                Exponent: 65537 (0x10001)
        X509v3 extensions:
            X509v3 Basic Constraints: critical
                CA:FALSE
            X509v3 Key Usage: critical
                Digital Signature
            X509v3 Subject Key Identifier: 
                45:47:13:1D:2F:DD:8A:A4:1F:58:67:79:34:1D:73:EE:32:9B:6E:84
            X509v3 Authority Key Identifier: 
                B2:B5:5E:5C:EE:BC:F4:DF:0A:05:DA:24:78:DD:02:84:B4:6F:57:44
    Signature Algorithm: sha256WithRSAEncryption
    Signature Value:
        8f:b6:e7:53:c8:42:46:81:65:38:2f:0b:44:b3:b2:36:c2:5e:
        58:e7:99:de:21:2f:ac:bc:8a:9d:dd:d4:63:1e:b3:30:27:a8:
        fe:b1:24:a8:b2:6c:ae:10:74:68:9e:03:ce:54:a5:6b:d9:d6:
        b8:bf:02:ec:ab:0a:56:1a:84:21:62:82:c4:fe:89:b6:ea:9b:
        af:9e:77:9b:32:56:ee:40:2a:fb:d9:ea:f3:5d:b4:df:1b:3e:
        39:65:82:7a:36:e3:d5:3a:cb:4a:48:b3:c1:f8:c1:30:04:29:
        7d:f3:0f:58:21:5c:9a:88:0a:fc:fe:2b:24:c6:b2:05:cb:a1:
        8f:be:32:a4:6e:ec:7b:64:a6:63:47:bc:bd:f4:ac:fa:73:05:
        37:6c:a9:c6:78:51:08:97:33:44:ba:e8:10:ed:31:59:43:fc:
        0f:e1:bd:ee:8a:1f:fd:ec:62:41:8a:f6:0d:e6:81:c7:b1:f1:
        69:8b:84:1a:56:86:67:15:3b:25:15:86:42:15:54:3a:5d:56:
        e3:63:8f:2c:df:fa:5c:af:56:93:7b:ee:2f:4d:24:89:27:58:
        23:ec:f8:6f:8d:3d:fc:f1:c0:f6:6a:b1:cb:22:02:ce:4c:72:
        e2:40:ab:e4:2c:ee:8e:2f:5b:44:f1:69:e5:a4:55:cd:df:bd:
        c4:66:a2:74
-----BEGIN CERTIFICATE-----
MIIDzTCCArWgAwIBAgIBDjANBgkqhkiG9w0BAQsFADB1MQswCQYDVQQGEwJVUzET
MBEGA1UECAwKQ2FsaWZvcm5pYTEUMBIGA1UEBwwLU2FudGEgQ2xhcmExDTALBgNV
BAoMBHBrZzUxEjAQBgNVBAMMCWNoNS4zX3RhMTEYMBYGCSqGSIb3DQEJARYJY2g1
LjNfdGExMB4XDTI0MDUyMzE1NDcxNloXDTI3MDIxNzE1NDcxNlowfTELMAkGA1UE
BhMCVVMxEzARBgNVBAgMCkNhbGlmb3JuaWExFDASBgNVBAcMC1NhbnRhIENsYXJh
MQ0wCwYDVQQKDARwa2c1MRYwFAYDVQQDDA1jczFfY2g1LjNfdGExMRwwGgYJKoZI
hvcNAQkBFg1jczFfY2g1LjNfdGExMIIBIjANBgkqhkiG9w0BAQEFAAOCAQ8AMIIB
CgKCAQEAirYHxvjxo9deOQRoODsZ3+XZkxaHu3AuDqgPnNZQ/Ys2kcGDDUIFbLv4
iMZxMu76m0MkeIJys582gOfAj4HvPsnsLXxjgR7LHDg4sawiaJro0fU7rKdAl70G
U1kxhS2V6lcO6C+2XH/yYCp2CPlopfxfiq+skz8UHJopNhG/w3ObW4eGwAw2ZMOY
Vf/DoNFZm2k3Pw9kEDJMqDDEQk5zsQuzfYAV3GAviwRcqgAWM49UDO8O9cuxczgU
p4e3xfHv8gn9udWTVWC95jF8tP+vmWh1SaJnB9Wr1kcb2G9tmAqZKtHq8OGNeqSc
TbPRH95cOt597h0fuPanfSWwgfTMuQIDAQABo2AwXjAMBgNVHRMBAf8EAjAAMA4G
A1UdDwEB/wQEAwIHgDAdBgNVHQ4EFgQURUcTHS/diqQfWGd5NB1z7jKbboQwHwYD
VR0jBBgwFoAUsrVeXO689N8KBdokeN0ChLRvV0QwDQYJKoZIhvcNAQELBQADggEB
AI+251PIQkaBZTgvC0SzsjbCXljnmd4hL6y8ip3d1GMeszAnqP6xJKiybK4QdGie
A85UpWvZ1ri/AuyrClYahCFigsT+ibbqm6+ed5syVu5AKvvZ6vNdtN8bPjllgno2
49U6y0pIs8H4wTAEKX3zD1ghXJqICvz+KyTGsgXLoY++MqRu7HtkpmNHvL30rPpz
BTdsqcZ4UQiXM0S66BDtMVlD/A/hve6KH/3sYkGK9g3mgcex8WmLhBpWhmcVOyUV
hkIVVDpdVuNjjyzf+lyvVpN77i9NJIknWCPs+G+NPfzxwPZqscsiAs5McuJAq+Qs
7o4vW0TxaeWkVc3fvcRmonQ=
-----END CERTIFICATE-----
