Certificate:
    Data:
        Version: 3 (0x2)
        Serial Number: 14 (0xe)
    Signature Algorithm: sha256WithRSAEncryption
        Issuer: C=US, ST=California, L=Santa Clara, O=pkg5, CN=ch5.3_ta1/emailAddress=ch5.3_ta1
        Validity
            Not Before: Nov 28 22:50:56 2016 GMT
            Not After : Aug 25 22:50:56 2019 GMT
        Subject: C=US, ST=California, L=Santa Clara, O=pkg5, CN=cs1_ch5.3_ta1/emailAddress=cs1_ch5.3_ta1
        Subject Public Key Info:
            Public Key Algorithm: rsaEncryption
                Public-Key: (1024 bit)
                Modulus:
                    00:d1:d2:0f:58:a0:53:72:54:76:d6:33:cd:cb:03:
                    d7:d5:64:39:e4:47:bd:e5:1f:14:3f:17:e2:74:df:
                    b1:74:63:bb:ff:d7:39:bb:a2:ca:9d:3b:13:0e:1c:
                    0a:07:58:95:ac:8a:0f:c3:8d:77:15:c4:3f:69:1e:
                    e8:77:1e:48:b7:0c:b8:c4:68:b1:07:3b:04:b2:9a:
                    fc:f0:68:f6:80:81:9f:2c:76:62:15:ea:f1:33:bf:
                    4a:37:fa:b0:e9:63:64:a3:a8:cb:ec:9e:bb:b8:a9:
                    21:f1:df:c5:31:a3:72:05:5a:5c:6a:d6:d3:74:ab:
                    20:5f:1c:2d:ef:d1:2e:63:b1
                Exponent: 65537 (0x10001)
        X509v3 extensions:
            X509v3 Basic Constraints: critical
                CA:FALSE
            X509v3 Key Usage: critical
                Digital Signature
    Signature Algorithm: sha256WithRSAEncryption
         ad:f9:47:87:f0:05:61:4c:2c:ec:10:11:47:6d:c7:db:ce:b2:
         44:56:75:2a:ee:88:a2:b0:25:96:9e:5c:84:8e:52:38:e2:4b:
         2a:4d:1c:c8:78:c6:95:a1:e0:6a:7b:6a:c3:80:22:ff:ad:33:
         c9:ce:67:fe:82:a5:93:bc:ca:e0:fb:47:4f:fa:1b:90:39:a6:
         3c:57:0d:da:08:18:88:0a:7b:fd:9d:59:ab:0a:de:fb:9a:47:
         31:8c:99:91:43:7b:d0:ff:ca:4c:a3:59:02:57:f4:ed:06:16:
         cc:37:80:0e:03:4a:e4:9c:84:fb:f8:b6:1b:17:3e:fe:13:1d:
         9f:f0:67:2e:0a:ec:b2:80:07:93:f2:f7:2b:f2:e7:bd:3c:6d:
         78:31:94:52:1d:cf:5c:dc:a2:58:3f:50:75:6d:df:88:3a:41:
         76:88:c3:d0:77:08:2b:c0:cf:da:73:b3:30:01:d9:5b:c0:bb:
         9b:1d:8c:71:e1:41:2a:15:df:a0:55:20:03:ab:20:2c:f6:01:
         67:af:11:5e:38:41:38:ae:e5:b5:80:71:c3:ee:51:de:79:8c:
         e6:61:52:fb:b4:70:ea:a0:4f:90:51:a5:72:93:e3:0b:f4:00:
         04:9a:60:f5:7a:92:9c:ad:90:4a:1c:29:ee:74:30:ee:8f:dc:
         50:00:e1:6e
-----BEGIN CERTIFICATE-----
MIIDCTCCAfGgAwIBAgIBDjANBgkqhkiG9w0BAQsFADB1MQswCQYDVQQGEwJVUzET
MBEGA1UECAwKQ2FsaWZvcm5pYTEUMBIGA1UEBwwLU2FudGEgQ2xhcmExDTALBgNV
BAoMBHBrZzUxEjAQBgNVBAMMCWNoNS4zX3RhMTEYMBYGCSqGSIb3DQEJARYJY2g1
LjNfdGExMB4XDTE2MTEyODIyNTA1NloXDTE5MDgyNTIyNTA1NlowfTELMAkGA1UE
BhMCVVMxEzARBgNVBAgMCkNhbGlmb3JuaWExFDASBgNVBAcMC1NhbnRhIENsYXJh
MQ0wCwYDVQQKDARwa2c1MRYwFAYDVQQDDA1jczFfY2g1LjNfdGExMRwwGgYJKoZI
hvcNAQkBFg1jczFfY2g1LjNfdGExMIGfMA0GCSqGSIb3DQEBAQUAA4GNADCBiQKB
gQDR0g9YoFNyVHbWM83LA9fVZDnkR73lHxQ/F+J037F0Y7v/1zm7osqdOxMOHAoH
WJWsig/DjXcVxD9pHuh3Hki3DLjEaLEHOwSymvzwaPaAgZ8sdmIV6vEzv0o3+rDp
Y2SjqMvsnru4qSHx38Uxo3IFWlxq1tN0qyBfHC3v0S5jsQIDAQABoyAwHjAMBgNV
HRMBAf8EAjAAMA4GA1UdDwEB/wQEAwIHgDANBgkqhkiG9w0BAQsFAAOCAQEArflH
h/AFYUws7BARR23H286yRFZ1Ku6IorAllp5chI5SOOJLKk0cyHjGlaHgantqw4Ai
/60zyc5n/oKlk7zK4PtHT/obkDmmPFcN2ggYiAp7/Z1Zqwre+5pHMYyZkUN70P/K
TKNZAlf07QYWzDeADgNK5JyE+/i2Gxc+/hMdn/BnLgrssoAHk/L3K/LnvTxteDGU
Uh3PXNyiWD9QdW3fiDpBdojD0HcIK8DP2nOzMAHZW8C7mx2MceFBKhXfoFUgA6sg
LPYBZ68RXjhBOK7ltYBxw+5R3nmM5mFS+7Rw6qBPkFGlcpPjC/QABJpg9XqSnK2Q
Shwp7nQw7o/cUADhbg==
-----END CERTIFICATE-----
