Certificate:
    Data:
        Version: 3 (0x2)
        Serial Number: 14 (0xe)
    Signature Algorithm: sha256WithRSAEncryption
        Issuer: C=US, ST=California, L=Santa Clara, O=pkg5, CN=ch5.3_ta1/emailAddress=ch5.3_ta1
        Validity
            Not Before: Nov 16 10:58:48 2017 GMT
            Not After : Aug 12 10:58:48 2020 GMT
        Subject: C=US, ST=California, L=Santa Clara, O=pkg5, CN=cs1_ch5.3_ta1/emailAddress=cs1_ch5.3_ta1
        Subject Public Key Info:
            Public Key Algorithm: rsaEncryption
                Public-Key: (1024 bit)
                Modulus:
                    00:c8:4e:02:e9:3c:f9:d9:04:2a:74:85:3c:7c:ba:
                    ec:38:0c:31:ab:9a:b5:d8:6b:a1:52:5a:ba:f3:cf:
                    e8:47:27:6e:56:a8:8e:4e:3c:0d:bf:9b:4a:88:8b:
                    4a:00:43:50:d7:1b:4b:e3:a6:58:04:88:3e:ab:be:
                    7e:85:f2:cb:6d:c6:ca:79:71:c8:63:b8:be:c1:e6:
                    51:a1:d8:04:2f:00:09:b2:5c:02:9e:1e:a4:4b:a0:
                    e0:bb:5a:e2:8a:5c:78:15:7f:71:f1:b6:17:8a:63:
                    06:45:fb:73:7c:25:d4:87:f2:cd:c3:fd:59:5a:50:
                    50:90:5e:44:83:d7:d8:a9:2f
                Exponent: 65537 (0x10001)
        X509v3 extensions:
            X509v3 Basic Constraints: critical
                CA:FALSE
            X509v3 Key Usage: critical
                Digital Signature
    Signature Algorithm: sha256WithRSAEncryption
         1f:3a:04:37:ab:5a:89:b4:4a:41:35:de:ad:4b:61:9b:f1:fb:
         32:39:9c:c8:30:b0:19:13:78:f0:c4:0e:eb:2f:2a:9d:c9:0a:
         f6:38:ab:eb:fe:c8:ca:60:98:4b:17:a6:ad:66:9a:14:09:8f:
         b9:8f:86:b9:a3:b9:69:79:eb:88:65:4b:68:b2:65:a5:4e:92:
         6c:d4:b8:37:86:66:ff:4c:00:8f:a5:86:35:f1:e8:6a:cb:a1:
         41:94:7a:c7:34:9e:f8:70:fc:e4:c2:bc:4e:6f:9d:c9:42:76:
         11:c0:cc:9b:9b:12:bc:9e:3e:83:f1:d0:1e:37:b7:18:fd:81:
         50:9c:01:92:4c:93:69:7a:29:5d:85:c5:9f:45:5f:b6:10:3d:
         cd:21:e2:54:d9:8c:18:83:ae:6d:98:5f:1c:fa:36:bb:fd:14:
         6e:ee:b8:af:19:f3:90:81:15:cf:a2:6b:ab:a0:8c:6e:e8:1b:
         d0:2c:ef:78:fb:c7:49:50:9e:e6:8d:cb:82:13:49:4a:36:4b:
         69:25:13:ae:d6:eb:45:04:92:59:0a:ce:6a:68:17:23:cd:52:
         ad:e3:63:7a:6b:60:f6:67:32:83:d1:92:cc:97:89:bd:0e:d4:
         0d:ec:8a:71:ef:3c:b0:08:1d:e2:a6:ee:b7:e2:35:92:e5:51:
         c7:73:ca:46
-----BEGIN CERTIFICATE-----
MIIDCTCCAfGgAwIBAgIBDjANBgkqhkiG9w0BAQsFADB1MQswCQYDVQQGEwJVUzET
MBEGA1UECAwKQ2FsaWZvcm5pYTEUMBIGA1UEBwwLU2FudGEgQ2xhcmExDTALBgNV
BAoMBHBrZzUxEjAQBgNVBAMMCWNoNS4zX3RhMTEYMBYGCSqGSIb3DQEJARYJY2g1
LjNfdGExMB4XDTE3MTExNjEwNTg0OFoXDTIwMDgxMjEwNTg0OFowfTELMAkGA1UE
BhMCVVMxEzARBgNVBAgMCkNhbGlmb3JuaWExFDASBgNVBAcMC1NhbnRhIENsYXJh
MQ0wCwYDVQQKDARwa2c1MRYwFAYDVQQDDA1jczFfY2g1LjNfdGExMRwwGgYJKoZI
hvcNAQkBFg1jczFfY2g1LjNfdGExMIGfMA0GCSqGSIb3DQEBAQUAA4GNADCBiQKB
gQDITgLpPPnZBCp0hTx8uuw4DDGrmrXYa6FSWrrzz+hHJ25WqI5OPA2/m0qIi0oA
Q1DXG0vjplgEiD6rvn6F8sttxsp5cchjuL7B5lGh2AQvAAmyXAKeHqRLoOC7WuKK
XHgVf3HxtheKYwZF+3N8JdSH8s3D/VlaUFCQXkSD19ipLwIDAQABoyAwHjAMBgNV
HRMBAf8EAjAAMA4GA1UdDwEB/wQEAwIHgDANBgkqhkiG9w0BAQsFAAOCAQEAHzoE
N6taibRKQTXerUthm/H7MjmcyDCwGRN48MQO6y8qnckK9jir6/7IymCYSxemrWaa
FAmPuY+GuaO5aXnriGVLaLJlpU6SbNS4N4Zm/0wAj6WGNfHoasuhQZR6xzSe+HD8
5MK8Tm+dyUJ2EcDMm5sSvJ4+g/HQHje3GP2BUJwBkkyTaXopXYXFn0VfthA9zSHi
VNmMGIOubZhfHPo2u/0Ubu64rxnzkIEVz6Jrq6CMbugb0CzvePvHSVCe5o3LghNJ
SjZLaSUTrtbrRQSSWQrOamgXI81SreNjemtg9mcyg9GSzJeJvQ7UDeyKce88sAgd
4qbut+I1kuVRx3PKRg==
-----END CERTIFICATE-----
