Certificate:
    Data:
        Version: 3 (0x2)
        Serial Number: 15 (0xf)
        Signature Algorithm: sha256WithRSAEncryption
        Issuer: C=US, ST=California, L=Santa Clara, O=pkg5, CN=ta2/emailAddress=ta2
        Validity
            Not Before: Dec 15 15:37:19 2022 GMT
            Not After : Sep 10 15:37:19 2025 GMT
        Subject: C=US, ST=California, L=Santa Clara, O=pkg5, CN=cs1_ta2/emailAddress=cs1_ta2
        Subject Public Key Info:
            Public Key Algorithm: rsaEncryption
                Public-Key: (2048 bit)
                Modulus:
                    00:ab:e0:41:c1:06:10:bb:07:c6:84:c6:c9:57:be:
                    81:81:32:e8:90:d3:b9:69:1c:82:e6:11:d7:bc:91:
                    0c:d4:1d:1c:84:ac:05:aa:29:51:16:96:74:7e:79:
                    dc:cf:00:5d:69:86:99:fc:4c:f7:84:cd:51:88:3d:
                    45:09:3a:fc:8f:b8:16:d1:4a:2b:4e:53:8e:6a:9f:
                    6b:2d:66:63:98:23:30:69:1e:6d:11:de:69:28:ab:
                    a5:28:d1:17:b3:6c:1a:54:ab:df:ec:88:2c:25:73:
                    1f:ef:9e:74:86:b0:ea:05:23:6e:74:b0:2d:7c:be:
                    1e:43:92:9f:09:77:aa:eb:16:42:8e:52:32:a5:8a:
                    d0:26:d2:8f:d9:79:49:b6:6f:14:80:e7:da:ab:1b:
                    fe:b3:79:89:81:42:7d:71:75:53:19:c2:8c:ac:0b:
                    14:26:eb:d8:d9:50:5a:3a:39:cb:5a:1e:35:7c:6a:
                    2e:d6:a2:30:1d:79:3e:fc:c4:bf:0a:bf:78:2a:83:
                    72:0a:02:4b:b5:63:ec:4a:8c:a8:d2:48:21:f8:c2:
                    09:c9:d4:8e:c5:72:77:22:60:e1:b2:61:3d:5a:3c:
                    03:57:fd:40:50:a6:fd:f5:99:c3:7b:8e:a3:b5:f2:
                    64:f1:74:e0:ca:c3:64:30:58:7c:52:eb:ff:98:4b:
                    fe:8f
                Exponent: 65537 (0x10001)
        X509v3 extensions:
            X509v3 Basic Constraints: critical
                CA:FALSE
            X509v3 Key Usage: critical
                Digital Signature
            X509v3 Subject Key Identifier: 
                16:75:15:20:31:2E:BE:01:8C:A2:C5:61:62:7B:EF:73:69:3B:A7:3F
            X509v3 Authority Key Identifier: 
                3A:6E:21:7D:E5:7B:17:4A:F0:17:E9:98:90:73:FE:D2:4C:AF:48:82
    Signature Algorithm: sha256WithRSAEncryption
    Signature Value:
        6f:a5:75:ec:ef:59:b9:10:66:48:b2:a8:fb:92:19:d0:63:6a:
        7b:aa:d3:e4:d4:c4:7f:62:3d:f3:18:4e:2c:88:94:7e:09:e9:
        e1:37:c5:7a:41:df:a4:49:33:f3:14:8c:4b:1e:0c:0f:87:58:
        4c:86:9b:40:b3:18:24:6e:96:1d:f4:61:7b:5b:80:7f:d9:99:
        78:45:94:c8:0b:ed:ed:06:ca:5b:c0:c6:ca:bb:1c:50:1b:b3:
        2d:49:17:19:42:e8:99:d7:30:dd:b8:ba:32:ab:80:05:fa:cb:
        90:e6:8e:38:9e:4a:23:70:94:2d:47:19:16:4a:e6:cc:b6:66:
        57:77:f2:36:d6:4f:f5:6e:c4:cd:a8:c3:bd:71:26:10:fd:de:
        6d:1f:48:54:f7:df:6b:e7:5c:22:f8:f5:47:76:b9:26:0f:38:
        12:76:90:c7:8c:0c:84:e8:8b:06:66:1f:c5:1a:4e:f1:14:82:
        ac:0f:a9:0d:c6:d4:02:46:6c:d2:5e:c9:bb:1b:2a:e7:d5:48:
        47:3b:43:2f:c7:5b:d0:5a:75:fb:55:eb:26:0c:e7:51:2a:cf:
        62:78:0b:b4:30:16:05:1b:59:af:c9:d2:50:61:44:57:74:79:
        5b:27:5d:59:20:fe:9a:b5:67:31:19:9f:14:cd:c5:ff:a1:f7:
        de:10:ba:dc
-----BEGIN CERTIFICATE-----
MIIDtTCCAp2gAwIBAgIBDzANBgkqhkiG9w0BAQsFADBpMQswCQYDVQQGEwJVUzET
MBEGA1UECAwKQ2FsaWZvcm5pYTEUMBIGA1UEBwwLU2FudGEgQ2xhcmExDTALBgNV
BAoMBHBrZzUxDDAKBgNVBAMMA3RhMjESMBAGCSqGSIb3DQEJARYDdGEyMB4XDTIy
MTIxNTE1MzcxOVoXDTI1MDkxMDE1MzcxOVowcTELMAkGA1UEBhMCVVMxEzARBgNV
BAgMCkNhbGlmb3JuaWExFDASBgNVBAcMC1NhbnRhIENsYXJhMQ0wCwYDVQQKDARw
a2c1MRAwDgYDVQQDDAdjczFfdGEyMRYwFAYJKoZIhvcNAQkBFgdjczFfdGEyMIIB
IjANBgkqhkiG9w0BAQEFAAOCAQ8AMIIBCgKCAQEAq+BBwQYQuwfGhMbJV76BgTLo
kNO5aRyC5hHXvJEM1B0chKwFqilRFpZ0fnnczwBdaYaZ/Ez3hM1RiD1FCTr8j7gW
0UorTlOOap9rLWZjmCMwaR5tEd5pKKulKNEXs2waVKvf7IgsJXMf7550hrDqBSNu
dLAtfL4eQ5KfCXeq6xZCjlIypYrQJtKP2XlJtm8UgOfaqxv+s3mJgUJ9cXVTGcKM
rAsUJuvY2VBaOjnLWh41fGou1qIwHXk+/MS/Cr94KoNyCgJLtWPsSoyo0kgh+MIJ
ydSOxXJ3ImDhsmE9WjwDV/1AUKb99ZnDe46jtfJk8XTgysNkMFh8Uuv/mEv+jwID
AQABo2AwXjAMBgNVHRMBAf8EAjAAMA4GA1UdDwEB/wQEAwIHgDAdBgNVHQ4EFgQU
FnUVIDEuvgGMosVhYnvvc2k7pz8wHwYDVR0jBBgwFoAUOm4hfeV7F0rwF+mYkHP+
0kyvSIIwDQYJKoZIhvcNAQELBQADggEBAG+ldezvWbkQZkiyqPuSGdBjanuq0+TU
xH9iPfMYTiyIlH4J6eE3xXpB36RJM/MUjEseDA+HWEyGm0CzGCRulh30YXtbgH/Z
mXhFlMgL7e0GylvAxsq7HFAbsy1JFxlC6JnXMN24ujKrgAX6y5DmjjieSiNwlC1H
GRZK5sy2Zld38jbWT/VuxM2ow71xJhD93m0fSFT332vnXCL49Ud2uSYPOBJ2kMeM
DIToiwZmH8UaTvEUgqwPqQ3G1AJGbNJeybsbKufVSEc7Qy/HW9BadftV6yYM51Eq
z2J4C7QwFgUbWa/J0lBhRFd0eVsnXVkg/pq1ZzEZnxTNxf+h994Qutw=
-----END CERTIFICATE-----
