Certificate:
    Data:
        Version: 3 (0x2)
        Serial Number: 15 (0xf)
        Signature Algorithm: sha256WithRSAEncryption
        Issuer: C=US, ST=California, L=Santa Clara, O=pkg5, CN=ta2/emailAddress=ta2
        Validity
            Not Before: Oct 22 10:15:10 2021 GMT
            Not After : Jul 18 10:15:10 2024 GMT
        Subject: C=US, ST=California, L=Santa Clara, O=pkg5, CN=cs1_ta2/emailAddress=cs1_ta2
        Subject Public Key Info:
            Public Key Algorithm: rsaEncryption
                Public-Key: (2048 bit)
                Modulus:
                    00:a6:c5:65:49:05:a7:23:77:81:e7:3d:ce:1d:8c:
                    e8:0f:58:0d:a1:c1:82:d8:bf:2f:89:a2:1d:92:8a:
                    a9:1d:93:e7:11:36:ec:25:66:c8:04:a5:ee:42:e5:
                    d0:5a:e8:3d:f2:d6:b4:77:55:06:f9:04:20:92:bd:
                    74:5d:13:04:69:f6:68:81:5d:94:b0:05:e3:59:2e:
                    e7:09:09:7f:70:b5:99:c0:eb:29:a1:f3:8e:d2:47:
                    52:83:45:14:c8:b6:db:4c:2e:df:d4:1f:6c:10:9b:
                    a0:c3:52:59:03:eb:bc:64:1c:38:5a:fe:f4:53:e5:
                    79:5a:29:e3:91:37:58:04:47:0a:ae:82:ac:d8:ed:
                    8e:31:a4:f1:4b:e2:75:16:15:10:93:e7:7a:6f:be:
                    41:f9:97:4b:2f:ac:2b:5e:67:51:fb:89:f2:fc:18:
                    e6:ed:71:60:77:f2:29:58:55:98:73:84:bc:22:06:
                    40:70:a4:a9:1e:db:8a:d2:ef:60:d7:4e:8b:09:60:
                    5b:a6:17:30:51:5d:e8:1b:b7:fd:ee:01:df:55:7d:
                    22:34:c6:ae:06:6a:06:2e:77:9a:35:66:42:4e:51:
                    a6:a7:7d:83:43:c4:6a:30:8a:53:82:63:d5:04:00:
                    54:6c:96:2b:d5:f8:2f:83:27:d4:62:2e:55:8a:d1:
                    f6:75
                Exponent: 65537 (0x10001)
        X509v3 extensions:
            X509v3 Basic Constraints: critical
                CA:FALSE
            X509v3 Key Usage: critical
                Digital Signature
            X509v3 Subject Key Identifier: 
                0A:C6:D1:A1:5F:24:C9:4D:C4:34:2E:7E:3E:70:5F:1B:50:52:52:EC
            X509v3 Authority Key Identifier: 
                03:BA:26:84:61:94:0C:83:72:49:09:1D:DE:07:24:58:73:F0:F5:B5
    Signature Algorithm: sha256WithRSAEncryption
    Signature Value:
        b7:9d:66:da:45:05:7b:27:06:e1:92:c8:f7:1e:55:35:cd:f3:
        f7:1b:93:71:e8:5e:c3:02:b6:32:51:73:77:33:cf:77:14:a2:
        53:39:bd:84:aa:57:c6:53:46:1c:89:19:82:a8:3e:cc:98:68:
        57:37:b6:cc:18:b1:7b:28:66:df:33:c7:53:08:81:ef:72:cf:
        27:f6:39:e0:c2:2a:dd:e3:aa:76:a8:ea:37:cd:bc:e5:b5:da:
        81:a2:1e:1d:22:70:78:ed:05:6d:f0:8a:97:17:83:3d:13:e5:
        79:88:55:0f:64:ab:68:5d:34:ad:a0:51:05:a7:e6:48:e8:7b:
        46:9e:48:70:7f:ab:00:a2:77:9c:e2:f0:9c:38:18:a5:bf:9e:
        41:62:51:17:36:bd:4b:47:ab:c7:1a:8b:9d:d9:61:f4:5b:54:
        66:49:45:32:77:10:27:48:f3:9c:5e:45:fa:39:7b:9d:d3:35:
        dd:06:90:48:ea:94:bf:52:96:0f:58:84:50:c0:7b:4d:8a:5e:
        f8:22:ec:d6:1e:6c:9a:58:1f:f5:e1:19:9e:b9:27:7e:70:e1:
        26:19:be:0a:24:de:7d:ef:34:23:b7:56:54:56:72:58:0c:34:
        14:54:b9:0b:b2:d8:e7:16:07:8b:d1:8c:9e:80:ac:e3:ac:34:
        a7:07:7d:19
-----BEGIN CERTIFICATE-----
MIIDtTCCAp2gAwIBAgIBDzANBgkqhkiG9w0BAQsFADBpMQswCQYDVQQGEwJVUzET
MBEGA1UECAwKQ2FsaWZvcm5pYTEUMBIGA1UEBwwLU2FudGEgQ2xhcmExDTALBgNV
BAoMBHBrZzUxDDAKBgNVBAMMA3RhMjESMBAGCSqGSIb3DQEJARYDdGEyMB4XDTIx
MTAyMjEwMTUxMFoXDTI0MDcxODEwMTUxMFowcTELMAkGA1UEBhMCVVMxEzARBgNV
BAgMCkNhbGlmb3JuaWExFDASBgNVBAcMC1NhbnRhIENsYXJhMQ0wCwYDVQQKDARw
a2c1MRAwDgYDVQQDDAdjczFfdGEyMRYwFAYJKoZIhvcNAQkBFgdjczFfdGEyMIIB
IjANBgkqhkiG9w0BAQEFAAOCAQ8AMIIBCgKCAQEApsVlSQWnI3eB5z3OHYzoD1gN
ocGC2L8viaIdkoqpHZPnETbsJWbIBKXuQuXQWug98ta0d1UG+QQgkr10XRMEafZo
gV2UsAXjWS7nCQl/cLWZwOspofOO0kdSg0UUyLbbTC7f1B9sEJugw1JZA+u8ZBw4
Wv70U+V5WinjkTdYBEcKroKs2O2OMaTxS+J1FhUQk+d6b75B+ZdLL6wrXmdR+4ny
/Bjm7XFgd/IpWFWYc4S8IgZAcKSpHtuK0u9g106LCWBbphcwUV3oG7f97gHfVX0i
NMauBmoGLneaNWZCTlGmp32DQ8RqMIpTgmPVBABUbJYr1fgvgyfUYi5VitH2dQID
AQABo2AwXjAMBgNVHRMBAf8EAjAAMA4GA1UdDwEB/wQEAwIHgDAdBgNVHQ4EFgQU
CsbRoV8kyU3ENC5+PnBfG1BSUuwwHwYDVR0jBBgwFoAUA7omhGGUDINySQkd3gck
WHPw9bUwDQYJKoZIhvcNAQELBQADggEBALedZtpFBXsnBuGSyPceVTXN8/cbk3Ho
XsMCtjJRc3czz3cUolM5vYSqV8ZTRhyJGYKoPsyYaFc3tswYsXsoZt8zx1MIge9y
zyf2OeDCKt3jqnao6jfNvOW12oGiHh0icHjtBW3wipcXgz0T5XmIVQ9kq2hdNK2g
UQWn5kjoe0aeSHB/qwCid5zi8Jw4GKW/nkFiURc2vUtHq8cai53ZYfRbVGZJRTJ3
ECdI85xeRfo5e53TNd0GkEjqlL9Slg9YhFDAe02KXvgi7NYebJpYH/XhGZ65J35w
4SYZvgok3n3vNCO3VlRWclgMNBRUuQuy2OcWB4vRjJ6ArOOsNKcHfRk=
-----END CERTIFICATE-----
