Certificate:
    Data:
        Version: 3 (0x2)
        Serial Number: 15 (0xf)
    Signature Algorithm: sha256WithRSAEncryption
        Issuer: C=US, ST=California, L=Santa Clara, O=pkg5, CN=ta2/emailAddress=ta2
        Validity
            Not Before: Nov 16 10:58:48 2017 GMT
            Not After : Aug 12 10:58:48 2020 GMT
        Subject: C=US, ST=California, L=Santa Clara, O=pkg5, CN=cs1_ta2/emailAddress=cs1_ta2
        Subject Public Key Info:
            Public Key Algorithm: rsaEncryption
                Public-Key: (1024 bit)
                Modulus:
                    00:c8:b4:c3:ab:d6:43:b7:d4:f9:ff:f3:07:b7:a0:
                    5a:72:89:0c:97:8d:ad:ee:31:8f:83:76:8f:ff:6b:
                    d4:2e:8d:94:45:17:2c:71:95:19:4a:de:ec:fc:4d:
                    91:c0:37:90:09:c0:39:20:7c:dd:cb:fc:bc:35:f3:
                    7c:0c:77:55:c3:3d:8c:c4:49:2c:44:08:a8:7b:16:
                    f9:41:c7:95:3f:b4:96:ec:a6:04:66:c2:2a:60:62:
                    c8:88:31:78:ed:ae:1c:08:ae:61:7e:62:ae:e6:8b:
                    64:79:27:1e:0b:94:ef:86:e3:22:83:fa:25:59:33:
                    8b:a5:ec:cd:9f:ca:41:d2:1f
                Exponent: 65537 (0x10001)
        X509v3 extensions:
            X509v3 Basic Constraints: critical
                CA:FALSE
            X509v3 Key Usage: critical
                Digital Signature
    Signature Algorithm: sha256WithRSAEncryption
         20:02:e4:df:f0:32:e2:c0:da:15:9b:f9:1b:d1:9a:a2:04:5a:
         8a:c5:29:f7:81:8c:fa:db:e5:e2:64:bf:66:ea:d3:f5:cf:13:
         86:18:e3:fa:45:f8:51:12:87:f8:c4:94:4a:46:47:a6:0a:00:
         58:87:f1:7a:a6:d1:97:62:c4:3d:e5:1f:4b:aa:a0:ab:88:f8:
         b9:74:e7:ca:e7:77:60:d8:f5:0d:d7:a4:b1:a4:8b:cd:9d:94:
         58:52:4a:85:d8:b7:40:87:84:a7:18:40:c4:ea:d3:a6:a9:84:
         fc:3e:0b:6b:a1:6a:62:08:05:74:ae:89:9b:4e:0e:1a:f6:6c:
         26:43:2b:7a:13:be:17:92:ef:3a:3b:94:f4:52:2e:5f:ec:86:
         b2:d0:0c:00:ab:50:94:47:dd:1c:cf:b1:1e:4f:ce:a5:db:99:
         1e:13:66:33:2d:2d:8e:f9:e2:0a:18:e0:2f:3a:d2:bb:10:1f:
         27:5e:62:97:8a:2c:38:b0:06:87:67:69:3e:85:67:74:7c:2a:
         3c:01:1c:c1:24:78:52:12:ea:45:63:b3:28:61:8b:39:21:a6:
         84:e7:f2:f7:5f:ed:d4:2c:a4:c0:e8:15:c0:ed:7d:92:f0:87:
         4a:c6:9e:07:ee:51:4d:44:7e:52:a7:72:a4:fb:e2:a4:28:f6:
         45:cd:e4:a8
-----BEGIN CERTIFICATE-----
MIIC8TCCAdmgAwIBAgIBDzANBgkqhkiG9w0BAQsFADBpMQswCQYDVQQGEwJVUzET
MBEGA1UECAwKQ2FsaWZvcm5pYTEUMBIGA1UEBwwLU2FudGEgQ2xhcmExDTALBgNV
BAoMBHBrZzUxDDAKBgNVBAMMA3RhMjESMBAGCSqGSIb3DQEJARYDdGEyMB4XDTE3
MTExNjEwNTg0OFoXDTIwMDgxMjEwNTg0OFowcTELMAkGA1UEBhMCVVMxEzARBgNV
BAgMCkNhbGlmb3JuaWExFDASBgNVBAcMC1NhbnRhIENsYXJhMQ0wCwYDVQQKDARw
a2c1MRAwDgYDVQQDDAdjczFfdGEyMRYwFAYJKoZIhvcNAQkBFgdjczFfdGEyMIGf
MA0GCSqGSIb3DQEBAQUAA4GNADCBiQKBgQDItMOr1kO31Pn/8we3oFpyiQyXja3u
MY+Ddo//a9QujZRFFyxxlRlK3uz8TZHAN5AJwDkgfN3L/Lw183wMd1XDPYzESSxE
CKh7FvlBx5U/tJbspgRmwipgYsiIMXjtrhwIrmF+Yq7mi2R5Jx4LlO+G4yKD+iVZ
M4ul7M2fykHSHwIDAQABoyAwHjAMBgNVHRMBAf8EAjAAMA4GA1UdDwEB/wQEAwIH
gDANBgkqhkiG9w0BAQsFAAOCAQEAIALk3/Ay4sDaFZv5G9GaogRaisUp94GM+tvl
4mS/ZurT9c8Thhjj+kX4URKH+MSUSkZHpgoAWIfxeqbRl2LEPeUfS6qgq4j4uXTn
yud3YNj1DdeksaSLzZ2UWFJKhdi3QIeEpxhAxOrTpqmE/D4La6FqYggFdK6Jm04O
GvZsJkMrehO+F5LvOjuU9FIuX+yGstAMAKtQlEfdHM+xHk/OpduZHhNmMy0tjvni
ChjgLzrSuxAfJ15il4osOLAGh2dpPoVndHwqPAEcwSR4UhLqRWOzKGGLOSGmhOfy
91/t1CykwOgVwO19kvCHSsaeB+5RTUR+UqdypPvipCj2Rc3kqA==
-----END CERTIFICATE-----
