Certificate:
    Data:
        Version: 3 (0x2)
        Serial Number: 15 (0xf)
        Signature Algorithm: sha256WithRSAEncryption
        Issuer: C=US, ST=California, L=Santa Clara, O=pkg5, CN=ta2/emailAddress=ta2
        Validity
            Not Before: May 23 15:47:16 2024 GMT
            Not After : Feb 17 15:47:16 2027 GMT
        Subject: C=US, ST=California, L=Santa Clara, O=pkg5, CN=cs1_ta2/emailAddress=cs1_ta2
        Subject Public Key Info:
            Public Key Algorithm: rsaEncryption
                Public-Key: (2048 bit)
                Modulus:
                    00:b8:00:24:f1:21:ce:2e:98:2e:f8:e2:ac:d4:ee:
                    0e:e8:c2:0c:b0:c0:74:24:6c:52:e3:d4:bf:ce:ea:
                    d1:08:fc:f6:eb:ab:29:9d:c6:a8:a9:05:64:dc:08:
                    ad:65:66:0e:53:48:3f:79:1c:99:98:e8:68:4f:41:
                    68:36:e8:8c:a3:e6:64:64:81:4e:36:b0:be:93:f0:
                    61:b7:0f:8e:e2:8b:56:f3:50:87:ab:e1:be:af:0d:
                    48:46:2f:4a:75:be:28:b1:44:e0:84:94:a8:1c:32:
                    9e:97:3f:98:be:73:62:fc:02:0d:80:f0:2b:f7:dd:
                    15:ec:c8:e9:62:d0:a1:a7:d6:38:a0:08:09:93:21:
                    f5:c4:90:8c:97:c8:49:91:26:cc:1c:52:ad:54:bc:
                    33:bf:16:c6:0e:b0:b8:58:02:a3:44:4e:94:a9:7e:
                    dd:cf:68:e3:a2:df:7c:12:ad:5e:ea:3f:0f:a1:96:
                    a9:ac:98:30:6d:ae:b2:89:fb:3c:0f:e9:a4:f1:b6:
                    fd:aa:f5:68:68:ee:82:dc:6e:14:34:ac:4e:27:06:
                    4f:43:f0:98:36:e4:b7:ec:65:57:4d:de:33:78:48:
                    d9:d8:b0:34:11:66:df:b1:b5:0c:52:0a:ec:3b:6a:
                    a7:7f:c4:4a:86:46:e9:2e:62:56:fd:99:1f:5f:2e:
                    d4:cb
                Exponent: 65537 (0x10001)
        X509v3 extensions:
            X509v3 Basic Constraints: critical
                CA:FALSE
            X509v3 Key Usage: critical
                Digital Signature
            X509v3 Subject Key Identifier: 
                85:2F:78:DB:5A:59:CA:C4:5E:3D:31:64:F2:7C:F2:80:37:C3:82:8B
            X509v3 Authority Key Identifier: 
                45:53:B8:41:6D:F8:F3:8E:92:DD:70:49:F4:EF:9E:D9:AA:D7:51:A3
    Signature Algorithm: sha256WithRSAEncryption
    Signature Value:
        09:9c:c5:7e:ea:c5:4b:70:a8:9a:db:66:09:36:eb:1c:45:e5:
        47:55:24:1b:30:cf:7f:0d:6f:7c:61:22:45:2e:b0:a0:a0:48:
        80:93:1f:47:ab:69:ee:71:7a:57:e4:bd:07:ac:02:f7:ee:78:
        e5:d3:44:40:d2:c6:4d:fe:1a:15:46:67:9b:01:a5:be:18:07:
        dd:96:e9:c8:aa:9d:93:d4:91:fa:15:d5:b3:ba:23:36:35:47:
        78:29:a8:f5:6b:8b:bf:92:5d:db:57:21:70:1d:1b:76:3c:57:
        d9:b7:72:98:18:da:c9:73:4a:1b:9e:4f:2a:4d:90:da:f7:c0:
        9a:90:cf:41:8d:9b:1f:1c:56:47:ed:0b:87:e5:c1:b3:3a:47:
        9b:f7:47:14:b1:f6:ed:0c:6b:1f:4d:dd:22:6b:4c:ec:03:61:
        5d:7c:2f:e4:60:d3:f2:8c:7d:19:76:32:46:73:c7:87:2e:3a:
        3c:fe:b9:4a:70:02:f1:cb:7e:b8:43:7a:7a:50:d3:7f:95:4c:
        2d:b2:d8:ab:77:ea:d4:5c:ee:56:61:9f:3d:2f:20:32:4e:1f:
        aa:88:6c:fa:83:04:06:4e:01:f2:55:c2:7b:97:90:bf:c3:13:
        ed:70:ab:87:54:c7:96:68:32:be:a6:11:e6:b6:81:17:1d:ee:
        26:06:2b:6a
-----BEGIN CERTIFICATE-----
MIIDtTCCAp2gAwIBAgIBDzANBgkqhkiG9w0BAQsFADBpMQswCQYDVQQGEwJVUzET
MBEGA1UECAwKQ2FsaWZvcm5pYTEUMBIGA1UEBwwLU2FudGEgQ2xhcmExDTALBgNV
BAoMBHBrZzUxDDAKBgNVBAMMA3RhMjESMBAGCSqGSIb3DQEJARYDdGEyMB4XDTI0
MDUyMzE1NDcxNloXDTI3MDIxNzE1NDcxNlowcTELMAkGA1UEBhMCVVMxEzARBgNV
BAgMCkNhbGlmb3JuaWExFDASBgNVBAcMC1NhbnRhIENsYXJhMQ0wCwYDVQQKDARw
a2c1MRAwDgYDVQQDDAdjczFfdGEyMRYwFAYJKoZIhvcNAQkBFgdjczFfdGEyMIIB
IjANBgkqhkiG9w0BAQEFAAOCAQ8AMIIBCgKCAQEAuAAk8SHOLpgu+OKs1O4O6MIM
sMB0JGxS49S/zurRCPz266spncaoqQVk3AitZWYOU0g/eRyZmOhoT0FoNuiMo+Zk
ZIFONrC+k/Bhtw+O4otW81CHq+G+rw1IRi9Kdb4osUTghJSoHDKelz+YvnNi/AIN
gPAr990V7MjpYtChp9Y4oAgJkyH1xJCMl8hJkSbMHFKtVLwzvxbGDrC4WAKjRE6U
qX7dz2jjot98Eq1e6j8PoZaprJgwba6yifs8D+mk8bb9qvVoaO6C3G4UNKxOJwZP
Q/CYNuS37GVXTd4zeEjZ2LA0EWbfsbUMUgrsO2qnf8RKhkbpLmJW/ZkfXy7UywID
AQABo2AwXjAMBgNVHRMBAf8EAjAAMA4GA1UdDwEB/wQEAwIHgDAdBgNVHQ4EFgQU
hS9421pZysRePTFk8nzygDfDgoswHwYDVR0jBBgwFoAURVO4QW34846S3XBJ9O+e
2arXUaMwDQYJKoZIhvcNAQELBQADggEBAAmcxX7qxUtwqJrbZgk26xxF5UdVJBsw
z38Nb3xhIkUusKCgSICTH0erae5xelfkvQesAvfueOXTREDSxk3+GhVGZ5sBpb4Y
B92W6ciqnZPUkfoV1bO6IzY1R3gpqPVri7+SXdtXIXAdG3Y8V9m3cpgY2slzShue
TypNkNr3wJqQz0GNmx8cVkftC4flwbM6R5v3RxSx9u0Max9N3SJrTOwDYV18L+Rg
0/KMfRl2MkZzx4cuOjz+uUpwAvHLfrhDenpQ03+VTC2y2Kt36tRc7lZhnz0vIDJO
H6qIbPqDBAZOAfJVwnuXkL/DE+1wq4dUx5ZoMr6mEea2gRcd7iYGK2o=
-----END CERTIFICATE-----
