Certificate:
    Data:
        Version: 3 (0x2)
        Serial Number: 15 (0xf)
    Signature Algorithm: sha256WithRSAEncryption
        Issuer: C=US, ST=California, L=Santa Clara, O=pkg5, CN=ta2/emailAddress=ta2
        Validity
            Not Before: Mar 20 10:20:53 2018 GMT
            Not After : Dec 14 10:20:53 2020 GMT
        Subject: C=US, ST=California, L=Santa Clara, O=pkg5, CN=cs1_ta2/emailAddress=cs1_ta2
        Subject Public Key Info:
            Public Key Algorithm: rsaEncryption
                Public-Key: (1024 bit)
                Modulus:
                    00:9a:51:03:ff:99:10:60:d0:12:06:0c:f7:f5:f5:
                    1d:2f:0b:6e:37:5c:1c:ec:cc:bb:b8:77:a1:47:ee:
                    64:69:e4:89:1a:9d:fc:db:10:e5:f5:9b:d7:60:79:
                    69:d3:81:58:9f:30:ca:22:2f:6d:79:24:06:1e:0f:
                    83:02:79:8e:2a:a3:b9:6a:64:06:90:6a:27:42:1d:
                    b9:39:f2:23:5a:10:b9:ae:74:0a:10:14:b4:df:86:
                    b4:48:c2:06:3d:32:d3:a3:4e:0e:19:16:7b:d4:cd:
                    95:b6:02:25:ca:25:fe:a5:0a:ed:b5:bf:8c:52:04:
                    d9:d5:f9:92:3c:83:5a:01:1d
                Exponent: 65537 (0x10001)
        X509v3 extensions:
            X509v3 Basic Constraints: critical
                CA:FALSE
            X509v3 Key Usage: critical
                Digital Signature
    Signature Algorithm: sha256WithRSAEncryption
         43:87:cc:16:dc:5b:e9:18:b2:e4:39:04:4c:db:6b:16:15:6b:
         47:60:4e:fc:b3:bf:b9:05:a0:ec:74:7a:e1:e9:f0:6d:55:36:
         55:c6:ef:7f:2e:ae:a6:82:ce:bf:0d:7d:ec:4a:bf:ee:22:26:
         48:9b:85:a0:5c:42:f8:97:e2:fe:37:79:08:f3:50:67:ee:6e:
         28:65:e0:a2:ca:00:08:76:b6:42:50:64:93:e3:de:f9:9c:b7:
         b5:a3:3e:69:86:57:f3:6f:6d:3d:eb:80:ad:4b:9a:12:cc:1d:
         e7:1b:6d:d8:d6:18:7d:a0:bd:b8:6b:21:5c:bf:e6:62:00:ec:
         f4:4d:ae:1f:9d:ec:7a:21:22:a6:6a:0f:02:26:92:38:ab:9d:
         5b:59:84:ba:8f:69:7f:9f:47:33:76:a4:83:3a:e1:ac:b0:a1:
         2c:57:9c:e5:f2:a6:9b:c8:9d:46:e1:a8:e1:0c:51:1b:56:18:
         ef:46:81:e8:6a:53:9e:1a:20:74:fa:91:ae:81:ce:a1:9b:ad:
         e3:04:17:e5:b8:5d:3c:93:9d:ba:63:0b:6b:e3:56:bf:6d:92:
         d6:8d:5d:b1:85:99:b1:19:02:e1:83:c6:38:29:04:53:a1:8c:
         6e:31:5a:69:99:96:a4:62:a4:0f:4f:4b:3e:0c:ed:d4:c5:dd:
         b6:71:b1:5e
-----BEGIN CERTIFICATE-----
MIIC8TCCAdmgAwIBAgIBDzANBgkqhkiG9w0BAQsFADBpMQswCQYDVQQGEwJVUzET
MBEGA1UECAwKQ2FsaWZvcm5pYTEUMBIGA1UEBwwLU2FudGEgQ2xhcmExDTALBgNV
BAoMBHBrZzUxDDAKBgNVBAMMA3RhMjESMBAGCSqGSIb3DQEJARYDdGEyMB4XDTE4
MDMyMDEwMjA1M1oXDTIwMTIxNDEwMjA1M1owcTELMAkGA1UEBhMCVVMxEzARBgNV
BAgMCkNhbGlmb3JuaWExFDASBgNVBAcMC1NhbnRhIENsYXJhMQ0wCwYDVQQKDARw
a2c1MRAwDgYDVQQDDAdjczFfdGEyMRYwFAYJKoZIhvcNAQkBFgdjczFfdGEyMIGf
MA0GCSqGSIb3DQEBAQUAA4GNADCBiQKBgQCaUQP/mRBg0BIGDPf19R0vC243XBzs
zLu4d6FH7mRp5IkanfzbEOX1m9dgeWnTgVifMMoiL215JAYeD4MCeY4qo7lqZAaQ
aidCHbk58iNaELmudAoQFLTfhrRIwgY9MtOjTg4ZFnvUzZW2AiXKJf6lCu21v4xS
BNnV+ZI8g1oBHQIDAQABoyAwHjAMBgNVHRMBAf8EAjAAMA4GA1UdDwEB/wQEAwIH
gDANBgkqhkiG9w0BAQsFAAOCAQEAQ4fMFtxb6Riy5DkETNtrFhVrR2BO/LO/uQWg
7HR64enwbVU2Vcbvfy6upoLOvw197Eq/7iImSJuFoFxC+Jfi/jd5CPNQZ+5uKGXg
osoACHa2QlBkk+Pe+Zy3taM+aYZX829tPeuArUuaEswd5xtt2NYYfaC9uGshXL/m
YgDs9E2uH53seiEipmoPAiaSOKudW1mEuo9pf59HM3akgzrhrLChLFec5fKmm8id
RuGo4QxRG1YY70aB6GpTnhogdPqRroHOoZut4wQX5bhdPJOdumMLa+NWv22S1o1d
sYWZsRkC4YPGOCkEU6GMbjFaaZmWpGKkD09LPgzt1MXdtnGxXg==
-----END CERTIFICATE-----
