Certificate:
    Data:
        Version: 3 (0x2)
        Serial Number: 15 (0xf)
        Signature Algorithm: sha256WithRSAEncryption
        Issuer: C=US, ST=California, L=Santa Clara, O=pkg5, CN=ta2/emailAddress=ta2
        Validity
            Not Before: Nov 14 14:26:53 2024 GMT
            Not After : Aug 11 14:26:53 2027 GMT
        Subject: C=US, ST=California, L=Santa Clara, O=pkg5, CN=cs1_ta2/emailAddress=cs1_ta2
        Subject Public Key Info:
            Public Key Algorithm: rsaEncryption
                Public-Key: (2048 bit)
                Modulus:
                    00:be:19:92:90:38:f4:cc:72:38:46:21:a7:d4:b3:
                    aa:35:a8:11:97:58:a4:d8:81:2c:61:19:42:21:a3:
                    d0:87:cc:33:01:db:54:9e:94:7b:83:95:78:61:9f:
                    9b:27:7f:64:b4:10:a9:bb:ab:dc:6c:1d:24:3f:e4:
                    e0:be:f9:25:16:e4:ce:19:c5:96:51:57:5d:48:d0:
                    95:af:dd:fc:e1:b3:f3:9c:f9:09:ae:eb:66:29:15:
                    0e:45:fd:3a:10:71:9c:c3:e4:96:35:3c:52:5b:f5:
                    b6:f0:07:c7:7d:05:a2:df:bb:19:59:d2:06:74:6f:
                    dd:7c:e7:3a:19:7d:62:8c:99:c5:6c:df:a1:45:21:
                    9a:df:54:d0:45:0e:0b:13:8c:ae:43:c2:30:4e:4e:
                    35:68:14:2c:c4:91:b2:a2:ec:49:73:ec:ed:45:f0:
                    d8:a7:5d:b8:83:e8:03:c5:71:b0:3a:ab:f1:4c:7d:
                    31:c9:dc:3f:b0:9d:fe:98:00:12:0a:e6:2f:55:ec:
                    fe:08:8c:30:a9:1b:28:a0:7d:50:5a:6a:9d:0c:4b:
                    ae:f0:4b:df:45:da:60:fd:1d:ee:12:f5:ca:45:51:
                    a0:42:71:2a:cf:15:8e:95:50:2e:de:63:28:b6:d5:
                    ba:44:e7:7f:4f:fe:5a:d6:1d:86:41:66:e1:e3:35:
                    ec:69
                Exponent: 65537 (0x10001)
        X509v3 extensions:
            X509v3 Basic Constraints: critical
                CA:FALSE
            X509v3 Key Usage: critical
                Digital Signature
            X509v3 Subject Key Identifier: 
                D4:AF:4D:A4:96:E4:AD:B3:D1:E3:DF:E6:F6:8B:8B:4A:A3:85:A2:05
            X509v3 Authority Key Identifier: 
                C7:9B:A0:B1:6A:EB:E3:A2:69:81:13:B8:49:CC:A0:0F:75:04:F3:5C
    Signature Algorithm: sha256WithRSAEncryption
    Signature Value:
        41:32:f2:29:b4:3e:2b:cb:0b:9a:78:fb:66:67:b8:f8:de:54:
        66:aa:c4:b1:b0:6c:bd:38:c7:d5:2c:38:91:ab:9f:98:c9:31:
        ab:f2:b1:7d:50:4b:70:ab:5d:5b:5e:f8:0f:fc:5c:20:88:bf:
        d5:82:e6:44:b9:54:dd:3d:87:65:f1:ce:85:91:83:31:68:e3:
        9d:bd:1b:4f:4b:5f:84:46:c9:7b:68:cd:71:49:eb:d0:4d:07:
        c8:35:10:eb:4b:87:fb:7f:51:9b:c6:0c:de:b1:4a:99:5a:cc:
        bb:3b:fe:0b:b5:b2:35:4a:3b:cb:3e:1a:e9:5c:68:57:40:2b:
        ec:f1:9e:1d:4c:e8:07:e5:11:5b:45:b8:30:e1:ac:72:8f:15:
        ab:50:4f:69:d4:07:f9:f8:4c:6f:c6:b1:87:5c:eb:f9:6d:a4:
        71:87:c0:62:76:5a:88:bf:94:29:36:b7:8e:9c:96:f5:16:87:
        c1:fe:b6:3d:2e:c8:c5:45:a1:7d:ef:47:e0:cb:e2:8e:af:0d:
        08:90:95:c0:85:b5:ad:aa:21:d7:ff:ea:55:71:4e:6f:11:da:
        47:5d:9c:23:26:16:8f:54:e7:98:fb:18:ba:57:6f:4f:f2:86:
        18:6d:d5:59:79:66:b6:f2:8a:9d:f5:02:d1:a2:e3:47:65:c4:
        dd:cf:ae:85
-----BEGIN CERTIFICATE-----
MIIDtTCCAp2gAwIBAgIBDzANBgkqhkiG9w0BAQsFADBpMQswCQYDVQQGEwJVUzET
MBEGA1UECAwKQ2FsaWZvcm5pYTEUMBIGA1UEBwwLU2FudGEgQ2xhcmExDTALBgNV
BAoMBHBrZzUxDDAKBgNVBAMMA3RhMjESMBAGCSqGSIb3DQEJARYDdGEyMB4XDTI0
MTExNDE0MjY1M1oXDTI3MDgxMTE0MjY1M1owcTELMAkGA1UEBhMCVVMxEzARBgNV
BAgMCkNhbGlmb3JuaWExFDASBgNVBAcMC1NhbnRhIENsYXJhMQ0wCwYDVQQKDARw
a2c1MRAwDgYDVQQDDAdjczFfdGEyMRYwFAYJKoZIhvcNAQkBFgdjczFfdGEyMIIB
IjANBgkqhkiG9w0BAQEFAAOCAQ8AMIIBCgKCAQEAvhmSkDj0zHI4RiGn1LOqNagR
l1ik2IEsYRlCIaPQh8wzAdtUnpR7g5V4YZ+bJ39ktBCpu6vcbB0kP+TgvvklFuTO
GcWWUVddSNCVr9384bPznPkJrutmKRUORf06EHGcw+SWNTxSW/W28AfHfQWi37sZ
WdIGdG/dfOc6GX1ijJnFbN+hRSGa31TQRQ4LE4yuQ8IwTk41aBQsxJGyouxJc+zt
RfDYp124g+gDxXGwOqvxTH0xydw/sJ3+mAASCuYvVez+CIwwqRsooH1QWmqdDEuu
8EvfRdpg/R3uEvXKRVGgQnEqzxWOlVAu3mMottW6ROd/T/5a1h2GQWbh4zXsaQID
AQABo2AwXjAMBgNVHRMBAf8EAjAAMA4GA1UdDwEB/wQEAwIHgDAdBgNVHQ4EFgQU
1K9NpJbkrbPR49/m9ouLSqOFogUwHwYDVR0jBBgwFoAUx5ugsWrr46JpgRO4Scyg
D3UE81wwDQYJKoZIhvcNAQELBQADggEBAEEy8im0PivLC5p4+2ZnuPjeVGaqxLGw
bL04x9UsOJGrn5jJMavysX1QS3CrXVte+A/8XCCIv9WC5kS5VN09h2XxzoWRgzFo
4529G09LX4RGyXtozXFJ69BNB8g1EOtLh/t/UZvGDN6xSplazLs7/gu1sjVKO8s+
GulcaFdAK+zxnh1M6AflEVtFuDDhrHKPFatQT2nUB/n4TG/GsYdc6/ltpHGHwGJ2
Woi/lCk2t46clvUWh8H+tj0uyMVFoX3vR+DL4o6vDQiQlcCFta2qIdf/6lVxTm8R
2kddnCMmFo9U55j7GLpXb0/yhhht1Vl5Zrbyip31AtGi40dlxN3ProU=
-----END CERTIFICATE-----
