Certificate:
    Data:
        Version: 3 (0x2)
        Serial Number: 17 (0x11)
        Signature Algorithm: sha256WithRSAEncryption
        Issuer: C=US, ST=California, L=Santa Clara, O=pkg5, CN=ch1_ta3/emailAddress=ch1_ta3
        Validity
            Not Before: Oct 24 21:43:04 2023 GMT
            Not After : Jul 20 21:43:04 2026 GMT
        Subject: C=US, ST=California, L=Santa Clara, O=pkg5, CN=cs1_ch1_ta3/emailAddress=cs1_ch1_ta3
        Subject Public Key Info:
            Public Key Algorithm: rsaEncryption
                Public-Key: (2048 bit)
                Modulus:
                    00:b9:0f:2b:8f:de:83:4f:dc:62:2a:15:52:c4:20:
                    ab:e0:98:b7:97:1c:1f:d6:90:69:2e:16:df:13:d5:
                    47:08:01:50:b3:aa:65:08:df:b0:58:e8:22:86:1d:
                    a1:a9:98:e1:62:d9:37:c2:cf:06:4b:41:96:96:16:
                    2f:68:2f:fc:54:9b:91:30:87:57:69:28:59:08:d7:
                    2f:67:41:6f:85:78:d2:fc:cd:c9:27:80:27:b0:77:
                    1a:f3:af:98:1e:e6:37:fa:85:c3:eb:72:a2:59:a5:
                    f5:57:f8:e1:c1:c0:69:a3:a8:9f:6d:92:73:96:38:
                    ec:6e:2f:19:98:3f:41:09:d3:ac:49:1b:62:e4:ac:
                    07:fb:1b:55:6e:d7:38:ff:a4:d5:69:81:cf:94:b6:
                    f7:a1:df:7c:77:19:ad:7a:2f:af:6d:b5:4f:21:8c:
                    b7:ba:e4:cd:e5:20:ef:d1:d4:5f:83:a5:2a:b2:cb:
                    96:89:9e:11:5d:54:8c:f7:d1:f3:6a:5d:14:d6:6a:
                    38:a2:4d:d9:93:7f:b3:aa:71:ef:3c:46:24:60:88:
                    6f:25:00:f3:52:3b:ac:9c:fd:fd:69:7b:b4:3f:3c:
                    54:72:21:b5:3d:db:68:a0:cc:af:74:31:94:15:d4:
                    c4:52:ec:47:bc:dd:01:3b:a4:91:66:a4:cd:b4:2f:
                    9d:21
                Exponent: 65537 (0x10001)
        X509v3 extensions:
            X509v3 Basic Constraints: critical
                CA:FALSE
            X509v3 Key Usage: critical
                Digital Signature
            X509v3 Subject Key Identifier: 
                AD:C7:05:CC:AF:F3:6A:EA:BD:C7:08:88:63:79:D9:E3:DB:3B:6D:F5
            X509v3 Authority Key Identifier: 
                EC:04:9D:52:42:13:3C:0B:DA:EF:1D:7E:FD:8C:02:F4:74:FA:24:6D
    Signature Algorithm: sha256WithRSAEncryption
    Signature Value:
        87:48:32:f1:f4:8e:b0:ed:dd:81:72:bd:cc:48:3b:6f:7e:9e:
        77:b1:7d:c3:0e:b3:b1:26:23:9c:ea:93:6f:9c:76:ad:6d:23:
        ad:96:ae:1a:84:e4:fd:c3:83:41:37:9e:5e:d8:0a:ad:da:d1:
        66:d7:9f:64:fa:da:86:08:f6:06:d3:9f:d2:f0:1f:aa:85:fa:
        9c:e2:2e:98:9b:44:0c:4b:84:20:bc:db:e9:59:a6:7c:89:8e:
        57:7d:79:4c:f4:95:62:84:26:23:67:a5:bb:56:91:33:a2:1b:
        9b:de:7b:65:bd:26:67:6a:ac:ad:05:e7:09:80:b9:c7:f6:85:
        28:07:7c:f1:ca:fd:7b:51:cd:e8:3b:39:3b:ca:54:48:2f:ed:
        17:0b:7d:d5:c6:e9:b1:00:04:8a:f1:28:70:fd:f5:da:cf:60:
        04:ae:fe:b6:4f:ed:c7:ae:fc:b3:1b:56:67:dc:e8:0d:a3:7f:
        1e:9d:f5:19:b9:af:a8:e6:35:e2:fd:b8:15:a1:7e:89:43:79:
        73:02:d0:1e:c0:4b:71:75:17:5f:8d:3c:49:d5:f1:9a:a7:c6:
        cc:77:3f:e6:9a:2c:8c:eb:94:8d:12:09:6f:f9:10:de:c2:05:
        d2:a6:84:5a:95:f1:04:66:11:ab:ca:ad:a8:a7:66:3e:c6:a4:
        95:2f:3b:ef
-----BEGIN CERTIFICATE-----
MIIDxTCCAq2gAwIBAgIBETANBgkqhkiG9w0BAQsFADBxMQswCQYDVQQGEwJVUzET
MBEGA1UECAwKQ2FsaWZvcm5pYTEUMBIGA1UEBwwLU2FudGEgQ2xhcmExDTALBgNV
BAoMBHBrZzUxEDAOBgNVBAMMB2NoMV90YTMxFjAUBgkqhkiG9w0BCQEWB2NoMV90
YTMwHhcNMjMxMDI0MjE0MzA0WhcNMjYwNzIwMjE0MzA0WjB5MQswCQYDVQQGEwJV
UzETMBEGA1UECAwKQ2FsaWZvcm5pYTEUMBIGA1UEBwwLU2FudGEgQ2xhcmExDTAL
BgNVBAoMBHBrZzUxFDASBgNVBAMMC2NzMV9jaDFfdGEzMRowGAYJKoZIhvcNAQkB
FgtjczFfY2gxX3RhMzCCASIwDQYJKoZIhvcNAQEBBQADggEPADCCAQoCggEBALkP
K4/eg0/cYioVUsQgq+CYt5ccH9aQaS4W3xPVRwgBULOqZQjfsFjoIoYdoamY4WLZ
N8LPBktBlpYWL2gv/FSbkTCHV2koWQjXL2dBb4V40vzNySeAJ7B3GvOvmB7mN/qF
w+tyolml9Vf44cHAaaOon22Sc5Y47G4vGZg/QQnTrEkbYuSsB/sbVW7XOP+k1WmB
z5S296HffHcZrXovr221TyGMt7rkzeUg79HUX4OlKrLLlomeEV1UjPfR82pdFNZq
OKJN2ZN/s6px7zxGJGCIbyUA81I7rJz9/Wl7tD88VHIhtT3baKDMr3QxlBXUxFLs
R7zdATukkWakzbQvnSECAwEAAaNgMF4wDAYDVR0TAQH/BAIwADAOBgNVHQ8BAf8E
BAMCB4AwHQYDVR0OBBYEFK3HBcyv82rqvccIiGN52ePbO231MB8GA1UdIwQYMBaA
FOwEnVJCEzwL2u8dfv2MAvR0+iRtMA0GCSqGSIb3DQEBCwUAA4IBAQCHSDLx9I6w
7d2Bcr3MSDtvfp53sX3DDrOxJiOc6pNvnHatbSOtlq4ahOT9w4NBN55e2Aqt2tFm
159k+tqGCPYG05/S8B+qhfqc4i6Ym0QMS4QgvNvpWaZ8iY5XfXlM9JVihCYjZ6W7
VpEzohub3ntlvSZnaqytBecJgLnH9oUoB3zxyv17Uc3oOzk7ylRIL+0XC33Vxumx
AASK8Shw/fXaz2AErv62T+3HrvyzG1Zn3OgNo38enfUZua+o5jXi/bgVoX6JQ3lz
AtAewEtxdRdfjTxJ1fGap8bMdz/mmiyM65SNEglv+RDewgXSpoRalfEEZhGryq2o
p2Y+xqSVLzvv
-----END CERTIFICATE-----
