Certificate:
    Data:
        Version: 3 (0x2)
        Serial Number: 17 (0x11)
        Signature Algorithm: sha256WithRSAEncryption
        Issuer: C=US, ST=California, L=Santa Clara, O=pkg5, CN=ch1_ta3/emailAddress=ch1_ta3
        Validity
            Not Before: Oct 22 10:15:11 2021 GMT
            Not After : Jul 18 10:15:11 2024 GMT
        Subject: C=US, ST=California, L=Santa Clara, O=pkg5, CN=cs1_ch1_ta3/emailAddress=cs1_ch1_ta3
        Subject Public Key Info:
            Public Key Algorithm: rsaEncryption
                Public-Key: (2048 bit)
                Modulus:
                    00:b2:04:e2:81:d2:e9:40:d5:36:a4:f2:82:43:dc:
                    5e:28:14:f2:02:bd:a3:c4:ab:d6:bc:62:2b:5a:2d:
                    38:5b:f5:12:49:d8:44:0d:12:8d:2c:2b:ea:c8:34:
                    f0:7f:9f:0f:7a:27:9c:75:6f:05:8a:24:4a:9f:37:
                    2a:80:51:37:d5:2a:7e:07:b9:38:41:48:37:24:a8:
                    37:3d:2f:3b:87:d2:03:af:41:32:8c:f6:4e:c8:0a:
                    e8:fd:11:13:58:5a:36:8e:ef:b2:6d:dd:0a:cd:c2:
                    a4:85:07:c8:25:02:0a:a3:d9:1e:2c:08:47:04:16:
                    08:a6:60:a0:57:fe:5a:9d:bc:d1:0d:4e:27:65:87:
                    9f:b2:8a:79:35:9c:d1:48:52:b7:33:eb:76:de:0d:
                    6a:74:bb:f7:45:34:d7:d5:03:da:0a:ac:6e:88:d9:
                    39:4a:c4:1d:62:cb:43:ce:67:df:88:46:58:8e:c4:
                    27:8e:fd:bb:e1:da:ff:b0:5d:c2:f8:e4:10:35:1e:
                    d8:96:4a:d9:7d:75:a9:d9:15:8a:0b:c7:40:45:b7:
                    eb:12:74:e9:20:93:8c:0e:a4:cf:7b:ac:93:fd:6b:
                    87:81:15:9c:fd:e1:82:c8:47:49:7e:d5:d9:ab:17:
                    11:b5:73:85:00:48:aa:c4:f1:36:d4:8c:bd:b3:07:
                    3f:df
                Exponent: 65537 (0x10001)
        X509v3 extensions:
            X509v3 Basic Constraints: critical
                CA:FALSE
            X509v3 Key Usage: critical
                Digital Signature
            X509v3 Subject Key Identifier: 
                CB:C0:B5:58:03:66:4D:A6:E7:73:16:72:17:0D:94:71:BF:60:73:0E
            X509v3 Authority Key Identifier: 
                D5:A6:1E:11:8A:90:CB:66:0F:10:66:77:01:DD:3A:8F:14:F0:85:C0
    Signature Algorithm: sha256WithRSAEncryption
    Signature Value:
        a2:f4:8b:eb:eb:f2:57:05:dc:33:63:8a:9f:83:87:c3:6e:34:
        b1:48:d0:a6:24:db:9d:a1:83:ab:b7:de:80:53:fd:73:69:2d:
        48:17:6a:46:ec:ab:42:c0:07:66:1a:50:c1:b4:da:d8:04:d6:
        c4:3d:36:f1:32:0a:de:31:a7:ad:db:30:3c:28:db:c6:da:b3:
        ce:55:6a:8c:d5:d0:3c:9f:8f:44:c7:d2:d3:69:aa:a7:01:9f:
        d1:84:d5:49:ae:ac:5e:84:f9:df:00:ac:2c:90:53:16:33:00:
        c3:12:e7:ee:e9:15:53:6b:ea:cc:fc:6f:62:a2:cd:22:e6:c2:
        45:82:28:3b:e0:ea:18:74:10:b5:89:36:ed:0a:9b:8a:ef:27:
        b8:dd:3b:4e:fa:da:5a:ba:ea:32:a9:8b:a9:f4:db:21:da:68:
        68:74:47:65:43:7c:61:c6:d5:b5:9e:3e:77:21:43:15:1c:df:
        b0:c7:50:f0:cb:8d:27:c3:ae:92:00:10:28:c1:ff:bd:b0:de:
        3c:86:d0:0f:ad:1b:fc:dd:d6:0d:96:b0:40:37:00:bb:2e:01:
        5c:21:38:7d:90:9d:55:08:57:8c:23:74:a7:db:31:e3:d6:37:
        89:0e:ee:a9:12:44:47:de:59:38:cb:4c:54:3d:b5:0a:6d:be:
        b3:08:ad:25
-----BEGIN CERTIFICATE-----
MIIDxTCCAq2gAwIBAgIBETANBgkqhkiG9w0BAQsFADBxMQswCQYDVQQGEwJVUzET
MBEGA1UECAwKQ2FsaWZvcm5pYTEUMBIGA1UEBwwLU2FudGEgQ2xhcmExDTALBgNV
BAoMBHBrZzUxEDAOBgNVBAMMB2NoMV90YTMxFjAUBgkqhkiG9w0BCQEWB2NoMV90
YTMwHhcNMjExMDIyMTAxNTExWhcNMjQwNzE4MTAxNTExWjB5MQswCQYDVQQGEwJV
UzETMBEGA1UECAwKQ2FsaWZvcm5pYTEUMBIGA1UEBwwLU2FudGEgQ2xhcmExDTAL
BgNVBAoMBHBrZzUxFDASBgNVBAMMC2NzMV9jaDFfdGEzMRowGAYJKoZIhvcNAQkB
FgtjczFfY2gxX3RhMzCCASIwDQYJKoZIhvcNAQEBBQADggEPADCCAQoCggEBALIE
4oHS6UDVNqTygkPcXigU8gK9o8Sr1rxiK1otOFv1EknYRA0SjSwr6sg08H+fD3on
nHVvBYokSp83KoBRN9Uqfge5OEFINySoNz0vO4fSA69BMoz2TsgK6P0RE1haNo7v
sm3dCs3CpIUHyCUCCqPZHiwIRwQWCKZgoFf+Wp280Q1OJ2WHn7KKeTWc0UhStzPr
dt4NanS790U019UD2gqsbojZOUrEHWLLQ85n34hGWI7EJ479u+Ha/7BdwvjkEDUe
2JZK2X11qdkVigvHQEW36xJ06SCTjA6kz3usk/1rh4EVnP3hgshHSX7V2asXEbVz
hQBIqsTxNtSMvbMHP98CAwEAAaNgMF4wDAYDVR0TAQH/BAIwADAOBgNVHQ8BAf8E
BAMCB4AwHQYDVR0OBBYEFMvAtVgDZk2m53MWchcNlHG/YHMOMB8GA1UdIwQYMBaA
FNWmHhGKkMtmDxBmdwHdOo8U8IXAMA0GCSqGSIb3DQEBCwUAA4IBAQCi9Ivr6/JX
BdwzY4qfg4fDbjSxSNCmJNudoYOrt96AU/1zaS1IF2pG7KtCwAdmGlDBtNrYBNbE
PTbxMgreMaet2zA8KNvG2rPOVWqM1dA8n49Ex9LTaaqnAZ/RhNVJrqxehPnfAKws
kFMWMwDDEufu6RVTa+rM/G9ios0i5sJFgig74OoYdBC1iTbtCpuK7ye43TtO+tpa
uuoyqYup9Nsh2mhodEdlQ3xhxtW1nj53IUMVHN+wx1Dwy40nw66SABAowf+9sN48
htAPrRv83dYNlrBANwC7LgFcITh9kJ1VCFeMI3Sn2zHj1jeJDu6pEkRH3lk4y0xU
PbUKbb6zCK0l
-----END CERTIFICATE-----
