Certificate:
    Data:
        Version: 3 (0x2)
        Serial Number: 17 (0x11)
        Signature Algorithm: sha256WithRSAEncryption
        Issuer: C=US, ST=California, L=Santa Clara, O=pkg5, CN=ch1_ta3/emailAddress=ch1_ta3
        Validity
            Not Before: May 23 15:47:17 2024 GMT
            Not After : Feb 17 15:47:17 2027 GMT
        Subject: C=US, ST=California, L=Santa Clara, O=pkg5, CN=cs1_ch1_ta3/emailAddress=cs1_ch1_ta3
        Subject Public Key Info:
            Public Key Algorithm: rsaEncryption
                Public-Key: (2048 bit)
                Modulus:
                    00:ac:02:0f:c3:5b:ab:de:02:d0:84:c8:3b:46:de:
                    44:8a:36:1b:34:75:ac:e7:b5:5c:fd:58:2d:aa:e8:
                    a4:38:a5:63:88:85:07:5a:5f:a3:67:5d:e1:34:95:
                    8a:69:3b:e6:f4:89:28:76:4c:19:2e:34:84:cc:05:
                    ca:50:48:1e:dd:52:36:65:5e:95:01:9a:3a:b7:b5:
                    7c:98:5f:6d:d4:bf:10:e9:d2:79:3a:61:95:08:0b:
                    91:0b:bb:e4:09:2e:15:1b:2f:aa:8d:fd:4f:cd:5b:
                    36:ea:fc:13:de:d1:92:ee:df:84:b7:0f:2f:83:f1:
                    98:69:c6:9b:97:59:ab:a6:38:e2:77:e2:03:53:51:
                    75:fb:6b:9f:96:e3:65:bf:86:57:39:98:a0:f1:37:
                    ba:a4:94:ed:22:d6:8a:1d:19:4a:58:91:be:d8:cc:
                    63:96:e7:42:93:55:da:5e:a7:82:b6:87:7b:cf:a2:
                    b1:7a:c8:c8:60:2b:38:f7:f7:ce:43:1d:18:c8:ea:
                    0b:94:41:31:9f:b3:c2:f7:79:d6:64:e7:cb:41:28:
                    ad:09:56:03:83:d7:1b:d5:f1:0d:70:aa:07:46:29:
                    47:65:e9:32:d8:a3:93:04:aa:43:a0:cf:ed:8b:cb:
                    f6:ac:7d:8f:c6:dd:37:60:5e:1b:c4:14:23:00:24:
                    1a:cf
                Exponent: 65537 (0x10001)
        X509v3 extensions:
            X509v3 Basic Constraints: critical
                CA:FALSE
            X509v3 Key Usage: critical
                Digital Signature
            X509v3 Subject Key Identifier: 
                2C:8E:79:E8:6F:C5:CA:69:38:B3:41:11:49:DD:0C:30:F1:41:59:8A
            X509v3 Authority Key Identifier: 
                69:A7:F1:E4:B7:F3:AC:28:7C:E9:9A:78:E3:CC:EF:00:89:C5:A4:C5
    Signature Algorithm: sha256WithRSAEncryption
    Signature Value:
        2c:eb:83:9f:57:76:10:3f:61:6b:31:f8:b7:7e:da:a1:b1:5f:
        72:a6:51:27:59:47:d5:db:2a:b3:c1:00:35:f9:98:d5:14:8a:
        e6:2e:c6:c9:70:af:25:fd:40:da:99:a1:89:97:fb:93:b0:55:
        88:ff:ac:b0:ea:f1:93:d6:07:3d:96:cc:4d:5d:0d:0c:4a:76:
        10:8d:41:1d:16:62:7d:10:c3:2f:b7:2c:88:a0:4a:df:72:72:
        10:40:c2:c7:dd:f3:74:b5:dd:d2:41:a4:e9:50:d5:ea:a2:3b:
        5a:8e:23:ec:b4:b8:90:50:21:e4:9f:66:6e:d1:c0:bb:fd:f7:
        86:88:df:aa:7e:99:00:fc:6e:16:6f:13:b5:08:59:f9:ac:11:
        d9:b2:b0:3d:6a:17:fd:a9:5d:40:da:07:00:88:b4:49:8c:f1:
        af:b7:77:f9:40:57:55:f5:0e:8e:24:9d:3f:1b:54:f3:9e:68:
        5d:6e:dc:99:42:bc:a9:03:b3:a9:60:51:48:36:39:28:3f:54:
        27:9b:0b:e7:02:9b:14:5e:55:49:80:cf:08:66:f6:d3:a0:3f:
        9a:a0:c8:e1:2e:9d:27:a5:66:2e:19:32:59:d3:3a:7d:f7:fe:
        5f:28:22:ed:23:fc:0c:7c:be:24:fc:84:ff:62:0f:ee:e1:51:
        50:3e:eb:f5
-----BEGIN CERTIFICATE-----
MIIDxTCCAq2gAwIBAgIBETANBgkqhkiG9w0BAQsFADBxMQswCQYDVQQGEwJVUzET
MBEGA1UECAwKQ2FsaWZvcm5pYTEUMBIGA1UEBwwLU2FudGEgQ2xhcmExDTALBgNV
BAoMBHBrZzUxEDAOBgNVBAMMB2NoMV90YTMxFjAUBgkqhkiG9w0BCQEWB2NoMV90
YTMwHhcNMjQwNTIzMTU0NzE3WhcNMjcwMjE3MTU0NzE3WjB5MQswCQYDVQQGEwJV
UzETMBEGA1UECAwKQ2FsaWZvcm5pYTEUMBIGA1UEBwwLU2FudGEgQ2xhcmExDTAL
BgNVBAoMBHBrZzUxFDASBgNVBAMMC2NzMV9jaDFfdGEzMRowGAYJKoZIhvcNAQkB
FgtjczFfY2gxX3RhMzCCASIwDQYJKoZIhvcNAQEBBQADggEPADCCAQoCggEBAKwC
D8Nbq94C0ITIO0beRIo2GzR1rOe1XP1YLaropDilY4iFB1pfo2dd4TSVimk75vSJ
KHZMGS40hMwFylBIHt1SNmVelQGaOre1fJhfbdS/EOnSeTphlQgLkQu75AkuFRsv
qo39T81bNur8E97Rku7fhLcPL4PxmGnGm5dZq6Y44nfiA1NRdftrn5bjZb+GVzmY
oPE3uqSU7SLWih0ZSliRvtjMY5bnQpNV2l6ngraHe8+isXrIyGArOPf3zkMdGMjq
C5RBMZ+zwvd51mTny0EorQlWA4PXG9XxDXCqB0YpR2XpMtijkwSqQ6DP7YvL9qx9
j8bdN2BeG8QUIwAkGs8CAwEAAaNgMF4wDAYDVR0TAQH/BAIwADAOBgNVHQ8BAf8E
BAMCB4AwHQYDVR0OBBYEFCyOeehvxcppOLNBEUndDDDxQVmKMB8GA1UdIwQYMBaA
FGmn8eS386wofOmaeOPM7wCJxaTFMA0GCSqGSIb3DQEBCwUAA4IBAQAs64OfV3YQ
P2FrMfi3ftqhsV9yplEnWUfV2yqzwQA1+ZjVFIrmLsbJcK8l/UDamaGJl/uTsFWI
/6yw6vGT1gc9lsxNXQ0MSnYQjUEdFmJ9EMMvtyyIoErfcnIQQMLH3fN0td3SQaTp
UNXqojtajiPstLiQUCHkn2Zu0cC7/feGiN+qfpkA/G4WbxO1CFn5rBHZsrA9ahf9
qV1A2gcAiLRJjPGvt3f5QFdV9Q6OJJ0/G1TznmhdbtyZQrypA7OpYFFINjkoP1Qn
mwvnApsUXlVJgM8IZvbToD+aoMjhLp0npWYuGTJZ0zp99/5fKCLtI/wMfL4k/IT/
Yg/u4VFQPuv1
-----END CERTIFICATE-----
