Certificate:
    Data:
        Version: 3 (0x2)
        Serial Number: 17 (0x11)
        Signature Algorithm: sha256WithRSAEncryption
        Issuer: C=US, ST=California, L=Santa Clara, O=pkg5, CN=ch1_ta3/emailAddress=ch1_ta3
        Validity
            Not Before: Dec 15 15:37:21 2022 GMT
            Not After : Sep 10 15:37:21 2025 GMT
        Subject: C=US, ST=California, L=Santa Clara, O=pkg5, CN=cs1_ch1_ta3/emailAddress=cs1_ch1_ta3
        Subject Public Key Info:
            Public Key Algorithm: rsaEncryption
                Public-Key: (2048 bit)
                Modulus:
                    00:a7:0f:f9:fc:5f:62:ac:be:fd:a3:93:06:3d:f0:
                    cc:42:7f:65:e3:10:ca:55:5d:bd:d9:9b:e0:26:4d:
                    4d:27:7f:2a:78:14:b3:3f:17:db:f5:a9:d9:c3:80:
                    e0:d8:25:06:4e:ee:57:ab:b0:7c:b7:ff:6d:23:98:
                    bf:43:48:af:0a:20:08:bf:bf:2c:01:cf:b6:d1:44:
                    97:e5:de:b5:1d:82:76:b7:d7:88:ff:c0:e5:a9:17:
                    65:7c:ee:9a:ef:93:aa:c6:02:42:bc:11:08:62:37:
                    7a:75:ff:bb:5a:5d:21:5b:e6:1f:0d:46:06:94:55:
                    ac:61:98:66:ae:27:52:2c:99:18:71:26:c2:ac:f1:
                    34:fe:8c:a7:30:1b:5d:b0:26:10:5d:a1:b6:d5:85:
                    b9:b9:49:47:a4:ed:44:d7:fa:ec:a7:0b:e0:a5:a2:
                    31:9e:f0:30:5f:8e:7e:8c:92:07:53:f4:91:14:24:
                    06:7e:aa:0f:66:f0:10:c2:82:a1:03:04:9f:c3:07:
                    ae:76:b6:ae:3e:5a:07:1e:8b:23:a9:b0:49:7f:dd:
                    8d:94:63:56:9e:8b:c4:e4:d2:eb:6f:10:b0:f0:fd:
                    0d:47:22:5b:db:d3:52:5f:91:ea:32:c0:fe:36:d7:
                    29:12:c8:17:05:e4:6b:a1:a3:f9:96:0c:b6:00:f8:
                    d6:1f
                Exponent: 65537 (0x10001)
        X509v3 extensions:
            X509v3 Basic Constraints: critical
                CA:FALSE
            X509v3 Key Usage: critical
                Digital Signature
            X509v3 Subject Key Identifier: 
                C0:86:FB:CB:BC:6C:70:00:C9:CF:22:EC:37:53:28:91:39:AA:36:77
            X509v3 Authority Key Identifier: 
                33:56:B5:6A:EF:83:5A:96:29:D5:64:57:A8:29:D0:28:D0:1D:D9:53
    Signature Algorithm: sha256WithRSAEncryption
    Signature Value:
        98:76:8d:c3:1f:b5:96:ea:6a:ae:01:aa:ab:31:e5:46:c5:c0:
        b5:c0:88:65:63:25:be:dc:5c:1b:4d:20:b3:c0:f3:17:fc:bb:
        17:77:0f:b8:c3:25:0a:f1:1c:78:65:b5:60:13:c7:1b:56:70:
        5a:5d:d2:31:71:6b:9c:29:03:0e:c4:af:07:5c:ac:e1:2e:d5:
        a4:7f:a9:f6:f4:83:e6:d2:be:b9:d6:13:de:89:75:fd:ef:51:
        37:48:2e:94:b2:74:cf:26:63:35:28:e0:12:44:66:71:47:ac:
        6d:aa:0a:d0:11:78:c2:f2:31:ee:84:7e:d2:e9:4c:b3:d5:4a:
        e9:fc:11:4b:04:04:6d:01:b9:93:9f:88:ac:91:37:0f:f4:2b:
        1c:67:1b:e9:82:be:28:49:25:c0:24:b5:5e:a6:c4:ff:0f:eb:
        e8:8e:ed:9b:3e:be:c9:b7:20:0e:7d:f6:aa:48:a0:34:ce:62:
        9f:07:e9:a5:bb:21:fe:79:09:d1:03:e0:aa:c3:2e:be:56:fb:
        70:df:ca:9e:6b:a2:e2:60:3d:95:91:04:09:8f:cc:95:65:00:
        32:02:dd:e6:ea:6a:59:75:1e:a7:e5:66:46:67:bb:7a:50:8a:
        75:93:11:bb:23:da:84:bf:ed:cc:72:00:6d:54:ed:f8:2a:17:
        15:e5:54:05
-----BEGIN CERTIFICATE-----
MIIDxTCCAq2gAwIBAgIBETANBgkqhkiG9w0BAQsFADBxMQswCQYDVQQGEwJVUzET
MBEGA1UECAwKQ2FsaWZvcm5pYTEUMBIGA1UEBwwLU2FudGEgQ2xhcmExDTALBgNV
BAoMBHBrZzUxEDAOBgNVBAMMB2NoMV90YTMxFjAUBgkqhkiG9w0BCQEWB2NoMV90
YTMwHhcNMjIxMjE1MTUzNzIxWhcNMjUwOTEwMTUzNzIxWjB5MQswCQYDVQQGEwJV
UzETMBEGA1UECAwKQ2FsaWZvcm5pYTEUMBIGA1UEBwwLU2FudGEgQ2xhcmExDTAL
BgNVBAoMBHBrZzUxFDASBgNVBAMMC2NzMV9jaDFfdGEzMRowGAYJKoZIhvcNAQkB
FgtjczFfY2gxX3RhMzCCASIwDQYJKoZIhvcNAQEBBQADggEPADCCAQoCggEBAKcP
+fxfYqy+/aOTBj3wzEJ/ZeMQylVdvdmb4CZNTSd/KngUsz8X2/Wp2cOA4NglBk7u
V6uwfLf/bSOYv0NIrwogCL+/LAHPttFEl+XetR2CdrfXiP/A5akXZXzumu+TqsYC
QrwRCGI3enX/u1pdIVvmHw1GBpRVrGGYZq4nUiyZGHEmwqzxNP6MpzAbXbAmEF2h
ttWFublJR6TtRNf67KcL4KWiMZ7wMF+OfoySB1P0kRQkBn6qD2bwEMKCoQMEn8MH
rna2rj5aBx6LI6mwSX/djZRjVp6LxOTS628QsPD9DUciW9vTUl+R6jLA/jbXKRLI
FwXka6Gj+ZYMtgD41h8CAwEAAaNgMF4wDAYDVR0TAQH/BAIwADAOBgNVHQ8BAf8E
BAMCB4AwHQYDVR0OBBYEFMCG+8u8bHAAyc8i7DdTKJE5qjZ3MB8GA1UdIwQYMBaA
FDNWtWrvg1qWKdVkV6gp0CjQHdlTMA0GCSqGSIb3DQEBCwUAA4IBAQCYdo3DH7WW
6mquAaqrMeVGxcC1wIhlYyW+3FwbTSCzwPMX/LsXdw+4wyUK8Rx4ZbVgE8cbVnBa
XdIxcWucKQMOxK8HXKzhLtWkf6n29IPm0r651hPeiXX971E3SC6UsnTPJmM1KOAS
RGZxR6xtqgrQEXjC8jHuhH7S6Uyz1Urp/BFLBARtAbmTn4iskTcP9CscZxvpgr4o
SSXAJLVepsT/D+voju2bPr7JtyAOffaqSKA0zmKfB+mluyH+eQnRA+Cqwy6+Vvtw
38qea6LiYD2VkQQJj8yVZQAyAt3m6mpZdR6n5WZGZ7t6UIp1kxG7I9qEv+3McgBt
VO34KhcV5VQF
-----END CERTIFICATE-----
