Certificate:
    Data:
        Version: 3 (0x2)
        Serial Number: 17 (0x11)
    Signature Algorithm: sha256WithRSAEncryption
        Issuer: C=US, ST=California, L=Santa Clara, O=pkg5, CN=ch1_ta3/emailAddress=ch1_ta3
        Validity
            Not Before: Dec  6 03:06:42 2014 GMT
            Not After : Sep  1 03:06:42 2017 GMT
        Subject: C=US, ST=California, L=Santa Clara, O=pkg5, CN=cs1_ch1_ta3/emailAddress=cs1_ch1_ta3
        Subject Public Key Info:
            Public Key Algorithm: rsaEncryption
                Public-Key: (1024 bit)
                Modulus:
                    00:d8:93:91:3f:d8:6f:d2:48:b6:a5:39:56:ec:d5:
                    96:02:82:62:f9:d5:7c:1b:ea:e7:36:81:d4:5e:9e:
                    3c:3e:3a:72:3c:78:94:2d:42:88:9a:1c:07:16:66:
                    fc:81:8a:19:9d:1e:ff:82:ec:6b:a2:f7:8b:95:04:
                    28:f5:41:71:ee:d0:23:36:35:13:34:00:ca:c9:42:
                    60:5f:65:36:6d:e2:b2:cb:4f:cb:b1:83:c1:3f:5c:
                    97:60:f3:d4:4f:2d:5b:35:0a:50:71:9c:19:fa:01:
                    b5:d1:a7:f2:4d:dc:79:a4:26:5e:4e:a4:fc:45:3d:
                    2f:c7:1b:62:99:33:88:b1:ed
                Exponent: 65537 (0x10001)
        X509v3 extensions:
            X509v3 Basic Constraints: critical
                CA:FALSE
            X509v3 Key Usage: critical
                Digital Signature
    Signature Algorithm: sha256WithRSAEncryption
         2b:cb:e0:27:8f:d0:db:db:da:39:9a:11:11:ae:02:dd:e3:29:
         02:be:e9:5e:1c:82:e8:29:8e:16:83:23:3c:b2:4d:d2:58:dd:
         ad:e8:03:6d:7b:e5:93:03:d5:46:93:e0:8e:29:66:2f:fa:cc:
         a3:86:a1:d0:ae:db:48:69:99:d4:87:51:d9:36:5c:9f:8a:2b:
         27:d0:67:05:f9:6a:e2:7a:ad:12:d3:d5:cc:6e:dc:5a:e7:cf:
         67:41:08:ea:78:d5:e9:b5:a0:e8:5d:94:18:2d:05:25:81:73:
         9a:73:7e:3b:c4:76:bd:fa:3c:53:03:7f:00:84:51:06:39:5e:
         96:4f
-----BEGIN CERTIFICATE-----
MIICgDCCAemgAwIBAgIBETANBgkqhkiG9w0BAQsFADBxMQswCQYDVQQGEwJVUzET
MBEGA1UECAwKQ2FsaWZvcm5pYTEUMBIGA1UEBwwLU2FudGEgQ2xhcmExDTALBgNV
BAoMBHBrZzUxEDAOBgNVBAMMB2NoMV90YTMxFjAUBgkqhkiG9w0BCQEWB2NoMV90
YTMwHhcNMTQxMjA2MDMwNjQyWhcNMTcwOTAxMDMwNjQyWjB5MQswCQYDVQQGEwJV
UzETMBEGA1UECAwKQ2FsaWZvcm5pYTEUMBIGA1UEBwwLU2FudGEgQ2xhcmExDTAL
BgNVBAoMBHBrZzUxFDASBgNVBAMMC2NzMV9jaDFfdGEzMRowGAYJKoZIhvcNAQkB
FgtjczFfY2gxX3RhMzCBnzANBgkqhkiG9w0BAQEFAAOBjQAwgYkCgYEA2JORP9hv
0ki2pTlW7NWWAoJi+dV8G+rnNoHUXp48PjpyPHiULUKImhwHFmb8gYoZnR7/guxr
oveLlQQo9UFx7tAjNjUTNADKyUJgX2U2beKyy0/LsYPBP1yXYPPUTy1bNQpQcZwZ
+gG10afyTdx5pCZeTqT8RT0vxxtimTOIse0CAwEAAaMgMB4wDAYDVR0TAQH/BAIw
ADAOBgNVHQ8BAf8EBAMCB4AwDQYJKoZIhvcNAQELBQADgYEAK8vgJ4/Q29vaOZoR
Ea4C3eMpAr7pXhyC6CmOFoMjPLJN0ljdregDbXvlkwPVRpPgjilmL/rMo4ah0K7b
SGmZ1IdR2TZcn4orJ9BnBflq4nqtEtPVzG7cWufPZ0EI6njV6bWg6F2UGC0FJYFz
mnN+O8R2vfo8UwN/AIRRBjlelk8=
-----END CERTIFICATE-----
