Certificate:
    Data:
        Version: 3 (0x2)
        Serial Number: 18 (0x12)
    Signature Algorithm: sha256WithRSAEncryption
        Issuer: C=US, ST=California, L=Santa Clara, O=pkg5, CN=ch1_ta3/emailAddress=ch1_ta3
        Validity
            Not Before: Nov 16 10:58:48 2017 GMT
            Not After : Aug 12 10:58:48 2020 GMT
        Subject: C=US, ST=California, L=Santa Clara, O=pkg5, CN=cs2_ch1_ta3/emailAddress=cs2_ch1_ta3
        Subject Public Key Info:
            Public Key Algorithm: rsaEncryption
                Public-Key: (1024 bit)
                Modulus:
                    00:c1:cf:15:70:07:f5:e6:68:0b:4f:3d:08:13:ce:
                    43:3b:d6:4d:53:8b:27:7a:2d:24:09:62:8f:f3:a8:
                    9d:ca:f9:cb:85:fb:42:43:64:75:31:5e:2d:3d:da:
                    78:7f:62:81:02:d7:d8:bc:f0:70:e4:8c:b9:e0:8a:
                    ea:66:17:20:7f:59:80:d4:2c:73:9a:06:51:22:35:
                    3d:3a:14:d2:79:d0:6a:b9:8a:2b:d7:a5:ce:3d:d9:
                    45:96:1e:b9:35:81:ab:24:1f:b9:70:94:4e:4b:ad:
                    6d:fb:24:f2:3d:14:07:8a:f5:68:77:39:76:22:d7:
                    88:21:7b:e0:91:95:98:ba:3d
                Exponent: 65537 (0x10001)
        X509v3 extensions:
            X509v3 Basic Constraints: critical
                CA:FALSE
            X509v3 Issuer Alternative Name: critical
                <EMPTY>

    Signature Algorithm: sha256WithRSAEncryption
         bb:de:7c:67:67:d1:df:c5:c5:8a:57:1e:2e:eb:7f:02:b1:c0:
         b7:21:fe:69:8a:e1:8e:42:c1:39:ee:3b:b9:b4:ec:81:18:91:
         74:01:ca:a3:af:f4:aa:04:1e:03:6d:4c:e9:a5:20:f5:3e:e3:
         6c:fa:72:54:8c:fc:da:52:44:90:55:9f:dd:91:33:00:bc:26:
         c2:9a:7f:6f:88:55:4e:a0:75:84:32:fc:9e:f4:70:24:aa:8e:
         f3:d0:fd:e3:72:de:d5:3a:f2:83:36:70:9e:be:18:f8:a2:73:
         8a:f4:aa:b4:e4:01:b8:c4:e1:7e:e8:8c:6d:f3:57:6d:30:16:
         66:b0:43:2c:52:05:2c:26:ee:43:27:38:d6:e3:c6:69:66:7f:
         71:2e:59:9e:cc:dd:b6:42:16:31:06:12:2c:ad:0f:53:8c:0f:
         ce:20:fa:ca:b6:f0:7e:bd:58:e3:0f:34:44:ad:31:db:3e:03:
         63:3e:2d:b7:bf:81:9e:93:eb:56:d3:55:6b:4a:50:03:3e:2b:
         ef:cd:0c:05:88:e6:c1:ae:73:94:a7:66:eb:30:f3:bb:33:98:
         a3:a6:e0:36:a7:85:bf:46:88:4e:ea:18:cb:99:e0:8a:4a:7f:
         21:48:9c:bc:f8:46:f1:48:f1:44:ee:6e:07:3e:66:4d:32:b0:
         ca:b4:b1:df
-----BEGIN CERTIFICATE-----
MIIC/zCCAeegAwIBAgIBEjANBgkqhkiG9w0BAQsFADBxMQswCQYDVQQGEwJVUzET
MBEGA1UECAwKQ2FsaWZvcm5pYTEUMBIGA1UEBwwLU2FudGEgQ2xhcmExDTALBgNV
BAoMBHBrZzUxEDAOBgNVBAMMB2NoMV90YTMxFjAUBgkqhkiG9w0BCQEWB2NoMV90
YTMwHhcNMTcxMTE2MTA1ODQ4WhcNMjAwODEyMTA1ODQ4WjB5MQswCQYDVQQGEwJV
UzETMBEGA1UECAwKQ2FsaWZvcm5pYTEUMBIGA1UEBwwLU2FudGEgQ2xhcmExDTAL
BgNVBAoMBHBrZzUxFDASBgNVBAMMC2NzMl9jaDFfdGEzMRowGAYJKoZIhvcNAQkB
FgtjczJfY2gxX3RhMzCBnzANBgkqhkiG9w0BAQEFAAOBjQAwgYkCgYEAwc8VcAf1
5mgLTz0IE85DO9ZNU4snei0kCWKP86idyvnLhftCQ2R1MV4tPdp4f2KBAtfYvPBw
5Iy54IrqZhcgf1mA1CxzmgZRIjU9OhTSedBquYor16XOPdlFlh65NYGrJB+5cJRO
S61t+yTyPRQHivVodzl2IteIIXvgkZWYuj0CAwEAAaMeMBwwDAYDVR0TAQH/BAIw
ADAMBgNVHRIBAf8EAjAAMA0GCSqGSIb3DQEBCwUAA4IBAQC73nxnZ9HfxcWKVx4u
638CscC3If5piuGOQsE57ju5tOyBGJF0Acqjr/SqBB4DbUzppSD1PuNs+nJUjPza
UkSQVZ/dkTMAvCbCmn9viFVOoHWEMvye9HAkqo7z0P3jct7VOvKDNnCevhj4onOK
9Kq05AG4xOF+6Ixt81dtMBZmsEMsUgUsJu5DJzjW48ZpZn9xLlmezN22QhYxBhIs
rQ9TjA/OIPrKtvB+vVjjDzRErTHbPgNjPi23v4Gek+tW01VrSlADPivvzQwFiObB
rnOUp2brMPO7M5ijpuA2p4W/RohO6hjLmeCKSn8hSJy8+EbxSPFE7m4HPmZNMrDK
tLHf
-----END CERTIFICATE-----
