Certificate:
    Data:
        Version: 3 (0x2)
        Serial Number: 18 (0x12)
        Signature Algorithm: sha256WithRSAEncryption
        Issuer: C=US, ST=California, L=Santa Clara, O=pkg5, CN=ch1_ta3/emailAddress=ch1_ta3
        Validity
            Not Before: Dec 15 15:37:21 2022 GMT
            Not After : Sep 10 15:37:21 2025 GMT
        Subject: C=US, ST=California, L=Santa Clara, O=pkg5, CN=cs2_ch1_ta3/emailAddress=cs2_ch1_ta3
        Subject Public Key Info:
            Public Key Algorithm: rsaEncryption
                Public-Key: (2048 bit)
                Modulus:
                    00:9a:6e:a5:d2:6f:8d:21:af:39:da:c7:13:0a:44:
                    d2:f7:79:a4:81:91:97:13:b4:6b:e3:1e:3e:b3:bb:
                    52:25:1b:4b:b6:c9:69:91:73:21:19:9f:5b:10:c0:
                    06:c1:c8:6f:21:6c:42:65:c0:61:b8:ea:ea:84:1b:
                    c1:ee:cd:5d:95:5e:86:07:2c:0b:43:19:54:43:bf:
                    30:8a:08:5b:70:8c:df:1a:c5:07:98:23:3c:e3:84:
                    55:5d:1a:c3:04:5d:7b:fa:bb:40:6a:6a:31:0e:2d:
                    a2:19:ce:33:a4:c0:4e:cd:7c:e3:13:c5:9c:f5:a6:
                    aa:b3:34:58:d7:a2:b6:80:49:bc:86:16:23:b0:5c:
                    87:1d:42:87:b3:8e:dc:9a:43:7f:10:60:48:97:bf:
                    d1:02:e9:86:03:a7:f1:8e:2a:bf:e7:12:07:30:f2:
                    5e:a6:b9:ae:cc:3e:20:b8:14:a3:1d:2b:91:33:81:
                    1d:a0:b2:6c:e3:66:14:2f:ea:2c:92:c1:fb:d5:d5:
                    f1:8a:9a:f0:a9:55:b4:f6:8f:a8:84:e3:fc:51:b2:
                    11:58:68:33:74:b5:10:ee:54:c2:44:be:87:20:a1:
                    38:e5:04:f4:ae:23:63:65:2e:02:2e:3d:1d:10:62:
                    9c:1b:af:c5:1b:2b:27:87:0e:0f:7c:16:3b:b0:4d:
                    49:d9
                Exponent: 65537 (0x10001)
        X509v3 extensions:
            X509v3 Basic Constraints: critical
                CA:FALSE
            X509v3 Issuer Alternative Name: critical
                email:ch1_ta3
            X509v3 Subject Key Identifier: 
                E0:F7:B3:AD:ED:85:3D:41:45:6D:FC:67:4E:A3:56:7F:8D:0B:A5:BD
            X509v3 Authority Key Identifier: 
                33:56:B5:6A:EF:83:5A:96:29:D5:64:57:A8:29:D0:28:D0:1D:D9:53
    Signature Algorithm: sha256WithRSAEncryption
    Signature Value:
        37:1c:19:b9:51:70:5e:ae:1e:43:a3:18:38:b8:c0:0a:9b:5e:
        e2:0c:f5:ec:cd:d5:df:f9:18:1f:47:0d:37:14:d3:da:1c:19:
        40:8a:cf:c8:cb:ba:96:41:94:e9:b4:25:2b:c4:97:65:7e:4b:
        cf:4b:83:5d:62:c1:6d:1b:91:bf:09:52:4d:4e:cc:78:7c:fc:
        86:8d:73:be:df:c1:fb:ac:b9:65:e4:4a:56:ba:21:db:68:5f:
        34:0d:90:c3:99:61:21:fd:05:db:31:51:8e:e2:af:50:87:73:
        ef:49:ee:c3:f8:d8:ef:03:ec:e3:78:27:56:6b:d7:bd:4a:ac:
        f1:15:f8:56:2e:c4:14:de:7e:fa:33:9d:31:1f:7e:ae:e6:3a:
        a7:37:af:8c:a7:e5:f9:a7:09:7b:fa:7e:5b:2e:52:1b:d2:f0:
        d7:7c:43:30:eb:b3:08:7c:a1:a0:82:1b:56:df:ba:49:d0:b7:
        a1:8f:7b:46:ae:7f:e2:5c:b7:dd:a0:eb:52:57:03:89:20:8e:
        5b:21:2b:c3:e1:a6:54:8d:e6:8c:8b:0f:c1:6b:22:0e:48:98:
        3c:cb:cd:f5:6f:56:04:26:9f:03:eb:90:0d:38:60:eb:a9:59:
        ca:25:d6:32:27:79:79:44:20:3c:61:de:b1:50:31:41:11:0c:
        23:0a:ca:82
-----BEGIN CERTIFICATE-----
MIIDzDCCArSgAwIBAgIBEjANBgkqhkiG9w0BAQsFADBxMQswCQYDVQQGEwJVUzET
MBEGA1UECAwKQ2FsaWZvcm5pYTEUMBIGA1UEBwwLU2FudGEgQ2xhcmExDTALBgNV
BAoMBHBrZzUxEDAOBgNVBAMMB2NoMV90YTMxFjAUBgkqhkiG9w0BCQEWB2NoMV90
YTMwHhcNMjIxMjE1MTUzNzIxWhcNMjUwOTEwMTUzNzIxWjB5MQswCQYDVQQGEwJV
UzETMBEGA1UECAwKQ2FsaWZvcm5pYTEUMBIGA1UEBwwLU2FudGEgQ2xhcmExDTAL
BgNVBAoMBHBrZzUxFDASBgNVBAMMC2NzMl9jaDFfdGEzMRowGAYJKoZIhvcNAQkB
FgtjczJfY2gxX3RhMzCCASIwDQYJKoZIhvcNAQEBBQADggEPADCCAQoCggEBAJpu
pdJvjSGvOdrHEwpE0vd5pIGRlxO0a+MePrO7UiUbS7bJaZFzIRmfWxDABsHIbyFs
QmXAYbjq6oQbwe7NXZVehgcsC0MZVEO/MIoIW3CM3xrFB5gjPOOEVV0awwRde/q7
QGpqMQ4tohnOM6TATs184xPFnPWmqrM0WNeitoBJvIYWI7Bchx1Ch7OO3JpDfxBg
SJe/0QLphgOn8Y4qv+cSBzDyXqa5rsw+ILgUox0rkTOBHaCybONmFC/qLJLB+9XV
8Yqa8KlVtPaPqITj/FGyEVhoM3S1EO5UwkS+hyChOOUE9K4jY2UuAi49HRBinBuv
xRsrJ4cOD3wWO7BNSdkCAwEAAaNnMGUwDAYDVR0TAQH/BAIwADAVBgNVHRIBAf8E
CzAJgQdjaDFfdGEzMB0GA1UdDgQWBBTg97Ot7YU9QUVt/GdOo1Z/jQulvTAfBgNV
HSMEGDAWgBQzVrVq74NalinVZFeoKdAo0B3ZUzANBgkqhkiG9w0BAQsFAAOCAQEA
NxwZuVFwXq4eQ6MYOLjACpte4gz17M3V3/kYH0cNNxTT2hwZQIrPyMu6lkGU6bQl
K8SXZX5Lz0uDXWLBbRuRvwlSTU7MeHz8ho1zvt/B+6y5ZeRKVroh22hfNA2Qw5lh
If0F2zFRjuKvUIdz70nuw/jY7wPs43gnVmvXvUqs8RX4Vi7EFN5++jOdMR9+ruY6
pzevjKfl+acJe/p+Wy5SG9Lw13xDMOuzCHyhoIIbVt+6SdC3oY97Rq5/4ly33aDr
UlcDiSCOWyErw+GmVI3mjIsPwWsiDkiYPMvN9W9WBCafA+uQDThg66lZyiXWMid5
eUQgPGHesVAxQREMIwrKgg==
-----END CERTIFICATE-----
