Certificate:
    Data:
        Version: 3 (0x2)
        Serial Number: 18 (0x12)
        Signature Algorithm: sha256WithRSAEncryption
        Issuer: C=US, ST=California, L=Santa Clara, O=pkg5, CN=ch1_ta3/emailAddress=ch1_ta3
        Validity
            Not Before: Nov 17 23:01:30 2020 GMT
            Not After : Aug 14 23:01:30 2023 GMT
        Subject: C=US, ST=California, L=Santa Clara, O=pkg5, CN=cs2_ch1_ta3/emailAddress=cs2_ch1_ta3
        Subject Public Key Info:
            Public Key Algorithm: rsaEncryption
                RSA Public-Key: (1024 bit)
                Modulus:
                    00:a0:5d:48:84:8c:49:61:1d:67:ec:21:1f:09:58:
                    67:a2:88:ee:0c:85:d7:4f:6b:95:d1:0c:26:03:5a:
                    f9:49:b6:01:d2:c9:6c:f5:fb:8b:87:89:54:88:e2:
                    a7:86:6b:85:b9:f8:dc:21:5a:1c:46:27:cb:cd:59:
                    f5:76:ab:a4:60:d7:43:66:bd:7d:5e:de:15:40:9d:
                    60:13:95:9b:61:ab:23:f8:f9:73:84:2f:14:17:56:
                    98:05:ac:43:05:6f:4b:40:2e:94:e1:c5:d8:6f:18:
                    63:10:ee:24:4c:19:04:35:eb:dc:2f:ab:d6:24:5b:
                    09:d8:90:4b:2e:3c:ca:32:a3
                Exponent: 65537 (0x10001)
        X509v3 extensions:
            X509v3 Basic Constraints: critical
                CA:FALSE
            X509v3 Issuer Alternative Name: critical
                email:ch1_ta3
    Signature Algorithm: sha256WithRSAEncryption
         7b:1e:e7:f6:56:74:02:f1:d1:c5:4b:fe:f1:09:f8:b2:a1:e5:
         1d:7f:1c:80:aa:ce:61:58:fb:e3:86:b6:cd:c3:42:b7:fa:fe:
         b2:7a:76:cb:da:41:a3:94:4d:60:f2:b7:78:5f:92:9b:87:b2:
         b3:e0:b5:a3:7f:2e:55:50:ae:8a:aa:40:6d:55:d8:7b:85:f4:
         c9:d2:ad:23:c2:c5:ba:ab:4a:dc:33:de:36:4b:a9:78:92:fc:
         82:94:6e:d3:d8:99:00:07:08:72:3b:1b:8e:bd:20:1f:2d:1f:
         79:62:75:49:01:37:2c:5a:4d:48:0f:93:05:f5:01:05:e7:c6:
         39:11:cd:f8:de:79:9d:5d:49:0e:56:87:87:5d:31:4e:67:bc:
         a8:f5:74:a0:24:bf:f0:96:bf:06:88:3e:40:26:28:20:ae:58:
         1d:4d:4f:25:c9:86:d4:3d:4b:ad:4f:b5:d3:db:8e:07:7c:65:
         d5:69:7c:a4:a0:c0:32:b6:24:60:87:8d:b7:a3:68:f8:e8:0b:
         02:dc:c2:88:70:9d:13:9a:94:70:2a:8a:51:7e:eb:ec:84:f1:
         61:3e:28:bd:31:ab:01:85:fb:35:42:a7:a8:9b:90:c1:39:0f:
         66:9d:aa:f9:0d:b8:36:f1:76:2f:9f:b1:72:67:df:6f:44:36:
         53:75:10:31
-----BEGIN CERTIFICATE-----
MIIDCDCCAfCgAwIBAgIBEjANBgkqhkiG9w0BAQsFADBxMQswCQYDVQQGEwJVUzET
MBEGA1UECAwKQ2FsaWZvcm5pYTEUMBIGA1UEBwwLU2FudGEgQ2xhcmExDTALBgNV
BAoMBHBrZzUxEDAOBgNVBAMMB2NoMV90YTMxFjAUBgkqhkiG9w0BCQEWB2NoMV90
YTMwHhcNMjAxMTE3MjMwMTMwWhcNMjMwODE0MjMwMTMwWjB5MQswCQYDVQQGEwJV
UzETMBEGA1UECAwKQ2FsaWZvcm5pYTEUMBIGA1UEBwwLU2FudGEgQ2xhcmExDTAL
BgNVBAoMBHBrZzUxFDASBgNVBAMMC2NzMl9jaDFfdGEzMRowGAYJKoZIhvcNAQkB
FgtjczJfY2gxX3RhMzCBnzANBgkqhkiG9w0BAQEFAAOBjQAwgYkCgYEAoF1IhIxJ
YR1n7CEfCVhnoojuDIXXT2uV0QwmA1r5SbYB0sls9fuLh4lUiOKnhmuFufjcIVoc
RifLzVn1dqukYNdDZr19Xt4VQJ1gE5WbYasj+PlzhC8UF1aYBaxDBW9LQC6U4cXY
bxhjEO4kTBkENevcL6vWJFsJ2JBLLjzKMqMCAwEAAaMnMCUwDAYDVR0TAQH/BAIw
ADAVBgNVHRIBAf8ECzAJgQdjaDFfdGEzMA0GCSqGSIb3DQEBCwUAA4IBAQB7Huf2
VnQC8dHFS/7xCfiyoeUdfxyAqs5hWPvjhrbNw0K3+v6yenbL2kGjlE1g8rd4X5Kb
h7Kz4LWjfy5VUK6KqkBtVdh7hfTJ0q0jwsW6q0rcM942S6l4kvyClG7T2JkABwhy
OxuOvSAfLR95YnVJATcsWk1ID5MF9QEF58Y5Ec343nmdXUkOVoeHXTFOZ7yo9XSg
JL/wlr8GiD5AJiggrlgdTU8lyYbUPUutT7XT244HfGXVaXykoMAytiRgh423o2j4
6AsC3MKIcJ0TmpRwKopRfuvshPFhPii9MasBhfs1Qqeom5DBOQ9mnar5Dbg28XYv
n7FyZ99vRDZTdRAx
-----END CERTIFICATE-----
