Certificate:
    Data:
        Version: 3 (0x2)
        Serial Number: 18 (0x12)
        Signature Algorithm: sha256WithRSAEncryption
        Issuer: C=US, ST=California, L=Santa Clara, O=pkg5, CN=ch1_ta3/emailAddress=ch1_ta3
        Validity
            Not Before: May 23 15:47:17 2024 GMT
            Not After : Feb 17 15:47:17 2027 GMT
        Subject: C=US, ST=California, L=Santa Clara, O=pkg5, CN=cs2_ch1_ta3/emailAddress=cs2_ch1_ta3
        Subject Public Key Info:
            Public Key Algorithm: rsaEncryption
                Public-Key: (2048 bit)
                Modulus:
                    00:a4:f2:19:0f:64:55:13:23:2b:1c:bb:c4:85:be:
                    8e:4a:ec:ec:ca:1c:cc:83:e2:84:20:3d:69:7c:8a:
                    37:af:e6:c5:f0:50:d1:9c:f7:8b:ff:72:d0:dd:a8:
                    f1:d8:01:30:a4:08:d3:e8:42:54:70:7a:b7:3e:b9:
                    36:b9:15:e9:de:e6:98:19:93:27:a6:7e:42:12:d8:
                    7d:0f:6a:d8:62:b7:15:39:80:44:54:0d:8d:b8:fa:
                    d1:72:c4:fa:bc:37:a7:b1:ba:c4:12:f4:d0:2e:d2:
                    fe:f3:30:3a:4a:36:de:69:a9:aa:3a:35:31:8a:de:
                    04:64:58:5d:5d:7c:b8:99:fb:b5:19:8c:41:76:cc:
                    76:13:8a:4d:d3:f1:96:3d:56:c1:dc:96:ba:12:fc:
                    95:4a:bd:e4:79:50:b4:db:27:b2:63:9e:46:0c:8a:
                    9b:95:a7:c0:1f:b7:d3:83:82:a5:9d:22:de:5b:5c:
                    a9:28:28:db:9c:7f:8a:aa:38:32:1b:28:b9:a1:48:
                    e3:92:f6:58:09:c0:5f:11:87:10:e8:07:30:23:ca:
                    72:09:d8:9a:24:2c:e5:e0:0a:45:09:fe:8b:89:fc:
                    45:6c:66:14:44:ed:b3:c8:3b:a6:02:fd:b3:aa:fb:
                    08:c6:31:58:91:a0:cc:ae:27:ad:48:d0:17:cf:61:
                    5a:db
                Exponent: 65537 (0x10001)
        X509v3 extensions:
            X509v3 Basic Constraints: critical
                CA:FALSE
            X509v3 Issuer Alternative Name: critical
                email:ch1_ta3
            X509v3 Subject Key Identifier: 
                D1:00:BB:4C:71:15:EE:32:2E:8B:25:B0:F7:82:3D:72:88:ED:85:F5
            X509v3 Authority Key Identifier: 
                69:A7:F1:E4:B7:F3:AC:28:7C:E9:9A:78:E3:CC:EF:00:89:C5:A4:C5
    Signature Algorithm: sha256WithRSAEncryption
    Signature Value:
        4e:20:02:e9:52:fd:ca:34:20:c7:74:37:e7:1f:b0:0d:5d:a1:
        db:fb:d0:69:50:54:d4:e0:49:e6:c1:d5:5f:f6:86:45:99:73:
        c6:e9:09:d8:c0:ce:5d:b8:95:c6:66:67:72:1b:8c:ee:fa:33:
        3a:52:80:2c:9d:e3:32:2b:00:76:55:82:0e:09:87:3e:15:ef:
        e3:8a:73:ce:d2:41:af:18:19:c3:a2:7f:09:d8:3f:96:07:c9:
        a6:c1:5f:77:4d:9f:78:a9:12:d5:40:52:02:10:cb:54:e0:1f:
        e4:b6:93:a6:ad:40:bb:a0:9e:23:22:c4:73:d0:b9:21:33:29:
        16:70:ea:48:e5:cc:70:8d:44:37:cd:5d:f0:8f:25:c1:35:e3:
        fa:1a:ae:58:5c:fe:f0:df:57:90:a3:ff:66:eb:2a:f1:81:64:
        3b:7b:a2:b7:76:7a:30:df:cb:ff:11:71:57:85:7e:11:94:00:
        7f:f9:8d:be:e5:4a:6b:03:bc:33:10:a0:e4:77:e1:8c:ee:cd:
        ea:22:52:6a:d9:05:ab:ec:c6:8a:a5:a7:57:d9:65:fd:92:87:
        0a:e0:a4:ce:c6:0d:dd:2e:e1:98:ce:65:6c:74:5c:65:05:15:
        21:5f:7b:f1:75:bd:db:8a:79:4d:9b:7a:4f:07:57:0e:bd:3d:
        d8:93:e5:52
-----BEGIN CERTIFICATE-----
MIIDzDCCArSgAwIBAgIBEjANBgkqhkiG9w0BAQsFADBxMQswCQYDVQQGEwJVUzET
MBEGA1UECAwKQ2FsaWZvcm5pYTEUMBIGA1UEBwwLU2FudGEgQ2xhcmExDTALBgNV
BAoMBHBrZzUxEDAOBgNVBAMMB2NoMV90YTMxFjAUBgkqhkiG9w0BCQEWB2NoMV90
YTMwHhcNMjQwNTIzMTU0NzE3WhcNMjcwMjE3MTU0NzE3WjB5MQswCQYDVQQGEwJV
UzETMBEGA1UECAwKQ2FsaWZvcm5pYTEUMBIGA1UEBwwLU2FudGEgQ2xhcmExDTAL
BgNVBAoMBHBrZzUxFDASBgNVBAMMC2NzMl9jaDFfdGEzMRowGAYJKoZIhvcNAQkB
FgtjczJfY2gxX3RhMzCCASIwDQYJKoZIhvcNAQEBBQADggEPADCCAQoCggEBAKTy
GQ9kVRMjKxy7xIW+jkrs7MoczIPihCA9aXyKN6/mxfBQ0Zz3i/9y0N2o8dgBMKQI
0+hCVHB6tz65NrkV6d7mmBmTJ6Z+QhLYfQ9q2GK3FTmARFQNjbj60XLE+rw3p7G6
xBL00C7S/vMwOko23mmpqjo1MYreBGRYXV18uJn7tRmMQXbMdhOKTdPxlj1WwdyW
uhL8lUq95HlQtNsnsmOeRgyKm5WnwB+304OCpZ0i3ltcqSgo25x/iqo4MhsouaFI
45L2WAnAXxGHEOgHMCPKcgnYmiQs5eAKRQn+i4n8RWxmFETts8g7pgL9s6r7CMYx
WJGgzK4nrUjQF89hWtsCAwEAAaNnMGUwDAYDVR0TAQH/BAIwADAVBgNVHRIBAf8E
CzAJgQdjaDFfdGEzMB0GA1UdDgQWBBTRALtMcRXuMi6LJbD3gj1yiO2F9TAfBgNV
HSMEGDAWgBRpp/Hkt/OsKHzpmnjjzO8AicWkxTANBgkqhkiG9w0BAQsFAAOCAQEA
TiAC6VL9yjQgx3Q35x+wDV2h2/vQaVBU1OBJ5sHVX/aGRZlzxukJ2MDOXbiVxmZn
chuM7vozOlKALJ3jMisAdlWCDgmHPhXv44pzztJBrxgZw6J/Cdg/lgfJpsFfd02f
eKkS1UBSAhDLVOAf5LaTpq1Au6CeIyLEc9C5ITMpFnDqSOXMcI1EN81d8I8lwTXj
+hquWFz+8N9XkKP/Zusq8YFkO3uit3Z6MN/L/xFxV4V+EZQAf/mNvuVKawO8MxCg
5HfhjO7N6iJSatkFq+zGiqWnV9ll/ZKHCuCkzsYN3S7hmM5lbHRcZQUVIV978XW9
24p5TZt6TwdXDr092JPlUg==
-----END CERTIFICATE-----
