Certificate:
    Data:
        Version: 3 (0x2)
        Serial Number: 18 (0x12)
    Signature Algorithm: sha256WithRSAEncryption
        Issuer: C=US, ST=California, L=Santa Clara, O=pkg5, CN=ch1_ta3/emailAddress=ch1_ta3
        Validity
            Not Before: Nov 28 22:50:56 2016 GMT
            Not After : Aug 25 22:50:56 2019 GMT
        Subject: C=US, ST=California, L=Santa Clara, O=pkg5, CN=cs2_ch1_ta3/emailAddress=cs2_ch1_ta3
        Subject Public Key Info:
            Public Key Algorithm: rsaEncryption
                Public-Key: (1024 bit)
                Modulus:
                    00:ca:25:b2:2f:ae:2b:29:fb:76:26:44:8e:ed:7f:
                    6f:10:f5:a0:59:c9:33:70:ef:09:ca:00:12:43:69:
                    ae:07:db:ee:80:db:5f:9c:8d:86:c1:95:61:c9:b8:
                    86:2e:b3:c8:3b:3b:20:d5:83:30:a4:d4:5a:0d:f6:
                    2b:bd:74:7b:14:62:96:04:a3:b3:61:96:c1:d9:43:
                    7e:6b:d3:fa:6d:04:c4:df:61:6d:a3:1d:76:be:ce:
                    16:54:08:66:3c:fe:b8:9f:a9:d5:24:c6:ce:71:65:
                    c6:16:f3:4c:0a:fd:67:44:fc:3b:32:23:9e:98:4a:
                    1e:da:24:e1:46:ed:98:93:21
                Exponent: 65537 (0x10001)
        X509v3 extensions:
            X509v3 Basic Constraints: critical
                CA:FALSE
            X509v3 Issuer Alternative Name: critical
                <EMPTY>

    Signature Algorithm: sha256WithRSAEncryption
         19:a5:b8:41:05:b9:88:05:77:32:30:ac:1c:59:1f:e1:5f:4d:
         14:c5:bc:e9:9e:4c:38:18:75:c6:f7:f5:40:f4:5d:91:6e:d0:
         1d:20:83:93:c7:55:9c:73:da:c9:28:5e:7e:d7:b1:46:4d:6e:
         aa:94:ec:a6:e3:61:75:30:06:f5:18:2f:1e:4b:ab:08:4c:df:
         7b:ec:df:14:fa:c6:bb:47:93:e3:25:d7:43:b2:0f:42:86:eb:
         24:b0:1a:61:7c:c9:8a:43:49:d7:7b:f9:29:b8:05:f6:5e:d9:
         11:46:83:d5:88:85:33:56:13:6f:d8:cb:a9:c5:87:a8:fa:d5:
         15:d2:c0:61:07:ed:a3:14:a4:25:98:86:78:75:53:08:b3:51:
         e6:6e:4f:45:48:54:59:89:91:1e:0f:4c:21:9f:cd:b6:a1:72:
         cc:3a:c5:12:19:b9:1f:1f:83:b5:cc:c2:ed:cf:3a:ef:b0:00:
         1a:6c:36:61:2b:8f:42:f1:2a:5d:23:22:1d:b8:a8:4f:0a:67:
         a8:9a:e3:ca:29:51:4f:6c:66:a5:bc:4c:d4:d8:8a:5d:d3:ac:
         fb:32:77:8e:0d:86:a9:73:af:c1:ad:06:04:29:f2:07:a1:ad:
         7d:e1:80:8b:04:8d:d6:44:bd:7d:51:50:67:9c:94:2b:1d:f9:
         5f:e3:c7:ca
-----BEGIN CERTIFICATE-----
MIIC/zCCAeegAwIBAgIBEjANBgkqhkiG9w0BAQsFADBxMQswCQYDVQQGEwJVUzET
MBEGA1UECAwKQ2FsaWZvcm5pYTEUMBIGA1UEBwwLU2FudGEgQ2xhcmExDTALBgNV
BAoMBHBrZzUxEDAOBgNVBAMMB2NoMV90YTMxFjAUBgkqhkiG9w0BCQEWB2NoMV90
YTMwHhcNMTYxMTI4MjI1MDU2WhcNMTkwODI1MjI1MDU2WjB5MQswCQYDVQQGEwJV
UzETMBEGA1UECAwKQ2FsaWZvcm5pYTEUMBIGA1UEBwwLU2FudGEgQ2xhcmExDTAL
BgNVBAoMBHBrZzUxFDASBgNVBAMMC2NzMl9jaDFfdGEzMRowGAYJKoZIhvcNAQkB
FgtjczJfY2gxX3RhMzCBnzANBgkqhkiG9w0BAQEFAAOBjQAwgYkCgYEAyiWyL64r
Kft2JkSO7X9vEPWgWckzcO8JygASQ2muB9vugNtfnI2GwZVhybiGLrPIOzsg1YMw
pNRaDfYrvXR7FGKWBKOzYZbB2UN+a9P6bQTE32Ftox12vs4WVAhmPP64n6nVJMbO
cWXGFvNMCv1nRPw7MiOemEoe2iThRu2YkyECAwEAAaMeMBwwDAYDVR0TAQH/BAIw
ADAMBgNVHRIBAf8EAjAAMA0GCSqGSIb3DQEBCwUAA4IBAQAZpbhBBbmIBXcyMKwc
WR/hX00Uxbzpnkw4GHXG9/VA9F2RbtAdIIOTx1Wcc9rJKF5+17FGTW6qlOym42F1
MAb1GC8eS6sITN977N8U+sa7R5PjJddDsg9ChusksBphfMmKQ0nXe/kpuAX2XtkR
RoPViIUzVhNv2MupxYeo+tUV0sBhB+2jFKQlmIZ4dVMIs1Hmbk9FSFRZiZEeD0wh
n822oXLMOsUSGbkfH4O1zMLtzzrvsAAabDZhK49C8SpdIyIduKhPCmeomuPKKVFP
bGalvEzU2Ipd06z7MneODYapc6/BrQYEKfIHoa194YCLBI3WRL19UVBnnJQrHflf
48fK
-----END CERTIFICATE-----
