Certificate:
    Data:
        Version: 3 (0x2)
        Serial Number: 18 (0x12)
    Signature Algorithm: sha256WithRSAEncryption
        Issuer: C=US, ST=California, L=Santa Clara, O=pkg5, CN=ch1_ta3/emailAddress=ch1_ta3
        Validity
            Not Before: Dec  6 03:06:43 2014 GMT
            Not After : Sep  1 03:06:43 2017 GMT
        Subject: C=US, ST=California, L=Santa Clara, O=pkg5, CN=cs2_ch1_ta3/emailAddress=cs2_ch1_ta3
        Subject Public Key Info:
            Public Key Algorithm: rsaEncryption
                Public-Key: (1024 bit)
                Modulus:
                    00:ab:76:a1:fb:8a:47:52:31:3e:f6:22:ee:4c:7d:
                    0f:d0:c6:1d:79:0f:93:f5:74:ed:74:43:eb:14:e8:
                    7c:40:be:62:46:80:d0:cb:23:38:87:06:e9:49:cb:
                    61:3d:3d:dd:5b:8b:3c:0a:ba:9c:4b:7e:05:5d:80:
                    7a:0d:ee:c1:56:27:01:ea:5b:a7:75:b8:1c:93:b4:
                    29:99:95:8d:58:ab:39:8a:e0:f1:87:62:a6:e8:44:
                    59:dc:91:ad:3e:14:1f:67:14:0e:61:06:d5:a3:a0:
                    20:2c:46:de:e6:62:cc:55:3f:ee:fb:13:7f:71:53:
                    fa:59:6d:21:c9:d3:50:86:6b
                Exponent: 65537 (0x10001)
        X509v3 extensions:
            X509v3 Basic Constraints: critical
                CA:FALSE
            X509v3 Issuer Alternative Name: critical
                <EMPTY>

    Signature Algorithm: sha256WithRSAEncryption
         07:b0:33:1a:21:3a:21:ea:1e:fd:cb:57:3d:4b:0c:dd:6e:c5:
         dd:d1:07:10:7e:c6:b6:d0:c5:86:8d:f7:e3:89:3f:2a:77:f5:
         02:1f:79:da:89:3b:33:9c:c1:6c:b1:e6:cf:38:47:d8:d5:0e:
         80:2f:b7:6d:64:18:b4:6f:03:b2:7e:cd:8e:03:61:58:0f:18:
         07:e5:b8:82:30:84:06:49:24:55:57:04:b3:d2:e3:5c:c6:95:
         2f:24:e8:7c:94:67:55:e9:6a:98:77:8a:88:73:2c:67:e0:ef:
         f0:2e:09:5f:16:ea:3a:1c:a9:a7:eb:03:00:b2:28:bc:c5:82:
         ef:24
-----BEGIN CERTIFICATE-----
MIICfjCCAeegAwIBAgIBEjANBgkqhkiG9w0BAQsFADBxMQswCQYDVQQGEwJVUzET
MBEGA1UECAwKQ2FsaWZvcm5pYTEUMBIGA1UEBwwLU2FudGEgQ2xhcmExDTALBgNV
BAoMBHBrZzUxEDAOBgNVBAMMB2NoMV90YTMxFjAUBgkqhkiG9w0BCQEWB2NoMV90
YTMwHhcNMTQxMjA2MDMwNjQzWhcNMTcwOTAxMDMwNjQzWjB5MQswCQYDVQQGEwJV
UzETMBEGA1UECAwKQ2FsaWZvcm5pYTEUMBIGA1UEBwwLU2FudGEgQ2xhcmExDTAL
BgNVBAoMBHBrZzUxFDASBgNVBAMMC2NzMl9jaDFfdGEzMRowGAYJKoZIhvcNAQkB
FgtjczJfY2gxX3RhMzCBnzANBgkqhkiG9w0BAQEFAAOBjQAwgYkCgYEAq3ah+4pH
UjE+9iLuTH0P0MYdeQ+T9XTtdEPrFOh8QL5iRoDQyyM4hwbpScthPT3dW4s8Crqc
S34FXYB6De7BVicB6lundbgck7QpmZWNWKs5iuDxh2Km6ERZ3JGtPhQfZxQOYQbV
o6AgLEbe5mLMVT/u+xN/cVP6WW0hydNQhmsCAwEAAaMeMBwwDAYDVR0TAQH/BAIw
ADAMBgNVHRIBAf8EAjAAMA0GCSqGSIb3DQEBCwUAA4GBAAewMxohOiHqHv3LVz1L
DN1uxd3RBxB+xrbQxYaN9+OJPyp39QIfedqJOzOcwWyx5s84R9jVDoAvt21kGLRv
A7J+zY4DYVgPGAfluIIwhAZJJFVXBLPS41zGlS8k6HyUZ1Xpaph3iohzLGfg7/Au
CV8W6jocqafrAwCyKLzFgu8k
-----END CERTIFICATE-----
