Certificate:
    Data:
        Version: 3 (0x2)
        Serial Number: 19 (0x13)
        Signature Algorithm: sha256WithRSAEncryption
        Issuer: C=US, ST=California, L=Santa Clara, O=pkg5, CN=ch1_ta3/emailAddress=ch1_ta3
        Validity
            Not Before: Jan  1 01:01:01 2009 GMT
            Not After : Jan  2 01:01:01 2009 GMT
        Subject: C=US, ST=California, L=Santa Clara, O=pkg5, CN=cs3_ch1_ta3/emailAddress=cs3_ch1_ta3
        Subject Public Key Info:
            Public Key Algorithm: rsaEncryption
                Public-Key: (2048 bit)
                Modulus:
                    00:b7:9c:3b:ed:83:dc:c1:2e:40:25:44:36:ee:bf:
                    6b:3b:41:77:49:fa:d6:29:63:35:69:09:2b:3b:19:
                    25:74:bf:1e:aa:66:ef:17:78:6d:e5:fb:b9:ad:00:
                    c7:f6:28:f7:a2:2a:e3:e4:4f:1e:0e:6b:07:15:db:
                    73:50:dd:ef:d3:d0:90:68:28:d0:ca:95:4a:7e:9a:
                    c8:bb:f3:c6:f8:00:95:c7:c7:66:d1:66:f9:b0:a7:
                    c7:b8:2a:79:21:a3:a5:49:c4:d6:9b:aa:53:2e:f0:
                    a0:2a:e3:6e:fd:7f:48:38:25:ed:85:f4:63:64:7a:
                    ce:c0:a5:7d:df:95:fe:e9:e6:01:b5:ae:b2:0e:1f:
                    a6:e0:a3:24:8e:c3:d9:d6:7b:a8:b2:a8:39:1d:f5:
                    3e:fe:4a:84:dc:d4:96:e4:fa:ec:4d:a4:e3:b0:26:
                    b1:ad:0a:0d:66:70:a5:89:3d:ae:b5:b0:45:65:ec:
                    58:c3:02:25:c4:7a:b7:e5:00:3b:08:c9:df:59:5c:
                    c7:d4:0f:1e:fd:b1:d4:29:5f:5f:a0:7c:9c:bb:86:
                    02:d7:ad:3c:fd:0a:5b:65:0d:b0:54:3b:41:03:80:
                    6f:bb:ce:e2:10:92:20:fa:f7:0a:3f:5c:b4:98:6a:
                    6b:ce:f2:1f:6e:16:23:01:76:de:f5:9c:b5:a4:31:
                    7a:81
                Exponent: 65537 (0x10001)
        X509v3 extensions:
            X509v3 Basic Constraints: critical
                CA:FALSE
            X509v3 Key Usage: critical
                Digital Signature
            X509v3 Subject Key Identifier: 
                56:18:8E:4F:36:45:90:C7:90:FC:82:CF:5D:5D:7F:FA:C4:8E:55:B3
            X509v3 Authority Key Identifier: 
                69:A7:F1:E4:B7:F3:AC:28:7C:E9:9A:78:E3:CC:EF:00:89:C5:A4:C5
    Signature Algorithm: sha256WithRSAEncryption
    Signature Value:
        31:3d:c0:df:1b:f8:8f:23:fd:0d:e1:4b:4b:67:93:53:22:06:
        0f:e9:21:84:14:46:b2:09:b4:76:46:39:c4:ba:55:4e:52:54:
        06:81:c0:fc:60:fb:6d:a1:a5:4a:f1:67:ad:92:39:1c:2a:06:
        19:55:09:e4:9f:e9:14:02:7e:c1:74:21:56:b7:24:5e:50:1f:
        66:e0:5d:a4:c8:92:f2:12:b6:3e:81:14:d8:24:8e:31:88:75:
        39:9b:9d:e0:62:31:c4:d7:ab:e7:84:8b:a3:db:30:5e:f0:ac:
        8d:26:7f:ce:3e:f6:f3:96:fc:84:4f:d7:36:fb:0b:13:39:8c:
        09:7c:42:e2:0a:f0:55:2a:5d:5d:8c:3c:dd:34:ae:ae:21:53:
        79:a8:f2:07:e5:98:e6:bf:38:be:68:46:a7:36:5c:71:3f:a5:
        5b:54:24:bd:97:d9:1d:80:c0:d9:0d:2e:2e:1d:f5:ff:91:69:
        cc:4e:e4:17:c7:82:84:fc:d6:85:49:2b:63:a6:cc:be:4c:81:
        c4:c2:84:00:4a:48:9a:58:b2:33:45:ec:ce:18:5d:f8:a5:22:
        38:2c:be:e7:77:e3:c0:3e:ff:6d:00:bc:da:b6:4e:2e:59:55:
        38:e2:1f:1b:90:75:d4:5b:fb:e7:1a:0c:cc:60:f9:80:18:16:
        b7:a3:52:d8
-----BEGIN CERTIFICATE-----
MIIDxTCCAq2gAwIBAgIBEzANBgkqhkiG9w0BAQsFADBxMQswCQYDVQQGEwJVUzET
MBEGA1UECAwKQ2FsaWZvcm5pYTEUMBIGA1UEBwwLU2FudGEgQ2xhcmExDTALBgNV
BAoMBHBrZzUxEDAOBgNVBAMMB2NoMV90YTMxFjAUBgkqhkiG9w0BCQEWB2NoMV90
YTMwHhcNMDkwMTAxMDEwMTAxWhcNMDkwMTAyMDEwMTAxWjB5MQswCQYDVQQGEwJV
UzETMBEGA1UECAwKQ2FsaWZvcm5pYTEUMBIGA1UEBwwLU2FudGEgQ2xhcmExDTAL
BgNVBAoMBHBrZzUxFDASBgNVBAMMC2NzM19jaDFfdGEzMRowGAYJKoZIhvcNAQkB
FgtjczNfY2gxX3RhMzCCASIwDQYJKoZIhvcNAQEBBQADggEPADCCAQoCggEBALec
O+2D3MEuQCVENu6/aztBd0n61iljNWkJKzsZJXS/Hqpm7xd4beX7ua0Ax/Yo96Iq
4+RPHg5rBxXbc1Dd79PQkGgo0MqVSn6ayLvzxvgAlcfHZtFm+bCnx7gqeSGjpUnE
1puqUy7woCrjbv1/SDgl7YX0Y2R6zsClfd+V/unmAbWusg4fpuCjJI7D2dZ7qLKo
OR31Pv5KhNzUluT67E2k47Amsa0KDWZwpYk9rrWwRWXsWMMCJcR6t+UAOwjJ31lc
x9QPHv2x1ClfX6B8nLuGAtetPP0KW2UNsFQ7QQOAb7vO4hCSIPr3Cj9ctJhqa87y
H24WIwF23vWctaQxeoECAwEAAaNgMF4wDAYDVR0TAQH/BAIwADAOBgNVHQ8BAf8E
BAMCB4AwHQYDVR0OBBYEFFYYjk82RZDHkPyCz11df/rEjlWzMB8GA1UdIwQYMBaA
FGmn8eS386wofOmaeOPM7wCJxaTFMA0GCSqGSIb3DQEBCwUAA4IBAQAxPcDfG/iP
I/0N4UtLZ5NTIgYP6SGEFEayCbR2RjnEulVOUlQGgcD8YPttoaVK8WetkjkcKgYZ
VQnkn+kUAn7BdCFWtyReUB9m4F2kyJLyErY+gRTYJI4xiHU5m53gYjHE16vnhIuj
2zBe8KyNJn/OPvbzlvyET9c2+wsTOYwJfELiCvBVKl1djDzdNK6uIVN5qPIH5Zjm
vzi+aEanNlxxP6VbVCS9l9kdgMDZDS4uHfX/kWnMTuQXx4KE/NaFSStjpsy+TIHE
woQASkiaWLIzRezOGF34pSI4LL7nd+PAPv9tALzatk4uWVU44h8bkHXUW/vnGgzM
YPmAGBa3o1LY
-----END CERTIFICATE-----
