Certificate:
    Data:
        Version: 3 (0x2)
        Serial Number: 19 (0x13)
        Signature Algorithm: sha256WithRSAEncryption
        Issuer: C=US, ST=California, L=Santa Clara, O=pkg5, CN=ch1_ta3/emailAddress=ch1_ta3
        Validity
            Not Before: Jan  1 01:01:01 2009 GMT
            Not After : Jan  2 01:01:01 2009 GMT
        Subject: C=US, ST=California, L=Santa Clara, O=pkg5, CN=cs3_ch1_ta3/emailAddress=cs3_ch1_ta3
        Subject Public Key Info:
            Public Key Algorithm: rsaEncryption
                RSA Public-Key: (1024 bit)
                Modulus:
                    00:af:4e:e6:0f:3f:fa:f0:15:7e:29:3b:b4:f4:da:
                    c7:92:b5:e6:04:0f:0c:5d:50:e8:64:7c:e5:d5:55:
                    65:a0:87:eb:fc:ad:42:54:bc:8e:93:1c:aa:59:27:
                    1d:1b:35:12:0c:0c:09:20:0b:78:23:ed:58:cb:27:
                    a5:ba:3c:04:68:a0:e8:6e:7a:7b:be:0c:d3:fb:40:
                    e0:7d:be:34:ba:0b:b1:e8:2c:4b:75:2a:e6:ca:ac:
                    4d:4d:2f:0d:dc:8f:5a:72:74:f8:a6:f9:7c:77:b4:
                    a7:60:1f:5e:50:75:d2:26:70:2d:39:9c:9d:e5:26:
                    b2:2b:5a:bb:fb:af:c0:0e:25
                Exponent: 65537 (0x10001)
        X509v3 extensions:
            X509v3 Basic Constraints: critical
                CA:FALSE
            X509v3 Key Usage: critical
                Digital Signature
    Signature Algorithm: sha256WithRSAEncryption
         38:25:0e:42:49:b3:05:87:e6:7d:bf:de:60:50:da:cd:dc:30:
         5a:9a:0b:4a:1b:b8:34:df:9a:f6:0d:43:bb:58:f2:87:fb:35:
         8f:ad:5b:f1:f8:6a:86:9c:f4:78:f5:63:00:be:e0:e2:23:54:
         df:86:49:f5:8e:f8:6e:2d:e6:cf:3e:b4:cd:3e:22:b2:9e:42:
         34:2a:cb:5e:d1:9d:23:9b:dd:a7:c5:d1:63:f6:f5:54:03:7d:
         51:d3:66:fd:5c:06:f5:92:e7:03:56:9f:c9:5e:75:7b:6a:89:
         4a:44:ff:92:a2:4a:52:4f:a4:1e:3b:db:b1:13:76:30:de:1a:
         4b:d1:f9:6e:aa:6f:97:4c:86:c0:e2:f9:d6:3e:23:98:98:9e:
         57:c0:15:34:ae:95:2e:fa:08:53:e0:7b:80:93:05:12:d9:10:
         33:42:ac:fd:49:a0:ae:fe:e5:7d:74:55:4a:33:f0:09:84:88:
         86:e5:4e:15:b8:44:b6:e1:e8:d9:cf:66:d4:c1:a6:98:2a:bd:
         8c:04:04:97:e6:7c:7f:2d:00:80:ed:62:46:da:8d:0b:aa:c7:
         0d:44:fc:5c:d7:26:b2:49:b8:45:17:03:30:0b:86:18:7a:eb:
         ba:85:3f:12:1b:54:73:2c:35:4f:5f:63:b4:54:7d:a6:39:1d:
         ac:37:5d:bc
-----BEGIN CERTIFICATE-----
MIIDATCCAemgAwIBAgIBEzANBgkqhkiG9w0BAQsFADBxMQswCQYDVQQGEwJVUzET
MBEGA1UECAwKQ2FsaWZvcm5pYTEUMBIGA1UEBwwLU2FudGEgQ2xhcmExDTALBgNV
BAoMBHBrZzUxEDAOBgNVBAMMB2NoMV90YTMxFjAUBgkqhkiG9w0BCQEWB2NoMV90
YTMwHhcNMDkwMTAxMDEwMTAxWhcNMDkwMTAyMDEwMTAxWjB5MQswCQYDVQQGEwJV
UzETMBEGA1UECAwKQ2FsaWZvcm5pYTEUMBIGA1UEBwwLU2FudGEgQ2xhcmExDTAL
BgNVBAoMBHBrZzUxFDASBgNVBAMMC2NzM19jaDFfdGEzMRowGAYJKoZIhvcNAQkB
FgtjczNfY2gxX3RhMzCBnzANBgkqhkiG9w0BAQEFAAOBjQAwgYkCgYEAr07mDz/6
8BV+KTu09NrHkrXmBA8MXVDoZHzl1VVloIfr/K1CVLyOkxyqWScdGzUSDAwJIAt4
I+1YyyelujwEaKDobnp7vgzT+0Dgfb40ugux6CxLdSrmyqxNTS8N3I9acnT4pvl8
d7SnYB9eUHXSJnAtOZyd5SayK1q7+6/ADiUCAwEAAaMgMB4wDAYDVR0TAQH/BAIw
ADAOBgNVHQ8BAf8EBAMCB4AwDQYJKoZIhvcNAQELBQADggEBADglDkJJswWH5n2/
3mBQ2s3cMFqaC0obuDTfmvYNQ7tY8of7NY+tW/H4aoac9Hj1YwC+4OIjVN+GSfWO
+G4t5s8+tM0+IrKeQjQqy17RnSOb3afF0WP29VQDfVHTZv1cBvWS5wNWn8ledXtq
iUpE/5KiSlJPpB4727ETdjDeGkvR+W6qb5dMhsDi+dY+I5iYnlfAFTSulS76CFPg
e4CTBRLZEDNCrP1JoK7+5X10VUoz8AmEiIblThW4RLbh6NnPZtTBppgqvYwEBJfm
fH8tAIDtYkbajQuqxw1E/FzXJrJJuEUXAzALhhh667qFPxIbVHMsNU9fY7RUfaY5
Haw3Xbw=
-----END CERTIFICATE-----
