Certificate:
    Data:
        Version: 3 (0x2)
        Serial Number: 19 (0x13)
    Signature Algorithm: sha256WithRSAEncryption
        Issuer: C=US, ST=California, L=Santa Clara, O=pkg5, CN=ch1_ta3/emailAddress=ch1_ta3
        Validity
            Not Before: Jan  1 01:01:01 2009 GMT
            Not After : Jan  2 01:01:01 2009 GMT
        Subject: C=US, ST=California, L=Santa Clara, O=pkg5, CN=cs3_ch1_ta3/emailAddress=cs3_ch1_ta3
        Subject Public Key Info:
            Public Key Algorithm: rsaEncryption
                Public-Key: (1024 bit)
                Modulus:
                    00:a4:ca:99:66:20:09:74:c9:62:cc:a4:bf:f0:1d:
                    ad:af:2a:0d:41:72:fd:ca:0d:73:3a:1e:c8:a7:3b:
                    f4:1a:01:aa:23:fd:b7:e5:9c:09:12:cc:c0:b0:b8:
                    56:bc:b6:dd:f1:e7:11:64:b2:63:2e:f1:da:07:a3:
                    da:b3:9b:27:d4:66:d7:70:71:84:d1:13:ab:76:b4:
                    70:25:43:49:f5:61:1b:99:39:ce:5b:a8:91:54:60:
                    36:ba:2f:9c:45:50:ec:b1:f0:d4:56:30:9f:af:5a:
                    88:88:f7:bb:0d:05:a0:92:72:42:a2:a4:bc:d8:2a:
                    e4:11:08:39:0f:45:2f:e9:3b
                Exponent: 65537 (0x10001)
        X509v3 extensions:
            X509v3 Basic Constraints: critical
                CA:FALSE
            X509v3 Key Usage: critical
                Digital Signature
    Signature Algorithm: sha256WithRSAEncryption
         a7:a7:76:b4:95:64:0e:83:40:fc:69:f6:dd:4b:7b:aa:2e:eb:
         08:0e:d9:51:2e:65:be:da:f2:56:f4:4b:02:95:a0:f0:a8:17:
         eb:d7:36:a3:e3:22:3f:b3:6c:17:7a:21:9b:cc:04:b0:de:9d:
         74:a0:7b:35:16:5d:05:c3:5e:b1:c0:b1:c4:ce:30:e1:8c:c8:
         4a:7f:ee:b4:b7:db:2f:c2:c8:cc:7a:67:f1:6e:af:a5:57:06:
         8c:1b:57:36:3d:b2:ef:ed:59:98:20:0d:d3:f9:38:59:f3:e9:
         d7:41:e0:e5:c3:24:70:6d:31:3a:cf:a1:82:49:ba:b0:c6:d9:
         a9:51:33:fb:95:6f:49:64:61:1e:ed:95:6b:55:b9:4e:ec:f8:
         d3:92:ea:bc:f9:11:91:0b:c2:bc:5e:a8:dd:23:0c:91:40:b7:
         4e:4f:3a:cb:d9:21:a7:7d:ad:df:6c:a8:d9:1d:57:61:d4:ce:
         5f:2e:7b:8f:6c:ff:4f:e7:c6:cb:1e:25:69:87:4f:2a:a7:73:
         98:f7:e4:72:f1:5c:0a:5b:2c:9d:47:46:13:61:1a:7d:26:67:
         e4:b2:f0:20:39:a4:bf:1c:93:2d:96:88:f5:d9:08:28:dd:7e:
         a9:c1:6d:3a:0b:6e:70:e0:fa:91:2a:4e:98:b0:12:d5:b3:a9:
         d9:ab:09:d0
-----BEGIN CERTIFICATE-----
MIIDATCCAemgAwIBAgIBEzANBgkqhkiG9w0BAQsFADBxMQswCQYDVQQGEwJVUzET
MBEGA1UECAwKQ2FsaWZvcm5pYTEUMBIGA1UEBwwLU2FudGEgQ2xhcmExDTALBgNV
BAoMBHBrZzUxEDAOBgNVBAMMB2NoMV90YTMxFjAUBgkqhkiG9w0BCQEWB2NoMV90
YTMwHhcNMDkwMTAxMDEwMTAxWhcNMDkwMTAyMDEwMTAxWjB5MQswCQYDVQQGEwJV
UzETMBEGA1UECAwKQ2FsaWZvcm5pYTEUMBIGA1UEBwwLU2FudGEgQ2xhcmExDTAL
BgNVBAoMBHBrZzUxFDASBgNVBAMMC2NzM19jaDFfdGEzMRowGAYJKoZIhvcNAQkB
FgtjczNfY2gxX3RhMzCBnzANBgkqhkiG9w0BAQEFAAOBjQAwgYkCgYEApMqZZiAJ
dMlizKS/8B2tryoNQXL9yg1zOh7Ipzv0GgGqI/235ZwJEszAsLhWvLbd8ecRZLJj
LvHaB6Pas5sn1GbXcHGE0ROrdrRwJUNJ9WEbmTnOW6iRVGA2ui+cRVDssfDUVjCf
r1qIiPe7DQWgknJCoqS82CrkEQg5D0Uv6TsCAwEAAaMgMB4wDAYDVR0TAQH/BAIw
ADAOBgNVHQ8BAf8EBAMCB4AwDQYJKoZIhvcNAQELBQADggEBAKendrSVZA6DQPxp
9t1Le6ou6wgO2VEuZb7a8lb0SwKVoPCoF+vXNqPjIj+zbBd6IZvMBLDenXSgezUW
XQXDXrHAscTOMOGMyEp/7rS32y/CyMx6Z/Fur6VXBowbVzY9su/tWZggDdP5OFnz
6ddB4OXDJHBtMTrPoYJJurDG2alRM/uVb0lkYR7tlWtVuU7s+NOS6rz5EZELwrxe
qN0jDJFAt05POsvZIad9rd9sqNkdV2HUzl8ue49s/0/nxsseJWmHTyqnc5j35HLx
XApbLJ1HRhNhGn0mZ+Sy8CA5pL8cky2WiPXZCCjdfqnBbToLbnDg+pEqTpiwEtWz
qdmrCdA=
-----END CERTIFICATE-----
