Certificate:
    Data:
        Version: 3 (0x2)
        Serial Number: 19 (0x13)
        Signature Algorithm: sha256WithRSAEncryption
        Issuer: C=US, ST=California, L=Santa Clara, O=pkg5, CN=ch1_ta3/emailAddress=ch1_ta3
        Validity
            Not Before: Jan  1 01:01:01 2009 GMT
            Not After : Jan  2 01:01:01 2009 GMT
        Subject: C=US, ST=California, L=Santa Clara, O=pkg5, CN=cs3_ch1_ta3/emailAddress=cs3_ch1_ta3
        Subject Public Key Info:
            Public Key Algorithm: rsaEncryption
                Public-Key: (2048 bit)
                Modulus:
                    00:e2:99:c5:1d:16:3e:58:1f:25:0b:ac:b9:23:24:
                    7e:6c:77:0d:a0:f8:0a:17:88:06:2c:f0:76:8f:9f:
                    e4:d9:e9:08:3a:c9:70:26:0e:46:cf:de:3b:1b:dd:
                    13:30:61:9a:33:aa:fd:78:6a:40:3d:99:bd:9c:8c:
                    fb:95:56:f7:e6:a0:d1:5c:47:16:87:0d:83:0b:f4:
                    62:b4:b0:c7:2f:49:9e:10:17:e1:51:d1:29:15:20:
                    dd:4b:09:a3:13:92:df:85:31:98:fe:c4:a9:ba:e7:
                    ef:d9:47:b9:da:7e:64:59:50:e1:d4:81:71:f7:93:
                    6e:a2:00:a4:34:34:93:f4:25:b1:32:58:1b:12:a6:
                    59:79:57:6e:c6:0f:5f:ca:73:aa:79:d0:91:98:eb:
                    b1:72:9d:4c:15:dd:c7:8b:47:bd:09:64:e2:9e:9c:
                    bb:93:56:ab:d3:ca:e8:09:d0:d0:e0:3b:9c:d1:fc:
                    cf:aa:3d:8d:af:14:e5:39:42:f9:f1:8d:5b:80:ec:
                    af:a2:9b:c1:33:b5:b9:1c:3a:3c:48:59:51:1c:df:
                    50:04:eb:4f:4b:c2:1b:b5:11:99:0f:a5:d2:03:e1:
                    1e:0f:cd:5f:58:ea:2d:b9:ba:11:d7:41:5d:1e:77:
                    a2:af:85:b7:6b:e3:6b:6f:72:63:aa:bd:4a:4a:7e:
                    41:89
                Exponent: 65537 (0x10001)
        X509v3 extensions:
            X509v3 Basic Constraints: critical
                CA:FALSE
            X509v3 Key Usage: critical
                Digital Signature
            X509v3 Subject Key Identifier: 
                E9:37:F6:F4:6E:D3:2F:FE:02:AD:A0:CF:ED:B2:01:AA:7A:DD:6D:64
            X509v3 Authority Key Identifier: 
                AD:BE:5E:36:0D:CA:1F:58:96:99:52:1F:30:4B:F4:16:7A:8D:9E:7F
    Signature Algorithm: sha256WithRSAEncryption
    Signature Value:
        6d:52:23:08:d3:ec:80:42:33:cd:ee:23:81:68:5c:d9:ab:14:
        5d:4a:0c:de:b6:3d:87:25:70:54:a5:dc:e3:be:43:e8:71:4a:
        c7:81:3e:eb:5b:a1:95:fc:af:00:70:48:57:42:e9:71:76:91:
        ed:67:dd:e8:a8:a0:c1:a3:65:43:dd:80:36:9a:28:36:cf:80:
        0e:57:f8:13:cf:28:28:96:15:f4:73:17:9b:a6:5b:08:89:6b:
        5f:d8:82:18:ff:fe:52:59:7d:0d:44:66:5a:84:af:ff:a9:f5:
        a0:bc:60:3d:ab:42:19:14:19:6a:09:b3:15:5b:89:43:11:5c:
        f1:ce:26:a0:29:0e:77:98:ff:4e:96:78:df:c3:ff:5d:9c:06:
        6a:ee:64:43:e9:54:a1:46:21:50:a2:cd:b7:b5:01:c5:66:f4:
        c9:a8:f2:3a:9f:45:e9:c2:7c:79:34:4e:95:9f:56:a0:6f:54:
        ec:01:d0:c4:18:21:a1:e2:cf:69:58:2d:22:df:50:e5:fb:80:
        e4:53:bf:f1:88:e2:b8:ea:ec:b9:2e:11:aa:e1:bb:c9:2b:60:
        38:99:93:a1:31:bc:58:fb:ca:9c:8e:20:72:1f:84:2f:e0:b8:
        83:65:32:31:f5:ac:9f:78:a2:10:e1:8c:3b:e5:a3:a2:f2:7a:
        bb:04:8d:00
-----BEGIN CERTIFICATE-----
MIIDxTCCAq2gAwIBAgIBEzANBgkqhkiG9w0BAQsFADBxMQswCQYDVQQGEwJVUzET
MBEGA1UECAwKQ2FsaWZvcm5pYTEUMBIGA1UEBwwLU2FudGEgQ2xhcmExDTALBgNV
BAoMBHBrZzUxEDAOBgNVBAMMB2NoMV90YTMxFjAUBgkqhkiG9w0BCQEWB2NoMV90
YTMwHhcNMDkwMTAxMDEwMTAxWhcNMDkwMTAyMDEwMTAxWjB5MQswCQYDVQQGEwJV
UzETMBEGA1UECAwKQ2FsaWZvcm5pYTEUMBIGA1UEBwwLU2FudGEgQ2xhcmExDTAL
BgNVBAoMBHBrZzUxFDASBgNVBAMMC2NzM19jaDFfdGEzMRowGAYJKoZIhvcNAQkB
FgtjczNfY2gxX3RhMzCCASIwDQYJKoZIhvcNAQEBBQADggEPADCCAQoCggEBAOKZ
xR0WPlgfJQusuSMkfmx3DaD4CheIBizwdo+f5NnpCDrJcCYORs/eOxvdEzBhmjOq
/XhqQD2ZvZyM+5VW9+ag0VxHFocNgwv0YrSwxy9JnhAX4VHRKRUg3UsJoxOS34Ux
mP7Eqbrn79lHudp+ZFlQ4dSBcfeTbqIApDQ0k/QlsTJYGxKmWXlXbsYPX8pzqnnQ
kZjrsXKdTBXdx4tHvQlk4p6cu5NWq9PK6AnQ0OA7nNH8z6o9ja8U5TlC+fGNW4Ds
r6KbwTO1uRw6PEhZURzfUATrT0vCG7URmQ+l0gPhHg/NX1jqLbm6EddBXR53oq+F
t2vja29yY6q9Skp+QYkCAwEAAaNgMF4wDAYDVR0TAQH/BAIwADAOBgNVHQ8BAf8E
BAMCB4AwHQYDVR0OBBYEFOk39vRu0y/+Aq2gz+2yAap63W1kMB8GA1UdIwQYMBaA
FK2+XjYNyh9YlplSHzBL9BZ6jZ5/MA0GCSqGSIb3DQEBCwUAA4IBAQBtUiMI0+yA
QjPN7iOBaFzZqxRdSgzetj2HJXBUpdzjvkPocUrHgT7rW6GV/K8AcEhXQulxdpHt
Z93oqKDBo2VD3YA2mig2z4AOV/gTzygolhX0cxebplsIiWtf2IIY//5SWX0NRGZa
hK//qfWgvGA9q0IZFBlqCbMVW4lDEVzxziagKQ53mP9Olnjfw/9dnAZq7mRD6VSh
RiFQos23tQHFZvTJqPI6n0Xpwnx5NE6Vn1agb1TsAdDEGCGh4s9pWC0i31Dl+4Dk
U7/xiOK46uy5LhGq4bvJK2A4mZOhMbxY+8qcjiByH4Qv4LiDZTIx9ayfeKIQ4Yw7
5aOi8nq7BI0A
-----END CERTIFICATE-----
