Certificate:
    Data:
        Version: 3 (0x2)
        Serial Number: 19 (0x13)
        Signature Algorithm: sha256WithRSAEncryption
        Issuer: C=US, ST=California, L=Santa Clara, O=pkg5, CN=ch1_ta3/emailAddress=ch1_ta3
        Validity
            Not Before: Jan  1 01:01:01 2009 GMT
            Not After : Jan  2 01:01:01 2009 GMT
        Subject: C=US, ST=California, L=Santa Clara, O=pkg5, CN=cs3_ch1_ta3/emailAddress=cs3_ch1_ta3
        Subject Public Key Info:
            Public Key Algorithm: rsaEncryption
                Public-Key: (2048 bit)
                Modulus:
                    00:af:3d:7e:3c:65:a7:cb:1d:03:7f:45:c6:e8:08:
                    ba:41:c0:5d:3f:17:b3:aa:ae:af:47:b2:39:52:3a:
                    d5:91:be:b2:e5:8e:23:13:1c:bd:26:a7:ea:30:11:
                    36:79:9e:83:de:ce:cc:64:75:f3:31:30:b6:f3:db:
                    22:4b:aa:64:c2:ad:6f:c8:a3:75:97:cd:04:eb:c5:
                    c1:35:1d:b7:56:ae:23:4c:2c:14:64:5c:3b:00:9e:
                    a6:d3:35:c4:f9:42:68:17:17:64:c7:e8:04:17:fb:
                    b6:2c:14:a6:d3:7d:d7:8e:a3:2a:f4:68:02:eb:9f:
                    21:f1:cd:12:5d:41:51:67:52:c9:3f:61:66:3e:b2:
                    e2:73:85:78:97:25:a8:f8:15:45:c6:8a:bc:cc:0b:
                    a9:8d:db:ba:18:9e:1f:df:b4:7d:af:24:be:b7:a6:
                    27:45:12:e2:05:7b:0e:e4:36:a2:d5:b7:eb:6b:29:
                    c1:fd:db:9a:88:bb:fa:0d:f4:27:2a:80:7a:7a:f5:
                    13:9e:9d:f1:66:de:6f:37:7d:95:59:eb:6f:95:69:
                    e9:6d:26:6a:08:cf:80:1b:cb:d5:0f:41:b0:b7:a2:
                    ff:7b:f2:c7:f0:92:af:e2:d6:01:bd:7b:6a:ba:4e:
                    3c:67:c7:2d:bc:f8:ee:62:e9:ec:7d:1b:a8:56:3b:
                    26:e7
                Exponent: 65537 (0x10001)
        X509v3 extensions:
            X509v3 Basic Constraints: critical
                CA:FALSE
            X509v3 Key Usage: critical
                Digital Signature
            X509v3 Subject Key Identifier: 
                A2:09:32:D3:21:47:3E:79:26:3E:B0:FA:12:46:BA:F7:D0:26:37:BA
            X509v3 Authority Key Identifier: 
                EC:04:9D:52:42:13:3C:0B:DA:EF:1D:7E:FD:8C:02:F4:74:FA:24:6D
    Signature Algorithm: sha256WithRSAEncryption
    Signature Value:
        1c:06:07:fd:97:d4:43:0c:21:f5:6b:a3:39:80:54:1a:91:77:
        66:cb:1d:1b:2f:c0:64:81:21:27:d4:ba:92:45:31:d9:f4:97:
        38:5b:4d:bb:85:61:87:1a:86:dc:9d:7e:f7:d8:bf:07:ee:d0:
        b6:37:73:cf:ae:27:2b:1b:4f:bb:0f:32:34:b5:52:ee:5f:3c:
        36:62:7c:93:96:60:f1:89:4f:dd:81:b8:06:36:c9:da:b5:37:
        4d:78:04:14:76:75:9a:6a:4b:c3:ff:7e:c5:b4:e7:4e:16:2f:
        b8:62:78:f1:8f:f0:72:ff:8b:37:cb:92:32:ed:e1:6d:bb:de:
        62:8a:4b:6f:0f:9c:06:57:fe:05:7f:2b:20:a9:51:4f:48:2a:
        1f:a8:a5:1f:6f:ed:4f:d5:f3:6c:71:2d:8e:54:50:47:c6:67:
        e7:2a:7e:a3:b0:97:4c:02:94:69:27:8a:a7:fa:0a:36:05:41:
        26:97:4f:13:2a:33:fe:95:81:09:8a:70:0d:e6:3c:49:e8:bb:
        fc:c4:93:ff:f1:a5:7f:a3:ba:58:03:21:d6:da:4c:e4:e6:4f:
        8f:dd:0b:ba:1b:5f:90:97:6d:d5:5b:56:f3:11:69:99:b4:6f:
        91:87:b5:20:b0:2b:09:9e:0f:65:d3:29:1b:44:1a:a3:1b:e9:
        50:8f:bc:22
-----BEGIN CERTIFICATE-----
MIIDxTCCAq2gAwIBAgIBEzANBgkqhkiG9w0BAQsFADBxMQswCQYDVQQGEwJVUzET
MBEGA1UECAwKQ2FsaWZvcm5pYTEUMBIGA1UEBwwLU2FudGEgQ2xhcmExDTALBgNV
BAoMBHBrZzUxEDAOBgNVBAMMB2NoMV90YTMxFjAUBgkqhkiG9w0BCQEWB2NoMV90
YTMwHhcNMDkwMTAxMDEwMTAxWhcNMDkwMTAyMDEwMTAxWjB5MQswCQYDVQQGEwJV
UzETMBEGA1UECAwKQ2FsaWZvcm5pYTEUMBIGA1UEBwwLU2FudGEgQ2xhcmExDTAL
BgNVBAoMBHBrZzUxFDASBgNVBAMMC2NzM19jaDFfdGEzMRowGAYJKoZIhvcNAQkB
FgtjczNfY2gxX3RhMzCCASIwDQYJKoZIhvcNAQEBBQADggEPADCCAQoCggEBAK89
fjxlp8sdA39FxugIukHAXT8Xs6qur0eyOVI61ZG+suWOIxMcvSan6jARNnmeg97O
zGR18zEwtvPbIkuqZMKtb8ijdZfNBOvFwTUdt1auI0wsFGRcOwCeptM1xPlCaBcX
ZMfoBBf7tiwUptN9146jKvRoAuufIfHNEl1BUWdSyT9hZj6y4nOFeJclqPgVRcaK
vMwLqY3buhieH9+0fa8kvremJ0US4gV7DuQ2otW362spwf3bmoi7+g30JyqAenr1
E56d8Wbebzd9lVnrb5Vp6W0magjPgBvL1Q9BsLei/3vyx/CSr+LWAb17arpOPGfH
Lbz47mLp7H0bqFY7JucCAwEAAaNgMF4wDAYDVR0TAQH/BAIwADAOBgNVHQ8BAf8E
BAMCB4AwHQYDVR0OBBYEFKIJMtMhRz55Jj6w+hJGuvfQJje6MB8GA1UdIwQYMBaA
FOwEnVJCEzwL2u8dfv2MAvR0+iRtMA0GCSqGSIb3DQEBCwUAA4IBAQAcBgf9l9RD
DCH1a6M5gFQakXdmyx0bL8BkgSEn1LqSRTHZ9Jc4W027hWGHGobcnX732L8H7tC2
N3PPricrG0+7DzI0tVLuXzw2YnyTlmDxiU/dgbgGNsnatTdNeAQUdnWaakvD/37F
tOdOFi+4Ynjxj/By/4s3y5Iy7eFtu95iiktvD5wGV/4FfysgqVFPSCofqKUfb+1P
1fNscS2OVFBHxmfnKn6jsJdMApRpJ4qn+go2BUEml08TKjP+lYEJinAN5jxJ6Lv8
xJP/8aV/o7pYAyHW2kzk5k+P3Qu6G1+Ql23VW1bzEWmZtG+Rh7UgsCsJng9l0ykb
RBqjG+lQj7wi
-----END CERTIFICATE-----
