Certificate:
    Data:
        Version: 3 (0x2)
        Serial Number: 19 (0x13)
    Signature Algorithm: sha256WithRSAEncryption
        Issuer: C=US, ST=California, L=Santa Clara, O=pkg5, CN=ch1_ta3/emailAddress=ch1_ta3
        Validity
            Not Before: Jan  1 01:01:01 2009 GMT
            Not After : Jan  2 01:01:01 2009 GMT
        Subject: C=US, ST=California, L=Santa Clara, O=pkg5, CN=cs3_ch1_ta3/emailAddress=cs3_ch1_ta3
        Subject Public Key Info:
            Public Key Algorithm: rsaEncryption
                Public-Key: (1024 bit)
                Modulus:
                    00:f2:c3:5f:ad:7e:2e:36:1a:56:e0:d0:24:c1:d7:
                    98:23:a9:a6:43:3e:04:aa:61:11:f5:63:d3:10:35:
                    9e:a8:dc:55:1c:87:c2:ca:cc:22:44:7a:42:2c:74:
                    91:8f:e0:c5:62:e3:84:e7:c9:5f:c2:f9:8b:08:ba:
                    e1:0b:49:30:16:cf:99:5d:46:72:f1:2f:5e:e6:f6:
                    57:fa:2f:6c:4a:c9:46:f8:73:b8:6f:40:18:70:0a:
                    8a:81:7a:03:e0:80:86:07:6a:fc:ed:c7:bb:f4:ea:
                    70:5b:ec:71:a4:69:e6:22:04:93:62:4b:d6:a6:11:
                    82:d4:9d:5d:fe:e4:5f:4c:4d
                Exponent: 65537 (0x10001)
        X509v3 extensions:
            X509v3 Basic Constraints: critical
                CA:FALSE
            X509v3 Key Usage: critical
                Digital Signature
    Signature Algorithm: sha256WithRSAEncryption
         33:0b:55:57:c5:ec:5f:2e:9b:98:7b:76:02:65:c7:32:fd:fd:
         e9:76:8d:64:6c:c1:40:4a:82:f9:63:7f:f5:75:69:2d:72:e3:
         04:a1:72:eb:c5:53:2e:07:a7:d7:69:38:1e:76:8c:92:dc:78:
         ee:ca:21:0a:4a:01:8b:f3:ff:52:3c:b2:52:33:1e:df:ca:5c:
         fb:65:15:85:9f:c5:56:9a:17:1e:8a:8a:9e:a7:53:3b:98:6e:
         49:80:c4:24:f3:69:11:f1:e5:22:87:e7:b7:4d:70:5b:d6:94:
         0e:88:2c:5d:9d:4e:26:22:2d:80:e2:3b:4f:0b:4e:75:41:b6:
         3c:0b:6f:cc:96:92:6e:61:5c:e1:94:97:c7:36:40:f5:66:5e:
         1e:d4:4f:1e:bb:61:8b:59:5d:3c:a7:6f:a7:c4:af:03:19:33:
         87:ee:0e:b8:7b:c0:80:fb:ce:b1:08:72:62:87:a1:7b:e2:30:
         04:42:f9:e1:d4:65:9b:c1:59:d1:b9:14:c1:50:28:eb:68:30:
         2c:15:67:94:34:a7:47:92:5e:80:67:ba:3f:63:9f:54:53:69:
         c0:ad:d0:15:17:6d:e7:81:41:d1:72:2c:d5:51:d6:4e:f1:77:
         94:f1:a8:15:40:9a:27:93:2a:e7:50:de:5f:cf:65:c9:fd:6e:
         ce:a7:82:49
-----BEGIN CERTIFICATE-----
MIIDATCCAemgAwIBAgIBEzANBgkqhkiG9w0BAQsFADBxMQswCQYDVQQGEwJVUzET
MBEGA1UECAwKQ2FsaWZvcm5pYTEUMBIGA1UEBwwLU2FudGEgQ2xhcmExDTALBgNV
BAoMBHBrZzUxEDAOBgNVBAMMB2NoMV90YTMxFjAUBgkqhkiG9w0BCQEWB2NoMV90
YTMwHhcNMDkwMTAxMDEwMTAxWhcNMDkwMTAyMDEwMTAxWjB5MQswCQYDVQQGEwJV
UzETMBEGA1UECAwKQ2FsaWZvcm5pYTEUMBIGA1UEBwwLU2FudGEgQ2xhcmExDTAL
BgNVBAoMBHBrZzUxFDASBgNVBAMMC2NzM19jaDFfdGEzMRowGAYJKoZIhvcNAQkB
FgtjczNfY2gxX3RhMzCBnzANBgkqhkiG9w0BAQEFAAOBjQAwgYkCgYEA8sNfrX4u
NhpW4NAkwdeYI6mmQz4EqmER9WPTEDWeqNxVHIfCyswiRHpCLHSRj+DFYuOE58lf
wvmLCLrhC0kwFs+ZXUZy8S9e5vZX+i9sSslG+HO4b0AYcAqKgXoD4ICGB2r87ce7
9OpwW+xxpGnmIgSTYkvWphGC1J1d/uRfTE0CAwEAAaMgMB4wDAYDVR0TAQH/BAIw
ADAOBgNVHQ8BAf8EBAMCB4AwDQYJKoZIhvcNAQELBQADggEBADMLVVfF7F8um5h7
dgJlxzL9/el2jWRswUBKgvljf/V1aS1y4wShcuvFUy4Hp9dpOB52jJLceO7KIQpK
AYvz/1I8slIzHt/KXPtlFYWfxVaaFx6Kip6nUzuYbkmAxCTzaRHx5SKH57dNcFvW
lA6ILF2dTiYiLYDiO08LTnVBtjwLb8yWkm5hXOGUl8c2QPVmXh7UTx67YYtZXTyn
b6fErwMZM4fuDrh7wID7zrEIcmKHoXviMARC+eHUZZvBWdG5FMFQKOtoMCwVZ5Q0
p0eSXoBnuj9jn1RTacCt0BUXbeeBQdFyLNVR1k7xd5TxqBVAmieTKudQ3l/PZcn9
bs6ngkk=
-----END CERTIFICATE-----
