Certificate:
    Data:
        Version: 3 (0x2)
        Serial Number: 20 (0x14)
        Signature Algorithm: sha256WithRSAEncryption
        Issuer: C=US, ST=California, L=Santa Clara, O=pkg5, CN=ch1_ta3/emailAddress=ch1_ta3
        Validity
            Not Before: Jan  1 01:01:01 2035 GMT
            Not After : Jan  2 01:01:01 2035 GMT
        Subject: C=US, ST=California, L=Santa Clara, O=pkg5, CN=cs4_ch1_ta3/emailAddress=cs4_ch1_ta3
        Subject Public Key Info:
            Public Key Algorithm: rsaEncryption
                Public-Key: (2048 bit)
                Modulus:
                    00:a8:2b:6c:34:46:3d:1a:de:10:b4:9a:93:d9:45:
                    ba:4f:58:f2:ad:38:2e:62:70:54:20:38:01:ed:80:
                    68:0f:03:2f:50:89:05:d1:43:e8:bb:c3:6b:a4:c7:
                    da:59:b1:b1:18:0c:a1:a6:70:93:67:93:4b:bf:38:
                    c8:7a:df:d5:23:76:da:d7:41:82:a5:31:d9:4f:6a:
                    6d:65:13:45:94:a9:dc:19:9c:62:25:f7:77:5d:53:
                    4b:dc:7a:52:68:b2:ae:55:bb:08:f6:9e:a9:ec:0c:
                    d4:85:c1:cf:4f:11:9c:17:ed:e4:ae:49:0e:cd:a5:
                    77:ac:04:f0:7d:fc:fc:2e:e2:37:88:ca:c5:71:4e:
                    21:83:35:e1:e9:fe:73:44:c6:53:86:58:1e:e5:99:
                    5e:f6:4a:e3:83:27:a9:0e:64:54:ff:c8:02:6f:77:
                    12:65:fc:4e:7c:10:aa:a5:1c:ce:df:8f:31:c0:7c:
                    2a:fd:7d:4e:8f:1f:2b:51:ce:d7:85:6a:5c:77:b9:
                    5b:13:7a:1e:72:73:7c:d1:78:29:ff:ff:2a:82:49:
                    75:87:7a:59:13:94:97:25:66:54:4b:95:65:d0:68:
                    18:b3:11:15:b0:38:4b:dc:ad:3f:9a:76:64:f3:a9:
                    e8:28:0d:14:3e:61:c0:90:8e:fc:4d:36:65:6b:0f:
                    9a:a9
                Exponent: 65537 (0x10001)
        X509v3 extensions:
            X509v3 Basic Constraints: critical
                CA:FALSE
            X509v3 Key Usage: critical
                Digital Signature
            X509v3 Subject Key Identifier: 
                68:13:07:52:B1:64:8E:1B:75:32:2C:40:08:31:66:37:45:12:D8:4C
            X509v3 Authority Key Identifier: 
                AD:BE:5E:36:0D:CA:1F:58:96:99:52:1F:30:4B:F4:16:7A:8D:9E:7F
    Signature Algorithm: sha256WithRSAEncryption
    Signature Value:
        67:ef:53:a0:6e:6d:a3:68:b3:0d:c1:d0:82:5c:03:27:35:d1:
        d7:1e:d3:fc:e3:d5:b1:24:0d:8e:53:26:c9:f5:03:27:ad:e9:
        48:d3:bd:02:e7:d7:1f:3b:85:60:84:bb:95:8c:c4:a6:55:a3:
        60:02:a1:1e:9c:15:16:6b:b4:7f:a1:ec:99:65:20:2e:3e:ec:
        67:4f:2d:9c:01:cf:fe:47:2e:6a:d7:00:86:74:88:35:fe:f3:
        0a:92:18:56:79:d6:61:be:c8:5a:63:66:e6:d7:e3:48:d1:a7:
        31:a9:91:b8:0d:e4:a7:38:da:37:e8:be:cd:58:d6:9e:5e:9c:
        6b:5b:0d:56:2b:dd:1e:53:80:90:8b:01:35:9d:78:24:37:92:
        c9:64:e5:4c:66:d6:d9:26:28:b2:2e:33:17:5f:aa:63:ea:57:
        53:9b:4a:c5:30:27:0f:e3:2b:f7:82:a9:0a:ea:f0:91:a1:93:
        8e:12:50:80:6e:50:e7:10:b9:e7:98:60:fd:c3:19:a9:45:ec:
        7d:7c:aa:ad:f3:cb:e9:48:51:8a:d3:62:a1:23:39:5b:9d:b1:
        1b:87:1e:d0:46:7d:01:69:4b:60:99:49:40:fc:c5:39:02:75:
        21:66:92:2f:2d:83:40:09:8e:5f:df:20:86:e7:e0:87:82:0b:
        90:35:8e:ca
-----BEGIN CERTIFICATE-----
MIIDxTCCAq2gAwIBAgIBFDANBgkqhkiG9w0BAQsFADBxMQswCQYDVQQGEwJVUzET
MBEGA1UECAwKQ2FsaWZvcm5pYTEUMBIGA1UEBwwLU2FudGEgQ2xhcmExDTALBgNV
BAoMBHBrZzUxEDAOBgNVBAMMB2NoMV90YTMxFjAUBgkqhkiG9w0BCQEWB2NoMV90
YTMwHhcNMzUwMTAxMDEwMTAxWhcNMzUwMTAyMDEwMTAxWjB5MQswCQYDVQQGEwJV
UzETMBEGA1UECAwKQ2FsaWZvcm5pYTEUMBIGA1UEBwwLU2FudGEgQ2xhcmExDTAL
BgNVBAoMBHBrZzUxFDASBgNVBAMMC2NzNF9jaDFfdGEzMRowGAYJKoZIhvcNAQkB
FgtjczRfY2gxX3RhMzCCASIwDQYJKoZIhvcNAQEBBQADggEPADCCAQoCggEBAKgr
bDRGPRreELSak9lFuk9Y8q04LmJwVCA4Ae2AaA8DL1CJBdFD6LvDa6TH2lmxsRgM
oaZwk2eTS784yHrf1SN22tdBgqUx2U9qbWUTRZSp3BmcYiX3d11TS9x6UmiyrlW7
CPaeqewM1IXBz08RnBft5K5JDs2ld6wE8H38/C7iN4jKxXFOIYM14en+c0TGU4ZY
HuWZXvZK44MnqQ5kVP/IAm93EmX8TnwQqqUczt+PMcB8Kv19To8fK1HO14VqXHe5
WxN6HnJzfNF4Kf//KoJJdYd6WROUlyVmVEuVZdBoGLMRFbA4S9ytP5p2ZPOp6CgN
FD5hwJCO/E02ZWsPmqkCAwEAAaNgMF4wDAYDVR0TAQH/BAIwADAOBgNVHQ8BAf8E
BAMCB4AwHQYDVR0OBBYEFGgTB1KxZI4bdTIsQAgxZjdFEthMMB8GA1UdIwQYMBaA
FK2+XjYNyh9YlplSHzBL9BZ6jZ5/MA0GCSqGSIb3DQEBCwUAA4IBAQBn71Ogbm2j
aLMNwdCCXAMnNdHXHtP849WxJA2OUybJ9QMnrelI070C59cfO4VghLuVjMSmVaNg
AqEenBUWa7R/oeyZZSAuPuxnTy2cAc/+Ry5q1wCGdIg1/vMKkhhWedZhvshaY2bm
1+NI0acxqZG4DeSnONo36L7NWNaeXpxrWw1WK90eU4CQiwE1nXgkN5LJZOVMZtbZ
JiiyLjMXX6pj6ldTm0rFMCcP4yv3gqkK6vCRoZOOElCAblDnELnnmGD9wxmpRex9
fKqt88vpSFGK02KhIzlbnbEbhx7QRn0BaUtgmUlA/MU5AnUhZpIvLYNACY5f3yCG
5+CHgguQNY7K
-----END CERTIFICATE-----
