Certificate:
    Data:
        Version: 3 (0x2)
        Serial Number: 20 (0x14)
    Signature Algorithm: sha256WithRSAEncryption
        Issuer: C=US, ST=California, L=Santa Clara, O=pkg5, CN=ch1_ta3/emailAddress=ch1_ta3
        Validity
            Not Before: Jan  1 01:01:01 2035 GMT
            Not After : Jan  2 01:01:01 2035 GMT
        Subject: C=US, ST=California, L=Santa Clara, O=pkg5, CN=cs4_ch1_ta3/emailAddress=cs4_ch1_ta3
        Subject Public Key Info:
            Public Key Algorithm: rsaEncryption
                Public-Key: (1024 bit)
                Modulus:
                    00:c5:36:b2:2d:cd:b1:0c:63:2e:f1:43:69:37:41:
                    a7:0d:54:35:a9:38:c1:bf:21:24:6d:07:1a:98:ef:
                    49:cb:67:a3:b6:f3:63:83:46:9a:bd:06:a4:cb:68:
                    7b:1c:6a:17:de:22:81:91:ac:c9:bd:68:49:30:c4:
                    6f:c1:ec:1e:ae:37:91:40:7a:ea:61:d3:9d:95:46:
                    d9:64:e4:bf:87:c5:37:70:16:66:33:ba:bf:cb:29:
                    59:fb:b8:ea:ed:fa:5e:0b:ec:80:29:a8:f6:ee:80:
                    74:65:19:d2:87:d0:af:99:76:95:a1:44:a7:e8:90:
                    42:0a:16:71:7f:68:15:ad:ab
                Exponent: 65537 (0x10001)
        X509v3 extensions:
            X509v3 Basic Constraints: critical
                CA:FALSE
            X509v3 Key Usage: critical
                Digital Signature
    Signature Algorithm: sha256WithRSAEncryption
         6d:58:d9:0f:61:0f:0c:e2:e1:a2:b6:c1:f8:ce:ac:7a:59:45:
         e6:c8:6b:b3:08:02:f9:90:d4:eb:83:56:c2:1a:43:87:71:78:
         f7:1a:9d:30:b1:4c:a4:70:41:cf:96:62:bb:b2:79:5d:45:55:
         32:cc:22:38:f3:33:42:70:c0:02:00:fc:00:c6:cb:4b:e9:63:
         3b:27:7d:d6:7c:37:a8:36:fb:12:4f:8e:97:a1:30:d7:26:3c:
         77:67:1d:d0:8c:73:3d:e9:44:d1:1a:2c:36:39:ee:0b:7d:61:
         ae:5f:4f:90:b4:38:f5:a0:2a:62:9b:43:f0:35:47:42:11:79:
         58:9a:80:bf:97:40:57:f1:22:ef:56:e9:c7:95:da:a1:17:1a:
         dc:ca:51:1e:38:44:be:b5:3c:6c:29:e5:59:fe:98:da:a1:c9:
         ed:27:4f:75:7a:35:a3:ce:27:5e:3c:dc:b0:c3:31:0c:e0:97:
         b0:a0:10:3f:3b:f3:d9:a9:45:68:9d:34:f9:99:97:8f:c0:76:
         0b:82:9a:75:35:7f:63:fa:35:eb:97:5f:88:2c:93:88:11:60:
         21:70:75:71:02:6b:14:e0:d9:bd:2f:29:e4:db:1d:ba:2a:4f:
         f8:7c:e1:6b:22:7e:76:53:34:5d:17:41:4f:a4:41:d3:23:b8:
         84:f6:3a:54
-----BEGIN CERTIFICATE-----
MIIDATCCAemgAwIBAgIBFDANBgkqhkiG9w0BAQsFADBxMQswCQYDVQQGEwJVUzET
MBEGA1UECAwKQ2FsaWZvcm5pYTEUMBIGA1UEBwwLU2FudGEgQ2xhcmExDTALBgNV
BAoMBHBrZzUxEDAOBgNVBAMMB2NoMV90YTMxFjAUBgkqhkiG9w0BCQEWB2NoMV90
YTMwHhcNMzUwMTAxMDEwMTAxWhcNMzUwMTAyMDEwMTAxWjB5MQswCQYDVQQGEwJV
UzETMBEGA1UECAwKQ2FsaWZvcm5pYTEUMBIGA1UEBwwLU2FudGEgQ2xhcmExDTAL
BgNVBAoMBHBrZzUxFDASBgNVBAMMC2NzNF9jaDFfdGEzMRowGAYJKoZIhvcNAQkB
FgtjczRfY2gxX3RhMzCBnzANBgkqhkiG9w0BAQEFAAOBjQAwgYkCgYEAxTayLc2x
DGMu8UNpN0GnDVQ1qTjBvyEkbQcamO9Jy2ejtvNjg0aavQaky2h7HGoX3iKBkazJ
vWhJMMRvwewerjeRQHrqYdOdlUbZZOS/h8U3cBZmM7q/yylZ+7jq7fpeC+yAKaj2
7oB0ZRnSh9CvmXaVoUSn6JBCChZxf2gVrasCAwEAAaMgMB4wDAYDVR0TAQH/BAIw
ADAOBgNVHQ8BAf8EBAMCB4AwDQYJKoZIhvcNAQELBQADggEBAG1Y2Q9hDwzi4aK2
wfjOrHpZRebIa7MIAvmQ1OuDVsIaQ4dxePcanTCxTKRwQc+WYruyeV1FVTLMIjjz
M0JwwAIA/ADGy0vpYzsnfdZ8N6g2+xJPjpehMNcmPHdnHdCMcz3pRNEaLDY57gt9
Ya5fT5C0OPWgKmKbQ/A1R0IReViagL+XQFfxIu9W6ceV2qEXGtzKUR44RL61PGwp
5Vn+mNqhye0nT3V6NaPOJ1483LDDMQzgl7CgED8789mpRWidNPmZl4/AdguCmnU1
f2P6NeuXX4gsk4gRYCFwdXECaxTg2b0vKeTbHboqT/h84WsifnZTNF0XQU+kQdMj
uIT2OlQ=
-----END CERTIFICATE-----
