Certificate:
    Data:
        Version: 3 (0x2)
        Serial Number: 20 (0x14)
        Signature Algorithm: sha256WithRSAEncryption
        Issuer: C=US, ST=California, L=Santa Clara, O=pkg5, CN=ch1_ta3/emailAddress=ch1_ta3
        Validity
            Not Before: Jan  1 01:01:01 2035 GMT
            Not After : Jan  2 01:01:01 2035 GMT
        Subject: C=US, ST=California, L=Santa Clara, O=pkg5, CN=cs4_ch1_ta3/emailAddress=cs4_ch1_ta3
        Subject Public Key Info:
            Public Key Algorithm: rsaEncryption
                RSA Public-Key: (1024 bit)
                Modulus:
                    00:ef:71:aa:29:2c:66:bf:71:ed:05:e2:bc:ea:be:
                    0d:fe:b3:82:f1:33:a0:b8:d0:cf:19:be:26:2c:ff:
                    11:cd:1c:96:f7:de:96:c9:8b:03:47:da:08:7f:55:
                    ae:ae:d0:46:0c:2d:e8:be:a6:58:5a:47:c1:4c:27:
                    f0:ac:26:4c:6a:09:c1:eb:4c:32:df:b4:9d:70:2e:
                    13:ce:e2:25:73:26:6b:1e:21:ed:0a:91:9f:48:d9:
                    74:96:88:6c:29:21:42:bb:5e:d0:20:39:87:64:8d:
                    bd:a1:fc:58:e4:15:c0:49:0e:a9:c2:be:39:b5:eb:
                    dd:45:5d:c1:ae:e4:a2:69:03
                Exponent: 65537 (0x10001)
        X509v3 extensions:
            X509v3 Basic Constraints: critical
                CA:FALSE
            X509v3 Key Usage: critical
                Digital Signature
    Signature Algorithm: sha256WithRSAEncryption
         8c:7b:34:9c:9d:49:f8:b3:a3:a0:18:f9:22:3b:de:5d:d1:3b:
         b4:0a:7b:a3:87:22:01:e6:7e:51:e3:7e:75:15:aa:b6:04:f8:
         a8:94:e4:2e:a8:6d:30:1c:16:82:56:93:78:61:32:11:39:85:
         7d:5f:5e:dc:e7:cc:7f:47:f1:f3:d9:51:97:63:6c:27:e8:fa:
         ba:5c:61:b1:4a:24:98:69:29:0d:c9:5b:ba:6b:21:58:e7:87:
         c7:58:1d:ae:8a:84:85:5f:9d:a3:7d:5b:37:d3:c3:dd:c2:fb:
         e7:85:b6:19:99:f0:c1:19:c2:37:16:30:f9:35:c6:a6:ff:ef:
         39:ad:de:3d:56:93:9c:50:43:d9:58:b9:74:9f:28:6d:3b:01:
         46:c1:5b:3e:9a:25:04:aa:02:71:aa:e0:be:3b:b1:c6:39:3a:
         ef:a3:4f:63:cc:4e:3c:38:4f:38:bb:35:4e:72:3f:74:3c:1a:
         19:9b:3b:23:bc:f6:9e:ff:2e:63:c6:5a:e6:f3:3d:57:5a:30:
         00:06:10:3a:a7:ed:06:c0:87:22:c9:f4:0e:20:af:aa:b5:c7:
         96:66:fc:a0:db:91:ca:85:1c:7b:27:47:7a:54:51:22:47:b3:
         23:08:e0:db:04:ae:d9:b8:a3:5f:36:52:41:53:44:51:36:d9:
         04:b7:d0:09
-----BEGIN CERTIFICATE-----
MIIDATCCAemgAwIBAgIBFDANBgkqhkiG9w0BAQsFADBxMQswCQYDVQQGEwJVUzET
MBEGA1UECAwKQ2FsaWZvcm5pYTEUMBIGA1UEBwwLU2FudGEgQ2xhcmExDTALBgNV
BAoMBHBrZzUxEDAOBgNVBAMMB2NoMV90YTMxFjAUBgkqhkiG9w0BCQEWB2NoMV90
YTMwHhcNMzUwMTAxMDEwMTAxWhcNMzUwMTAyMDEwMTAxWjB5MQswCQYDVQQGEwJV
UzETMBEGA1UECAwKQ2FsaWZvcm5pYTEUMBIGA1UEBwwLU2FudGEgQ2xhcmExDTAL
BgNVBAoMBHBrZzUxFDASBgNVBAMMC2NzNF9jaDFfdGEzMRowGAYJKoZIhvcNAQkB
FgtjczRfY2gxX3RhMzCBnzANBgkqhkiG9w0BAQEFAAOBjQAwgYkCgYEA73GqKSxm
v3HtBeK86r4N/rOC8TOguNDPGb4mLP8RzRyW996WyYsDR9oIf1WurtBGDC3ovqZY
WkfBTCfwrCZMagnB60wy37SdcC4TzuIlcyZrHiHtCpGfSNl0lohsKSFCu17QIDmH
ZI29ofxY5BXASQ6pwr45tevdRV3BruSiaQMCAwEAAaMgMB4wDAYDVR0TAQH/BAIw
ADAOBgNVHQ8BAf8EBAMCB4AwDQYJKoZIhvcNAQELBQADggEBAIx7NJydSfizo6AY
+SI73l3RO7QKe6OHIgHmflHjfnUVqrYE+KiU5C6obTAcFoJWk3hhMhE5hX1fXtzn
zH9H8fPZUZdjbCfo+rpcYbFKJJhpKQ3JW7prIVjnh8dYHa6KhIVfnaN9WzfTw93C
++eFthmZ8MEZwjcWMPk1xqb/7zmt3j1Wk5xQQ9lYuXSfKG07AUbBWz6aJQSqAnGq
4L47scY5Ou+jT2PMTjw4Tzi7NU5yP3Q8GhmbOyO89p7/LmPGWubzPVdaMAAGEDqn
7QbAhyLJ9A4gr6q1x5Zm/KDbkcqFHHsnR3pUUSJHsyMI4NsErtm4o182UkFTRFE2
2QS30Ak=
-----END CERTIFICATE-----
