Certificate:
    Data:
        Version: 3 (0x2)
        Serial Number: 20 (0x14)
        Signature Algorithm: sha256WithRSAEncryption
        Issuer: C=US, ST=California, L=Santa Clara, O=pkg5, CN=ch1_ta3/emailAddress=ch1_ta3
        Validity
            Not Before: Jan  1 01:01:01 2035 GMT
            Not After : Jan  2 01:01:01 2035 GMT
        Subject: C=US, ST=California, L=Santa Clara, O=pkg5, CN=cs4_ch1_ta3/emailAddress=cs4_ch1_ta3
        Subject Public Key Info:
            Public Key Algorithm: rsaEncryption
                Public-Key: (2048 bit)
                Modulus:
                    00:ea:7c:cf:79:24:26:34:eb:24:44:88:cd:3a:6f:
                    d9:e5:59:26:3c:0a:8c:c0:14:7c:4a:68:24:1d:8c:
                    04:81:a2:64:a3:50:ae:94:40:bd:c0:67:28:52:8d:
                    e4:fb:2f:69:ea:72:e0:b6:80:db:1c:8e:59:e5:f9:
                    fa:81:0a:87:21:86:5e:d0:53:1e:c4:2e:4a:40:02:
                    a5:9b:5d:a7:fb:78:b5:39:1a:6f:b7:e5:28:59:ba:
                    59:c4:f7:37:a2:8a:1c:23:70:89:94:ed:fa:08:70:
                    2f:7a:ec:eb:22:93:17:91:b6:bd:2b:41:ae:f1:0e:
                    6e:23:c1:4b:d5:3d:56:2c:4f:64:a1:82:bc:31:f0:
                    12:8e:5f:ee:7c:3e:51:2b:07:3d:62:0f:cb:bc:eb:
                    81:f6:34:41:11:87:de:ac:e6:38:d5:8f:a7:58:7d:
                    80:87:17:fc:1e:66:a3:18:13:49:6d:9b:b9:72:9e:
                    72:02:79:7c:12:f2:cf:1f:38:06:59:9f:b2:b8:24:
                    29:a4:f0:82:9f:4d:1e:a4:24:1e:24:ef:ce:dd:43:
                    6b:b5:3d:cd:eb:3e:fd:a6:8f:06:a8:e3:9b:28:0b:
                    88:73:72:68:66:00:3e:2f:3b:7a:ee:da:d6:5f:cb:
                    1a:19:dd:1e:2e:47:60:dc:6a:69:49:f4:b9:ee:94:
                    91:2f
                Exponent: 65537 (0x10001)
        X509v3 extensions:
            X509v3 Basic Constraints: critical
                CA:FALSE
            X509v3 Key Usage: critical
                Digital Signature
            X509v3 Subject Key Identifier: 
                A9:74:64:3B:74:76:39:B4:CB:B4:E6:92:F2:6C:8A:BF:26:10:4E:94
            X509v3 Authority Key Identifier: 
                33:56:B5:6A:EF:83:5A:96:29:D5:64:57:A8:29:D0:28:D0:1D:D9:53
    Signature Algorithm: sha256WithRSAEncryption
    Signature Value:
        46:24:67:b3:5b:89:81:6f:a1:06:89:95:f8:2d:d3:0d:6b:f4:
        53:12:bb:46:bf:a6:2b:ea:fd:0b:09:a3:ca:af:cf:b2:47:f3:
        9d:82:64:55:3f:b8:9f:1b:6e:76:01:e0:eb:ac:f5:32:ff:56:
        0b:45:18:70:f2:03:69:a3:ae:9c:67:ab:d9:a7:35:b6:e0:e0:
        62:6b:49:f3:ab:7f:0f:e5:50:e5:db:3b:5b:67:db:92:db:fb:
        f5:46:c3:ed:ae:46:28:af:55:95:e1:f4:f8:9b:36:a5:44:7c:
        37:c3:94:9f:c8:6d:b0:fa:f4:0a:ac:87:be:c1:ec:35:68:2e:
        eb:13:0b:0c:3a:83:ac:38:ac:4d:08:77:14:5d:c2:f6:d2:b3:
        0a:28:60:fe:56:26:48:10:f9:5e:eb:fc:c0:49:f7:84:46:f3:
        4f:4a:bc:c4:74:9f:35:b4:fd:75:bc:1b:89:f9:85:a0:d2:ba:
        58:21:3f:50:0a:7f:bb:36:4e:19:a5:3e:11:81:91:68:57:9c:
        31:33:73:7b:25:3c:9d:51:1a:9c:4c:92:48:00:9f:5e:e8:71:
        08:c0:b0:21:4c:3c:d6:b2:9a:e6:bb:fe:76:ac:79:c8:b3:b2:
        c7:df:70:05:e7:26:2a:6d:3d:df:75:e2:75:de:46:f4:d0:93:
        f8:14:f4:27
-----BEGIN CERTIFICATE-----
MIIDxTCCAq2gAwIBAgIBFDANBgkqhkiG9w0BAQsFADBxMQswCQYDVQQGEwJVUzET
MBEGA1UECAwKQ2FsaWZvcm5pYTEUMBIGA1UEBwwLU2FudGEgQ2xhcmExDTALBgNV
BAoMBHBrZzUxEDAOBgNVBAMMB2NoMV90YTMxFjAUBgkqhkiG9w0BCQEWB2NoMV90
YTMwHhcNMzUwMTAxMDEwMTAxWhcNMzUwMTAyMDEwMTAxWjB5MQswCQYDVQQGEwJV
UzETMBEGA1UECAwKQ2FsaWZvcm5pYTEUMBIGA1UEBwwLU2FudGEgQ2xhcmExDTAL
BgNVBAoMBHBrZzUxFDASBgNVBAMMC2NzNF9jaDFfdGEzMRowGAYJKoZIhvcNAQkB
FgtjczRfY2gxX3RhMzCCASIwDQYJKoZIhvcNAQEBBQADggEPADCCAQoCggEBAOp8
z3kkJjTrJESIzTpv2eVZJjwKjMAUfEpoJB2MBIGiZKNQrpRAvcBnKFKN5Psvaepy
4LaA2xyOWeX5+oEKhyGGXtBTHsQuSkACpZtdp/t4tTkab7flKFm6WcT3N6KKHCNw
iZTt+ghwL3rs6yKTF5G2vStBrvEObiPBS9U9VixPZKGCvDHwEo5f7nw+USsHPWIP
y7zrgfY0QRGH3qzmONWPp1h9gIcX/B5moxgTSW2buXKecgJ5fBLyzx84Blmfsrgk
KaTwgp9NHqQkHiTvzt1Da7U9zes+/aaPBqjjmygLiHNyaGYAPi87eu7a1l/LGhnd
Hi5HYNxqaUn0ue6UkS8CAwEAAaNgMF4wDAYDVR0TAQH/BAIwADAOBgNVHQ8BAf8E
BAMCB4AwHQYDVR0OBBYEFKl0ZDt0djm0y7TmkvJsir8mEE6UMB8GA1UdIwQYMBaA
FDNWtWrvg1qWKdVkV6gp0CjQHdlTMA0GCSqGSIb3DQEBCwUAA4IBAQBGJGezW4mB
b6EGiZX4LdMNa/RTErtGv6Yr6v0LCaPKr8+yR/OdgmRVP7ifG252AeDrrPUy/1YL
RRhw8gNpo66cZ6vZpzW24OBia0nzq38P5VDl2ztbZ9uS2/v1RsPtrkYor1WV4fT4
mzalRHw3w5SfyG2w+vQKrIe+wew1aC7rEwsMOoOsOKxNCHcUXcL20rMKKGD+ViZI
EPle6/zASfeERvNPSrzEdJ81tP11vBuJ+YWg0rpYIT9QCn+7Nk4ZpT4RgZFoV5wx
M3N7JTydURqcTJJIAJ9e6HEIwLAhTDzWsprmu/52rHnIs7LH33AF5yYqbT3fdeJ1
3kb00JP4FPQn
-----END CERTIFICATE-----
