Certificate:
    Data:
        Version: 3 (0x2)
        Serial Number: 20 (0x14)
        Signature Algorithm: sha256WithRSAEncryption
        Issuer: C=US, ST=California, L=Santa Clara, O=pkg5, CN=ch1_ta3/emailAddress=ch1_ta3
        Validity
            Not Before: Jan  1 01:01:01 2035 GMT
            Not After : Jan  2 01:01:01 2035 GMT
        Subject: C=US, ST=California, L=Santa Clara, O=pkg5, CN=cs4_ch1_ta3/emailAddress=cs4_ch1_ta3
        Subject Public Key Info:
            Public Key Algorithm: rsaEncryption
                Public-Key: (2048 bit)
                Modulus:
                    00:a2:15:f6:15:54:59:9e:af:dd:f2:66:0e:8e:25:
                    f9:ae:04:ba:9b:12:ec:69:f4:7f:00:d2:b1:d7:02:
                    ee:0b:42:5f:9d:c7:35:ca:3e:88:0b:cd:08:9b:d7:
                    00:53:6a:f3:76:48:e7:e5:af:35:6f:68:fa:c2:3e:
                    65:85:bb:7a:cc:8a:8b:22:46:38:10:b3:cc:de:9a:
                    3d:72:24:c5:9c:6f:5b:d3:9d:bc:6f:48:7d:b1:b8:
                    22:ed:76:ef:26:24:3d:c6:8e:59:bc:73:f0:e1:d9:
                    90:1c:c8:5d:3e:77:1e:30:88:b0:42:74:6d:3b:78:
                    9b:53:29:bd:21:56:da:ef:21:06:24:95:89:ca:d8:
                    56:73:68:a4:bf:df:b5:5e:d6:0c:2e:90:6b:5d:51:
                    91:33:1c:91:bd:d6:38:35:d6:ce:70:01:4f:ae:ca:
                    a6:06:fb:0e:fd:9e:a6:9d:d4:67:4f:65:49:ef:b2:
                    21:7f:2b:7a:e4:e9:ec:31:5e:5a:b5:6f:21:eb:21:
                    56:56:f8:7d:ed:1b:83:04:c9:7b:ec:87:51:e5:2f:
                    de:31:1e:2d:38:a7:cf:bc:d8:df:7a:1f:2f:27:f6:
                    62:ea:74:98:3e:ff:2d:9c:b5:15:17:70:ea:ed:d9:
                    1d:48:50:f0:a0:ec:2b:c2:28:08:5c:2d:95:a3:ed:
                    fc:d3
                Exponent: 65537 (0x10001)
        X509v3 extensions:
            X509v3 Basic Constraints: critical
                CA:FALSE
            X509v3 Key Usage: critical
                Digital Signature
            X509v3 Subject Key Identifier: 
                B9:3F:7B:43:7E:2D:3A:8E:88:04:63:B5:BC:40:44:48:5A:7F:A6:CB
            X509v3 Authority Key Identifier: 
                EC:04:9D:52:42:13:3C:0B:DA:EF:1D:7E:FD:8C:02:F4:74:FA:24:6D
    Signature Algorithm: sha256WithRSAEncryption
    Signature Value:
        02:d5:3f:3a:8a:ff:89:23:e4:d0:05:62:0f:15:c4:99:24:e1:
        2e:04:6b:2e:c0:e9:3b:07:7c:97:d0:f4:2e:ac:fa:51:8c:b2:
        97:3c:d3:0a:be:44:b8:0a:4b:58:04:05:1b:9f:7d:24:d3:0a:
        7b:40:6e:8a:31:3d:42:fd:73:6d:3b:4e:a0:5e:a7:b4:02:32:
        62:7e:69:8e:e2:6b:2c:31:29:bd:74:f3:a7:63:28:da:f9:21:
        eb:59:9f:fd:15:a3:f4:37:3c:d5:7e:85:e6:ea:a3:a6:90:02:
        df:3c:72:0d:7d:79:0d:56:83:74:c2:61:b4:61:3a:07:61:31:
        63:9d:03:04:3e:4e:8b:fa:cb:dd:a6:72:b8:83:6d:e4:4f:02:
        28:09:23:01:ed:2e:e6:f0:33:2d:d0:a3:64:8b:da:f1:ef:d8:
        97:0f:54:a7:83:4f:06:dd:fd:42:1c:0b:f4:18:15:96:43:f4:
        ea:2a:77:f7:72:89:03:55:fc:05:9a:88:b2:9b:25:0b:7a:ce:
        d9:e8:71:27:2e:71:1a:62:b3:a9:57:a9:be:6b:47:63:68:56:
        b9:bd:3a:f6:03:be:7a:f6:88:7d:a4:fa:dd:6f:9e:29:25:ab:
        d3:a4:81:b0:b3:ca:c6:0a:62:00:85:d0:67:95:a4:97:61:cb:
        3e:19:a7:b5
-----BEGIN CERTIFICATE-----
MIIDxTCCAq2gAwIBAgIBFDANBgkqhkiG9w0BAQsFADBxMQswCQYDVQQGEwJVUzET
MBEGA1UECAwKQ2FsaWZvcm5pYTEUMBIGA1UEBwwLU2FudGEgQ2xhcmExDTALBgNV
BAoMBHBrZzUxEDAOBgNVBAMMB2NoMV90YTMxFjAUBgkqhkiG9w0BCQEWB2NoMV90
YTMwHhcNMzUwMTAxMDEwMTAxWhcNMzUwMTAyMDEwMTAxWjB5MQswCQYDVQQGEwJV
UzETMBEGA1UECAwKQ2FsaWZvcm5pYTEUMBIGA1UEBwwLU2FudGEgQ2xhcmExDTAL
BgNVBAoMBHBrZzUxFDASBgNVBAMMC2NzNF9jaDFfdGEzMRowGAYJKoZIhvcNAQkB
FgtjczRfY2gxX3RhMzCCASIwDQYJKoZIhvcNAQEBBQADggEPADCCAQoCggEBAKIV
9hVUWZ6v3fJmDo4l+a4EupsS7Gn0fwDSsdcC7gtCX53HNco+iAvNCJvXAFNq83ZI
5+WvNW9o+sI+ZYW7esyKiyJGOBCzzN6aPXIkxZxvW9OdvG9IfbG4Iu127yYkPcaO
Wbxz8OHZkBzIXT53HjCIsEJ0bTt4m1MpvSFW2u8hBiSVicrYVnNopL/ftV7WDC6Q
a11RkTMckb3WODXWznABT67Kpgb7Dv2epp3UZ09lSe+yIX8reuTp7DFeWrVvIesh
Vlb4fe0bgwTJe+yHUeUv3jEeLTinz7zY33ofLyf2Yup0mD7/LZy1FRdw6u3ZHUhQ
8KDsK8IoCFwtlaPt/NMCAwEAAaNgMF4wDAYDVR0TAQH/BAIwADAOBgNVHQ8BAf8E
BAMCB4AwHQYDVR0OBBYEFLk/e0N+LTqOiARjtbxAREhaf6bLMB8GA1UdIwQYMBaA
FOwEnVJCEzwL2u8dfv2MAvR0+iRtMA0GCSqGSIb3DQEBCwUAA4IBAQAC1T86iv+J
I+TQBWIPFcSZJOEuBGsuwOk7B3yX0PQurPpRjLKXPNMKvkS4CktYBAUbn30k0wp7
QG6KMT1C/XNtO06gXqe0AjJifmmO4mssMSm9dPOnYyja+SHrWZ/9FaP0NzzVfoXm
6qOmkALfPHINfXkNVoN0wmG0YToHYTFjnQMEPk6L+svdpnK4g23kTwIoCSMB7S7m
8DMt0KNki9rx79iXD1Sng08G3f1CHAv0GBWWQ/TqKnf3cokDVfwFmoiymyULes7Z
6HEnLnEaYrOpV6m+a0djaFa5vTr2A7569oh9pPrdb54pJavTpIGws8rGCmIAhdBn
laSXYcs+Gae1
-----END CERTIFICATE-----
