Certificate:
    Data:
        Version: 3 (0x2)
        Serial Number: 21 (0x15)
    Signature Algorithm: sha256WithRSAEncryption
        Issuer: C=US, ST=California, L=Santa Clara, O=pkg5, CN=ch1_ta3/emailAddress=ch1_ta3
        Validity
            Not Before: Mar 20 10:20:53 2018 GMT
            Not After : Dec 14 10:20:53 2020 GMT
        Subject: C=US, ST=California, L=Santa Clara, O=pkg5, CN=cs5_ch1_ta3/emailAddress=cs5_ch1_ta3
        Subject Public Key Info:
            Public Key Algorithm: rsaEncryption
                Public-Key: (1024 bit)
                Modulus:
                    00:da:fa:4d:bc:56:1a:3a:09:cf:44:2d:11:d4:8c:
                    04:09:05:e5:b6:b1:34:0e:b2:69:14:9b:83:e0:18:
                    43:02:fa:a2:48:ad:32:67:e0:02:20:99:c4:25:8c:
                    ba:04:c3:3f:4c:2e:dc:98:cc:bb:a0:bb:5b:16:37:
                    f2:84:e2:1f:d3:d7:31:0e:8e:e9:3d:63:9f:40:26:
                    6f:1b:81:ca:52:f7:e1:32:9f:12:71:a9:3e:c9:cf:
                    22:d0:29:66:98:5d:d0:51:53:07:8b:cf:47:7d:95:
                    cc:94:87:1f:18:2a:1f:79:26:1d:d4:5d:33:06:2e:
                    5b:73:e4:a9:d8:d1:13:53:1f
                Exponent: 65537 (0x10001)
        X509v3 extensions:
            X509v3 Basic Constraints: critical
                CA:FALSE
            X509v3 Key Usage: 
                Key Agreement
    Signature Algorithm: sha256WithRSAEncryption
         4b:86:77:58:bb:10:aa:b8:cc:a4:de:4a:c7:5c:fc:bc:b2:1f:
         3f:c1:5b:8d:46:24:5c:58:26:c1:d2:e2:67:63:12:86:55:31:
         23:96:06:bf:21:37:3c:97:2f:f2:ce:a6:8a:20:c1:1a:ca:2e:
         b0:83:63:47:00:1b:11:79:77:42:77:fc:3e:92:df:39:22:ea:
         39:f8:37:0f:04:a3:38:de:48:8f:30:88:c7:e7:63:e4:57:81:
         f1:88:2e:5a:b3:b3:6d:75:d5:ac:f2:1b:a5:ea:d1:57:b5:29:
         ac:03:15:a7:1b:36:8c:09:67:5d:66:aa:3c:a2:a9:b3:e4:d5:
         fc:cf:d4:b7:7a:a9:7a:75:97:8e:9e:76:3b:f6:7c:17:67:a7:
         42:ba:14:2d:f8:7d:77:9b:d8:0b:e4:f9:4c:19:44:f1:51:20:
         1f:3d:bf:42:f6:b3:6d:7c:4e:ff:36:42:ac:6e:92:36:a6:17:
         97:3c:4c:88:f2:46:56:6e:ed:42:a5:b5:fa:4e:30:c2:33:e1:
         ef:54:ff:70:bf:6c:9a:05:2b:6c:c7:01:f0:08:93:e9:9c:2b:
         fe:3d:bb:16:74:4c:58:87:c3:25:f2:92:59:79:06:6a:fc:54:
         94:43:3d:6a:a3:ea:60:50:a0:a2:9e:59:a0:9b:a1:a1:9f:f4:
         48:0a:20:74
-----BEGIN CERTIFICATE-----
MIIC/jCCAeagAwIBAgIBFTANBgkqhkiG9w0BAQsFADBxMQswCQYDVQQGEwJVUzET
MBEGA1UECAwKQ2FsaWZvcm5pYTEUMBIGA1UEBwwLU2FudGEgQ2xhcmExDTALBgNV
BAoMBHBrZzUxEDAOBgNVBAMMB2NoMV90YTMxFjAUBgkqhkiG9w0BCQEWB2NoMV90
YTMwHhcNMTgwMzIwMTAyMDUzWhcNMjAxMjE0MTAyMDUzWjB5MQswCQYDVQQGEwJV
UzETMBEGA1UECAwKQ2FsaWZvcm5pYTEUMBIGA1UEBwwLU2FudGEgQ2xhcmExDTAL
BgNVBAoMBHBrZzUxFDASBgNVBAMMC2NzNV9jaDFfdGEzMRowGAYJKoZIhvcNAQkB
FgtjczVfY2gxX3RhMzCBnzANBgkqhkiG9w0BAQEFAAOBjQAwgYkCgYEA2vpNvFYa
OgnPRC0R1IwECQXltrE0DrJpFJuD4BhDAvqiSK0yZ+ACIJnEJYy6BMM/TC7cmMy7
oLtbFjfyhOIf09cxDo7pPWOfQCZvG4HKUvfhMp8Scak+yc8i0ClmmF3QUVMHi89H
fZXMlIcfGCofeSYd1F0zBi5bc+Sp2NETUx8CAwEAAaMdMBswDAYDVR0TAQH/BAIw
ADALBgNVHQ8EBAMCAwgwDQYJKoZIhvcNAQELBQADggEBAEuGd1i7EKq4zKTeSsdc
/LyyHz/BW41GJFxYJsHS4mdjEoZVMSOWBr8hNzyXL/LOpoogwRrKLrCDY0cAGxF5
d0J3/D6S3zki6jn4Nw8EozjeSI8wiMfnY+RXgfGILlqzs2111azyG6Xq0Ve1KawD
FacbNowJZ11mqjyiqbPk1fzP1Ld6qXp1l46edjv2fBdnp0K6FC34fXeb2Avk+UwZ
RPFRIB89v0L2s218Tv82QqxukjamF5c8TIjyRlZu7UKltfpOMMIz4e9U/3C/bJoF
K2zHAfAIk+mcK/49uxZ0TFiHwyXykll5Bmr8VJRDPWqj6mBQoKKeWaCboaGf9EgK
IHQ=
-----END CERTIFICATE-----
