Certificate:
    Data:
        Version: 3 (0x2)
        Serial Number: 21 (0x15)
    Signature Algorithm: sha256WithRSAEncryption
        Issuer: C=US, ST=California, L=Santa Clara, O=pkg5, CN=ch1_ta3/emailAddress=ch1_ta3
        Validity
            Not Before: Nov 28 22:50:56 2016 GMT
            Not After : Aug 25 22:50:56 2019 GMT
        Subject: C=US, ST=California, L=Santa Clara, O=pkg5, CN=cs5_ch1_ta3/emailAddress=cs5_ch1_ta3
        Subject Public Key Info:
            Public Key Algorithm: rsaEncryption
                Public-Key: (1024 bit)
                Modulus:
                    00:cc:1e:76:bc:62:49:f4:a8:34:b0:db:cb:32:18:
                    e6:21:5f:eb:b1:c2:33:0b:2c:02:2c:b7:7c:54:5a:
                    6e:7d:93:8a:81:04:8e:f5:92:f0:82:b5:03:1a:80:
                    d0:a7:ec:a9:ce:64:9a:bb:e5:06:6e:d0:39:d5:ca:
                    1b:f6:20:e5:88:b8:17:b4:88:f1:fd:24:8b:c9:ae:
                    5b:ba:96:b9:6e:ed:f4:13:48:8a:08:37:42:21:b8:
                    61:18:3b:5f:65:a3:dd:ff:0f:b7:a9:7f:9a:44:cd:
                    2b:1b:4c:20:e7:bb:b2:13:54:35:df:d5:e9:d9:41:
                    55:29:c0:b7:98:e7:0c:c0:07
                Exponent: 65537 (0x10001)
        X509v3 extensions:
            X509v3 Basic Constraints: critical
                CA:FALSE
            X509v3 Key Usage: 
                Encipher Only
    Signature Algorithm: sha256WithRSAEncryption
         2a:b5:1d:d3:aa:5a:4e:57:5e:71:71:54:98:9f:eb:e2:0d:22:
         ae:cd:51:b5:a3:90:b7:f5:3c:1b:d5:cd:ac:3b:4a:84:0f:57:
         18:0b:79:a5:76:cf:70:60:fb:d2:19:70:2c:92:38:58:1a:53:
         e6:c7:63:81:c9:af:4f:21:e9:23:28:e7:93:27:fa:13:f0:05:
         56:ee:64:cd:c0:80:35:14:6a:75:88:91:0f:38:c0:ff:a8:0d:
         81:cf:35:b2:9a:8d:4f:b1:4e:90:e4:6f:33:dc:38:b7:4f:8f:
         e2:c6:3f:57:83:ff:c9:ef:17:31:84:ef:cc:84:ce:0d:14:c3:
         09:ef:9d:a9:02:e6:91:dd:8b:6a:22:2b:6a:f6:08:09:65:5f:
         24:9a:0f:34:88:40:72:04:92:55:c9:f4:94:bb:df:a1:fc:b5:
         46:ae:60:89:85:60:51:54:bc:dc:c8:20:8d:cc:9c:6a:d2:2b:
         fd:e1:0b:09:f8:a7:0a:0a:ab:88:64:d9:31:d9:b2:28:64:71:
         b5:ca:54:2b:06:d4:cd:b8:06:9e:49:fe:6a:f3:2b:84:cb:b0:
         fe:1b:3b:54:45:63:ae:2b:ee:6e:fa:fa:25:c1:c4:8f:32:10:
         7d:72:ec:bb:6b:fe:27:55:51:15:ae:60:c4:a4:19:ff:03:cb:
         22:c3:8b:2f
-----BEGIN CERTIFICATE-----
MIIC/jCCAeagAwIBAgIBFTANBgkqhkiG9w0BAQsFADBxMQswCQYDVQQGEwJVUzET
MBEGA1UECAwKQ2FsaWZvcm5pYTEUMBIGA1UEBwwLU2FudGEgQ2xhcmExDTALBgNV
BAoMBHBrZzUxEDAOBgNVBAMMB2NoMV90YTMxFjAUBgkqhkiG9w0BCQEWB2NoMV90
YTMwHhcNMTYxMTI4MjI1MDU2WhcNMTkwODI1MjI1MDU2WjB5MQswCQYDVQQGEwJV
UzETMBEGA1UECAwKQ2FsaWZvcm5pYTEUMBIGA1UEBwwLU2FudGEgQ2xhcmExDTAL
BgNVBAoMBHBrZzUxFDASBgNVBAMMC2NzNV9jaDFfdGEzMRowGAYJKoZIhvcNAQkB
FgtjczVfY2gxX3RhMzCBnzANBgkqhkiG9w0BAQEFAAOBjQAwgYkCgYEAzB52vGJJ
9Kg0sNvLMhjmIV/rscIzCywCLLd8VFpufZOKgQSO9ZLwgrUDGoDQp+ypzmSau+UG
btA51cob9iDliLgXtIjx/SSLya5bupa5bu30E0iKCDdCIbhhGDtfZaPd/w+3qX+a
RM0rG0wg57uyE1Q139Xp2UFVKcC3mOcMwAcCAwEAAaMdMBswDAYDVR0TAQH/BAIw
ADALBgNVHQ8EBAMCAAEwDQYJKoZIhvcNAQELBQADggEBACq1HdOqWk5XXnFxVJif
6+INIq7NUbWjkLf1PBvVzaw7SoQPVxgLeaV2z3Bg+9IZcCySOFgaU+bHY4HJr08h
6SMo55Mn+hPwBVbuZM3AgDUUanWIkQ84wP+oDYHPNbKajU+xTpDkbzPcOLdPj+LG
P1eD/8nvFzGE78yEzg0UwwnvnakC5pHdi2oiK2r2CAllXySaDzSIQHIEklXJ9JS7
36H8tUauYImFYFFUvNzIII3MnGrSK/3hCwn4pwoKq4hk2THZsihkcbXKVCsG1M24
Bp5J/mrzK4TLsP4bO1RFY64r7m76+iXBxI8yEH1y7Ltr/idVURWuYMSkGf8DyyLD
iy8=
-----END CERTIFICATE-----
