Certificate:
    Data:
        Version: 3 (0x2)
        Serial Number: 21 (0x15)
        Signature Algorithm: sha256WithRSAEncryption
        Issuer: C=US, ST=California, L=Santa Clara, O=pkg5, CN=ch1_ta3/emailAddress=ch1_ta3
        Validity
            Not Before: Nov 17 23:01:30 2020 GMT
            Not After : Aug 14 23:01:30 2023 GMT
        Subject: C=US, ST=California, L=Santa Clara, O=pkg5, CN=cs5_ch1_ta3/emailAddress=cs5_ch1_ta3
        Subject Public Key Info:
            Public Key Algorithm: rsaEncryption
                RSA Public-Key: (1024 bit)
                Modulus:
                    00:c6:a2:4e:f4:89:a3:f6:84:c3:28:c5:98:01:25:
                    7c:a5:5e:91:12:7e:f9:5c:02:f4:5a:c9:d9:0d:fc:
                    da:70:8b:5b:5e:79:3d:c4:b5:ae:c1:31:f5:1f:0c:
                    66:3e:b3:2f:d5:2e:53:f3:bb:38:d9:08:45:e7:70:
                    2d:e3:54:6f:0c:88:89:04:ff:5f:68:cb:bd:45:7a:
                    9c:59:f1:e8:f9:ce:a9:fb:4e:c8:e7:4b:fc:55:de:
                    df:7b:c5:ae:4b:ab:1a:ee:a5:62:5a:0f:06:49:68:
                    a2:52:e1:42:b7:cf:1c:34:f5:43:8b:cd:ed:7a:c8:
                    dd:0a:08:36:70:eb:42:1c:ff
                Exponent: 65537 (0x10001)
        X509v3 extensions:
            X509v3 Basic Constraints: critical
                CA:FALSE
            X509v3 Key Usage: 
                Key Agreement
    Signature Algorithm: sha256WithRSAEncryption
         0c:47:0f:99:d6:97:e0:dd:56:f5:f4:e0:42:37:c2:1f:f5:e2:
         b9:6e:07:0f:29:a1:d1:53:14:b2:7d:f9:b1:49:94:f5:c3:f3:
         35:e2:02:cf:b7:c4:a1:a0:5f:b8:9b:16:d5:80:f4:9c:a4:3f:
         93:b7:4c:3c:a2:b8:95:4e:6b:38:f4:84:78:d7:c2:98:cc:6f:
         44:25:64:ce:30:be:70:6a:df:d4:18:ab:c3:71:a9:3a:6d:c2:
         99:0b:aa:4a:cd:e8:01:85:e7:6b:26:fe:b1:c1:02:4e:b1:ef:
         1a:92:50:3c:79:60:53:e9:58:95:c4:1a:ed:79:7d:70:71:70:
         b1:b4:ef:ba:67:b6:a8:83:56:75:da:a3:da:60:25:95:cb:dc:
         59:ee:a8:3c:77:45:78:23:83:70:a8:1a:ab:88:8a:8a:93:cb:
         05:11:88:c8:47:86:9a:2a:73:43:7e:38:4a:73:9d:60:26:fe:
         83:15:a2:98:0a:92:58:2e:fb:70:e4:f3:dd:80:9a:d5:fe:46:
         80:99:87:d4:94:b9:78:5b:da:7b:14:31:50:27:95:bd:83:48:
         5e:27:6c:50:8c:5a:1e:77:8b:56:aa:a1:1f:0d:c9:0b:44:d1:
         f3:bd:d7:74:5c:83:11:89:60:8d:27:a0:2e:7c:ce:a3:74:a2:
         6d:5c:10:48
-----BEGIN CERTIFICATE-----
MIIC/jCCAeagAwIBAgIBFTANBgkqhkiG9w0BAQsFADBxMQswCQYDVQQGEwJVUzET
MBEGA1UECAwKQ2FsaWZvcm5pYTEUMBIGA1UEBwwLU2FudGEgQ2xhcmExDTALBgNV
BAoMBHBrZzUxEDAOBgNVBAMMB2NoMV90YTMxFjAUBgkqhkiG9w0BCQEWB2NoMV90
YTMwHhcNMjAxMTE3MjMwMTMwWhcNMjMwODE0MjMwMTMwWjB5MQswCQYDVQQGEwJV
UzETMBEGA1UECAwKQ2FsaWZvcm5pYTEUMBIGA1UEBwwLU2FudGEgQ2xhcmExDTAL
BgNVBAoMBHBrZzUxFDASBgNVBAMMC2NzNV9jaDFfdGEzMRowGAYJKoZIhvcNAQkB
FgtjczVfY2gxX3RhMzCBnzANBgkqhkiG9w0BAQEFAAOBjQAwgYkCgYEAxqJO9Imj
9oTDKMWYASV8pV6REn75XAL0WsnZDfzacItbXnk9xLWuwTH1HwxmPrMv1S5T87s4
2QhF53At41RvDIiJBP9faMu9RXqcWfHo+c6p+07I50v8Vd7fe8WuS6sa7qViWg8G
SWiiUuFCt88cNPVDi83tesjdCgg2cOtCHP8CAwEAAaMdMBswDAYDVR0TAQH/BAIw
ADALBgNVHQ8EBAMCAwgwDQYJKoZIhvcNAQELBQADggEBAAxHD5nWl+DdVvX04EI3
wh/14rluBw8podFTFLJ9+bFJlPXD8zXiAs+3xKGgX7ibFtWA9JykP5O3TDyiuJVO
azj0hHjXwpjMb0QlZM4wvnBq39QYq8NxqTptwpkLqkrN6AGF52sm/rHBAk6x7xqS
UDx5YFPpWJXEGu15fXBxcLG077pntqiDVnXao9pgJZXL3FnuqDx3RXgjg3CoGquI
ioqTywURiMhHhpoqc0N+OEpznWAm/oMVopgKklgu+3Dk892AmtX+RoCZh9SUuXhb
2nsUMVAnlb2DSF4nbFCMWh53i1aqoR8NyQtE0fO913RcgxGJYI0noC58zqN0om1c
EEg=
-----END CERTIFICATE-----
