Certificate:
    Data:
        Version: 3 (0x2)
        Serial Number: 21 (0x15)
        Signature Algorithm: sha256WithRSAEncryption
        Issuer: C=US, ST=California, L=Santa Clara, O=pkg5, CN=ch1_ta3/emailAddress=ch1_ta3
        Validity
            Not Before: Nov 14 14:26:54 2024 GMT
            Not After : Aug 11 14:26:54 2027 GMT
        Subject: C=US, ST=California, L=Santa Clara, O=pkg5, CN=cs5_ch1_ta3/emailAddress=cs5_ch1_ta3
        Subject Public Key Info:
            Public Key Algorithm: rsaEncryption
                Public-Key: (2048 bit)
                Modulus:
                    00:ed:e1:91:a9:fe:e6:ba:19:13:98:be:57:f9:e2:
                    95:23:78:a0:f8:f3:54:0b:3f:2a:89:ea:a2:65:ab:
                    20:ee:e7:4d:95:f0:99:50:a8:b4:3f:3b:c9:b0:73:
                    f2:24:31:5f:05:6f:3f:3f:4d:5b:88:4f:18:1c:e8:
                    26:82:00:0f:3d:9b:9a:33:55:6a:39:3c:6e:1e:a4:
                    d8:e8:4d:6d:51:17:a6:ae:a9:f2:70:a1:69:95:2c:
                    85:83:d2:3c:1e:a4:12:9c:ca:62:6b:55:30:75:f4:
                    be:4b:5d:e2:52:fd:69:d6:e3:24:bb:1e:2d:c6:79:
                    85:da:9e:ac:da:e5:f9:52:c9:be:c7:99:9b:e8:91:
                    ea:ca:5d:00:fe:f7:02:84:ff:26:b6:15:8e:e5:cb:
                    2c:d1:06:93:26:b8:80:5b:c4:8e:1b:e7:31:b6:01:
                    ca:5a:1b:65:70:77:ca:d8:4d:3f:c8:49:16:32:d9:
                    a6:7b:3a:e3:c2:26:b4:81:ae:67:c3:7c:54:68:d7:
                    a5:60:c9:bd:ae:6e:61:f7:4f:a1:c5:98:8c:d6:5a:
                    8d:a6:2b:86:1f:10:21:d1:98:8f:68:3f:36:02:fc:
                    8d:d1:6a:4f:c7:a2:8a:f6:1a:93:e9:37:03:a4:6d:
                    3d:c5:af:5a:f8:b3:0d:86:06:6c:a3:74:b2:8c:07:
                    bf:d1
                Exponent: 65537 (0x10001)
        X509v3 extensions:
            X509v3 Basic Constraints: critical
                CA:FALSE
            X509v3 Key Usage: 
                Key Agreement
            X509v3 Subject Key Identifier: 
                18:A6:EE:B0:2C:6A:A0:3F:5A:49:4E:C8:87:3F:70:F3:D4:75:B6:4B
            X509v3 Authority Key Identifier: 
                AD:BE:5E:36:0D:CA:1F:58:96:99:52:1F:30:4B:F4:16:7A:8D:9E:7F
    Signature Algorithm: sha256WithRSAEncryption
    Signature Value:
        39:20:37:17:ac:db:7d:a2:c4:1a:f6:14:79:94:00:92:bc:f1:
        75:8a:19:0b:f7:0b:84:92:95:66:ff:39:c2:f9:d4:c4:f2:bb:
        5f:33:c1:7d:e0:09:b4:19:f3:fc:92:04:1a:fe:1c:8c:35:58:
        d7:65:26:64:84:3c:49:a2:7b:38:b3:f7:8a:68:5a:fc:12:cf:
        58:cd:9f:4d:dd:5c:ea:cf:35:cd:2e:b0:0d:32:d1:24:7e:96:
        dd:27:73:2b:a0:b9:08:a0:86:4a:70:d8:2a:29:1a:4e:b6:5e:
        6c:0f:17:87:f3:4e:49:cf:25:23:27:27:7b:fd:f6:d7:4b:d5:
        af:c1:c5:e3:22:eb:04:c9:77:5e:90:3b:cb:c1:93:68:61:47:
        6a:ba:1d:ad:48:53:d4:7d:48:70:d2:35:54:33:74:6b:9f:f3:
        22:90:ff:21:07:a0:62:0f:ce:27:26:1e:4f:c9:c8:75:76:70:
        d7:84:36:ca:0c:f2:ee:c5:d9:f0:e6:31:90:02:87:89:f4:4d:
        2e:46:c0:89:23:30:24:18:32:78:1f:a6:f3:44:60:67:2f:05:
        90:95:fb:fa:bd:0c:4d:df:29:7f:39:48:01:31:52:2c:b8:31:
        0d:8e:e2:c1:08:b0:01:f8:57:d7:d1:a7:4d:23:26:83:1c:71:
        86:bf:af:02
-----BEGIN CERTIFICATE-----
MIIDwjCCAqqgAwIBAgIBFTANBgkqhkiG9w0BAQsFADBxMQswCQYDVQQGEwJVUzET
MBEGA1UECAwKQ2FsaWZvcm5pYTEUMBIGA1UEBwwLU2FudGEgQ2xhcmExDTALBgNV
BAoMBHBrZzUxEDAOBgNVBAMMB2NoMV90YTMxFjAUBgkqhkiG9w0BCQEWB2NoMV90
YTMwHhcNMjQxMTE0MTQyNjU0WhcNMjcwODExMTQyNjU0WjB5MQswCQYDVQQGEwJV
UzETMBEGA1UECAwKQ2FsaWZvcm5pYTEUMBIGA1UEBwwLU2FudGEgQ2xhcmExDTAL
BgNVBAoMBHBrZzUxFDASBgNVBAMMC2NzNV9jaDFfdGEzMRowGAYJKoZIhvcNAQkB
FgtjczVfY2gxX3RhMzCCASIwDQYJKoZIhvcNAQEBBQADggEPADCCAQoCggEBAO3h
kan+5roZE5i+V/nilSN4oPjzVAs/KonqomWrIO7nTZXwmVCotD87ybBz8iQxXwVv
Pz9NW4hPGBzoJoIADz2bmjNVajk8bh6k2OhNbVEXpq6p8nChaZUshYPSPB6kEpzK
YmtVMHX0vktd4lL9adbjJLseLcZ5hdqerNrl+VLJvseZm+iR6spdAP73AoT/JrYV
juXLLNEGkya4gFvEjhvnMbYBylobZXB3ythNP8hJFjLZpns648ImtIGuZ8N8VGjX
pWDJva5uYfdPocWYjNZajaYrhh8QIdGYj2g/NgL8jdFqT8eiivYak+k3A6RtPcWv
WvizDYYGbKN0sowHv9ECAwEAAaNdMFswDAYDVR0TAQH/BAIwADALBgNVHQ8EBAMC
AwgwHQYDVR0OBBYEFBim7rAsaqA/WklOyIc/cPPUdbZLMB8GA1UdIwQYMBaAFK2+
XjYNyh9YlplSHzBL9BZ6jZ5/MA0GCSqGSIb3DQEBCwUAA4IBAQA5IDcXrNt9osQa
9hR5lACSvPF1ihkL9wuEkpVm/znC+dTE8rtfM8F94Am0GfP8kgQa/hyMNVjXZSZk
hDxJons4s/eKaFr8Es9YzZ9N3VzqzzXNLrANMtEkfpbdJ3MroLkIoIZKcNgqKRpO
tl5sDxeH805JzyUjJyd7/fbXS9WvwcXjIusEyXdekDvLwZNoYUdquh2tSFPUfUhw
0jVUM3Rrn/MikP8hB6BiD84nJh5Pych1dnDXhDbKDPLuxdnw5jGQAoeJ9E0uRsCJ
IzAkGDJ4H6bzRGBnLwWQlfv6vQxN3yl/OUgBMVIsuDENjuLBCLAB+FfX0adNIyaD
HHGGv68C
-----END CERTIFICATE-----
