Certificate:
    Data:
        Version: 3 (0x2)
        Serial Number: 22 (0x16)
        Signature Algorithm: sha256WithRSAEncryption
        Issuer: C=US, ST=California, L=Santa Clara, O=pkg5, CN=ch1_ta3/emailAddress=ch1_ta3
        Validity
            Not Before: Oct 22 10:15:13 2021 GMT
            Not After : Jul 18 10:15:13 2024 GMT
        Subject: C=US, ST=California, L=Santa Clara, O=pkg5, CN=cs6_ch1_ta3/emailAddress=cs6_ch1_ta3
        Subject Public Key Info:
            Public Key Algorithm: rsaEncryption
                Public-Key: (2048 bit)
                Modulus:
                    00:8d:4e:dc:89:ae:9a:32:70:04:d4:4d:e8:3f:b4:
                    ec:c7:d3:d3:a1:6f:d6:77:34:6d:4e:20:0d:5e:0f:
                    31:d6:10:bd:2b:d2:56:2f:36:15:b0:98:6d:9c:c8:
                    83:2f:50:15:e0:62:3f:c7:dc:f6:db:f2:ab:74:78:
                    7f:7c:6d:30:95:20:92:56:bb:11:34:ce:af:2e:45:
                    69:5d:1b:ad:34:61:a0:56:63:9b:d6:50:7e:e2:2a:
                    e5:97:d7:03:14:d2:31:75:7d:40:47:94:1a:20:1f:
                    8d:c7:06:09:9f:b0:6b:69:25:ee:0c:86:99:a3:a3:
                    36:68:ec:8d:4f:7d:a7:c8:a1:e2:bd:04:93:30:6a:
                    51:78:4c:26:91:f0:1e:90:fb:3c:eb:96:4a:1c:fd:
                    5e:3a:3b:6b:f0:2a:15:95:f8:84:42:1e:cd:00:55:
                    44:47:11:5d:d1:4f:4c:81:3c:a8:8b:c9:d8:b2:9c:
                    e8:9f:78:7b:cb:9f:97:f1:65:57:8c:f4:b9:63:77:
                    b6:7e:00:df:35:01:88:22:80:26:76:31:06:4a:35:
                    d8:ae:52:b1:c6:6c:a5:eb:c2:0a:01:bc:f0:a5:d9:
                    fb:b1:9f:05:85:5f:7a:df:75:ae:7e:c4:24:d3:9d:
                    92:63:a4:3c:53:21:44:88:cc:85:a4:5c:e6:a2:56:
                    8c:f1
                Exponent: 65537 (0x10001)
        X509v3 extensions:
            X509v3 Basic Constraints: critical
                CA:FALSE
            X509v3 Key Usage: critical
                Key Agreement, Encipher Only
            X509v3 Subject Key Identifier: 
                00:32:DC:79:6B:3D:8F:E9:AC:22:06:10:41:40:D4:D6:33:04:CA:E8
            X509v3 Authority Key Identifier: 
                D5:A6:1E:11:8A:90:CB:66:0F:10:66:77:01:DD:3A:8F:14:F0:85:C0
    Signature Algorithm: sha256WithRSAEncryption
    Signature Value:
        4e:8b:7f:9d:4e:3c:e5:57:0d:72:4d:d5:78:0a:90:d8:77:9f:
        ff:9f:cd:91:9e:02:2d:a7:14:d1:e0:42:8b:80:9d:98:15:a6:
        22:5d:3e:2c:ac:41:eb:50:c4:ca:d9:3e:e0:a6:e2:9f:5c:a8:
        88:ca:c9:84:8e:b9:fd:62:1e:27:75:0d:94:00:00:16:d4:90:
        4f:31:76:0d:c5:d6:ab:a8:a5:6c:66:06:ab:f2:28:48:95:fe:
        3a:b6:25:2f:b6:de:66:f3:94:97:06:22:14:e6:7e:42:b1:9f:
        aa:d9:6f:3a:89:59:5f:18:d1:f2:83:b1:6b:6c:50:cd:85:b5:
        e1:3b:3a:ce:01:b5:78:9d:fd:af:0d:c9:1e:04:6d:27:c7:c8:
        26:f7:5e:18:87:0e:27:f7:c7:31:e0:36:0a:1a:fd:ef:1e:9b:
        01:1c:af:24:90:be:17:94:ca:1d:78:fd:3d:59:c8:12:a3:b1:
        c8:1a:a1:05:5b:65:a6:b2:57:2c:22:51:1e:eb:7f:2d:e1:b4:
        8a:99:d4:b2:b4:e3:dd:7c:8f:eb:5f:4b:ad:6f:df:75:5b:24:
        ad:52:7b:19:16:4d:e8:69:2c:fc:fb:06:f1:33:df:a2:16:b8:
        e4:a5:a1:df:3c:1f:c7:a3:32:bc:5d:25:19:c6:e2:46:e7:21:
        17:1b:07:88
-----BEGIN CERTIFICATE-----
MIIDxTCCAq2gAwIBAgIBFjANBgkqhkiG9w0BAQsFADBxMQswCQYDVQQGEwJVUzET
MBEGA1UECAwKQ2FsaWZvcm5pYTEUMBIGA1UEBwwLU2FudGEgQ2xhcmExDTALBgNV
BAoMBHBrZzUxEDAOBgNVBAMMB2NoMV90YTMxFjAUBgkqhkiG9w0BCQEWB2NoMV90
YTMwHhcNMjExMDIyMTAxNTEzWhcNMjQwNzE4MTAxNTEzWjB5MQswCQYDVQQGEwJV
UzETMBEGA1UECAwKQ2FsaWZvcm5pYTEUMBIGA1UEBwwLU2FudGEgQ2xhcmExDTAL
BgNVBAoMBHBrZzUxFDASBgNVBAMMC2NzNl9jaDFfdGEzMRowGAYJKoZIhvcNAQkB
FgtjczZfY2gxX3RhMzCCASIwDQYJKoZIhvcNAQEBBQADggEPADCCAQoCggEBAI1O
3ImumjJwBNRN6D+07MfT06Fv1nc0bU4gDV4PMdYQvSvSVi82FbCYbZzIgy9QFeBi
P8fc9tvyq3R4f3xtMJUgkla7ETTOry5FaV0brTRhoFZjm9ZQfuIq5ZfXAxTSMXV9
QEeUGiAfjccGCZ+wa2kl7gyGmaOjNmjsjU99p8ih4r0EkzBqUXhMJpHwHpD7POuW
Shz9Xjo7a/AqFZX4hEIezQBVREcRXdFPTIE8qIvJ2LKc6J94e8ufl/FlV4z0uWN3
tn4A3zUBiCKAJnYxBko12K5SscZspevCCgG88KXZ+7GfBYVfet91rn7EJNOdkmOk
PFMhRIjMhaRc5qJWjPECAwEAAaNgMF4wDAYDVR0TAQH/BAIwADAOBgNVHQ8BAf8E
BAMCAAkwHQYDVR0OBBYEFAAy3HlrPY/prCIGEEFA1NYzBMroMB8GA1UdIwQYMBaA
FNWmHhGKkMtmDxBmdwHdOo8U8IXAMA0GCSqGSIb3DQEBCwUAA4IBAQBOi3+dTjzl
Vw1yTdV4CpDYd5//n82RngItpxTR4EKLgJ2YFaYiXT4srEHrUMTK2T7gpuKfXKiI
ysmEjrn9Yh4ndQ2UAAAW1JBPMXYNxdarqKVsZgar8ihIlf46tiUvtt5m85SXBiIU
5n5CsZ+q2W86iVlfGNHyg7FrbFDNhbXhOzrOAbV4nf2vDckeBG0nx8gm914Yhw4n
98cx4DYKGv3vHpsBHK8kkL4XlModeP09WcgSo7HIGqEFW2WmslcsIlEe638t4bSK
mdSytOPdfI/rX0utb991WyStUnsZFk3oaSz8+wbxM9+iFrjkpaHfPB/HozK8XSUZ
xuJG5yEXGweI
-----END CERTIFICATE-----
