Certificate:
    Data:
        Version: 3 (0x2)
        Serial Number: 22 (0x16)
    Signature Algorithm: sha256WithRSAEncryption
        Issuer: C=US, ST=California, L=Santa Clara, O=pkg5, CN=ch1_ta3/emailAddress=ch1_ta3
        Validity
            Not Before: Nov 28 22:50:56 2016 GMT
            Not After : Aug 25 22:50:56 2019 GMT
        Subject: C=US, ST=California, L=Santa Clara, O=pkg5, CN=cs6_ch1_ta3/emailAddress=cs6_ch1_ta3
        Subject Public Key Info:
            Public Key Algorithm: rsaEncryption
                Public-Key: (1024 bit)
                Modulus:
                    00:c0:a3:70:fe:96:dd:04:f7:0b:e3:fb:91:8e:6a:
                    b5:63:50:fb:5e:0a:6b:9d:51:48:d7:ed:de:c7:d5:
                    b4:2b:0e:53:af:c6:0a:28:bc:0e:af:a3:8c:d2:44:
                    0f:b8:3b:82:3f:23:79:78:8a:6b:da:81:7d:25:7b:
                    95:9a:01:03:6a:5b:c7:fb:ba:5a:e6:f2:6a:24:db:
                    30:0c:55:b6:a5:c0:fc:7e:eb:2b:38:fc:1f:b4:48:
                    62:21:f1:21:a8:80:10:a6:72:5d:0c:17:e1:c5:00:
                    74:0e:e6:08:fd:4d:80:6d:2d:59:1c:36:e0:0d:86:
                    12:bd:d9:64:39:7a:4b:bc:25
                Exponent: 65537 (0x10001)
        X509v3 extensions:
            X509v3 Basic Constraints: critical
                CA:FALSE
            X509v3 Key Usage: critical
                Encipher Only
    Signature Algorithm: sha256WithRSAEncryption
         94:9c:16:5c:9b:61:f0:c0:e6:34:85:22:ae:ca:18:08:dc:10:
         4f:8a:f2:6e:e9:0a:eb:d4:33:ec:e3:a6:d7:10:af:47:33:1b:
         7e:8d:5d:a5:83:25:f1:0f:9f:97:f2:3f:29:9c:f6:1b:b0:84:
         0c:da:62:ef:10:4d:a2:b1:ae:54:9c:f1:bc:e0:10:d7:0c:1d:
         35:d6:7c:7d:1e:d6:cd:6b:bb:cc:75:b6:2a:48:24:a1:c8:65:
         48:c8:06:ec:4e:ae:cc:79:3d:24:84:a4:30:ea:8e:b2:e9:cb:
         46:d2:7e:f8:70:f8:bd:19:a5:94:51:22:b7:22:1b:27:17:f8:
         d1:cf:5e:70:9f:6d:80:03:9e:d2:29:9c:23:ce:7c:82:6a:5b:
         90:c6:e0:a9:7f:7d:e6:21:41:9e:43:21:5d:d6:cc:65:96:a0:
         83:8d:56:0c:7c:ac:d2:86:69:15:43:16:06:3c:af:73:ab:5a:
         e5:1c:6e:cd:2b:d6:ff:1d:d1:c0:48:47:74:32:ed:64:cb:ce:
         6f:e3:be:42:d3:c2:0a:48:d3:47:3a:d9:76:43:92:f2:db:96:
         22:78:26:bd:e9:f9:a8:a7:0f:bf:6e:78:28:06:03:93:fb:2a:
         4b:83:2c:c7:39:d5:b8:07:18:90:0a:e4:3c:a8:de:86:ac:d2:
         aa:3d:71:43
-----BEGIN CERTIFICATE-----
MIIDATCCAemgAwIBAgIBFjANBgkqhkiG9w0BAQsFADBxMQswCQYDVQQGEwJVUzET
MBEGA1UECAwKQ2FsaWZvcm5pYTEUMBIGA1UEBwwLU2FudGEgQ2xhcmExDTALBgNV
BAoMBHBrZzUxEDAOBgNVBAMMB2NoMV90YTMxFjAUBgkqhkiG9w0BCQEWB2NoMV90
YTMwHhcNMTYxMTI4MjI1MDU2WhcNMTkwODI1MjI1MDU2WjB5MQswCQYDVQQGEwJV
UzETMBEGA1UECAwKQ2FsaWZvcm5pYTEUMBIGA1UEBwwLU2FudGEgQ2xhcmExDTAL
BgNVBAoMBHBrZzUxFDASBgNVBAMMC2NzNl9jaDFfdGEzMRowGAYJKoZIhvcNAQkB
FgtjczZfY2gxX3RhMzCBnzANBgkqhkiG9w0BAQEFAAOBjQAwgYkCgYEAwKNw/pbd
BPcL4/uRjmq1Y1D7XgprnVFI1+3ex9W0Kw5Tr8YKKLwOr6OM0kQPuDuCPyN5eIpr
2oF9JXuVmgEDalvH+7pa5vJqJNswDFW2pcD8fusrOPwftEhiIfEhqIAQpnJdDBfh
xQB0DuYI/U2AbS1ZHDbgDYYSvdlkOXpLvCUCAwEAAaMgMB4wDAYDVR0TAQH/BAIw
ADAOBgNVHQ8BAf8EBAMCAAEwDQYJKoZIhvcNAQELBQADggEBAJScFlybYfDA5jSF
Iq7KGAjcEE+K8m7pCuvUM+zjptcQr0czG36NXaWDJfEPn5fyPymc9huwhAzaYu8Q
TaKxrlSc8bzgENcMHTXWfH0e1s1ru8x1tipIJKHIZUjIBuxOrsx5PSSEpDDqjrLp
y0bSfvhw+L0ZpZRRIrciGycX+NHPXnCfbYADntIpnCPOfIJqW5DG4Kl/feYhQZ5D
IV3WzGWWoIONVgx8rNKGaRVDFgY8r3OrWuUcbs0r1v8d0cBIR3Qy7WTLzm/jvkLT
wgpI00c62XZDkvLbliJ4Jr3p+ainD79ueCgGA5P7KkuDLMc51bgHGJAK5Dyo3oas
0qo9cUM=
-----END CERTIFICATE-----
