Certificate:
    Data:
        Version: 3 (0x2)
        Serial Number: 22 (0x16)
    Signature Algorithm: sha256WithRSAEncryption
        Issuer: C=US, ST=California, L=Santa Clara, O=pkg5, CN=ch1_ta3/emailAddress=ch1_ta3
        Validity
            Not Before: Dec  6 03:06:43 2014 GMT
            Not After : Sep  1 03:06:43 2017 GMT
        Subject: C=US, ST=California, L=Santa Clara, O=pkg5, CN=cs6_ch1_ta3/emailAddress=cs6_ch1_ta3
        Subject Public Key Info:
            Public Key Algorithm: rsaEncryption
                Public-Key: (1024 bit)
                Modulus:
                    00:d4:f1:c9:b9:52:5f:e3:f7:9a:18:d5:b8:9c:9e:
                    30:e5:d0:49:3f:24:b6:47:2b:91:4c:82:1c:ee:2e:
                    a1:3d:16:af:6d:74:61:6a:b1:02:20:a3:a2:16:d8:
                    67:b5:d2:1a:9a:93:03:08:3f:06:2c:6b:fd:95:38:
                    a1:e1:c1:99:2d:77:3b:b9:42:85:c9:de:d4:b4:ea:
                    f9:0d:0f:5a:83:67:38:8c:61:d2:bb:5d:d6:04:bb:
                    80:10:3b:b2:19:97:62:ca:c3:1e:3e:bd:b2:44:7a:
                    32:92:ab:27:45:a4:f6:2c:f5:34:04:ce:58:4e:7a:
                    04:e6:5f:db:ec:80:d6:98:d5
                Exponent: 65537 (0x10001)
        X509v3 extensions:
            X509v3 Basic Constraints: critical
                CA:FALSE
            X509v3 Key Usage: critical
                Encipher Only
    Signature Algorithm: sha256WithRSAEncryption
         79:a8:be:54:04:44:b3:e5:83:7d:03:ab:22:30:d1:15:64:66:
         62:ca:64:b2:0d:de:9b:66:6d:6c:03:47:af:3b:fa:22:08:ad:
         67:66:ae:a1:1e:9c:1f:0d:c3:ca:2b:cc:23:8f:38:cd:a2:14:
         63:5a:0d:d1:3d:2d:9d:4b:ef:e4:18:5b:a1:39:de:04:9d:4c:
         8c:c6:1e:2b:b3:e9:00:4b:fe:91:5c:49:86:02:a5:74:be:03:
         5a:6b:81:3e:84:46:75:95:99:00:29:0f:98:b9:fc:0d:fc:95:
         f5:8b:33:d7:6b:cf:22:7c:f5:a5:c2:97:da:a1:b9:04:f8:96:
         5b:ed
-----BEGIN CERTIFICATE-----
MIICgDCCAemgAwIBAgIBFjANBgkqhkiG9w0BAQsFADBxMQswCQYDVQQGEwJVUzET
MBEGA1UECAwKQ2FsaWZvcm5pYTEUMBIGA1UEBwwLU2FudGEgQ2xhcmExDTALBgNV
BAoMBHBrZzUxEDAOBgNVBAMMB2NoMV90YTMxFjAUBgkqhkiG9w0BCQEWB2NoMV90
YTMwHhcNMTQxMjA2MDMwNjQzWhcNMTcwOTAxMDMwNjQzWjB5MQswCQYDVQQGEwJV
UzETMBEGA1UECAwKQ2FsaWZvcm5pYTEUMBIGA1UEBwwLU2FudGEgQ2xhcmExDTAL
BgNVBAoMBHBrZzUxFDASBgNVBAMMC2NzNl9jaDFfdGEzMRowGAYJKoZIhvcNAQkB
FgtjczZfY2gxX3RhMzCBnzANBgkqhkiG9w0BAQEFAAOBjQAwgYkCgYEA1PHJuVJf
4/eaGNW4nJ4w5dBJPyS2RyuRTIIc7i6hPRavbXRharECIKOiFthntdIampMDCD8G
LGv9lTih4cGZLXc7uUKFyd7UtOr5DQ9ag2c4jGHSu13WBLuAEDuyGZdiysMePr2y
RHoykqsnRaT2LPU0BM5YTnoE5l/b7IDWmNUCAwEAAaMgMB4wDAYDVR0TAQH/BAIw
ADAOBgNVHQ8BAf8EBAMCAAEwDQYJKoZIhvcNAQELBQADgYEAeai+VAREs+WDfQOr
IjDRFWRmYspksg3em2ZtbANHrzv6IgitZ2auoR6cHw3DyivMI484zaIUY1oN0T0t
nUvv5BhboTneBJ1MjMYeK7PpAEv+kVxJhgKldL4DWmuBPoRGdZWZACkPmLn8DfyV
9Ysz12vPInz1pcKX2qG5BPiWW+0=
-----END CERTIFICATE-----
