Certificate:
    Data:
        Version: 3 (0x2)
        Serial Number: 22 (0x16)
        Signature Algorithm: sha256WithRSAEncryption
        Issuer: C=US, ST=California, L=Santa Clara, O=pkg5, CN=ch1_ta3/emailAddress=ch1_ta3
        Validity
            Not Before: Oct 24 21:43:06 2023 GMT
            Not After : Jul 20 21:43:06 2026 GMT
        Subject: C=US, ST=California, L=Santa Clara, O=pkg5, CN=cs6_ch1_ta3/emailAddress=cs6_ch1_ta3
        Subject Public Key Info:
            Public Key Algorithm: rsaEncryption
                Public-Key: (2048 bit)
                Modulus:
                    00:90:2f:35:3d:af:60:e0:de:4f:d9:f4:c4:14:bc:
                    e2:d6:94:f1:04:14:30:34:bc:fa:13:56:2e:70:18:
                    28:9a:c7:b1:f7:73:48:df:ff:e7:93:ed:8b:85:90:
                    b9:b3:8e:ad:0b:58:7d:f3:04:b8:24:03:77:fa:bf:
                    7a:ad:d1:66:c0:6b:f0:72:ed:20:b9:32:3d:f5:f5:
                    a2:b8:db:54:c6:82:22:69:59:78:87:12:c5:26:5d:
                    b1:5d:bd:bd:15:2f:19:e9:47:07:85:d0:8a:d8:f2:
                    92:51:bb:5e:10:37:af:9b:eb:cf:18:94:f1:20:34:
                    b5:0a:74:6b:b5:c6:1d:52:09:89:2f:c9:29:20:fa:
                    17:dd:cb:0a:b4:13:b7:fa:f2:89:dd:1f:6f:7d:60:
                    24:e7:6f:3e:45:86:93:f3:32:5b:7c:df:bb:e1:7f:
                    64:fe:4b:b8:c2:c0:8d:b4:9e:6d:82:3c:80:b2:f9:
                    09:7b:0c:82:9e:8a:85:14:4a:69:58:6f:11:c5:bc:
                    78:d2:11:d8:3e:10:e7:51:58:3c:29:97:54:7f:d3:
                    2f:6e:62:23:c1:f5:b9:4a:5c:5f:09:70:d5:4a:2d:
                    85:37:6d:60:72:49:34:00:2a:04:50:8f:95:8a:c3:
                    99:52:fe:a3:7b:e1:f7:06:29:4f:09:63:3c:72:4d:
                    ee:49
                Exponent: 65537 (0x10001)
        X509v3 extensions:
            X509v3 Basic Constraints: critical
                CA:FALSE
            X509v3 Key Usage: critical
                Key Agreement, Encipher Only
            X509v3 Subject Key Identifier: 
                45:76:ED:3A:58:91:BA:16:8E:31:61:C8:E9:30:F4:C4:C2:D0:1B:9B
            X509v3 Authority Key Identifier: 
                EC:04:9D:52:42:13:3C:0B:DA:EF:1D:7E:FD:8C:02:F4:74:FA:24:6D
    Signature Algorithm: sha256WithRSAEncryption
    Signature Value:
        70:4a:d2:d0:7e:41:c6:64:8d:2f:99:81:3b:6c:c0:ff:44:f1:
        57:86:c5:bf:8e:c7:3e:3e:e9:89:98:d8:a6:0d:26:02:1a:6e:
        3d:d7:16:11:5a:8d:0a:7a:cf:a6:ca:e1:b0:0e:5a:53:0d:ef:
        16:53:21:bf:0e:44:7d:0b:fb:ae:da:0d:72:2d:ed:07:d5:c1:
        ff:07:fb:e4:d8:c2:34:c8:b3:d3:f2:d4:6a:4d:cf:a7:9c:51:
        16:4b:4e:22:ad:e4:d7:2f:d7:56:c5:83:66:f6:b5:24:b2:e5:
        42:78:f8:ef:dc:0f:d0:dd:ba:e7:5d:4b:f4:7a:61:cb:cd:a4:
        72:e2:e4:e5:59:97:33:39:12:80:0f:53:77:2f:4c:48:9c:a3:
        28:0e:fc:f0:79:8f:e4:d8:e1:82:f9:a0:cd:a6:3a:cf:c9:04:
        52:d1:e4:53:12:e2:c7:e9:bc:cd:66:db:21:ee:a0:55:67:7d:
        12:0c:57:0e:87:20:9d:5f:bd:7d:b2:02:d2:f7:ff:c5:0e:f8:
        30:f2:30:8c:e6:97:dc:b0:17:17:8f:9a:28:2e:f4:aa:43:58:
        e5:b7:ab:d6:07:9f:87:12:6a:6a:d3:c6:40:77:d0:24:14:af:
        70:f9:a1:de:55:ec:96:fb:d6:6e:3a:61:02:65:90:9a:7d:18:
        be:39:91:4c
-----BEGIN CERTIFICATE-----
MIIDxTCCAq2gAwIBAgIBFjANBgkqhkiG9w0BAQsFADBxMQswCQYDVQQGEwJVUzET
MBEGA1UECAwKQ2FsaWZvcm5pYTEUMBIGA1UEBwwLU2FudGEgQ2xhcmExDTALBgNV
BAoMBHBrZzUxEDAOBgNVBAMMB2NoMV90YTMxFjAUBgkqhkiG9w0BCQEWB2NoMV90
YTMwHhcNMjMxMDI0MjE0MzA2WhcNMjYwNzIwMjE0MzA2WjB5MQswCQYDVQQGEwJV
UzETMBEGA1UECAwKQ2FsaWZvcm5pYTEUMBIGA1UEBwwLU2FudGEgQ2xhcmExDTAL
BgNVBAoMBHBrZzUxFDASBgNVBAMMC2NzNl9jaDFfdGEzMRowGAYJKoZIhvcNAQkB
FgtjczZfY2gxX3RhMzCCASIwDQYJKoZIhvcNAQEBBQADggEPADCCAQoCggEBAJAv
NT2vYODeT9n0xBS84taU8QQUMDS8+hNWLnAYKJrHsfdzSN//55Pti4WQubOOrQtY
ffMEuCQDd/q/eq3RZsBr8HLtILkyPfX1orjbVMaCImlZeIcSxSZdsV29vRUvGelH
B4XQitjyklG7XhA3r5vrzxiU8SA0tQp0a7XGHVIJiS/JKSD6F93LCrQTt/ryid0f
b31gJOdvPkWGk/MyW3zfu+F/ZP5LuMLAjbSebYI8gLL5CXsMgp6KhRRKaVhvEcW8
eNIR2D4Q51FYPCmXVH/TL25iI8H1uUpcXwlw1UothTdtYHJJNAAqBFCPlYrDmVL+
o3vh9wYpTwljPHJN7kkCAwEAAaNgMF4wDAYDVR0TAQH/BAIwADAOBgNVHQ8BAf8E
BAMCAAkwHQYDVR0OBBYEFEV27TpYkboWjjFhyOkw9MTC0BubMB8GA1UdIwQYMBaA
FOwEnVJCEzwL2u8dfv2MAvR0+iRtMA0GCSqGSIb3DQEBCwUAA4IBAQBwStLQfkHG
ZI0vmYE7bMD/RPFXhsW/jsc+PumJmNimDSYCGm491xYRWo0Kes+myuGwDlpTDe8W
UyG/DkR9C/uu2g1yLe0H1cH/B/vk2MI0yLPT8tRqTc+nnFEWS04ireTXL9dWxYNm
9rUksuVCePjv3A/Q3brnXUv0emHLzaRy4uTlWZczORKAD1N3L0xInKMoDvzweY/k
2OGC+aDNpjrPyQRS0eRTEuLH6bzNZtsh7qBVZ30SDFcOhyCdX719sgLS9//FDvgw
8jCM5pfcsBcXj5ooLvSqQ1jlt6vWB5+HEmpq08ZAd9AkFK9w+aHeVeyW+9ZuOmEC
ZZCafRi+OZFM
-----END CERTIFICATE-----
