Certificate:
    Data:
        Version: 3 (0x2)
        Serial Number: 22 (0x16)
        Signature Algorithm: sha256WithRSAEncryption
        Issuer: C=US, ST=California, L=Santa Clara, O=pkg5, CN=ch1_ta3/emailAddress=ch1_ta3
        Validity
            Not Before: Dec 15 15:37:23 2022 GMT
            Not After : Sep 10 15:37:23 2025 GMT
        Subject: C=US, ST=California, L=Santa Clara, O=pkg5, CN=cs6_ch1_ta3/emailAddress=cs6_ch1_ta3
        Subject Public Key Info:
            Public Key Algorithm: rsaEncryption
                Public-Key: (2048 bit)
                Modulus:
                    00:95:74:b0:66:b7:d1:bf:b7:56:f9:ac:cc:95:e2:
                    3c:83:bf:cb:23:2b:ca:16:8d:dc:cd:17:2b:de:40:
                    90:d3:e1:1a:e0:5f:4f:3a:34:fe:e7:e0:9f:6b:8d:
                    3d:c3:80:99:f0:fc:4f:04:99:40:d5:44:0f:38:bc:
                    a7:39:ed:7c:36:5b:de:19:3b:80:3c:0c:72:70:0b:
                    fe:ba:56:03:8a:61:a4:6d:c4:07:4d:bd:93:f9:b3:
                    01:c0:69:36:e6:84:c9:fb:f1:64:79:a3:10:0a:c7:
                    f3:11:54:2f:b9:51:6c:ae:23:a1:be:f2:84:dc:0e:
                    ee:db:45:a2:39:3d:8f:71:3c:a2:37:df:c9:3f:9f:
                    f1:39:da:bb:35:74:c2:9f:c8:86:c0:19:83:b0:f7:
                    51:51:0f:95:95:49:63:a1:18:7b:37:79:ae:79:a4:
                    87:f2:09:12:7d:c2:16:e9:dd:05:9a:68:62:eb:49:
                    54:24:b5:c4:7b:ca:42:23:31:75:5f:bf:6e:40:55:
                    1e:df:02:8e:71:32:35:9d:52:c3:22:84:33:42:3f:
                    39:5e:a7:12:01:02:e3:a9:ff:4a:f2:b8:74:61:9e:
                    0d:16:ce:21:05:49:0a:08:1b:a6:be:2f:64:05:91:
                    d4:3b:e3:fb:74:5a:ec:ae:6f:c6:b1:5b:09:6a:f7:
                    d1:93
                Exponent: 65537 (0x10001)
        X509v3 extensions:
            X509v3 Basic Constraints: critical
                CA:FALSE
            X509v3 Key Usage: critical
                Key Agreement, Encipher Only
            X509v3 Subject Key Identifier: 
                6A:9E:8E:DE:95:91:73:C1:F4:82:5C:66:F4:67:AB:AC:86:FA:2A:6F
            X509v3 Authority Key Identifier: 
                33:56:B5:6A:EF:83:5A:96:29:D5:64:57:A8:29:D0:28:D0:1D:D9:53
    Signature Algorithm: sha256WithRSAEncryption
    Signature Value:
        26:7b:2c:73:a2:e5:83:b7:f7:f5:dc:c9:41:7e:f0:b0:f9:76:
        64:d9:79:0d:54:ac:79:6a:f2:ee:4e:57:d6:cd:ed:7d:29:23:
        48:97:0d:52:76:84:ea:98:b8:07:a9:fc:27:b2:7c:46:e3:be:
        fc:7d:ff:dc:43:ad:c5:d7:38:b1:32:37:53:ed:05:16:81:27:
        fd:48:cf:55:be:f4:cb:e0:1f:d8:d4:02:d4:ba:39:c4:cb:c6:
        ac:85:df:f2:20:6b:ec:9e:f7:a1:17:f3:65:a6:91:a1:bf:c6:
        6a:f5:20:8f:32:03:ba:a6:b8:5e:47:20:0f:07:71:91:f9:3c:
        aa:e1:dd:24:9a:c8:50:a9:23:90:d3:f8:21:52:ec:59:24:a6:
        f3:12:ef:29:a6:9b:b9:ad:23:c0:46:d0:26:65:e8:50:27:fa:
        79:e4:7e:df:86:e2:16:0a:1e:b7:ee:85:01:a9:45:fe:ad:76:
        b5:49:28:4e:79:b5:a5:66:e5:9e:6a:cf:11:2d:32:37:a5:fc:
        a1:89:24:ed:6f:45:10:d3:11:b3:fd:2a:b1:1c:be:06:b3:93:
        20:9f:05:6a:48:2a:5d:34:4d:b3:40:27:9c:b7:a7:6c:f1:9f:
        ef:67:43:5a:74:43:e9:3c:c5:61:0c:bd:fe:25:0d:de:55:f7:
        9c:75:37:78
-----BEGIN CERTIFICATE-----
MIIDxTCCAq2gAwIBAgIBFjANBgkqhkiG9w0BAQsFADBxMQswCQYDVQQGEwJVUzET
MBEGA1UECAwKQ2FsaWZvcm5pYTEUMBIGA1UEBwwLU2FudGEgQ2xhcmExDTALBgNV
BAoMBHBrZzUxEDAOBgNVBAMMB2NoMV90YTMxFjAUBgkqhkiG9w0BCQEWB2NoMV90
YTMwHhcNMjIxMjE1MTUzNzIzWhcNMjUwOTEwMTUzNzIzWjB5MQswCQYDVQQGEwJV
UzETMBEGA1UECAwKQ2FsaWZvcm5pYTEUMBIGA1UEBwwLU2FudGEgQ2xhcmExDTAL
BgNVBAoMBHBrZzUxFDASBgNVBAMMC2NzNl9jaDFfdGEzMRowGAYJKoZIhvcNAQkB
FgtjczZfY2gxX3RhMzCCASIwDQYJKoZIhvcNAQEBBQADggEPADCCAQoCggEBAJV0
sGa30b+3VvmszJXiPIO/yyMryhaN3M0XK95AkNPhGuBfTzo0/ufgn2uNPcOAmfD8
TwSZQNVEDzi8pzntfDZb3hk7gDwMcnAL/rpWA4phpG3EB029k/mzAcBpNuaEyfvx
ZHmjEArH8xFUL7lRbK4job7yhNwO7ttFojk9j3E8ojffyT+f8TnauzV0wp/IhsAZ
g7D3UVEPlZVJY6EYezd5rnmkh/IJEn3CFundBZpoYutJVCS1xHvKQiMxdV+/bkBV
Ht8CjnEyNZ1SwyKEM0I/OV6nEgEC46n/SvK4dGGeDRbOIQVJCggbpr4vZAWR1Dvj
+3Ra7K5vxrFbCWr30ZMCAwEAAaNgMF4wDAYDVR0TAQH/BAIwADAOBgNVHQ8BAf8E
BAMCAAkwHQYDVR0OBBYEFGqejt6VkXPB9IJcZvRnq6yG+ipvMB8GA1UdIwQYMBaA
FDNWtWrvg1qWKdVkV6gp0CjQHdlTMA0GCSqGSIb3DQEBCwUAA4IBAQAmeyxzouWD
t/f13MlBfvCw+XZk2XkNVKx5avLuTlfWze19KSNIlw1SdoTqmLgHqfwnsnxG4778
ff/cQ63F1zixMjdT7QUWgSf9SM9VvvTL4B/Y1ALUujnEy8ashd/yIGvsnvehF/Nl
ppGhv8Zq9SCPMgO6prheRyAPB3GR+Tyq4d0kmshQqSOQ0/ghUuxZJKbzEu8pppu5
rSPARtAmZehQJ/p55H7fhuIWCh637oUBqUX+rXa1SShOebWlZuWeas8RLTI3pfyh
iSTtb0UQ0xGz/SqxHL4Gs5MgnwVqSCpdNE2zQCect6ds8Z/vZ0NadEPpPMVhDL3+
JQ3eVfecdTd4
-----END CERTIFICATE-----
