Certificate:
    Data:
        Version: 3 (0x2)
        Serial Number: 22 (0x16)
    Signature Algorithm: sha256WithRSAEncryption
        Issuer: C=US, ST=California, L=Santa Clara, O=pkg5, CN=ch1_ta3/emailAddress=ch1_ta3
        Validity
            Not Before: Mar 20 10:20:53 2018 GMT
            Not After : Dec 14 10:20:53 2020 GMT
        Subject: C=US, ST=California, L=Santa Clara, O=pkg5, CN=cs6_ch1_ta3/emailAddress=cs6_ch1_ta3
        Subject Public Key Info:
            Public Key Algorithm: rsaEncryption
                Public-Key: (1024 bit)
                Modulus:
                    00:b7:e3:a6:f1:e2:70:62:f4:f1:57:73:1a:1f:36:
                    02:6b:95:3c:ff:60:ee:7d:8c:f9:ab:43:b8:0c:d5:
                    33:ad:95:e6:72:0a:c8:13:bc:31:3e:78:36:72:f1:
                    e2:9b:cf:82:f9:e8:69:e7:97:bb:51:da:5f:47:88:
                    e7:c5:65:0f:3a:cc:07:52:4a:74:79:12:71:a5:37:
                    34:b2:4c:d8:60:1e:e3:3c:a0:45:69:be:42:ad:8d:
                    0d:6c:5d:63:f2:50:3f:a4:95:f1:81:95:02:f2:de:
                    23:39:40:e7:bc:d1:34:bc:5e:bf:2f:9b:c6:b8:dc:
                    6e:4f:1d:b1:b8:5c:90:78:2d
                Exponent: 65537 (0x10001)
        X509v3 extensions:
            X509v3 Basic Constraints: critical
                CA:FALSE
            X509v3 Key Usage: critical
                Key Agreement, Encipher Only
    Signature Algorithm: sha256WithRSAEncryption
         07:34:ff:87:46:bf:94:0c:e6:99:de:49:9a:8a:d1:49:c5:a5:
         7f:9d:5e:ce:b3:0e:d3:f7:ce:51:e0:68:3c:27:e6:14:f8:04:
         df:39:8d:e2:d9:87:e9:02:3c:d6:30:e5:de:97:56:dc:2f:1a:
         a1:8f:14:f3:cd:aa:b3:f7:b3:38:48:6d:26:d7:0f:f3:07:69:
         7b:64:52:7d:1a:ea:05:b0:10:37:c1:47:83:49:f2:81:e9:0f:
         67:ea:bf:d3:d8:44:0d:01:f5:9a:65:15:9b:8b:cd:67:34:ee:
         5f:cc:19:43:d2:e1:94:b6:70:62:a7:05:84:10:0d:f4:e6:7d:
         e7:52:66:a1:ea:ed:de:00:9c:e2:bc:81:ba:83:06:e8:b5:e3:
         8c:dd:b8:6f:a6:a1:9a:95:9d:d8:74:d7:f6:fe:72:bd:b4:7f:
         d6:bc:1b:f6:d0:31:e8:e4:00:39:fc:7b:59:d7:22:8a:9c:0c:
         1d:3e:b7:5e:6a:9a:bc:07:89:9f:61:4a:16:ee:25:05:53:2e:
         23:73:dd:20:c6:0b:3a:12:bc:75:4b:ca:43:ab:41:dc:24:dc:
         08:ec:58:82:8a:85:43:85:c4:cf:1e:57:c1:f8:aa:fc:2d:35:
         06:fa:f0:ee:ed:78:d8:94:fc:cd:08:99:bc:a3:b8:44:1d:99:
         12:0e:51:c0
-----BEGIN CERTIFICATE-----
MIIDATCCAemgAwIBAgIBFjANBgkqhkiG9w0BAQsFADBxMQswCQYDVQQGEwJVUzET
MBEGA1UECAwKQ2FsaWZvcm5pYTEUMBIGA1UEBwwLU2FudGEgQ2xhcmExDTALBgNV
BAoMBHBrZzUxEDAOBgNVBAMMB2NoMV90YTMxFjAUBgkqhkiG9w0BCQEWB2NoMV90
YTMwHhcNMTgwMzIwMTAyMDUzWhcNMjAxMjE0MTAyMDUzWjB5MQswCQYDVQQGEwJV
UzETMBEGA1UECAwKQ2FsaWZvcm5pYTEUMBIGA1UEBwwLU2FudGEgQ2xhcmExDTAL
BgNVBAoMBHBrZzUxFDASBgNVBAMMC2NzNl9jaDFfdGEzMRowGAYJKoZIhvcNAQkB
FgtjczZfY2gxX3RhMzCBnzANBgkqhkiG9w0BAQEFAAOBjQAwgYkCgYEAt+Om8eJw
YvTxV3MaHzYCa5U8/2DufYz5q0O4DNUzrZXmcgrIE7wxPng2cvHim8+C+ehp55e7
UdpfR4jnxWUPOswHUkp0eRJxpTc0skzYYB7jPKBFab5CrY0NbF1j8lA/pJXxgZUC
8t4jOUDnvNE0vF6/L5vGuNxuTx2xuFyQeC0CAwEAAaMgMB4wDAYDVR0TAQH/BAIw
ADAOBgNVHQ8BAf8EBAMCAAkwDQYJKoZIhvcNAQELBQADggEBAAc0/4dGv5QM5pne
SZqK0UnFpX+dXs6zDtP3zlHgaDwn5hT4BN85jeLZh+kCPNYw5d6XVtwvGqGPFPPN
qrP3szhIbSbXD/MHaXtkUn0a6gWwEDfBR4NJ8oHpD2fqv9PYRA0B9ZplFZuLzWc0
7l/MGUPS4ZS2cGKnBYQQDfTmfedSZqHq7d4AnOK8gbqDBui144zduG+moZqVndh0
1/b+cr20f9a8G/bQMejkADn8e1nXIoqcDB0+t15qmrwHiZ9hShbuJQVTLiNz3SDG
CzoSvHVLykOrQdwk3AjsWIKKhUOFxM8eV8H4qvwtNQb68O7teNiU/M0ImbyjuEQd
mRIOUcA=
-----END CERTIFICATE-----
