Certificate:
    Data:
        Version: 3 (0x2)
        Serial Number: 22 (0x16)
        Signature Algorithm: sha256WithRSAEncryption
        Issuer: C=US, ST=California, L=Santa Clara, O=pkg5, CN=ch1_ta3/emailAddress=ch1_ta3
        Validity
            Not Before: Nov 17 23:01:30 2020 GMT
            Not After : Aug 14 23:01:30 2023 GMT
        Subject: C=US, ST=California, L=Santa Clara, O=pkg5, CN=cs6_ch1_ta3/emailAddress=cs6_ch1_ta3
        Subject Public Key Info:
            Public Key Algorithm: rsaEncryption
                RSA Public-Key: (1024 bit)
                Modulus:
                    00:aa:a4:65:07:dc:da:96:90:b5:f6:4c:2f:b0:b1:
                    8d:97:46:9d:8e:af:bc:e7:4f:2b:6f:82:78:cc:3e:
                    52:1d:2c:de:0a:e7:52:fe:59:7d:c0:3c:bf:3b:78:
                    07:88:e2:3e:09:c8:86:4e:eb:b5:f3:41:52:32:20:
                    92:ca:de:16:d7:12:a2:ba:d3:b8:cd:dc:05:70:57:
                    13:40:a5:8e:32:da:49:2f:8c:94:d3:fd:1c:0d:fd:
                    a7:fe:67:3e:7a:aa:e9:23:b2:4d:f4:e7:31:3c:7d:
                    e1:6b:41:b7:8d:b4:df:e2:ed:f6:59:df:75:11:e0:
                    fd:da:5f:0c:e8:da:ee:cf:d7
                Exponent: 65537 (0x10001)
        X509v3 extensions:
            X509v3 Basic Constraints: critical
                CA:FALSE
            X509v3 Key Usage: critical
                Key Agreement, Encipher Only
    Signature Algorithm: sha256WithRSAEncryption
         8a:d4:0f:b1:27:65:9c:b7:6f:59:e2:49:50:7b:7a:a0:cf:a1:
         8e:0d:a0:91:f7:42:77:4d:ec:78:1c:f7:ba:9c:c9:2b:21:fe:
         d4:e3:d4:76:6a:a4:5c:f7:ce:d3:6e:66:52:bf:f1:ba:70:17:
         0b:6f:95:54:56:87:21:01:2f:9b:9c:b5:0b:10:8d:a0:02:bf:
         7f:ae:44:bc:11:70:7a:34:0d:32:1d:ad:16:83:34:de:01:2a:
         e9:fd:23:95:95:11:d4:2f:1d:87:dc:1c:82:6a:77:33:f7:f0:
         e3:12:cc:78:20:fa:8e:93:e8:aa:3b:35:35:7c:bb:d0:5d:38:
         6f:23:1b:e2:c6:35:60:c5:52:38:af:e4:f2:cd:1d:ab:6b:bf:
         8e:5d:28:55:df:fd:77:44:67:97:8e:c5:a0:b8:37:69:cd:f3:
         a6:51:cf:b3:83:db:52:37:91:78:30:4d:37:17:b4:1b:48:0c:
         c3:aa:35:dd:14:ad:5f:99:eb:9e:c5:d9:69:a3:bd:63:66:b4:
         80:b8:b1:02:02:81:74:ed:f4:f6:a2:bc:08:e8:fe:35:d6:b3:
         2a:71:f3:db:46:fc:b9:4a:39:f0:93:6f:a8:42:0c:5d:44:ef:
         07:5c:58:32:eb:47:2f:9b:99:ec:c6:ae:9b:7b:93:91:07:23:
         94:67:5c:50
-----BEGIN CERTIFICATE-----
MIIDATCCAemgAwIBAgIBFjANBgkqhkiG9w0BAQsFADBxMQswCQYDVQQGEwJVUzET
MBEGA1UECAwKQ2FsaWZvcm5pYTEUMBIGA1UEBwwLU2FudGEgQ2xhcmExDTALBgNV
BAoMBHBrZzUxEDAOBgNVBAMMB2NoMV90YTMxFjAUBgkqhkiG9w0BCQEWB2NoMV90
YTMwHhcNMjAxMTE3MjMwMTMwWhcNMjMwODE0MjMwMTMwWjB5MQswCQYDVQQGEwJV
UzETMBEGA1UECAwKQ2FsaWZvcm5pYTEUMBIGA1UEBwwLU2FudGEgQ2xhcmExDTAL
BgNVBAoMBHBrZzUxFDASBgNVBAMMC2NzNl9jaDFfdGEzMRowGAYJKoZIhvcNAQkB
FgtjczZfY2gxX3RhMzCBnzANBgkqhkiG9w0BAQEFAAOBjQAwgYkCgYEAqqRlB9za
lpC19kwvsLGNl0adjq+8508rb4J4zD5SHSzeCudS/ll9wDy/O3gHiOI+CciGTuu1
80FSMiCSyt4W1xKiutO4zdwFcFcTQKWOMtpJL4yU0/0cDf2n/mc+eqrpI7JN9Ocx
PH3ha0G3jbTf4u32Wd91EeD92l8M6Nruz9cCAwEAAaMgMB4wDAYDVR0TAQH/BAIw
ADAOBgNVHQ8BAf8EBAMCAAkwDQYJKoZIhvcNAQELBQADggEBAIrUD7EnZZy3b1ni
SVB7eqDPoY4NoJH3QndN7Hgc97qcySsh/tTj1HZqpFz3ztNuZlK/8bpwFwtvlVRW
hyEBL5uctQsQjaACv3+uRLwRcHo0DTIdrRaDNN4BKun9I5WVEdQvHYfcHIJqdzP3
8OMSzHgg+o6T6Ko7NTV8u9BdOG8jG+LGNWDFUjiv5PLNHatrv45dKFXf/XdEZ5eO
xaC4N2nN86ZRz7OD21I3kXgwTTcXtBtIDMOqNd0UrV+Z657F2WmjvWNmtIC4sQIC
gXTt9PaivAjo/jXWsypx89tG/LlKOfCTb6hCDF1E7wdcWDLrRy+bmezGrpt7k5EH
I5RnXFA=
-----END CERTIFICATE-----
