Certificate:
    Data:
        Version: 3 (0x2)
        Serial Number: 22 (0x16)
        Signature Algorithm: sha256WithRSAEncryption
        Issuer: C=US, ST=California, L=Santa Clara, O=pkg5, CN=ch1_ta3/emailAddress=ch1_ta3
        Validity
            Not Before: May 23 15:47:18 2024 GMT
            Not After : Feb 17 15:47:18 2027 GMT
        Subject: C=US, ST=California, L=Santa Clara, O=pkg5, CN=cs6_ch1_ta3/emailAddress=cs6_ch1_ta3
        Subject Public Key Info:
            Public Key Algorithm: rsaEncryption
                Public-Key: (2048 bit)
                Modulus:
                    00:9f:24:f3:12:a6:5c:ad:f1:61:ee:71:66:9f:26:
                    13:3f:ff:c6:17:91:e8:c9:23:ff:7a:32:5b:13:01:
                    35:34:5c:c2:7f:75:63:12:0a:5f:ef:4f:9e:35:3d:
                    b0:d2:eb:cf:64:be:d5:3b:d8:2b:45:99:98:0f:08:
                    c2:84:8a:5e:47:3e:43:c9:be:f3:3b:80:bb:f0:94:
                    db:e9:ae:6c:4b:ac:a0:3f:3c:5a:b3:fe:37:58:a8:
                    a7:bd:39:7a:28:6f:2d:ba:f9:5b:db:8d:27:54:8f:
                    ef:58:c6:8f:8c:ac:85:33:c0:30:73:61:02:0b:82:
                    de:a8:81:80:42:d5:2f:20:d9:04:27:20:6f:fa:c1:
                    56:38:87:13:c8:d8:bb:fd:59:be:9a:d4:04:9a:b0:
                    29:9d:37:09:6c:0f:08:7a:42:49:f4:ab:30:0b:72:
                    06:3e:1c:0e:ba:ac:a5:b8:c3:e2:c0:49:8e:b9:49:
                    5a:57:92:8c:ff:40:a5:93:43:b3:6b:57:5c:1c:38:
                    23:c1:8e:ff:8c:bc:0e:42:71:e4:87:85:1e:6b:a4:
                    bc:c3:91:8e:de:93:75:e9:94:9e:cd:9d:06:87:a3:
                    88:68:98:96:7e:1d:d3:91:a6:d4:eb:14:85:b9:d6:
                    50:be:db:c6:9f:fd:e0:a9:bf:d8:e0:c5:25:f3:72:
                    b2:ef
                Exponent: 65537 (0x10001)
        X509v3 extensions:
            X509v3 Basic Constraints: critical
                CA:FALSE
            X509v3 Key Usage: critical
                Key Agreement, Encipher Only
            X509v3 Subject Key Identifier: 
                E9:8A:C3:60:85:FA:E4:D8:44:7E:2A:06:06:FC:9A:45:00:FE:30:3B
            X509v3 Authority Key Identifier: 
                69:A7:F1:E4:B7:F3:AC:28:7C:E9:9A:78:E3:CC:EF:00:89:C5:A4:C5
    Signature Algorithm: sha256WithRSAEncryption
    Signature Value:
        49:b0:b1:33:83:de:ee:76:a8:31:e9:4f:18:de:d3:d8:b9:32:
        01:3b:e4:05:ad:27:bf:9e:b9:9f:c8:b7:67:a0:2f:7a:f7:ea:
        b0:8c:a2:49:db:69:eb:3e:5f:e7:a5:03:28:84:de:d5:42:ea:
        54:bf:76:0b:53:1d:e4:26:fb:4c:6c:fe:d4:43:1f:8b:4c:b7:
        33:e2:28:bd:5c:f3:53:8c:0a:6e:ca:bc:45:02:af:50:b4:48:
        f7:95:41:60:76:44:09:93:ab:b3:65:f6:59:f7:8e:8a:b1:1b:
        60:f4:c9:94:98:17:11:c1:73:fe:f6:4e:d8:e8:dd:a7:0d:29:
        68:80:3a:52:b0:36:ac:f0:49:f5:60:aa:50:34:ca:11:0e:a9:
        63:28:a5:d6:d2:b0:f9:09:c3:16:45:9c:eb:dc:49:f7:8c:35:
        b0:cf:a5:4a:f5:6d:9c:8a:6b:d0:5d:20:58:e5:04:9c:65:dd:
        3f:fa:cd:be:d9:75:96:c8:9a:e4:fe:a3:94:33:21:0c:da:73:
        ba:08:6b:97:e1:78:1b:80:83:c4:98:82:80:54:47:68:18:40:
        82:38:ea:81:ef:48:b8:4c:c4:b9:77:7f:48:0f:fa:cb:55:16:
        6c:5e:11:7c:9c:19:88:05:22:cd:9b:72:14:12:50:bb:55:d9:
        15:3c:b0:98
-----BEGIN CERTIFICATE-----
MIIDxTCCAq2gAwIBAgIBFjANBgkqhkiG9w0BAQsFADBxMQswCQYDVQQGEwJVUzET
MBEGA1UECAwKQ2FsaWZvcm5pYTEUMBIGA1UEBwwLU2FudGEgQ2xhcmExDTALBgNV
BAoMBHBrZzUxEDAOBgNVBAMMB2NoMV90YTMxFjAUBgkqhkiG9w0BCQEWB2NoMV90
YTMwHhcNMjQwNTIzMTU0NzE4WhcNMjcwMjE3MTU0NzE4WjB5MQswCQYDVQQGEwJV
UzETMBEGA1UECAwKQ2FsaWZvcm5pYTEUMBIGA1UEBwwLU2FudGEgQ2xhcmExDTAL
BgNVBAoMBHBrZzUxFDASBgNVBAMMC2NzNl9jaDFfdGEzMRowGAYJKoZIhvcNAQkB
FgtjczZfY2gxX3RhMzCCASIwDQYJKoZIhvcNAQEBBQADggEPADCCAQoCggEBAJ8k
8xKmXK3xYe5xZp8mEz//xheR6Mkj/3oyWxMBNTRcwn91YxIKX+9PnjU9sNLrz2S+
1TvYK0WZmA8IwoSKXkc+Q8m+8zuAu/CU2+mubEusoD88WrP+N1iop705eihvLbr5
W9uNJ1SP71jGj4yshTPAMHNhAguC3qiBgELVLyDZBCcgb/rBVjiHE8jYu/1ZvprU
BJqwKZ03CWwPCHpCSfSrMAtyBj4cDrqspbjD4sBJjrlJWleSjP9ApZNDs2tXXBw4
I8GO/4y8DkJx5IeFHmukvMORjt6TdemUns2dBoejiGiYln4d05Gm1OsUhbnWUL7b
xp/94Km/2ODFJfNysu8CAwEAAaNgMF4wDAYDVR0TAQH/BAIwADAOBgNVHQ8BAf8E
BAMCAAkwHQYDVR0OBBYEFOmKw2CF+uTYRH4qBgb8mkUA/jA7MB8GA1UdIwQYMBaA
FGmn8eS386wofOmaeOPM7wCJxaTFMA0GCSqGSIb3DQEBCwUAA4IBAQBJsLEzg97u
dqgx6U8Y3tPYuTIBO+QFrSe/nrmfyLdnoC969+qwjKJJ22nrPl/npQMohN7VQupU
v3YLUx3kJvtMbP7UQx+LTLcz4ii9XPNTjApuyrxFAq9QtEj3lUFgdkQJk6uzZfZZ
946KsRtg9MmUmBcRwXP+9k7Y6N2nDSlogDpSsDas8En1YKpQNMoRDqljKKXW0rD5
CcMWRZzr3En3jDWwz6VK9W2cimvQXSBY5QScZd0/+s2+2XWWyJrk/qOUMyEM2nO6
CGuX4XgbgIPEmIKAVEdoGECCOOqB70i4TMS5d39ID/rLVRZsXhF8nBmIBSLNm3IU
ElC7VdkVPLCY
-----END CERTIFICATE-----
