Certificate:
    Data:
        Version: 3 (0x2)
        Serial Number: 23 (0x17)
    Signature Algorithm: sha256WithRSAEncryption
        Issuer: C=US, ST=California, L=Santa Clara, O=pkg5, CN=ch1_ta3/emailAddress=ch1_ta3
        Validity
            Not Before: Nov 16 10:58:49 2017 GMT
            Not After : Aug 12 10:58:49 2020 GMT
        Subject: C=US, ST=California, L=Santa Clara, O=pkg5, CN=cs7_ch1_ta3/emailAddress=cs7_ch1_ta3
        Subject Public Key Info:
            Public Key Algorithm: rsaEncryption
                Public-Key: (1024 bit)
                Modulus:
                    00:c4:78:98:d9:14:a1:92:4e:04:54:3c:1c:db:46:
                    a2:2c:86:35:55:f3:36:f9:75:e9:ab:2d:41:3e:b9:
                    c7:3c:23:aa:01:19:bb:7a:32:dd:f9:70:e5:bd:52:
                    ae:aa:81:ef:30:ff:c9:4e:f4:de:56:0c:d8:d7:22:
                    a3:d0:4b:54:78:8e:6f:d4:16:f9:a7:5c:61:df:4c:
                    50:ff:d1:db:e4:f2:5c:05:3f:45:3e:22:c8:25:aa:
                    84:a6:74:f0:57:ea:89:9c:f1:ad:c6:3a:94:59:d6:
                    28:54:0d:5e:e7:d4:49:2c:30:58:d0:6d:09:10:76:
                    5f:9d:00:1b:55:7d:4a:e3:8f
                Exponent: 65537 (0x10001)
        X509v3 extensions:
            X509v3 Basic Constraints: critical
                CA:FALSE
    Signature Algorithm: sha256WithRSAEncryption
         38:19:68:12:6b:78:34:1e:38:6b:b5:25:c0:c6:bf:c9:a7:3f:
         d2:e7:9a:fb:a6:26:7c:61:08:b1:24:0a:f8:b9:90:27:b1:7b:
         86:16:0e:7c:33:62:da:ce:e7:cb:22:49:8c:b0:4c:2f:07:b6:
         19:2f:b5:42:8c:70:c1:b7:c0:0e:55:cf:b4:78:e2:f7:e9:f3:
         a8:8b:e5:a5:b2:13:d9:26:18:6f:99:41:0a:a0:25:49:3c:d8:
         e6:cd:4c:e2:2a:40:cf:8e:41:0b:06:fb:17:fb:08:67:9e:2b:
         3a:13:96:52:0c:1e:ac:42:a3:8d:50:84:79:32:65:83:e3:69:
         88:f1:d5:c5:41:f7:a4:39:07:17:c0:ff:d3:c7:f3:1f:7a:6c:
         8d:c5:2d:cf:47:8f:4a:cf:3a:98:97:3a:d0:9e:c1:fe:f7:19:
         56:7f:87:4c:93:f7:df:14:dc:32:1a:57:dc:bb:b1:d0:6d:21:
         bc:30:db:e8:f5:c3:bb:f6:02:dc:90:9d:93:a6:93:bd:5f:8d:
         f8:7d:9a:85:96:0c:e9:67:3b:79:02:dc:74:16:23:e5:25:91:
         fe:01:dd:a3:ab:16:7b:8e:12:cb:df:a1:94:c0:de:03:dd:e2:
         d6:72:4b:55:a9:18:93:0d:fb:b1:70:27:c9:58:ed:b6:c1:95:
         e6:e9:0e:49
-----BEGIN CERTIFICATE-----
MIIC8TCCAdmgAwIBAgIBFzANBgkqhkiG9w0BAQsFADBxMQswCQYDVQQGEwJVUzET
MBEGA1UECAwKQ2FsaWZvcm5pYTEUMBIGA1UEBwwLU2FudGEgQ2xhcmExDTALBgNV
BAoMBHBrZzUxEDAOBgNVBAMMB2NoMV90YTMxFjAUBgkqhkiG9w0BCQEWB2NoMV90
YTMwHhcNMTcxMTE2MTA1ODQ5WhcNMjAwODEyMTA1ODQ5WjB5MQswCQYDVQQGEwJV
UzETMBEGA1UECAwKQ2FsaWZvcm5pYTEUMBIGA1UEBwwLU2FudGEgQ2xhcmExDTAL
BgNVBAoMBHBrZzUxFDASBgNVBAMMC2NzN19jaDFfdGEzMRowGAYJKoZIhvcNAQkB
FgtjczdfY2gxX3RhMzCBnzANBgkqhkiG9w0BAQEFAAOBjQAwgYkCgYEAxHiY2RSh
kk4EVDwc20aiLIY1VfM2+XXpqy1BPrnHPCOqARm7ejLd+XDlvVKuqoHvMP/JTvTe
VgzY1yKj0EtUeI5v1Bb5p1xh30xQ/9Hb5PJcBT9FPiLIJaqEpnTwV+qJnPGtxjqU
WdYoVA1e59RJLDBY0G0JEHZfnQAbVX1K448CAwEAAaMQMA4wDAYDVR0TAQH/BAIw
ADANBgkqhkiG9w0BAQsFAAOCAQEAOBloEmt4NB44a7UlwMa/yac/0uea+6YmfGEI
sSQK+LmQJ7F7hhYOfDNi2s7nyyJJjLBMLwe2GS+1QoxwwbfADlXPtHji9+nzqIvl
pbIT2SYYb5lBCqAlSTzY5s1M4ipAz45BCwb7F/sIZ54rOhOWUgwerEKjjVCEeTJl
g+NpiPHVxUH3pDkHF8D/08fzH3psjcUtz0ePSs86mJc60J7B/vcZVn+HTJP33xTc
MhpX3Lux0G0hvDDb6PXDu/YC3JCdk6aTvV+N+H2ahZYM6Wc7eQLcdBYj5SWR/gHd
o6sWe44Sy9+hlMDeA93i1nJLVakYkw37sXAnyVjttsGV5ukOSQ==
-----END CERTIFICATE-----
