Certificate:
    Data:
        Version: 3 (0x2)
        Serial Number: 23 (0x17)
    Signature Algorithm: sha256WithRSAEncryption
        Issuer: C=US, ST=California, L=Santa Clara, O=pkg5, CN=ch1_ta3/emailAddress=ch1_ta3
        Validity
            Not Before: Mar 20 10:20:54 2018 GMT
            Not After : Dec 14 10:20:54 2020 GMT
        Subject: C=US, ST=California, L=Santa Clara, O=pkg5, CN=cs7_ch1_ta3/emailAddress=cs7_ch1_ta3
        Subject Public Key Info:
            Public Key Algorithm: rsaEncryption
                Public-Key: (1024 bit)
                Modulus:
                    00:ad:ae:4b:87:5a:22:9e:5f:ad:15:dc:9b:2f:76:
                    4e:97:c6:4e:91:74:ec:7f:89:a0:35:86:18:8c:70:
                    bd:17:f2:8c:3d:be:0d:60:1a:68:86:6c:b0:d8:62:
                    26:5e:99:d9:7d:4d:e1:c0:a6:d8:c8:80:8b:12:9f:
                    3b:e3:5e:47:f9:6e:dd:f0:c8:6b:e1:61:58:6d:e4:
                    ba:0f:06:13:37:34:dd:da:f9:70:1a:e3:26:f8:8a:
                    44:e6:84:48:95:a0:7b:5d:62:be:6d:ea:ed:be:ba:
                    41:93:35:ca:74:55:47:61:24:7c:20:fc:63:54:0c:
                    f5:26:44:d5:dd:64:12:92:6f
                Exponent: 65537 (0x10001)
        X509v3 extensions:
            X509v3 Basic Constraints: critical
                CA:FALSE
    Signature Algorithm: sha256WithRSAEncryption
         6e:e1:3f:39:21:af:1e:3c:e5:1d:9e:c8:b9:88:56:b1:a2:71:
         76:e6:e6:12:4b:88:15:c2:30:eb:f1:f7:4d:20:b4:48:fc:06:
         64:c6:04:fb:42:9f:91:5a:3a:d8:92:a3:e5:10:4e:a9:a1:ba:
         1b:52:8d:5e:16:f9:75:7d:05:91:91:5f:db:ca:1c:c9:b5:45:
         f4:16:ce:34:a8:1c:02:af:f1:45:a0:77:30:bb:57:02:6c:b8:
         f0:e9:34:b3:5d:22:70:a3:8e:a1:7e:33:11:13:2d:3b:fc:07:
         53:6d:a2:50:78:c4:4f:89:2e:78:26:ad:ba:11:7b:73:99:d1:
         9c:61:c7:33:f3:62:be:68:8d:99:3c:09:9b:60:ed:6e:f2:e5:
         77:a9:ce:e2:db:d2:f4:65:fe:cf:83:bc:36:37:e7:4b:e3:c2:
         f2:69:a1:1e:35:0e:7e:ac:c9:22:12:00:d3:2b:32:70:c1:53:
         7e:8e:14:63:ab:b0:35:ce:d7:8c:29:51:ae:1b:67:58:5b:fa:
         91:0c:19:71:41:b4:90:96:ab:e3:75:03:48:c8:ea:3c:be:70:
         db:c0:63:bc:05:f9:98:ac:00:e7:64:38:d5:a9:ef:01:a7:83:
         ab:d9:e9:0e:4e:9e:d8:af:27:77:5e:16:b6:f2:09:30:30:63:
         27:b9:8e:f5
-----BEGIN CERTIFICATE-----
MIIC8TCCAdmgAwIBAgIBFzANBgkqhkiG9w0BAQsFADBxMQswCQYDVQQGEwJVUzET
MBEGA1UECAwKQ2FsaWZvcm5pYTEUMBIGA1UEBwwLU2FudGEgQ2xhcmExDTALBgNV
BAoMBHBrZzUxEDAOBgNVBAMMB2NoMV90YTMxFjAUBgkqhkiG9w0BCQEWB2NoMV90
YTMwHhcNMTgwMzIwMTAyMDU0WhcNMjAxMjE0MTAyMDU0WjB5MQswCQYDVQQGEwJV
UzETMBEGA1UECAwKQ2FsaWZvcm5pYTEUMBIGA1UEBwwLU2FudGEgQ2xhcmExDTAL
BgNVBAoMBHBrZzUxFDASBgNVBAMMC2NzN19jaDFfdGEzMRowGAYJKoZIhvcNAQkB
FgtjczdfY2gxX3RhMzCBnzANBgkqhkiG9w0BAQEFAAOBjQAwgYkCgYEAra5Lh1oi
nl+tFdybL3ZOl8ZOkXTsf4mgNYYYjHC9F/KMPb4NYBpohmyw2GImXpnZfU3hwKbY
yICLEp87415H+W7d8Mhr4WFYbeS6DwYTNzTd2vlwGuMm+IpE5oRIlaB7XWK+bert
vrpBkzXKdFVHYSR8IPxjVAz1JkTV3WQSkm8CAwEAAaMQMA4wDAYDVR0TAQH/BAIw
ADANBgkqhkiG9w0BAQsFAAOCAQEAbuE/OSGvHjzlHZ7IuYhWsaJxdubmEkuIFcIw
6/H3TSC0SPwGZMYE+0KfkVo62JKj5RBOqaG6G1KNXhb5dX0FkZFf28ocybVF9BbO
NKgcAq/xRaB3MLtXAmy48Ok0s10icKOOoX4zERMtO/wHU22iUHjET4kueCatuhF7
c5nRnGHHM/NivmiNmTwJm2DtbvLld6nO4tvS9GX+z4O8NjfnS+PC8mmhHjUOfqzJ
IhIA0ysycMFTfo4UY6uwNc7XjClRrhtnWFv6kQwZcUG0kJar43UDSMjqPL5w28Bj
vAX5mKwA52Q41anvAaeDq9npDk6e2K8nd14WtvIJMDBjJ7mO9Q==
-----END CERTIFICATE-----
