Certificate:
    Data:
        Version: 3 (0x2)
        Serial Number: 23 (0x17)
    Signature Algorithm: sha256WithRSAEncryption
        Issuer: C=US, ST=California, L=Santa Clara, O=pkg5, CN=ch1_ta3/emailAddress=ch1_ta3
        Validity
            Not Before: Nov 28 22:50:56 2016 GMT
            Not After : Aug 25 22:50:56 2019 GMT
        Subject: C=US, ST=California, L=Santa Clara, O=pkg5, CN=cs7_ch1_ta3/emailAddress=cs7_ch1_ta3
        Subject Public Key Info:
            Public Key Algorithm: rsaEncryption
                Public-Key: (1024 bit)
                Modulus:
                    00:a2:f9:cf:98:59:a7:59:ac:87:13:7b:78:38:fb:
                    b4:03:23:8a:05:f5:f9:82:82:e4:8c:d6:67:bb:dd:
                    fc:61:a1:24:35:9c:53:d2:52:8c:30:2e:16:01:71:
                    2a:e1:e2:3b:ab:6b:01:2f:2d:47:5d:4e:2b:90:e8:
                    0b:65:9b:1f:03:d5:60:f2:8b:3d:39:08:2a:cc:0e:
                    99:65:03:66:c6:39:3c:83:d4:14:28:e9:fd:8a:06:
                    4a:d9:d2:c4:05:11:65:d3:59:91:4d:04:1f:5c:94:
                    b9:c8:01:c9:43:4c:48:07:78:88:78:75:8b:7e:cb:
                    d5:74:60:d0:fe:17:1c:9c:99
                Exponent: 65537 (0x10001)
        X509v3 extensions:
            X509v3 Basic Constraints: critical
                CA:FALSE
    Signature Algorithm: sha256WithRSAEncryption
         a3:97:8b:14:66:fe:2a:b1:76:24:42:07:b6:d3:ed:ca:a8:8c:
         8d:58:ef:92:ed:c7:1a:91:57:12:43:45:b7:92:e3:c5:13:4f:
         64:0e:c9:83:d8:4b:1e:41:eb:42:68:23:90:87:09:b1:70:41:
         03:41:00:20:49:4c:ba:02:4c:50:41:eb:00:17:15:94:3a:da:
         80:da:3a:c5:20:db:17:a5:45:9a:ef:9a:d4:46:52:d0:37:ba:
         78:68:96:47:94:6a:d8:e2:52:f3:db:f3:4c:2b:39:48:1b:db:
         30:8c:6d:d8:57:65:ce:7b:19:9e:c6:e0:2b:19:82:3e:45:33:
         b7:1e:57:a4:79:d7:05:27:3d:d0:79:c9:1d:fc:b8:24:59:85:
         65:7b:49:1a:e7:10:81:68:21:ec:e0:c6:48:a7:fc:f5:27:53:
         67:13:ab:34:03:7d:98:bc:cb:a3:63:d1:06:be:9f:e6:2a:1c:
         ab:4f:f5:af:cd:1e:ce:84:7c:bf:5a:44:f4:ca:b9:ec:c7:f1:
         97:b5:33:65:0c:8d:db:3d:d0:aa:55:66:02:16:32:69:03:52:
         96:3a:76:3d:d3:26:87:b4:1e:1b:4b:37:f4:32:84:25:49:f0:
         2a:6c:91:fb:be:22:5b:58:56:27:6e:8d:35:ed:8e:d5:c4:1f:
         a6:a4:f3:58
-----BEGIN CERTIFICATE-----
MIIC8TCCAdmgAwIBAgIBFzANBgkqhkiG9w0BAQsFADBxMQswCQYDVQQGEwJVUzET
MBEGA1UECAwKQ2FsaWZvcm5pYTEUMBIGA1UEBwwLU2FudGEgQ2xhcmExDTALBgNV
BAoMBHBrZzUxEDAOBgNVBAMMB2NoMV90YTMxFjAUBgkqhkiG9w0BCQEWB2NoMV90
YTMwHhcNMTYxMTI4MjI1MDU2WhcNMTkwODI1MjI1MDU2WjB5MQswCQYDVQQGEwJV
UzETMBEGA1UECAwKQ2FsaWZvcm5pYTEUMBIGA1UEBwwLU2FudGEgQ2xhcmExDTAL
BgNVBAoMBHBrZzUxFDASBgNVBAMMC2NzN19jaDFfdGEzMRowGAYJKoZIhvcNAQkB
FgtjczdfY2gxX3RhMzCBnzANBgkqhkiG9w0BAQEFAAOBjQAwgYkCgYEAovnPmFmn
WayHE3t4OPu0AyOKBfX5goLkjNZnu938YaEkNZxT0lKMMC4WAXEq4eI7q2sBLy1H
XU4rkOgLZZsfA9Vg8os9OQgqzA6ZZQNmxjk8g9QUKOn9igZK2dLEBRFl01mRTQQf
XJS5yAHJQ0xIB3iIeHWLfsvVdGDQ/hccnJkCAwEAAaMQMA4wDAYDVR0TAQH/BAIw
ADANBgkqhkiG9w0BAQsFAAOCAQEAo5eLFGb+KrF2JEIHttPtyqiMjVjvku3HGpFX
EkNFt5LjxRNPZA7Jg9hLHkHrQmgjkIcJsXBBA0EAIElMugJMUEHrABcVlDragNo6
xSDbF6VFmu+a1EZS0De6eGiWR5Rq2OJS89vzTCs5SBvbMIxt2FdlznsZnsbgKxmC
PkUztx5XpHnXBSc90HnJHfy4JFmFZXtJGucQgWgh7ODGSKf89SdTZxOrNAN9mLzL
o2PRBr6f5iocq0/1r80ezoR8v1pE9Mq57Mfxl7UzZQyN2z3QqlVmAhYyaQNSljp2
PdMmh7QeG0s39DKEJUnwKmyR+74iW1hWJ26NNe2O1cQfpqTzWA==
-----END CERTIFICATE-----
