Certificate:
    Data:
        Version: 3 (0x2)
        Serial Number: 23 (0x17)
        Signature Algorithm: sha256WithRSAEncryption
        Issuer: C=US, ST=California, L=Santa Clara, O=pkg5, CN=ch1_ta3/emailAddress=ch1_ta3
        Validity
            Not Before: Dec 15 15:37:23 2022 GMT
            Not After : Sep 10 15:37:23 2025 GMT
        Subject: C=US, ST=California, L=Santa Clara, O=pkg5, CN=cs7_ch1_ta3/emailAddress=cs7_ch1_ta3
        Subject Public Key Info:
            Public Key Algorithm: rsaEncryption
                Public-Key: (2048 bit)
                Modulus:
                    00:a4:b8:b8:e0:37:17:ff:8b:cd:e7:f5:e3:66:85:
                    ab:0f:a7:19:1d:e4:11:19:96:b4:7e:d6:a7:bd:11:
                    e6:54:e1:9d:15:65:ee:eb:f7:c5:c5:9b:17:e2:10:
                    28:2f:56:b5:a2:3b:3f:7c:d0:84:48:c6:b6:82:bc:
                    0c:79:d1:1f:08:04:62:4a:c1:77:8b:95:90:1e:cc:
                    76:e4:c5:80:3a:14:a9:e9:8c:f0:be:63:f7:1c:25:
                    c9:8e:1a:96:dd:07:f8:aa:8f:11:d1:0e:1d:92:6a:
                    9a:0a:1d:2b:b6:eb:ab:fd:7f:32:31:1c:bc:6a:eb:
                    37:d5:6b:71:06:38:1d:fc:75:82:51:d7:36:47:95:
                    22:8e:d3:b8:2c:6d:14:da:5a:eb:2a:df:96:f2:df:
                    51:5f:c9:3d:7e:ce:2f:00:f7:e4:e7:36:27:9e:b1:
                    b7:2c:68:1c:0b:67:4d:dc:28:44:3e:23:13:a8:ae:
                    11:2f:57:38:2d:cb:04:4d:f0:12:7c:dc:cf:4c:c5:
                    de:1d:a3:c1:b3:27:78:28:57:bc:e0:d1:50:58:9b:
                    1b:77:fe:e7:1e:41:37:93:20:80:b4:75:a5:ea:b6:
                    38:ac:00:94:b9:3d:70:63:b5:77:14:34:50:79:ed:
                    a0:ef:df:d9:a8:16:09:84:e0:0a:7e:f8:42:19:27:
                    e8:41
                Exponent: 65537 (0x10001)
        X509v3 extensions:
            X509v3 Basic Constraints: critical
                CA:FALSE
            X509v3 Subject Key Identifier: 
                F4:7C:66:76:5B:F8:70:72:CF:88:15:BB:CB:45:05:4F:BC:53:5B:8A
            X509v3 Authority Key Identifier: 
                33:56:B5:6A:EF:83:5A:96:29:D5:64:57:A8:29:D0:28:D0:1D:D9:53
    Signature Algorithm: sha256WithRSAEncryption
    Signature Value:
        59:4d:84:94:a7:c6:e4:d1:27:4b:d6:84:03:94:ed:8d:ae:03:
        a1:ab:1c:ae:24:62:7c:50:bc:c4:07:d4:06:12:53:58:8e:fd:
        ee:fd:20:86:9e:b1:aa:6c:2b:48:aa:a8:1d:fb:bc:b5:fd:16:
        6e:7b:b1:2a:6e:4f:5a:ff:c8:54:9d:d8:5e:bb:17:a5:91:d9:
        64:66:01:c1:02:f7:ba:f7:3a:5b:15:7b:b6:55:6b:3f:20:c4:
        8e:0c:49:62:50:15:bd:15:cc:4b:d5:6b:44:35:b3:f9:81:b0:
        da:37:33:63:41:ed:c6:03:9f:b2:c6:12:8f:84:81:be:bb:0b:
        3a:50:92:87:d1:21:db:2a:eb:80:c7:4c:f9:67:7e:f0:6e:9a:
        cf:47:d3:65:94:89:10:98:96:2b:03:76:b2:29:ed:af:b3:d1:
        3b:36:1a:fb:7b:0f:e6:b8:e2:26:15:f7:cd:b3:92:a8:af:07:
        92:ad:43:bd:72:b5:5a:04:a1:be:2f:a5:a4:55:e2:2e:ab:1b:
        c3:21:6b:dc:ee:3c:3e:3d:67:01:1b:20:8f:ba:26:46:9f:1d:
        47:12:68:ed:81:3e:ef:fd:55:f3:75:ca:b0:42:e8:14:cc:8a:
        1e:3d:bb:46:45:43:c7:2f:00:4b:95:81:f9:63:39:64:3b:9c:
        ad:81:bc:af
-----BEGIN CERTIFICATE-----
MIIDtTCCAp2gAwIBAgIBFzANBgkqhkiG9w0BAQsFADBxMQswCQYDVQQGEwJVUzET
MBEGA1UECAwKQ2FsaWZvcm5pYTEUMBIGA1UEBwwLU2FudGEgQ2xhcmExDTALBgNV
BAoMBHBrZzUxEDAOBgNVBAMMB2NoMV90YTMxFjAUBgkqhkiG9w0BCQEWB2NoMV90
YTMwHhcNMjIxMjE1MTUzNzIzWhcNMjUwOTEwMTUzNzIzWjB5MQswCQYDVQQGEwJV
UzETMBEGA1UECAwKQ2FsaWZvcm5pYTEUMBIGA1UEBwwLU2FudGEgQ2xhcmExDTAL
BgNVBAoMBHBrZzUxFDASBgNVBAMMC2NzN19jaDFfdGEzMRowGAYJKoZIhvcNAQkB
FgtjczdfY2gxX3RhMzCCASIwDQYJKoZIhvcNAQEBBQADggEPADCCAQoCggEBAKS4
uOA3F/+Lzef142aFqw+nGR3kERmWtH7Wp70R5lThnRVl7uv3xcWbF+IQKC9WtaI7
P3zQhEjGtoK8DHnRHwgEYkrBd4uVkB7MduTFgDoUqemM8L5j9xwlyY4alt0H+KqP
EdEOHZJqmgodK7brq/1/MjEcvGrrN9VrcQY4Hfx1glHXNkeVIo7TuCxtFNpa6yrf
lvLfUV/JPX7OLwD35Oc2J56xtyxoHAtnTdwoRD4jE6iuES9XOC3LBE3wEnzcz0zF
3h2jwbMneChXvODRUFibG3f+5x5BN5MggLR1peq2OKwAlLk9cGO1dxQ0UHntoO/f
2agWCYTgCn74Qhkn6EECAwEAAaNQME4wDAYDVR0TAQH/BAIwADAdBgNVHQ4EFgQU
9Hxmdlv4cHLPiBW7y0UFT7xTW4owHwYDVR0jBBgwFoAUM1a1au+DWpYp1WRXqCnQ
KNAd2VMwDQYJKoZIhvcNAQELBQADggEBAFlNhJSnxuTRJ0vWhAOU7Y2uA6GrHK4k
YnxQvMQH1AYSU1iO/e79IIaesapsK0iqqB37vLX9Fm57sSpuT1r/yFSd2F67F6WR
2WRmAcEC97r3OlsVe7ZVaz8gxI4MSWJQFb0VzEvVa0Q1s/mBsNo3M2NB7cYDn7LG
Eo+Egb67CzpQkofRIdsq64DHTPlnfvBums9H02WUiRCYlisDdrIp7a+z0Ts2Gvt7
D+a44iYV982zkqivB5KtQ71ytVoEob4vpaRV4i6rG8Mha9zuPD49ZwEbII+6Jkaf
HUcSaO2BPu/9VfN1yrBC6BTMih49u0ZFQ8cvAEuVgfljOWQ7nK2BvK8=
-----END CERTIFICATE-----
