Certificate:
    Data:
        Version: 3 (0x2)
        Serial Number: 24 (0x18)
        Signature Algorithm: sha256WithRSAEncryption
        Issuer: C=US, ST=California, L=Santa Clara, O=pkg5, CN=ch1_ta3/emailAddress=ch1_ta3
        Validity
            Not Before: Oct 24 21:43:07 2023 GMT
            Not After : Jul 20 21:43:07 2026 GMT
        Subject: C=US, ST=California, L=Santa Clara, O=pkg5, CN=cs8_ch1_ta3/emailAddress=cs8_ch1_ta3
        Subject Public Key Info:
            Public Key Algorithm: rsaEncryption
                Public-Key: (2048 bit)
                Modulus:
                    00:d7:6b:03:f2:95:be:66:4f:e0:4e:79:01:cd:55:
                    2a:f9:ae:ae:a5:fc:f5:6b:91:e8:dc:bc:a4:ac:46:
                    9b:ee:2e:4d:ca:44:df:48:de:f0:0d:e8:3b:4d:65:
                    78:14:ad:f2:be:37:83:5c:44:82:dc:98:a2:9b:52:
                    5d:09:d3:27:ae:5b:f9:b8:1b:0b:49:20:c4:71:e0:
                    41:2c:73:47:b9:33:54:58:cc:19:35:1e:fd:af:e0:
                    42:cc:bc:e3:82:d4:a6:85:69:8c:e5:a2:67:b2:a8:
                    6e:d8:20:56:1d:5f:d1:29:49:10:2e:f9:73:46:e4:
                    61:f5:98:7b:4f:29:7a:d0:90:48:2a:f7:86:19:ed:
                    fe:ac:fe:a9:70:c4:5e:90:fd:6d:ea:cd:43:60:06:
                    81:18:e2:cd:6e:68:72:6e:c9:63:0a:d7:98:fa:bb:
                    4f:56:38:e7:89:98:d5:05:9f:49:b6:17:f1:5e:04:
                    56:e6:18:2b:26:7b:ac:b0:2a:8f:2c:44:8a:9c:47:
                    7b:d0:9d:6b:59:b7:04:21:51:6e:3e:29:f6:97:50:
                    28:d6:90:f2:ab:e1:68:ff:c2:5d:1f:49:68:fc:83:
                    39:91:64:73:af:42:17:d2:67:4b:11:9f:a2:ec:99:
                    8b:f0:58:ae:fe:0b:c6:d0:71:57:53:9b:4b:65:fc:
                    17:d5
                Exponent: 65537 (0x10001)
        X509v3 extensions:
            X509v3 Basic Constraints: critical
                CA:TRUE
            X509v3 Key Usage: critical
                Digital Signature
            X509v3 Subject Key Identifier: 
                D8:C2:24:34:D8:0B:06:CC:23:32:56:CA:29:08:2E:68:74:28:80:4A
            X509v3 Authority Key Identifier: 
                EC:04:9D:52:42:13:3C:0B:DA:EF:1D:7E:FD:8C:02:F4:74:FA:24:6D
    Signature Algorithm: sha256WithRSAEncryption
    Signature Value:
        43:f6:8b:54:e4:c2:f7:de:eb:1c:1a:35:66:63:1b:66:13:24:
        68:61:7c:56:28:67:f9:29:d4:cb:c9:cd:9a:57:c6:cc:fe:50:
        c6:26:ca:76:20:e4:8f:e9:25:05:bc:e2:58:aa:f9:78:db:21:
        31:21:ef:74:18:54:9d:67:8f:f5:1d:f1:92:12:db:b6:a3:af:
        ff:70:66:80:a4:78:96:80:20:f2:2f:21:dc:ed:a1:1f:fd:8a:
        3e:e8:fa:5d:d1:b5:c5:51:1b:ad:da:43:41:a0:85:2c:bd:0e:
        a6:4e:3e:b7:ed:a7:0c:67:50:a6:fa:b2:73:8e:ea:1b:66:7d:
        d0:65:8c:ea:ae:15:db:d7:10:2a:21:af:31:8e:38:d0:eb:89:
        d3:15:fa:6a:0b:90:06:62:e6:17:d9:26:8f:74:39:58:6e:a4:
        8d:11:3c:fb:21:ff:e3:ac:ac:44:59:43:65:b7:f0:36:f9:23:
        65:ad:00:0d:d8:ff:91:f6:3f:40:47:1e:4d:2c:71:5d:06:77:
        b4:c0:a2:44:27:b5:38:21:a8:44:f2:a8:da:81:8e:81:05:b6:
        23:dc:03:7a:3e:68:ee:af:59:55:67:88:3a:c7:de:b5:5b:ac:
        c8:f4:e5:12:15:a7:13:dd:8f:52:bc:c5:b1:2f:76:e9:b2:a4:
        3a:11:2d:89
-----BEGIN CERTIFICATE-----
MIIDyDCCArCgAwIBAgIBGDANBgkqhkiG9w0BAQsFADBxMQswCQYDVQQGEwJVUzET
MBEGA1UECAwKQ2FsaWZvcm5pYTEUMBIGA1UEBwwLU2FudGEgQ2xhcmExDTALBgNV
BAoMBHBrZzUxEDAOBgNVBAMMB2NoMV90YTMxFjAUBgkqhkiG9w0BCQEWB2NoMV90
YTMwHhcNMjMxMDI0MjE0MzA3WhcNMjYwNzIwMjE0MzA3WjB5MQswCQYDVQQGEwJV
UzETMBEGA1UECAwKQ2FsaWZvcm5pYTEUMBIGA1UEBwwLU2FudGEgQ2xhcmExDTAL
BgNVBAoMBHBrZzUxFDASBgNVBAMMC2NzOF9jaDFfdGEzMRowGAYJKoZIhvcNAQkB
FgtjczhfY2gxX3RhMzCCASIwDQYJKoZIhvcNAQEBBQADggEPADCCAQoCggEBANdr
A/KVvmZP4E55Ac1VKvmurqX89WuR6Ny8pKxGm+4uTcpE30je8A3oO01leBSt8r43
g1xEgtyYoptSXQnTJ65b+bgbC0kgxHHgQSxzR7kzVFjMGTUe/a/gQsy844LUpoVp
jOWiZ7KobtggVh1f0SlJEC75c0bkYfWYe08petCQSCr3hhnt/qz+qXDEXpD9berN
Q2AGgRjizW5ocm7JYwrXmPq7T1Y454mY1QWfSbYX8V4EVuYYKyZ7rLAqjyxEipxH
e9Cda1m3BCFRbj4p9pdQKNaQ8qvhaP/CXR9JaPyDOZFkc69CF9JnSxGfouyZi/BY
rv4LxtBxV1ObS2X8F9UCAwEAAaNjMGEwDwYDVR0TAQH/BAUwAwEB/zAOBgNVHQ8B
Af8EBAMCB4AwHQYDVR0OBBYEFNjCJDTYCwbMIzJWyikILmh0KIBKMB8GA1UdIwQY
MBaAFOwEnVJCEzwL2u8dfv2MAvR0+iRtMA0GCSqGSIb3DQEBCwUAA4IBAQBD9otU
5ML33uscGjVmYxtmEyRoYXxWKGf5KdTLyc2aV8bM/lDGJsp2IOSP6SUFvOJYqvl4
2yExIe90GFSdZ4/1HfGSEtu2o6//cGaApHiWgCDyLyHc7aEf/Yo+6Ppd0bXFURut
2kNBoIUsvQ6mTj637acMZ1Cm+rJzjuobZn3QZYzqrhXb1xAqIa8xjjjQ64nTFfpq
C5AGYuYX2SaPdDlYbqSNETz7If/jrKxEWUNlt/A2+SNlrQAN2P+R9j9ARx5NLHFd
Bne0wKJEJ7U4IahE8qjagY6BBbYj3AN6Pmjur1lVZ4g6x961W6zI9OUSFacT3Y9S
vMWxL3bpsqQ6ES2J
-----END CERTIFICATE-----
