Certificate:
    Data:
        Version: 3 (0x2)
        Serial Number: 24 (0x18)
    Signature Algorithm: sha256WithRSAEncryption
        Issuer: C=US, ST=California, L=Santa Clara, O=pkg5, CN=ch1_ta3/emailAddress=ch1_ta3
        Validity
            Not Before: Dec  6 03:06:43 2014 GMT
            Not After : Sep  1 03:06:43 2017 GMT
        Subject: C=US, ST=California, L=Santa Clara, O=pkg5, CN=cs8_ch1_ta3/emailAddress=cs8_ch1_ta3
        Subject Public Key Info:
            Public Key Algorithm: rsaEncryption
                Public-Key: (1024 bit)
                Modulus:
                    00:d5:aa:d1:77:a3:74:60:d3:92:78:d1:6a:38:00:
                    2b:8d:7c:6c:73:b8:ea:bd:71:ca:03:76:62:76:30:
                    2d:63:50:09:55:e9:f6:8c:05:b7:23:fa:e7:b8:b7:
                    3c:a4:de:ba:88:47:73:97:48:89:4f:b2:3e:4e:b3:
                    33:6b:7f:d7:52:73:23:cc:67:0b:4a:c5:53:19:cd:
                    50:ee:ee:59:d7:c4:f5:ff:bf:99:c0:48:f3:68:30:
                    02:26:de:c5:0f:c7:a3:c2:20:5d:60:3c:1c:78:63:
                    63:38:24:7c:e1:ef:48:0f:4b:c6:a2:f2:c8:36:ce:
                    db:34:2c:8d:a3:74:e3:ac:3f
                Exponent: 65537 (0x10001)
        X509v3 extensions:
            X509v3 Basic Constraints: critical
                CA:TRUE
            X509v3 Key Usage: critical
                Digital Signature
    Signature Algorithm: sha256WithRSAEncryption
         94:8d:a8:f6:aa:34:d1:40:c0:70:12:35:d9:2d:6b:87:53:22:
         86:7b:f4:39:1b:88:6c:69:4f:c5:d2:9f:31:3e:e6:1a:f5:47:
         1a:22:cb:d9:be:e7:3d:30:97:fa:1a:b6:87:4b:8a:3a:cf:a4:
         3b:7b:a5:8c:64:e1:c9:c9:d9:4b:e2:35:0c:64:13:0a:cd:ca:
         55:d3:2a:2c:1c:f1:0c:f9:fc:96:6a:c3:14:8a:77:e9:c5:9b:
         d1:c1:0b:99:99:57:3e:77:07:a9:04:ff:1f:b5:a1:cb:71:8f:
         57:e2:f2:6f:38:d7:0d:44:35:ef:76:41:ea:5d:ea:8d:22:76:
         10:72
-----BEGIN CERTIFICATE-----
MIICgzCCAeygAwIBAgIBGDANBgkqhkiG9w0BAQsFADBxMQswCQYDVQQGEwJVUzET
MBEGA1UECAwKQ2FsaWZvcm5pYTEUMBIGA1UEBwwLU2FudGEgQ2xhcmExDTALBgNV
BAoMBHBrZzUxEDAOBgNVBAMMB2NoMV90YTMxFjAUBgkqhkiG9w0BCQEWB2NoMV90
YTMwHhcNMTQxMjA2MDMwNjQzWhcNMTcwOTAxMDMwNjQzWjB5MQswCQYDVQQGEwJV
UzETMBEGA1UECAwKQ2FsaWZvcm5pYTEUMBIGA1UEBwwLU2FudGEgQ2xhcmExDTAL
BgNVBAoMBHBrZzUxFDASBgNVBAMMC2NzOF9jaDFfdGEzMRowGAYJKoZIhvcNAQkB
FgtjczhfY2gxX3RhMzCBnzANBgkqhkiG9w0BAQEFAAOBjQAwgYkCgYEA1arRd6N0
YNOSeNFqOAArjXxsc7jqvXHKA3ZidjAtY1AJVen2jAW3I/rnuLc8pN66iEdzl0iJ
T7I+TrMza3/XUnMjzGcLSsVTGc1Q7u5Z18T1/7+ZwEjzaDACJt7FD8ejwiBdYDwc
eGNjOCR84e9ID0vGovLINs7bNCyNo3TjrD8CAwEAAaMjMCEwDwYDVR0TAQH/BAUw
AwEB/zAOBgNVHQ8BAf8EBAMCB4AwDQYJKoZIhvcNAQELBQADgYEAlI2o9qo00UDA
cBI12S1rh1Mihnv0ORuIbGlPxdKfMT7mGvVHGiLL2b7nPTCX+hq2h0uKOs+kO3ul
jGThycnZS+I1DGQTCs3KVdMqLBzxDPn8lmrDFIp36cWb0cELmZlXPncHqQT/H7Wh
y3GPV+LybzjXDUQ173ZB6l3qjSJ2EHI=
-----END CERTIFICATE-----
