Certificate:
    Data:
        Version: 3 (0x2)
        Serial Number: 25 (0x19)
        Signature Algorithm: sha256WithRSAEncryption
        Issuer: C=US, ST=California, L=Santa Clara, O=pkg5, CN=cs8_ch1_ta3/emailAddress=cs8_ch1_ta3
        Validity
            Not Before: May 23 15:47:19 2024 GMT
            Not After : Feb 17 15:47:19 2027 GMT
        Subject: C=US, ST=California, L=Santa Clara, O=pkg5, CN=cs1_cs8_ch1_ta3/emailAddress=cs1_cs8_ch1_ta3
        Subject Public Key Info:
            Public Key Algorithm: rsaEncryption
                Public-Key: (2048 bit)
                Modulus:
                    00:a6:ff:65:e9:4d:1b:2f:32:68:7b:47:63:30:42:
                    2e:4b:c9:a5:ed:2e:3f:d1:a7:f9:d9:4d:4f:a0:a7:
                    95:6e:1c:d4:ed:a8:fc:ac:5a:02:70:e2:16:3b:bb:
                    a3:92:06:0b:f2:79:9d:bd:b3:b5:2c:bb:5f:b9:72:
                    c5:95:20:5a:54:68:f1:91:a1:c2:19:22:2f:1e:c1:
                    4d:fb:2c:ed:fa:84:d0:8e:88:88:65:23:bd:59:d0:
                    98:fe:50:0a:43:16:d4:16:39:cd:8f:0a:94:04:4f:
                    c1:7d:ea:52:f4:c0:2b:9c:26:ea:14:a9:59:46:0b:
                    f7:5b:9c:ba:25:88:0e:b3:12:e5:ee:dd:36:58:41:
                    cf:bd:db:a6:64:6c:51:7c:3d:15:f4:ab:03:0d:97:
                    51:3a:c0:0f:80:4a:10:05:76:e5:5a:4e:b0:5b:9f:
                    7d:25:3a:93:a0:08:25:e6:b5:1a:66:7d:1d:b5:51:
                    90:8d:c4:54:d0:7d:8d:62:27:33:6e:68:0b:9f:b1:
                    3e:d3:eb:95:45:1e:c5:f4:15:30:fa:e1:82:e2:d1:
                    f0:66:85:4c:db:a5:cc:9a:7f:df:0b:14:82:78:17:
                    4f:b9:6d:77:a0:a5:d9:47:33:23:20:07:ec:26:98:
                    0b:0a:07:38:52:5e:d2:34:73:64:a4:5f:5c:6e:b0:
                    78:ab
                Exponent: 65537 (0x10001)
        X509v3 extensions:
            X509v3 Basic Constraints: critical
                CA:FALSE
            X509v3 Key Usage: critical
                Digital Signature
            X509v3 Subject Key Identifier: 
                56:C5:D2:0A:94:1E:61:8C:08:54:D7:D2:FE:6C:64:88:82:D0:7F:A9
            X509v3 Authority Key Identifier: 
                E5:28:3A:0E:D9:50:10:3C:79:32:F0:AB:A0:60:BD:66:23:5B:34:EC
    Signature Algorithm: sha256WithRSAEncryption
    Signature Value:
        ca:61:bb:54:26:45:3d:0c:3d:70:d4:37:c1:c8:53:c6:df:65:
        ab:c7:6d:66:71:99:be:df:0d:bb:fa:f8:34:c0:e4:56:eb:91:
        2c:d9:50:70:1f:ea:3c:ed:b7:f5:61:37:dc:a3:34:70:aa:b3:
        8c:57:4a:25:9d:24:30:f8:bb:2a:39:51:6d:c2:de:b8:46:6a:
        76:f6:59:a0:53:71:d6:3e:54:bd:a8:bf:ab:c5:a2:5b:e0:0c:
        91:47:61:ba:bc:4b:07:b5:65:56:77:e8:ea:19:95:88:72:77:
        89:1f:1c:58:1d:b5:37:72:55:4a:41:aa:d7:c5:a0:9f:bd:bd:
        f0:02:57:16:99:4d:21:00:00:84:39:1c:65:fb:c8:b6:04:db:
        4f:a0:5f:c1:ed:25:13:c8:00:19:96:9a:6c:5a:56:e2:9c:eb:
        d1:3c:d0:2f:aa:53:ac:37:fe:da:cf:35:6f:00:8b:55:b3:08:
        29:ea:ce:c5:96:4b:ea:37:e4:92:39:d7:2c:7f:59:e9:f6:96:
        e4:98:fa:9e:5f:40:01:04:ce:40:83:a3:79:c2:0e:e8:35:69:
        87:98:05:aa:9e:f1:1d:69:0b:39:fe:a8:d9:b1:21:0c:55:98:
        0f:b0:09:91:73:33:9d:12:55:37:a0:25:55:de:e4:c8:77:0e:
        90:b1:86:ba
-----BEGIN CERTIFICATE-----
MIID1jCCAr6gAwIBAgIBGTANBgkqhkiG9w0BAQsFADB5MQswCQYDVQQGEwJVUzET
MBEGA1UECAwKQ2FsaWZvcm5pYTEUMBIGA1UEBwwLU2FudGEgQ2xhcmExDTALBgNV
BAoMBHBrZzUxFDASBgNVBAMMC2NzOF9jaDFfdGEzMRowGAYJKoZIhvcNAQkBFgtj
czhfY2gxX3RhMzAeFw0yNDA1MjMxNTQ3MTlaFw0yNzAyMTcxNTQ3MTlaMIGBMQsw
CQYDVQQGEwJVUzETMBEGA1UECAwKQ2FsaWZvcm5pYTEUMBIGA1UEBwwLU2FudGEg
Q2xhcmExDTALBgNVBAoMBHBrZzUxGDAWBgNVBAMMD2NzMV9jczhfY2gxX3RhMzEe
MBwGCSqGSIb3DQEJARYPY3MxX2NzOF9jaDFfdGEzMIIBIjANBgkqhkiG9w0BAQEF
AAOCAQ8AMIIBCgKCAQEApv9l6U0bLzJoe0djMEIuS8ml7S4/0af52U1PoKeVbhzU
7aj8rFoCcOIWO7ujkgYL8nmdvbO1LLtfuXLFlSBaVGjxkaHCGSIvHsFN+yzt+oTQ
joiIZSO9WdCY/lAKQxbUFjnNjwqUBE/BfepS9MArnCbqFKlZRgv3W5y6JYgOsxLl
7t02WEHPvdumZGxRfD0V9KsDDZdROsAPgEoQBXblWk6wW599JTqToAgl5rUaZn0d
tVGQjcRU0H2NYiczbmgLn7E+0+uVRR7F9BUw+uGC4tHwZoVM26XMmn/fCxSCeBdP
uW13oKXZRzMjIAfsJpgLCgc4Ul7SNHNkpF9cbrB4qwIDAQABo2AwXjAMBgNVHRMB
Af8EAjAAMA4GA1UdDwEB/wQEAwIHgDAdBgNVHQ4EFgQUVsXSCpQeYYwIVNfS/mxk
iILQf6kwHwYDVR0jBBgwFoAU5Sg6DtlQEDx5MvCroGC9ZiNbNOwwDQYJKoZIhvcN
AQELBQADggEBAMphu1QmRT0MPXDUN8HIU8bfZavHbWZxmb7fDbv6+DTA5FbrkSzZ
UHAf6jztt/VhN9yjNHCqs4xXSiWdJDD4uyo5UW3C3rhGanb2WaBTcdY+VL2ov6vF
olvgDJFHYbq8Swe1ZVZ36OoZlYhyd4kfHFgdtTdyVUpBqtfFoJ+9vfACVxaZTSEA
AIQ5HGX7yLYE20+gX8HtJRPIABmWmmxaVuKc69E80C+qU6w3/trPNW8Ai1WzCCnq
zsWWS+o35JI51yx/Wen2luSY+p5fQAEEzkCDo3nCDug1aYeYBaqe8R1pCzn+qNmx
IQxVmA+wCZFzM50SVTegJVXe5Mh3DpCxhro=
-----END CERTIFICATE-----
