Certificate:
    Data:
        Version: 3 (0x2)
        Serial Number: 25 (0x19)
        Signature Algorithm: sha256WithRSAEncryption
        Issuer: C=US, ST=California, L=Santa Clara, O=pkg5, CN=cs8_ch1_ta3/emailAddress=cs8_ch1_ta3
        Validity
            Not Before: Oct 22 10:15:14 2021 GMT
            Not After : Jul 18 10:15:14 2024 GMT
        Subject: C=US, ST=California, L=Santa Clara, O=pkg5, CN=cs1_cs8_ch1_ta3/emailAddress=cs1_cs8_ch1_ta3
        Subject Public Key Info:
            Public Key Algorithm: rsaEncryption
                Public-Key: (2048 bit)
                Modulus:
                    00:b8:e5:e5:20:cc:b5:e8:e9:59:a4:59:9d:ac:4c:
                    38:2d:87:f1:17:12:f6:4f:2a:ad:98:42:c6:22:db:
                    60:45:18:34:7e:30:84:42:65:9c:02:21:b3:e3:55:
                    d4:0f:d9:75:ea:39:b4:25:80:02:61:4f:20:f5:70:
                    cc:3a:60:46:dc:ec:91:c7:a1:84:08:c9:bb:85:50:
                    9a:a7:8a:53:2c:f5:d2:61:96:44:ee:a3:86:7a:68:
                    ae:b8:38:7a:b5:a8:a7:b0:76:cc:02:cc:67:4b:c6:
                    bd:2c:3e:67:85:a8:4d:f5:0c:43:48:55:e9:9c:a1:
                    da:cd:0d:af:9e:bf:ee:2c:dc:ce:86:3e:be:6c:f6:
                    7a:dc:0e:ce:22:e2:ad:db:1f:1a:64:67:16:a3:ff:
                    a7:3d:f1:86:6f:de:48:4a:28:be:f6:9a:4f:92:b9:
                    96:bc:9d:0e:92:c3:14:50:cd:10:a2:07:70:74:a7:
                    fc:ba:d4:8a:52:1b:e2:8b:13:1e:35:93:d2:3d:d3:
                    61:5b:e7:73:12:9e:a7:72:4a:d3:74:56:67:61:47:
                    8b:05:09:2f:d4:42:b2:c7:2c:57:65:1e:2a:4f:18:
                    b7:75:d2:00:5a:b8:ab:97:ce:56:18:9c:61:86:b6:
                    1f:72:76:e8:ad:2d:a5:99:76:37:17:aa:9a:b7:d0:
                    0b:fb
                Exponent: 65537 (0x10001)
        X509v3 extensions:
            X509v3 Basic Constraints: critical
                CA:FALSE
            X509v3 Key Usage: critical
                Digital Signature
            X509v3 Subject Key Identifier: 
                4D:0D:23:E3:87:77:CC:4E:52:5B:A1:FC:FC:01:4D:9F:03:F0:CF:A5
            X509v3 Authority Key Identifier: 
                2E:EC:3D:1A:AD:E9:9B:2A:54:75:BE:52:4A:FA:AA:03:F1:05:6D:4F
    Signature Algorithm: sha256WithRSAEncryption
    Signature Value:
        4a:5f:3f:a8:ce:a6:3f:1a:f5:05:52:59:b0:8a:d4:88:94:c0:
        9a:5e:42:fa:63:7d:fa:b3:3d:3e:e5:72:87:31:91:ce:97:8c:
        74:14:07:b5:00:9e:e9:dd:f9:79:f2:3b:b4:e9:5b:a6:4d:c9:
        3f:be:32:b4:31:54:67:32:1c:80:38:c4:87:2c:93:74:f5:f1:
        1b:d8:31:39:fa:5e:73:9f:3b:40:78:2b:9b:4b:29:b2:d6:26:
        9c:b7:1c:c5:61:16:e3:e3:c3:ee:fb:0e:14:f3:61:c7:09:c9:
        ee:fc:12:0a:52:c6:b9:48:98:23:e5:d4:48:0c:2c:28:22:ab:
        59:5d:97:86:01:e1:d0:9c:79:59:8f:e1:7e:46:7c:6a:0d:3a:
        de:2a:da:8d:d1:fa:ec:56:c0:6e:3d:37:ca:74:fe:94:4c:d1:
        6f:2f:60:69:87:16:c3:25:ed:6e:8a:29:ec:d8:4f:0a:21:f3:
        8c:c2:55:38:72:a1:d5:8a:84:cd:ae:7e:09:27:78:79:ef:c5:
        28:92:8c:af:a7:72:dd:c6:67:5b:54:8c:c1:2d:c1:04:57:d0:
        b1:4c:7f:aa:52:f8:93:bd:6b:b5:8b:65:0e:40:eb:a9:d7:81:
        18:a6:7a:8f:d7:66:6b:8c:c7:a4:63:e3:19:33:3a:33:e8:de:
        ba:a1:a7:92
-----BEGIN CERTIFICATE-----
MIID1jCCAr6gAwIBAgIBGTANBgkqhkiG9w0BAQsFADB5MQswCQYDVQQGEwJVUzET
MBEGA1UECAwKQ2FsaWZvcm5pYTEUMBIGA1UEBwwLU2FudGEgQ2xhcmExDTALBgNV
BAoMBHBrZzUxFDASBgNVBAMMC2NzOF9jaDFfdGEzMRowGAYJKoZIhvcNAQkBFgtj
czhfY2gxX3RhMzAeFw0yMTEwMjIxMDE1MTRaFw0yNDA3MTgxMDE1MTRaMIGBMQsw
CQYDVQQGEwJVUzETMBEGA1UECAwKQ2FsaWZvcm5pYTEUMBIGA1UEBwwLU2FudGEg
Q2xhcmExDTALBgNVBAoMBHBrZzUxGDAWBgNVBAMMD2NzMV9jczhfY2gxX3RhMzEe
MBwGCSqGSIb3DQEJARYPY3MxX2NzOF9jaDFfdGEzMIIBIjANBgkqhkiG9w0BAQEF
AAOCAQ8AMIIBCgKCAQEAuOXlIMy16OlZpFmdrEw4LYfxFxL2TyqtmELGIttgRRg0
fjCEQmWcAiGz41XUD9l16jm0JYACYU8g9XDMOmBG3OyRx6GECMm7hVCap4pTLPXS
YZZE7qOGemiuuDh6tainsHbMAsxnS8a9LD5nhahN9QxDSFXpnKHazQ2vnr/uLNzO
hj6+bPZ63A7OIuKt2x8aZGcWo/+nPfGGb95ISii+9ppPkrmWvJ0OksMUUM0Qogdw
dKf8utSKUhviixMeNZPSPdNhW+dzEp6nckrTdFZnYUeLBQkv1EKyxyxXZR4qTxi3
ddIAWrirl85WGJxhhrYfcnborS2lmXY3F6qat9AL+wIDAQABo2AwXjAMBgNVHRMB
Af8EAjAAMA4GA1UdDwEB/wQEAwIHgDAdBgNVHQ4EFgQUTQ0j44d3zE5SW6H8/AFN
nwPwz6UwHwYDVR0jBBgwFoAULuw9Gq3pmypUdb5SSvqqA/EFbU8wDQYJKoZIhvcN
AQELBQADggEBAEpfP6jOpj8a9QVSWbCK1IiUwJpeQvpjffqzPT7lcocxkc6XjHQU
B7UAnund+XnyO7TpW6ZNyT++MrQxVGcyHIA4xIcsk3T18RvYMTn6XnOfO0B4K5tL
KbLWJpy3HMVhFuPjw+77DhTzYccJye78EgpSxrlImCPl1EgMLCgiq1ldl4YB4dCc
eVmP4X5GfGoNOt4q2o3R+uxWwG49N8p0/pRM0W8vYGmHFsMl7W6KKezYTwoh84zC
VThyodWKhM2ufgkneHnvxSiSjK+nct3GZ1tUjMEtwQRX0LFMf6pS+JO9a7WLZQ5A
66nXgRimeo/XZmuMx6Rj4xkzOjPo3rqhp5I=
-----END CERTIFICATE-----
