Certificate:
    Data:
        Version: 3 (0x2)
        Serial Number: 25 (0x19)
    Signature Algorithm: sha256WithRSAEncryption
        Issuer: C=US, ST=California, L=Santa Clara, O=pkg5, CN=cs8_ch1_ta3/emailAddress=cs8_ch1_ta3
        Validity
            Not Before: Nov 28 22:50:56 2016 GMT
            Not After : Aug 25 22:50:56 2019 GMT
        Subject: C=US, ST=California, L=Santa Clara, O=pkg5, CN=cs1_cs8_ch1_ta3/emailAddress=cs1_cs8_ch1_ta3
        Subject Public Key Info:
            Public Key Algorithm: rsaEncryption
                Public-Key: (1024 bit)
                Modulus:
                    00:bc:d2:06:d2:5f:a1:23:b1:b8:9c:2a:a2:0a:61:
                    fe:d7:ac:11:bd:70:03:3d:7e:cd:d5:3b:86:74:e6:
                    a5:ee:f2:81:78:15:d0:71:0b:36:dc:4a:ce:03:d9:
                    20:af:64:2e:5e:e2:1c:ef:0f:b0:9c:36:8e:fb:e0:
                    c5:40:c7:92:37:5f:4c:f9:c8:7d:c0:08:5c:16:ae:
                    30:f8:c8:e2:e1:8a:cf:02:f7:b0:0b:28:6e:42:85:
                    dc:63:9c:ed:2b:03:26:d8:0e:a1:3a:57:58:5d:50:
                    b8:11:7d:d7:64:a4:c0:88:73:dc:88:00:3c:18:fa:
                    98:c5:a2:60:68:5c:a9:37:cd
                Exponent: 65537 (0x10001)
        X509v3 extensions:
            X509v3 Basic Constraints: critical
                CA:FALSE
            X509v3 Key Usage: critical
                Digital Signature
    Signature Algorithm: sha256WithRSAEncryption
         39:c2:49:f5:cd:60:5f:94:c7:12:7c:e0:46:19:ab:04:2e:3d:
         ac:84:44:45:9a:5c:cb:ec:e7:40:aa:bd:b1:91:b4:ab:03:31:
         78:32:ac:cc:7b:96:d2:98:91:03:49:ef:2f:a4:68:54:c6:3d:
         24:9d:46:14:3d:ee:0d:3f:10:7b:b6:42:25:dc:97:db:6b:be:
         d0:48:0d:a8:b2:03:3f:4b:e6:84:54:90:2a:ea:a1:c9:78:a2:
         7d:4b:9a:7d:2f:33:6c:fc:75:3c:48:38:72:27:a4:f0:f2:10:
         76:87:a0:dc:45:6a:5b:2c:77:e5:de:ac:b7:56:f1:5b:48:c4:
         f8:4a
-----BEGIN CERTIFICATE-----
MIICkTCCAfqgAwIBAgIBGTANBgkqhkiG9w0BAQsFADB5MQswCQYDVQQGEwJVUzET
MBEGA1UECAwKQ2FsaWZvcm5pYTEUMBIGA1UEBwwLU2FudGEgQ2xhcmExDTALBgNV
BAoMBHBrZzUxFDASBgNVBAMMC2NzOF9jaDFfdGEzMRowGAYJKoZIhvcNAQkBFgtj
czhfY2gxX3RhMzAeFw0xNjExMjgyMjUwNTZaFw0xOTA4MjUyMjUwNTZaMIGBMQsw
CQYDVQQGEwJVUzETMBEGA1UECAwKQ2FsaWZvcm5pYTEUMBIGA1UEBwwLU2FudGEg
Q2xhcmExDTALBgNVBAoMBHBrZzUxGDAWBgNVBAMMD2NzMV9jczhfY2gxX3RhMzEe
MBwGCSqGSIb3DQEJARYPY3MxX2NzOF9jaDFfdGEzMIGfMA0GCSqGSIb3DQEBAQUA
A4GNADCBiQKBgQC80gbSX6EjsbicKqIKYf7XrBG9cAM9fs3VO4Z05qXu8oF4FdBx
CzbcSs4D2SCvZC5e4hzvD7CcNo774MVAx5I3X0z5yH3ACFwWrjD4yOLhis8C97AL
KG5ChdxjnO0rAybYDqE6V1hdULgRfddkpMCIc9yIADwY+pjFomBoXKk3zQIDAQAB
oyAwHjAMBgNVHRMBAf8EAjAAMA4GA1UdDwEB/wQEAwIHgDANBgkqhkiG9w0BAQsF
AAOBgQA5wkn1zWBflMcSfOBGGasELj2shERFmlzL7OdAqr2xkbSrAzF4MqzMe5bS
mJEDSe8vpGhUxj0knUYUPe4NPxB7tkIl3Jfba77QSA2osgM/S+aEVJAq6qHJeKJ9
S5p9LzNs/HU8SDhyJ6Tw8hB2h6DcRWpbLHfl3qy3VvFbSMT4Sg==
-----END CERTIFICATE-----
