Certificate:
    Data:
        Version: 3 (0x2)
        Serial Number: 25 (0x19)
        Signature Algorithm: sha256WithRSAEncryption
        Issuer: C=US, ST=California, L=Santa Clara, O=pkg5, CN=cs8_ch1_ta3/emailAddress=cs8_ch1_ta3
        Validity
            Not Before: Oct 24 21:43:08 2023 GMT
            Not After : Jul 20 21:43:08 2026 GMT
        Subject: C=US, ST=California, L=Santa Clara, O=pkg5, CN=cs1_cs8_ch1_ta3/emailAddress=cs1_cs8_ch1_ta3
        Subject Public Key Info:
            Public Key Algorithm: rsaEncryption
                Public-Key: (2048 bit)
                Modulus:
                    00:aa:77:37:62:bc:bb:36:95:06:79:ef:69:b4:1a:
                    b9:89:8f:be:53:b7:69:6c:21:2c:fe:e0:54:93:62:
                    82:c1:97:38:53:05:60:14:3d:3f:e4:09:fe:6e:97:
                    d0:65:4e:e4:44:52:50:ea:cc:c0:91:72:60:38:44:
                    92:93:7b:46:c1:38:ba:7b:82:2e:01:86:ca:f8:ff:
                    a1:42:d8:5b:68:ab:9a:0a:f5:28:50:42:b5:af:91:
                    4f:67:05:5c:53:ff:49:4e:08:e4:53:08:0f:7a:78:
                    de:06:2e:5e:3e:f3:4d:a4:75:6c:b0:01:af:a7:06:
                    17:bb:81:ac:70:fa:fe:7b:aa:29:8f:d9:f9:d0:bc:
                    a8:ac:df:a6:3a:9a:06:19:36:a8:db:2d:3a:20:b2:
                    58:0b:95:6b:8d:80:04:1d:38:d6:d0:f3:16:a6:d0:
                    db:c9:24:0f:b2:a7:77:ff:ac:a6:48:fc:6c:cb:36:
                    73:70:a9:6d:fa:3b:0d:9c:7a:d4:60:1d:1a:08:ee:
                    a9:96:9a:0e:ec:ca:90:81:11:cb:f0:ba:a1:3e:a6:
                    db:25:2e:a0:42:a5:2d:c4:76:f3:5c:8f:ef:72:21:
                    c0:43:01:8d:f8:e5:1f:42:c5:d5:5f:42:c7:dd:95:
                    4d:19:21:bb:ec:fd:32:eb:70:7e:4e:ef:4a:55:7d:
                    22:11
                Exponent: 65537 (0x10001)
        X509v3 extensions:
            X509v3 Basic Constraints: critical
                CA:FALSE
            X509v3 Key Usage: critical
                Digital Signature
            X509v3 Subject Key Identifier: 
                A8:18:B4:84:06:73:D1:C7:BE:18:76:4B:DD:DE:AD:3E:EC:8F:6C:B1
            X509v3 Authority Key Identifier: 
                D8:C2:24:34:D8:0B:06:CC:23:32:56:CA:29:08:2E:68:74:28:80:4A
    Signature Algorithm: sha256WithRSAEncryption
    Signature Value:
        21:5f:47:8c:a2:5b:55:35:32:bb:1b:50:39:e1:db:fb:ae:e5:
        9d:a1:78:c7:ef:2a:ba:24:be:49:24:85:bd:8e:17:a7:53:11:
        6e:89:e2:4f:1c:86:d2:2d:01:29:07:c9:8d:34:45:0f:c2:ba:
        dd:e9:dd:7f:35:3d:be:c5:29:1e:aa:fe:20:71:04:73:7d:46:
        84:94:f0:40:c5:02:5c:c0:3a:57:d3:c5:39:a4:4c:04:b7:b2:
        eb:a2:03:13:4b:f4:c3:03:69:0e:58:aa:2c:29:59:1f:57:80:
        5a:6a:89:0e:32:dc:85:7b:1c:21:80:52:e3:93:8c:6e:03:17:
        6f:9a:b4:a6:04:35:4f:03:95:69:67:94:e6:15:1e:75:29:22:
        04:2d:5d:44:17:a3:a5:ea:f7:bb:b5:15:03:25:75:1e:1e:e3:
        62:55:7e:b0:58:2b:9a:39:35:29:50:12:30:77:86:73:45:f0:
        36:92:52:bc:f7:61:eb:01:01:e2:b8:6f:59:ce:20:1b:dd:9f:
        a3:4d:ab:13:50:7e:e9:81:5e:f8:b7:45:52:12:ba:94:38:90:
        67:5a:fc:19:f2:50:c3:52:1e:31:3f:57:09:cd:f2:7d:61:16:
        2b:45:9d:4f:bf:b7:39:a0:e2:e9:af:ec:30:72:f8:91:a5:21:
        cf:7f:87:b0
-----BEGIN CERTIFICATE-----
MIID1jCCAr6gAwIBAgIBGTANBgkqhkiG9w0BAQsFADB5MQswCQYDVQQGEwJVUzET
MBEGA1UECAwKQ2FsaWZvcm5pYTEUMBIGA1UEBwwLU2FudGEgQ2xhcmExDTALBgNV
BAoMBHBrZzUxFDASBgNVBAMMC2NzOF9jaDFfdGEzMRowGAYJKoZIhvcNAQkBFgtj
czhfY2gxX3RhMzAeFw0yMzEwMjQyMTQzMDhaFw0yNjA3MjAyMTQzMDhaMIGBMQsw
CQYDVQQGEwJVUzETMBEGA1UECAwKQ2FsaWZvcm5pYTEUMBIGA1UEBwwLU2FudGEg
Q2xhcmExDTALBgNVBAoMBHBrZzUxGDAWBgNVBAMMD2NzMV9jczhfY2gxX3RhMzEe
MBwGCSqGSIb3DQEJARYPY3MxX2NzOF9jaDFfdGEzMIIBIjANBgkqhkiG9w0BAQEF
AAOCAQ8AMIIBCgKCAQEAqnc3Yry7NpUGee9ptBq5iY++U7dpbCEs/uBUk2KCwZc4
UwVgFD0/5An+bpfQZU7kRFJQ6szAkXJgOESSk3tGwTi6e4IuAYbK+P+hQthbaKua
CvUoUEK1r5FPZwVcU/9JTgjkUwgPenjeBi5ePvNNpHVssAGvpwYXu4GscPr+e6op
j9n50LyorN+mOpoGGTao2y06ILJYC5VrjYAEHTjW0PMWptDbySQPsqd3/6ymSPxs
yzZzcKlt+jsNnHrUYB0aCO6plpoO7MqQgRHL8LqhPqbbJS6gQqUtxHbzXI/vciHA
QwGN+OUfQsXVX0LH3ZVNGSG77P0y63B+Tu9KVX0iEQIDAQABo2AwXjAMBgNVHRMB
Af8EAjAAMA4GA1UdDwEB/wQEAwIHgDAdBgNVHQ4EFgQUqBi0hAZz0ce+GHZL3d6t
PuyPbLEwHwYDVR0jBBgwFoAU2MIkNNgLBswjMlbKKQguaHQogEowDQYJKoZIhvcN
AQELBQADggEBACFfR4yiW1U1MrsbUDnh2/uu5Z2heMfvKrokvkkkhb2OF6dTEW6J
4k8chtItASkHyY00RQ/Cut3p3X81Pb7FKR6q/iBxBHN9RoSU8EDFAlzAOlfTxTmk
TAS3suuiAxNL9MMDaQ5YqiwpWR9XgFpqiQ4y3IV7HCGAUuOTjG4DF2+atKYENU8D
lWlnlOYVHnUpIgQtXUQXo6Xq97u1FQMldR4e42JVfrBYK5o5NSlQEjB3hnNF8DaS
Urz3YesBAeK4b1nOIBvdn6NNqxNQfumBXvi3RVISupQ4kGda/BnyUMNSHjE/VwnN
8n1hFitFnU+/tzmg4umv7DBy+JGlIc9/h7A=
-----END CERTIFICATE-----
