Certificate:
    Data:
        Version: 3 (0x2)
        Serial Number: 25 (0x19)
        Signature Algorithm: sha256WithRSAEncryption
        Issuer: C=US, ST=California, L=Santa Clara, O=pkg5, CN=cs8_ch1_ta3/emailAddress=cs8_ch1_ta3
        Validity
            Not Before: Nov 14 14:26:55 2024 GMT
            Not After : Aug 11 14:26:55 2027 GMT
        Subject: C=US, ST=California, L=Santa Clara, O=pkg5, CN=cs1_cs8_ch1_ta3/emailAddress=cs1_cs8_ch1_ta3
        Subject Public Key Info:
            Public Key Algorithm: rsaEncryption
                Public-Key: (2048 bit)
                Modulus:
                    00:e1:92:f2:af:47:2d:42:f5:24:e8:b0:84:52:94:
                    0b:c8:d8:1e:6f:09:10:dc:fb:0d:dd:d8:8a:32:8d:
                    ee:de:a0:26:7a:7b:61:73:34:38:6d:c9:0b:ff:f4:
                    24:62:bb:66:83:1e:46:b3:f2:3c:91:79:48:06:94:
                    6a:bd:8e:ce:29:31:5c:c2:c1:77:a1:b5:ca:e3:24:
                    3d:be:da:50:0c:3c:85:58:d9:65:96:c4:ff:f7:a0:
                    d7:41:8a:f5:90:f6:33:2f:58:b8:fa:b9:e4:35:5e:
                    c5:9f:98:f7:c5:f0:31:48:e2:ce:09:91:f2:96:15:
                    21:c7:99:7f:07:50:5f:84:a8:bd:5e:07:2c:36:9e:
                    f0:ac:3c:7d:e2:17:b5:36:03:86:ed:11:4c:27:6c:
                    0e:60:5f:56:f6:e3:e9:a0:cf:e7:c2:05:ec:8c:a2:
                    77:27:53:fa:8f:16:47:a1:93:2a:81:fd:7f:22:dd:
                    ff:a8:fa:25:b4:8a:49:95:4f:ae:a3:2a:c2:ad:f3:
                    40:e5:43:b7:34:08:32:b0:21:fc:d8:31:b7:92:ac:
                    2a:47:b6:8f:dd:6f:f3:a5:cb:30:72:51:8e:a6:a4:
                    2e:c5:bd:04:09:97:5f:af:ff:cd:0a:5c:20:f9:3c:
                    d4:36:9c:c5:62:c1:d0:88:b6:eb:48:ce:c5:cc:ed:
                    4e:5f
                Exponent: 65537 (0x10001)
        X509v3 extensions:
            X509v3 Basic Constraints: critical
                CA:FALSE
            X509v3 Key Usage: critical
                Digital Signature
            X509v3 Subject Key Identifier: 
                14:24:78:85:9D:AA:4D:09:4E:F9:B5:E6:B9:46:AB:DE:1A:E4:36:64
            X509v3 Authority Key Identifier: 
                13:61:2E:3B:AB:A7:07:FB:C7:D2:15:94:01:39:7C:44:E2:DC:52:6A
    Signature Algorithm: sha256WithRSAEncryption
    Signature Value:
        1c:bd:c8:74:97:63:74:cb:82:3b:ec:d6:71:0e:01:95:b5:36:
        ba:8f:65:70:41:84:2f:22:6f:04:7d:67:fd:ce:b7:28:fd:f3:
        77:71:25:d4:e5:36:23:21:81:50:b7:82:80:2e:bb:94:50:6a:
        d5:f6:49:a5:8f:ec:fe:22:14:94:2d:b5:5b:32:c8:57:17:c3:
        e9:7a:33:3d:e1:20:7b:4f:39:f7:0d:f9:4a:7d:e6:67:d2:c4:
        cb:0e:0c:25:a0:5b:75:0a:51:0c:65:d8:7f:f9:c9:7f:37:43:
        5b:b1:5b:10:7f:5e:9d:7e:5a:96:c2:41:f4:f9:ce:43:d4:49:
        58:83:0a:3a:56:ff:e0:0b:2e:f5:8b:db:72:a4:1b:24:71:af:
        5e:1e:5c:80:a2:38:f8:a7:20:35:1d:49:47:62:6b:8e:57:db:
        35:a3:31:56:8a:98:cb:cf:b7:14:c4:5c:af:9c:40:a2:48:71:
        ef:76:04:ee:b4:f1:f4:39:14:d4:7f:bc:d9:08:f2:4f:8f:a6:
        66:a0:77:1d:26:78:3c:f8:b5:4f:8b:90:e9:b3:10:19:b7:39:
        2d:fa:b8:9b:6d:43:16:52:cf:21:be:e1:d7:a8:53:83:33:af:
        71:ce:47:bb:02:18:c7:f5:ef:fe:75:d4:6d:a1:14:22:24:53:
        f1:a6:04:af
-----BEGIN CERTIFICATE-----
MIID1jCCAr6gAwIBAgIBGTANBgkqhkiG9w0BAQsFADB5MQswCQYDVQQGEwJVUzET
MBEGA1UECAwKQ2FsaWZvcm5pYTEUMBIGA1UEBwwLU2FudGEgQ2xhcmExDTALBgNV
BAoMBHBrZzUxFDASBgNVBAMMC2NzOF9jaDFfdGEzMRowGAYJKoZIhvcNAQkBFgtj
czhfY2gxX3RhMzAeFw0yNDExMTQxNDI2NTVaFw0yNzA4MTExNDI2NTVaMIGBMQsw
CQYDVQQGEwJVUzETMBEGA1UECAwKQ2FsaWZvcm5pYTEUMBIGA1UEBwwLU2FudGEg
Q2xhcmExDTALBgNVBAoMBHBrZzUxGDAWBgNVBAMMD2NzMV9jczhfY2gxX3RhMzEe
MBwGCSqGSIb3DQEJARYPY3MxX2NzOF9jaDFfdGEzMIIBIjANBgkqhkiG9w0BAQEF
AAOCAQ8AMIIBCgKCAQEA4ZLyr0ctQvUk6LCEUpQLyNgebwkQ3PsN3diKMo3u3qAm
enthczQ4bckL//QkYrtmgx5Gs/I8kXlIBpRqvY7OKTFcwsF3obXK4yQ9vtpQDDyF
WNlllsT/96DXQYr1kPYzL1i4+rnkNV7Fn5j3xfAxSOLOCZHylhUhx5l/B1BfhKi9
XgcsNp7wrDx94he1NgOG7RFMJ2wOYF9W9uPpoM/nwgXsjKJ3J1P6jxZHoZMqgf1/
It3/qPoltIpJlU+uoyrCrfNA5UO3NAgysCH82DG3kqwqR7aP3W/zpcswclGOpqQu
xb0ECZdfr//NClwg+TzUNpzFYsHQiLbrSM7FzO1OXwIDAQABo2AwXjAMBgNVHRMB
Af8EAjAAMA4GA1UdDwEB/wQEAwIHgDAdBgNVHQ4EFgQUFCR4hZ2qTQlO+bXmuUar
3hrkNmQwHwYDVR0jBBgwFoAUE2EuO6unB/vH0hWUATl8ROLcUmowDQYJKoZIhvcN
AQELBQADggEBABy9yHSXY3TLgjvs1nEOAZW1NrqPZXBBhC8ibwR9Z/3Otyj983dx
JdTlNiMhgVC3goAuu5RQatX2SaWP7P4iFJQttVsyyFcXw+l6Mz3hIHtPOfcN+Up9
5mfSxMsODCWgW3UKUQxl2H/5yX83Q1uxWxB/Xp1+WpbCQfT5zkPUSViDCjpW/+AL
LvWL23KkGyRxr14eXICiOPinIDUdSUdia45X2zWjMVaKmMvPtxTEXK+cQKJIce92
BO608fQ5FNR/vNkI8k+Ppmagdx0meDz4tU+LkOmzEBm3OS36uJttQxZSzyG+4deo
U4Mzr3HOR7sCGMf17/511G2hFCIkU/GmBK8=
-----END CERTIFICATE-----
