Certificate:
    Data:
        Version: 3 (0x2)
        Serial Number: 26 (0x1a)
        Signature Algorithm: sha256WithRSAEncryption
        Issuer: C=US, ST=California, L=Santa Clara, O=pkg5, CN=ch1_ta3/emailAddress=ch1_ta3
        Validity
            Not Before: Nov 14 14:26:55 2024 GMT
            Not After : Aug 11 14:26:55 2027 GMT
        Subject: C=US, ST=California, L=Santa Clara, O=pkg5, CN=cs9_ch1_ta3/emailAddress=cs9_ch1_ta3
        Subject Public Key Info:
            Public Key Algorithm: rsaEncryption
                Public-Key: (2048 bit)
                Modulus:
                    00:b1:06:70:06:ba:55:7f:a2:ef:c0:2e:6d:af:e8:
                    f9:c7:46:46:c1:7c:b2:08:95:ae:02:18:f6:42:6c:
                    2c:17:14:b6:05:68:8f:2c:f6:92:fd:a1:ea:eb:31:
                    0b:9e:63:93:56:95:a2:cb:18:c7:af:0a:00:8b:3b:
                    e1:0d:8b:55:79:47:c8:aa:7b:3f:fe:b0:b3:99:f5:
                    b5:9e:1a:9c:1b:4f:52:8b:0f:a2:b5:95:2a:be:96:
                    fe:4d:a0:57:94:7b:71:43:c3:05:c4:c4:bc:8e:60:
                    58:72:41:61:2d:2a:48:a1:95:d6:84:9f:02:98:eb:
                    96:f1:d1:9b:9e:2a:a5:fa:07:e4:0f:65:fc:92:d2:
                    f7:05:6a:65:0b:46:1b:14:e7:ee:2c:e4:a7:97:ec:
                    b6:37:10:3b:96:a4:d8:f8:70:10:05:34:1a:b4:9c:
                    5d:28:7b:4c:5d:e5:7e:99:19:e4:9a:46:62:cc:4d:
                    2a:dc:11:21:cc:fa:47:56:79:b1:66:27:74:46:74:
                    fa:72:17:3c:72:3f:74:44:33:39:26:4d:93:6a:0f:
                    a3:63:9a:b4:c5:4f:a2:8b:88:8c:fa:a8:42:01:43:
                    6e:58:ef:37:b2:15:18:67:26:90:f9:09:a5:f9:fe:
                    1f:80:78:fb:4b:2b:03:af:39:54:43:ae:16:ee:93:
                    71:ed
                Exponent: 65537 (0x10001)
        X509v3 extensions:
            X509v3 Basic Constraints: critical
                CA:FALSE
            X509v3 Key Usage: 
                Encipher Only
            X509v3 Subject Key Identifier: 
                B6:84:E1:73:75:3C:4F:66:FA:D6:63:D6:D8:FE:3F:48:1C:D3:3B:42
            X509v3 Authority Key Identifier: 
                AD:BE:5E:36:0D:CA:1F:58:96:99:52:1F:30:4B:F4:16:7A:8D:9E:7F
    Signature Algorithm: sha256WithRSAEncryption
    Signature Value:
        08:d2:e9:06:4f:48:76:50:74:14:45:84:eb:6d:ac:8e:ac:10:
        3c:cc:65:bc:22:5c:ae:ea:55:38:81:d5:42:c7:95:49:3a:71:
        0d:cd:6c:1f:5b:18:2a:33:51:1b:41:2f:c5:15:83:49:a2:e8:
        44:c3:f2:24:e3:05:3a:41:67:a3:ac:ce:05:76:d0:ec:f0:18:
        3f:23:c6:96:32:8c:97:6a:3e:25:01:4d:4e:37:0e:77:4e:37:
        f5:71:e7:4a:52:1f:d2:fa:cd:26:4b:cf:1d:d2:de:49:8c:72:
        dc:41:da:b6:e9:be:6e:26:34:7a:ed:48:84:63:68:b5:b3:cb:
        13:6e:b5:dd:a1:dc:43:57:66:d6:da:b5:00:ae:13:47:d2:1a:
        a9:e3:89:d5:70:62:dd:39:24:9c:4e:ef:e8:44:37:bd:00:f9:
        6c:d8:df:af:ee:e8:d0:25:7f:c1:fc:a0:ea:39:89:c6:a2:f9:
        44:ba:0e:0d:5b:15:ce:fe:48:ee:71:f9:9b:05:b0:a5:f3:d1:
        29:e3:3c:77:53:c6:80:a4:8d:9a:89:d6:69:60:30:16:b9:d6:
        ce:02:8f:a4:be:e3:1e:fd:ae:7d:df:70:c8:1e:f3:41:ae:da:
        48:f7:4a:da:92:26:79:ea:a4:5e:2b:c8:91:2b:81:70:fa:17:
        c4:32:30:11
-----BEGIN CERTIFICATE-----
MIIDwjCCAqqgAwIBAgIBGjANBgkqhkiG9w0BAQsFADBxMQswCQYDVQQGEwJVUzET
MBEGA1UECAwKQ2FsaWZvcm5pYTEUMBIGA1UEBwwLU2FudGEgQ2xhcmExDTALBgNV
BAoMBHBrZzUxEDAOBgNVBAMMB2NoMV90YTMxFjAUBgkqhkiG9w0BCQEWB2NoMV90
YTMwHhcNMjQxMTE0MTQyNjU1WhcNMjcwODExMTQyNjU1WjB5MQswCQYDVQQGEwJV
UzETMBEGA1UECAwKQ2FsaWZvcm5pYTEUMBIGA1UEBwwLU2FudGEgQ2xhcmExDTAL
BgNVBAoMBHBrZzUxFDASBgNVBAMMC2NzOV9jaDFfdGEzMRowGAYJKoZIhvcNAQkB
FgtjczlfY2gxX3RhMzCCASIwDQYJKoZIhvcNAQEBBQADggEPADCCAQoCggEBALEG
cAa6VX+i78Auba/o+cdGRsF8sgiVrgIY9kJsLBcUtgVojyz2kv2h6usxC55jk1aV
ossYx68KAIs74Q2LVXlHyKp7P/6ws5n1tZ4anBtPUosPorWVKr6W/k2gV5R7cUPD
BcTEvI5gWHJBYS0qSKGV1oSfApjrlvHRm54qpfoH5A9l/JLS9wVqZQtGGxTn7izk
p5fstjcQO5ak2PhwEAU0GrScXSh7TF3lfpkZ5JpGYsxNKtwRIcz6R1Z5sWYndEZ0
+nIXPHI/dEQzOSZNk2oPo2OatMVPoouIjPqoQgFDbljvN7IVGGcmkPkJpfn+H4B4
+0srA685VEOuFu6Tce0CAwEAAaNdMFswDAYDVR0TAQH/BAIwADALBgNVHQ8EBAMC
AAEwHQYDVR0OBBYEFLaE4XN1PE9m+tZj1tj+P0gc0ztCMB8GA1UdIwQYMBaAFK2+
XjYNyh9YlplSHzBL9BZ6jZ5/MA0GCSqGSIb3DQEBCwUAA4IBAQAI0ukGT0h2UHQU
RYTrbayOrBA8zGW8Ilyu6lU4gdVCx5VJOnENzWwfWxgqM1EbQS/FFYNJouhEw/Ik
4wU6QWejrM4FdtDs8Bg/I8aWMoyXaj4lAU1ONw53Tjf1cedKUh/S+s0mS88d0t5J
jHLcQdq26b5uJjR67UiEY2i1s8sTbrXdodxDV2bW2rUArhNH0hqp44nVcGLdOSSc
Tu/oRDe9APls2N+v7ujQJX/B/KDqOYnGovlEug4NWxXO/kjucfmbBbCl89Ep4zx3
U8aApI2aidZpYDAWudbOAo+kvuMe/a5933DIHvNBrtpI90rakiZ56qReK8iRK4Fw
+hfEMjAR
-----END CERTIFICATE-----
