Certificate:
    Data:
        Version: 3 (0x2)
        Serial Number: 26 (0x1a)
        Signature Algorithm: sha256WithRSAEncryption
        Issuer: C=US, ST=California, L=Santa Clara, O=pkg5, CN=ch1_ta3/emailAddress=ch1_ta3
        Validity
            Not Before: Dec 15 15:37:25 2022 GMT
            Not After : Sep 10 15:37:25 2025 GMT
        Subject: C=US, ST=California, L=Santa Clara, O=pkg5, CN=cs9_ch1_ta3/emailAddress=cs9_ch1_ta3
        Subject Public Key Info:
            Public Key Algorithm: rsaEncryption
                Public-Key: (2048 bit)
                Modulus:
                    00:b8:cc:fe:89:1c:6c:98:34:0d:3e:db:68:42:41:
                    f5:ea:25:b7:01:95:b4:40:e6:6e:16:be:27:74:13:
                    b5:87:ea:29:61:94:e2:4a:70:16:b2:73:7c:a8:7a:
                    8f:6a:e3:8a:45:89:6e:cf:29:bf:39:4b:0b:8f:94:
                    76:84:8c:5d:f3:a3:43:45:9d:58:f4:46:5a:96:d0:
                    f4:08:dc:7b:65:f7:d3:9b:89:93:a1:a9:f3:0b:4c:
                    c4:36:fe:db:18:ff:27:ad:9c:43:19:36:95:58:e7:
                    fc:e4:31:94:c6:3c:76:02:e0:30:49:c7:10:8c:c5:
                    cf:05:a5:1b:77:76:a6:d2:da:8f:3a:e3:3f:c8:2a:
                    bc:94:69:64:f0:e0:d2:03:69:4f:71:f7:68:bc:af:
                    c7:0a:25:3e:4d:02:b2:9b:b5:c1:05:ab:e2:12:f0:
                    da:0f:a6:eb:4f:d1:e7:63:89:95:3f:ba:1d:17:94:
                    c9:c3:ee:33:0b:f0:2a:62:a6:e1:5f:4a:28:00:a5:
                    25:75:2b:96:3b:c5:b1:db:cf:dd:c3:dc:eb:bb:47:
                    68:67:1d:50:c8:ff:e8:2e:f9:d2:3e:cd:c7:53:c4:
                    11:3e:de:a2:88:fe:4e:db:08:af:e4:fc:fb:e5:bb:
                    e7:3e:e4:c6:84:17:f9:50:8b:45:d8:59:e4:be:2a:
                    30:1d
                Exponent: 65537 (0x10001)
        X509v3 extensions:
            X509v3 Basic Constraints: critical
                CA:FALSE
            X509v3 Key Usage: 
                Encipher Only
            X509v3 Subject Key Identifier: 
                AB:51:0F:99:32:44:7E:BF:3F:4F:9D:82:3A:69:A1:0E:6D:DD:7C:36
            X509v3 Authority Key Identifier: 
                33:56:B5:6A:EF:83:5A:96:29:D5:64:57:A8:29:D0:28:D0:1D:D9:53
    Signature Algorithm: sha256WithRSAEncryption
    Signature Value:
        76:5a:5a:3f:ab:7c:a0:8b:b9:28:b2:99:3d:a1:51:44:57:b3:
        6f:b0:10:5a:56:60:26:72:4a:fe:2c:11:37:78:15:d1:97:73:
        41:e4:ed:83:0e:5a:8c:89:c5:4f:4b:a8:27:ea:77:de:61:e7:
        ea:d2:04:70:3c:34:3c:d7:6b:48:01:54:6e:1c:26:63:6a:16:
        99:41:a6:e7:5a:17:02:3a:e4:74:bd:ec:1d:57:6c:1e:49:09:
        07:ce:ef:d9:81:74:67:8d:fd:a1:45:e9:f4:db:ba:ef:75:48:
        c8:31:2d:18:c3:a6:f3:e9:33:bb:47:11:fa:c9:f8:a2:95:95:
        6e:f7:00:0c:bc:12:91:b4:53:5a:bd:39:12:bb:a6:9f:6c:d0:
        b1:cd:f8:45:74:d1:21:69:67:b5:4f:28:e2:4c:ca:bf:c1:25:
        65:12:99:de:bd:4e:39:3e:9f:73:bc:02:84:f5:4b:ec:78:f8:
        f8:5d:f4:44:a2:c8:be:c2:63:99:02:6e:80:9b:bf:5a:30:69:
        10:80:c8:e4:6f:3a:f3:dc:fe:54:00:58:37:10:55:fb:34:10:
        3b:3f:60:22:64:24:24:ee:3e:3b:86:df:02:13:8c:23:13:88:
        3f:7f:5d:29:17:1b:07:0e:80:2f:56:09:fb:f3:33:62:06:4f:
        47:27:23:59
-----BEGIN CERTIFICATE-----
MIIDwjCCAqqgAwIBAgIBGjANBgkqhkiG9w0BAQsFADBxMQswCQYDVQQGEwJVUzET
MBEGA1UECAwKQ2FsaWZvcm5pYTEUMBIGA1UEBwwLU2FudGEgQ2xhcmExDTALBgNV
BAoMBHBrZzUxEDAOBgNVBAMMB2NoMV90YTMxFjAUBgkqhkiG9w0BCQEWB2NoMV90
YTMwHhcNMjIxMjE1MTUzNzI1WhcNMjUwOTEwMTUzNzI1WjB5MQswCQYDVQQGEwJV
UzETMBEGA1UECAwKQ2FsaWZvcm5pYTEUMBIGA1UEBwwLU2FudGEgQ2xhcmExDTAL
BgNVBAoMBHBrZzUxFDASBgNVBAMMC2NzOV9jaDFfdGEzMRowGAYJKoZIhvcNAQkB
FgtjczlfY2gxX3RhMzCCASIwDQYJKoZIhvcNAQEBBQADggEPADCCAQoCggEBALjM
/okcbJg0DT7baEJB9eoltwGVtEDmbha+J3QTtYfqKWGU4kpwFrJzfKh6j2rjikWJ
bs8pvzlLC4+UdoSMXfOjQ0WdWPRGWpbQ9Ajce2X305uJk6Gp8wtMxDb+2xj/J62c
Qxk2lVjn/OQxlMY8dgLgMEnHEIzFzwWlG3d2ptLajzrjP8gqvJRpZPDg0gNpT3H3
aLyvxwolPk0Cspu1wQWr4hLw2g+m60/R52OJlT+6HReUycPuMwvwKmKm4V9KKACl
JXUrljvFsdvP3cPc67tHaGcdUMj/6C750j7Nx1PEET7eooj+TtsIr+T8++W75z7k
xoQX+VCLRdhZ5L4qMB0CAwEAAaNdMFswDAYDVR0TAQH/BAIwADALBgNVHQ8EBAMC
AAEwHQYDVR0OBBYEFKtRD5kyRH6/P0+dgjppoQ5t3Xw2MB8GA1UdIwQYMBaAFDNW
tWrvg1qWKdVkV6gp0CjQHdlTMA0GCSqGSIb3DQEBCwUAA4IBAQB2Wlo/q3ygi7ko
spk9oVFEV7NvsBBaVmAmckr+LBE3eBXRl3NB5O2DDlqMicVPS6gn6nfeYefq0gRw
PDQ812tIAVRuHCZjahaZQabnWhcCOuR0vewdV2weSQkHzu/ZgXRnjf2hRen027rv
dUjIMS0Yw6bz6TO7RxH6yfiilZVu9wAMvBKRtFNavTkSu6afbNCxzfhFdNEhaWe1
TyjiTMq/wSVlEpnevU45Pp9zvAKE9UvsePj4XfREosi+wmOZAm6Am79aMGkQgMjk
bzrz3P5UAFg3EFX7NBA7P2AiZCQk7j47ht8CE4wjE4g/f10pFxsHDoAvVgn78zNi
Bk9HJyNZ
-----END CERTIFICATE-----
