Certificate:
    Data:
        Version: 3 (0x2)
        Serial Number: 26 (0x1a)
    Signature Algorithm: sha256WithRSAEncryption
        Issuer: C=US, ST=California, L=Santa Clara, O=pkg5, CN=ch1_ta3/emailAddress=ch1_ta3
        Validity
            Not Before: Nov 16 10:58:49 2017 GMT
            Not After : Aug 12 10:58:49 2020 GMT
        Subject: C=US, ST=California, L=Santa Clara, O=pkg5, CN=cs9_ch1_ta3/emailAddress=cs9_ch1_ta3
        Subject Public Key Info:
            Public Key Algorithm: rsaEncryption
                Public-Key: (1024 bit)
                Modulus:
                    00:db:8d:e1:0c:39:da:f2:92:cb:66:5a:b4:de:91:
                    04:48:e9:4b:28:11:87:77:e4:ea:f9:22:36:9d:db:
                    81:6f:87:14:0d:e0:ad:3f:cb:6c:19:89:0f:2d:34:
                    8f:9f:53:c6:c3:2f:dd:3d:dc:ae:1f:0b:da:ca:2b:
                    bb:b4:d1:ba:4f:2c:d6:ee:e2:70:6d:cb:42:6d:a9:
                    fa:c1:fc:f9:3b:d4:80:bb:76:0f:7d:06:dd:2e:9b:
                    31:64:2d:3c:5d:ac:82:63:98:9d:12:58:20:05:2f:
                    35:f8:ba:f0:c2:7a:c2:af:88:d1:05:5f:ce:3f:b8:
                    a3:ae:01:ea:fb:b6:c8:5e:6b
                Exponent: 65537 (0x10001)
        X509v3 extensions:
            X509v3 Basic Constraints: critical
                CA:FALSE
            X509v3 Key Usage: 
                Encipher Only
    Signature Algorithm: sha256WithRSAEncryption
         97:4c:4f:0c:93:b3:e6:fd:a2:b7:44:9b:b7:b3:44:d9:43:8f:
         4f:3b:f6:ac:3f:a0:b9:7a:68:a6:8b:65:9b:ca:cd:97:ed:bb:
         5d:01:b3:5d:a5:bc:45:54:7f:0f:13:40:4a:90:6d:28:fa:a9:
         bd:b0:ad:39:30:c4:ec:c7:9b:5d:92:a3:b5:77:43:1c:b1:41:
         e8:50:a5:43:6b:14:27:27:cb:41:a3:e7:65:eb:85:3f:67:af:
         a7:17:aa:2e:9c:2b:a3:33:08:4f:db:06:ba:cd:43:b0:c3:e5:
         41:0b:3d:92:94:a8:12:c0:1c:92:76:4e:9b:5d:bc:e0:95:f1:
         f6:a6:2f:c1:58:77:3d:32:72:20:77:ff:ca:3d:36:09:1c:7a:
         c7:a5:5b:c2:02:c0:e0:d5:f1:25:09:77:08:9b:8a:71:90:bc:
         b9:6a:f7:c4:63:ff:a3:ec:88:b4:fa:10:fd:cb:81:b6:b4:3c:
         04:ea:d4:ee:69:29:6a:00:b7:15:a9:7a:1a:39:a2:84:02:7b:
         03:17:98:aa:b0:60:af:fe:a9:e9:a5:df:0d:b0:df:2b:6c:d2:
         1b:3d:bb:6c:60:96:43:75:81:47:cb:82:7f:31:1f:db:c3:88:
         36:1f:2e:eb:1e:7b:01:b9:f3:bc:63:6b:e1:ab:5f:4e:7d:38:
         11:db:bb:00
-----BEGIN CERTIFICATE-----
MIIC/jCCAeagAwIBAgIBGjANBgkqhkiG9w0BAQsFADBxMQswCQYDVQQGEwJVUzET
MBEGA1UECAwKQ2FsaWZvcm5pYTEUMBIGA1UEBwwLU2FudGEgQ2xhcmExDTALBgNV
BAoMBHBrZzUxEDAOBgNVBAMMB2NoMV90YTMxFjAUBgkqhkiG9w0BCQEWB2NoMV90
YTMwHhcNMTcxMTE2MTA1ODQ5WhcNMjAwODEyMTA1ODQ5WjB5MQswCQYDVQQGEwJV
UzETMBEGA1UECAwKQ2FsaWZvcm5pYTEUMBIGA1UEBwwLU2FudGEgQ2xhcmExDTAL
BgNVBAoMBHBrZzUxFDASBgNVBAMMC2NzOV9jaDFfdGEzMRowGAYJKoZIhvcNAQkB
FgtjczlfY2gxX3RhMzCBnzANBgkqhkiG9w0BAQEFAAOBjQAwgYkCgYEA243hDDna
8pLLZlq03pEESOlLKBGHd+Tq+SI2nduBb4cUDeCtP8tsGYkPLTSPn1PGwy/dPdyu
Hwvayiu7tNG6TyzW7uJwbctCban6wfz5O9SAu3YPfQbdLpsxZC08XayCY5idElgg
BS81+LrwwnrCr4jRBV/OP7ijrgHq+7bIXmsCAwEAAaMdMBswDAYDVR0TAQH/BAIw
ADALBgNVHQ8EBAMCAAEwDQYJKoZIhvcNAQELBQADggEBAJdMTwyTs+b9ordEm7ez
RNlDj0879qw/oLl6aKaLZZvKzZftu10Bs12lvEVUfw8TQEqQbSj6qb2wrTkwxOzH
m12So7V3QxyxQehQpUNrFCcny0Gj52XrhT9nr6cXqi6cK6MzCE/bBrrNQ7DD5UEL
PZKUqBLAHJJ2TptdvOCV8famL8FYdz0yciB3/8o9NgkceselW8ICwODV8SUJdwib
inGQvLlq98Rj/6PsiLT6EP3Lgba0PATq1O5pKWoAtxWpeho5ooQCewMXmKqwYK/+
qeml3w2w3yts0hs9u2xglkN1gUfLgn8xH9vDiDYfLuseewG587xja+GrX059OBHb
uwA=
-----END CERTIFICATE-----
