Certificate:
    Data:
        Version: 3 (0x2)
        Serial Number: 26 (0x1a)
        Signature Algorithm: sha256WithRSAEncryption
        Issuer: C=US, ST=California, L=Santa Clara, O=pkg5, CN=ch1_ta3/emailAddress=ch1_ta3
        Validity
            Not Before: Oct 22 10:15:14 2021 GMT
            Not After : Jul 18 10:15:14 2024 GMT
        Subject: C=US, ST=California, L=Santa Clara, O=pkg5, CN=cs9_ch1_ta3/emailAddress=cs9_ch1_ta3
        Subject Public Key Info:
            Public Key Algorithm: rsaEncryption
                Public-Key: (2048 bit)
                Modulus:
                    00:b3:4d:89:87:c3:ff:fe:8b:85:df:21:2c:0d:f9:
                    8b:8b:8e:8f:af:65:f9:04:27:77:d4:5d:38:b0:ef:
                    fe:e5:65:0b:a1:74:33:96:c7:d9:f5:88:8a:7a:7e:
                    af:de:5a:1d:88:e2:25:da:26:f8:0e:86:22:6d:e7:
                    1b:30:4d:e6:0b:8e:5d:25:f2:19:17:0e:6d:64:83:
                    83:e2:f3:fe:09:9d:5f:cd:56:70:28:f8:ad:3f:ac:
                    b0:65:49:a7:6f:3c:f9:f5:61:e3:0d:f5:8b:2b:d1:
                    0a:18:00:94:ea:8a:b9:45:f5:cb:62:9a:dc:9f:41:
                    05:1b:8e:f4:2a:93:48:ed:df:98:3b:48:c6:e8:48:
                    d1:37:42:44:d6:ba:bf:aa:57:a5:50:de:8c:ff:55:
                    28:c5:01:e6:cb:76:3e:bb:06:72:98:65:31:75:c3:
                    d1:f3:0f:85:ef:95:2d:f7:95:d5:80:aa:d4:17:c7:
                    2e:61:84:2a:38:51:20:94:c8:db:6a:d3:83:28:d2:
                    15:7c:13:8e:94:77:dd:42:cd:c1:f0:4a:47:d8:e5:
                    7d:9d:04:3c:48:b5:08:23:1f:8b:8a:2b:c6:20:81:
                    0d:89:c1:a5:dc:f3:5d:6e:75:74:38:26:20:19:41:
                    57:8d:13:42:71:ce:61:e8:cf:60:c8:41:6d:94:6c:
                    a9:27
                Exponent: 65537 (0x10001)
        X509v3 extensions:
            X509v3 Basic Constraints: critical
                CA:FALSE
            X509v3 Key Usage: 
                Encipher Only
            X509v3 Subject Key Identifier: 
                CD:30:F4:A9:83:DE:53:FB:63:3B:E8:71:20:93:2A:69:E5:D6:07:EF
            X509v3 Authority Key Identifier: 
                D5:A6:1E:11:8A:90:CB:66:0F:10:66:77:01:DD:3A:8F:14:F0:85:C0
    Signature Algorithm: sha256WithRSAEncryption
    Signature Value:
        79:f9:96:bd:93:07:33:6d:52:a5:b8:5d:01:85:9c:df:4a:b6:
        0e:19:26:6b:e0:ff:41:cb:02:93:9c:09:47:af:37:b5:e4:4e:
        39:e2:26:37:72:92:8b:e0:ed:77:c2:79:a6:6d:54:df:ed:1e:
        b9:50:fe:bb:b3:af:5f:b5:c6:6e:fb:1a:74:bf:0e:2e:e8:80:
        e4:33:53:3c:65:cd:78:96:ab:a6:8d:42:61:9f:cb:82:ce:11:
        5e:62:d4:78:3f:15:81:de:c7:b2:87:bc:bd:12:21:5e:a2:63:
        22:04:4d:af:bb:17:03:8e:a4:29:d0:b0:73:d6:b6:2e:dd:16:
        09:03:e1:94:de:df:ff:2d:9f:6f:a4:86:02:7d:24:de:03:3b:
        58:22:d0:08:e0:f7:66:6c:90:19:6a:b5:ee:4e:6c:4e:0a:8e:
        e3:4b:90:c4:36:fa:0e:07:f8:1b:c0:54:eb:0d:68:2f:83:89:
        40:fc:cf:f8:fc:fa:1e:4b:e1:1d:10:29:df:f4:71:c0:81:39:
        98:f3:24:e5:9b:57:41:02:09:3d:27:e6:f5:0a:4f:78:ae:1c:
        fb:95:f9:2e:a9:7c:81:c9:da:c4:00:71:a9:78:e6:de:f6:16:
        fb:6c:b0:22:d5:9b:f7:91:17:d7:f0:45:50:8b:13:da:0e:06:
        fc:01:ce:af
-----BEGIN CERTIFICATE-----
MIIDwjCCAqqgAwIBAgIBGjANBgkqhkiG9w0BAQsFADBxMQswCQYDVQQGEwJVUzET
MBEGA1UECAwKQ2FsaWZvcm5pYTEUMBIGA1UEBwwLU2FudGEgQ2xhcmExDTALBgNV
BAoMBHBrZzUxEDAOBgNVBAMMB2NoMV90YTMxFjAUBgkqhkiG9w0BCQEWB2NoMV90
YTMwHhcNMjExMDIyMTAxNTE0WhcNMjQwNzE4MTAxNTE0WjB5MQswCQYDVQQGEwJV
UzETMBEGA1UECAwKQ2FsaWZvcm5pYTEUMBIGA1UEBwwLU2FudGEgQ2xhcmExDTAL
BgNVBAoMBHBrZzUxFDASBgNVBAMMC2NzOV9jaDFfdGEzMRowGAYJKoZIhvcNAQkB
FgtjczlfY2gxX3RhMzCCASIwDQYJKoZIhvcNAQEBBQADggEPADCCAQoCggEBALNN
iYfD//6Lhd8hLA35i4uOj69l+QQnd9RdOLDv/uVlC6F0M5bH2fWIinp+r95aHYji
Jdom+A6GIm3nGzBN5guOXSXyGRcObWSDg+Lz/gmdX81WcCj4rT+ssGVJp288+fVh
4w31iyvRChgAlOqKuUX1y2Ka3J9BBRuO9CqTSO3fmDtIxuhI0TdCRNa6v6pXpVDe
jP9VKMUB5st2PrsGcphlMXXD0fMPhe+VLfeV1YCq1BfHLmGEKjhRIJTI22rTgyjS
FXwTjpR33ULNwfBKR9jlfZ0EPEi1CCMfi4orxiCBDYnBpdzzXW51dDgmIBlBV40T
QnHOYejPYMhBbZRsqScCAwEAAaNdMFswDAYDVR0TAQH/BAIwADALBgNVHQ8EBAMC
AAEwHQYDVR0OBBYEFM0w9KmD3lP7YzvocSCTKmnl1gfvMB8GA1UdIwQYMBaAFNWm
HhGKkMtmDxBmdwHdOo8U8IXAMA0GCSqGSIb3DQEBCwUAA4IBAQB5+Za9kwczbVKl
uF0BhZzfSrYOGSZr4P9BywKTnAlHrze15E454iY3cpKL4O13wnmmbVTf7R65UP67
s69ftcZu+xp0vw4u6IDkM1M8Zc14lqumjUJhn8uCzhFeYtR4PxWB3seyh7y9EiFe
omMiBE2vuxcDjqQp0LBz1rYu3RYJA+GU3t//LZ9vpIYCfSTeAztYItAI4PdmbJAZ
arXuTmxOCo7jS5DENvoOB/gbwFTrDWgvg4lA/M/4/PoeS+EdECnf9HHAgTmY8yTl
m1dBAgk9J+b1Ck94rhz7lfkuqXyBydrEAHGpeObe9hb7bLAi1Zv3kRfX8EVQixPa
Dgb8Ac6v
-----END CERTIFICATE-----
