Certificate:
    Data:
        Version: 3 (0x2)
        Serial Number: 26 (0x1a)
        Signature Algorithm: sha256WithRSAEncryption
        Issuer: C=US, ST=California, L=Santa Clara, O=pkg5, CN=ch1_ta3/emailAddress=ch1_ta3
        Validity
            Not Before: Oct 24 21:43:08 2023 GMT
            Not After : Jul 20 21:43:08 2026 GMT
        Subject: C=US, ST=California, L=Santa Clara, O=pkg5, CN=cs9_ch1_ta3/emailAddress=cs9_ch1_ta3
        Subject Public Key Info:
            Public Key Algorithm: rsaEncryption
                Public-Key: (2048 bit)
                Modulus:
                    00:d7:e4:e4:58:b2:c9:46:e6:eb:d1:de:78:9c:9f:
                    33:7e:cd:20:60:b5:77:61:82:f3:4b:ff:59:f8:0d:
                    aa:8d:c4:40:2c:f4:6e:23:66:c6:e5:85:2e:06:07:
                    67:f1:8f:8f:7e:fa:a9:2f:2d:7b:7e:88:0c:1a:78:
                    2f:28:69:d8:7f:fb:b1:dd:17:0b:1e:52:a8:da:d6:
                    4c:53:7a:aa:67:27:7d:cf:2b:d6:b0:7c:e6:61:bd:
                    36:04:4f:e1:5d:1e:67:30:61:be:55:e4:f2:b6:af:
                    26:e6:9a:f5:72:aa:91:4d:07:a0:93:d0:eb:39:c9:
                    6b:57:4f:5b:16:b6:fc:df:48:b8:be:b7:a6:46:16:
                    d0:74:05:de:98:ad:c4:87:73:e0:6d:cf:1a:db:2d:
                    b0:8d:21:dd:3b:f2:10:9c:d5:55:ca:bb:80:27:00:
                    e8:69:a1:56:c4:44:4a:7f:cb:4f:58:cf:ac:32:54:
                    e0:7f:3f:b6:aa:34:b6:e7:2b:8d:30:c3:fc:19:da:
                    18:f5:04:7d:6a:0a:88:c2:b8:5e:9b:1c:24:dd:3b:
                    33:ea:5e:f0:a3:a2:95:3d:50:17:b6:4d:4e:f9:c3:
                    e0:1e:9f:e0:86:7d:e7:cf:f7:29:a2:11:ba:8e:28:
                    07:52:60:73:fd:f7:15:9e:9e:37:32:84:55:de:0f:
                    4e:07
                Exponent: 65537 (0x10001)
        X509v3 extensions:
            X509v3 Basic Constraints: critical
                CA:FALSE
            X509v3 Key Usage: 
                Encipher Only
            X509v3 Subject Key Identifier: 
                95:39:0A:72:1A:8D:32:39:68:E1:4F:1D:44:D8:1A:3D:D1:57:B4:11
            X509v3 Authority Key Identifier: 
                EC:04:9D:52:42:13:3C:0B:DA:EF:1D:7E:FD:8C:02:F4:74:FA:24:6D
    Signature Algorithm: sha256WithRSAEncryption
    Signature Value:
        53:19:92:ad:50:be:ad:b3:4b:f2:71:c9:26:01:c9:7d:10:60:
        a3:f0:40:e7:5e:c5:8e:e5:cd:62:68:d0:3b:06:07:10:09:a8:
        7e:8f:38:56:02:15:e1:6f:b6:d0:58:20:a6:6d:21:7a:63:7f:
        1c:29:0e:f7:46:93:02:f3:27:17:e8:03:f0:95:f5:b8:d2:c3:
        f6:41:be:75:82:27:87:78:71:9c:b4:13:e5:30:3a:2c:ca:4b:
        4f:26:10:bc:d2:5f:0e:b2:a8:05:a0:1c:f9:ca:6e:1b:2c:4f:
        95:4c:db:c5:b6:d8:74:bc:54:9b:a7:31:7a:b2:95:20:87:22:
        18:83:66:a1:43:ce:d6:64:54:be:98:68:af:85:87:5e:0f:2f:
        06:88:9a:b6:f6:a9:73:ea:f9:ec:bf:b9:d7:bd:38:85:a1:67:
        a3:7d:d3:ae:cb:e2:d3:30:52:e5:75:47:fe:a3:ca:e9:68:0b:
        f4:a5:b6:27:98:ea:75:fb:a2:86:be:bd:03:ed:87:e1:c6:0f:
        06:af:52:9e:64:52:f6:02:ac:ea:95:d1:e1:55:ee:5f:29:68:
        c4:7b:ab:7a:eb:f8:c9:a1:2d:7d:c1:3e:84:a6:2d:71:76:38:
        7e:34:2b:d4:36:ab:69:15:56:22:9d:5a:f5:d4:ab:2b:1f:53:
        4a:57:cb:8f
-----BEGIN CERTIFICATE-----
MIIDwjCCAqqgAwIBAgIBGjANBgkqhkiG9w0BAQsFADBxMQswCQYDVQQGEwJVUzET
MBEGA1UECAwKQ2FsaWZvcm5pYTEUMBIGA1UEBwwLU2FudGEgQ2xhcmExDTALBgNV
BAoMBHBrZzUxEDAOBgNVBAMMB2NoMV90YTMxFjAUBgkqhkiG9w0BCQEWB2NoMV90
YTMwHhcNMjMxMDI0MjE0MzA4WhcNMjYwNzIwMjE0MzA4WjB5MQswCQYDVQQGEwJV
UzETMBEGA1UECAwKQ2FsaWZvcm5pYTEUMBIGA1UEBwwLU2FudGEgQ2xhcmExDTAL
BgNVBAoMBHBrZzUxFDASBgNVBAMMC2NzOV9jaDFfdGEzMRowGAYJKoZIhvcNAQkB
FgtjczlfY2gxX3RhMzCCASIwDQYJKoZIhvcNAQEBBQADggEPADCCAQoCggEBANfk
5FiyyUbm69HeeJyfM37NIGC1d2GC80v/WfgNqo3EQCz0biNmxuWFLgYHZ/GPj376
qS8te36IDBp4Lyhp2H/7sd0XCx5SqNrWTFN6qmcnfc8r1rB85mG9NgRP4V0eZzBh
vlXk8ravJuaa9XKqkU0HoJPQ6znJa1dPWxa2/N9IuL63pkYW0HQF3pitxIdz4G3P
GtstsI0h3TvyEJzVVcq7gCcA6GmhVsRESn/LT1jPrDJU4H8/tqo0tucrjTDD/Bna
GPUEfWoKiMK4XpscJN07M+pe8KOilT1QF7ZNTvnD4B6f4IZ958/3KaIRuo4oB1Jg
c/33FZ6eNzKEVd4PTgcCAwEAAaNdMFswDAYDVR0TAQH/BAIwADALBgNVHQ8EBAMC
AAEwHQYDVR0OBBYEFJU5CnIajTI5aOFPHUTYGj3RV7QRMB8GA1UdIwQYMBaAFOwE
nVJCEzwL2u8dfv2MAvR0+iRtMA0GCSqGSIb3DQEBCwUAA4IBAQBTGZKtUL6ts0vy
cckmAcl9EGCj8EDnXsWO5c1iaNA7BgcQCah+jzhWAhXhb7bQWCCmbSF6Y38cKQ73
RpMC8ycX6APwlfW40sP2Qb51gieHeHGctBPlMDosyktPJhC80l8OsqgFoBz5ym4b
LE+VTNvFtth0vFSbpzF6spUghyIYg2ahQ87WZFS+mGivhYdeDy8GiJq29qlz6vns
v7nXvTiFoWejfdOuy+LTMFLldUf+o8rpaAv0pbYnmOp1+6KGvr0D7Yfhxg8Gr1Ke
ZFL2AqzqldHhVe5fKWjEe6t66/jJoS19wT6Epi1xdjh+NCvUNqtpFVYinVr11Ksr
H1NKV8uP
-----END CERTIFICATE-----
