Certificate:
    Data:
        Version: 3 (0x2)
        Serial Number: 27 (0x1b)
    Signature Algorithm: sha256WithRSAEncryption
        Issuer: C=US, ST=California, L=Santa Clara, O=pkg5, CN=ch1.1_ta3/emailAddress=ch1.1_ta3
        Validity
            Not Before: Dec  6 03:06:43 2014 GMT
            Not After : Sep  1 03:06:43 2017 GMT
        Subject: C=US, ST=California, L=Santa Clara, O=pkg5, CN=cs1_ch1.1_ta3/emailAddress=cs1_ch1.1_ta3
        Subject Public Key Info:
            Public Key Algorithm: rsaEncryption
                Public-Key: (1024 bit)
                Modulus:
                    00:b8:bd:1f:d6:06:e1:24:00:67:4a:d2:d7:e7:ff:
                    27:9c:b0:04:b6:76:09:bb:b8:9f:27:c0:f1:c6:b7:
                    f6:6c:7a:52:05:0e:bd:11:9a:28:44:37:8f:f0:3c:
                    74:81:42:55:d5:fa:1d:c1:2e:0b:1d:c2:86:df:85:
                    24:7f:23:27:3b:17:52:f1:bc:40:15:da:da:e0:14:
                    97:76:36:ff:c6:29:cd:e3:15:da:f3:26:58:ba:a8:
                    0e:77:0f:5a:21:65:ca:e9:c9:bf:e0:ea:93:19:51:
                    2b:3e:7c:5c:ed:33:7d:cd:8a:dc:23:c2:b9:4b:0a:
                    b2:70:db:5c:34:fd:dd:af:d3
                Exponent: 65537 (0x10001)
        X509v3 extensions:
            X509v3 Basic Constraints: critical
                CA:FALSE
            X509v3 Key Usage: critical
                Digital Signature
    Signature Algorithm: sha256WithRSAEncryption
         11:e2:c0:18:fc:0c:7d:22:08:2e:95:28:b1:7c:e4:23:81:62:
         7a:1e:b3:dd:77:12:e3:bb:2b:98:ec:90:76:08:8c:e6:7c:e3:
         9e:17:58:50:03:fb:24:2e:a6:13:31:ae:9f:b5:9d:4b:87:4a:
         b9:c8:f7:ff:a1:f5:3c:0a:58:47:24:8f:f6:17:8b:e9:48:da:
         71:23:a7:42:2e:82:08:59:6f:1c:ea:89:1f:c8:a7:d6:4b:14:
         d0:af:b1:56:71:c0:79:80:d7:33:15:c2:41:d1:62:cc:c7:0b:
         67:e3:84:cc:51:ec:e4:84:03:dc:b2:8f:61:e1:e0:e7:7f:1c:
         91:9b
-----BEGIN CERTIFICATE-----
MIICiDCCAfGgAwIBAgIBGzANBgkqhkiG9w0BAQsFADB1MQswCQYDVQQGEwJVUzET
MBEGA1UECAwKQ2FsaWZvcm5pYTEUMBIGA1UEBwwLU2FudGEgQ2xhcmExDTALBgNV
BAoMBHBrZzUxEjAQBgNVBAMMCWNoMS4xX3RhMzEYMBYGCSqGSIb3DQEJARYJY2gx
LjFfdGEzMB4XDTE0MTIwNjAzMDY0M1oXDTE3MDkwMTAzMDY0M1owfTELMAkGA1UE
BhMCVVMxEzARBgNVBAgMCkNhbGlmb3JuaWExFDASBgNVBAcMC1NhbnRhIENsYXJh
MQ0wCwYDVQQKDARwa2c1MRYwFAYDVQQDDA1jczFfY2gxLjFfdGEzMRwwGgYJKoZI
hvcNAQkBFg1jczFfY2gxLjFfdGEzMIGfMA0GCSqGSIb3DQEBAQUAA4GNADCBiQKB
gQC4vR/WBuEkAGdK0tfn/yecsAS2dgm7uJ8nwPHGt/ZselIFDr0RmihEN4/wPHSB
QlXV+h3BLgsdwobfhSR/Iyc7F1LxvEAV2trgFJd2Nv/GKc3jFdrzJli6qA53D1oh
Zcrpyb/g6pMZUSs+fFztM33NitwjwrlLCrJw21w0/d2v0wIDAQABoyAwHjAMBgNV
HRMBAf8EAjAAMA4GA1UdDwEB/wQEAwIHgDANBgkqhkiG9w0BAQsFAAOBgQAR4sAY
/Ax9IggulSixfOQjgWJ6HrPddxLjuyuY7JB2CIzmfOOeF1hQA/skLqYTMa6ftZ1L
h0q5yPf/ofU8ClhHJI/2F4vpSNpxI6dCLoIIWW8c6okfyKfWSxTQr7FWccB5gNcz
FcJB0WLMxwtn44TMUezkhAPcso9h4eDnfxyRmw==
-----END CERTIFICATE-----
