Certificate:
    Data:
        Version: 3 (0x2)
        Serial Number: 28 (0x1c)
        Signature Algorithm: sha256WithRSAEncryption
        Issuer: C=US, ST=California, L=Santa Clara, O=pkg5, CN=ch1.1_ta3/emailAddress=ch1.1_ta3
        Validity
            Not Before: Nov 17 23:01:31 2020 GMT
            Not After : Aug 14 23:01:31 2023 GMT
        Subject: C=US, ST=California, L=Santa Clara, O=pkg5, CN=cs1_ch1.1_ta3/emailAddress=cs1_ch1.1_ta3
        Subject Public Key Info:
            Public Key Algorithm: rsaEncryption
                RSA Public-Key: (1024 bit)
                Modulus:
                    00:f2:63:6b:02:16:10:8e:0d:c2:29:4b:c3:44:38:
                    b0:f9:3e:b6:7c:e1:e6:73:dc:59:bc:50:7a:a4:6c:
                    62:e4:8f:7e:f3:a6:be:f4:eb:35:92:43:43:af:f0:
                    02:8d:fb:bc:71:86:4c:27:06:e0:33:1f:2e:d0:c9:
                    6c:d0:80:fc:5c:e4:af:ab:88:44:8b:b2:37:bb:41:
                    a0:49:bc:3f:cd:91:70:33:06:7f:2e:e3:07:7f:92:
                    38:cc:05:5d:5b:24:8b:c8:f3:b3:c1:a1:08:ea:ce:
                    50:b7:d3:bb:3b:a8:9b:6a:5b:12:61:ac:fe:47:6a:
                    93:02:9b:64:be:7a:f4:6d:11
                Exponent: 65537 (0x10001)
        X509v3 extensions:
            X509v3 Basic Constraints: critical
                CA:FALSE
            X509v3 Key Usage: critical
                Digital Signature
    Signature Algorithm: sha256WithRSAEncryption
         62:da:e9:dc:03:6b:b5:96:25:69:41:60:50:a9:1e:5a:b8:34:
         77:81:2d:52:c3:8c:6f:dc:f6:0c:8c:92:eb:2a:e8:6c:bc:9a:
         7b:b2:50:5d:3b:cb:a4:e1:4f:34:78:94:2f:b9:31:2c:1d:35:
         b2:00:04:c0:bf:ad:0b:78:bf:da:90:cc:63:af:9e:69:30:b3:
         47:25:82:41:95:ae:39:da:33:37:3b:a2:ca:07:aa:9c:4a:67:
         91:f3:9d:5d:2b:1a:e5:21:b3:26:2d:fb:52:9d:f6:35:bb:24:
         37:7b:33:71:48:3e:4e:f5:ab:36:8a:b3:2a:a9:9f:72:7e:6c:
         82:78:95:2d:be:7e:39:cf:43:9e:3f:92:ea:42:0c:dd:6f:f1:
         29:8b:7d:f1:ae:9a:ac:f9:f4:4c:09:7a:e0:62:7c:dc:87:37:
         54:fc:f0:b3:25:50:5d:e7:dc:56:26:50:84:ac:71:b4:5c:6f:
         24:de:4c:01:f9:6d:bc:1f:e3:10:91:04:ab:55:d6:42:5d:64:
         8d:11:d0:e4:ef:fe:89:31:aa:02:63:02:c4:64:ea:2e:a9:26:
         c1:8e:f5:e6:37:46:3f:27:f8:a6:af:ce:f3:bc:ca:df:5a:cf:
         6a:51:10:f6:40:b1:01:f8:db:97:ba:db:f1:4f:3f:6d:76:62:
         06:36:14:87
-----BEGIN CERTIFICATE-----
MIIDCTCCAfGgAwIBAgIBHDANBgkqhkiG9w0BAQsFADB1MQswCQYDVQQGEwJVUzET
MBEGA1UECAwKQ2FsaWZvcm5pYTEUMBIGA1UEBwwLU2FudGEgQ2xhcmExDTALBgNV
BAoMBHBrZzUxEjAQBgNVBAMMCWNoMS4xX3RhMzEYMBYGCSqGSIb3DQEJARYJY2gx
LjFfdGEzMB4XDTIwMTExNzIzMDEzMVoXDTIzMDgxNDIzMDEzMVowfTELMAkGA1UE
BhMCVVMxEzARBgNVBAgMCkNhbGlmb3JuaWExFDASBgNVBAcMC1NhbnRhIENsYXJh
MQ0wCwYDVQQKDARwa2c1MRYwFAYDVQQDDA1jczFfY2gxLjFfdGEzMRwwGgYJKoZI
hvcNAQkBFg1jczFfY2gxLjFfdGEzMIGfMA0GCSqGSIb3DQEBAQUAA4GNADCBiQKB
gQDyY2sCFhCODcIpS8NEOLD5PrZ84eZz3Fm8UHqkbGLkj37zpr706zWSQ0Ov8AKN
+7xxhkwnBuAzHy7QyWzQgPxc5K+riESLsje7QaBJvD/NkXAzBn8u4wd/kjjMBV1b
JIvI87PBoQjqzlC307s7qJtqWxJhrP5HapMCm2S+evRtEQIDAQABoyAwHjAMBgNV
HRMBAf8EAjAAMA4GA1UdDwEB/wQEAwIHgDANBgkqhkiG9w0BAQsFAAOCAQEAYtrp
3ANrtZYlaUFgUKkeWrg0d4EtUsOMb9z2DIyS6yrobLyae7JQXTvLpOFPNHiUL7kx
LB01sgAEwL+tC3i/2pDMY6+eaTCzRyWCQZWuOdozNzuiygeqnEpnkfOdXSsa5SGz
Ji37Up32NbskN3szcUg+TvWrNoqzKqmfcn5sgniVLb5+Oc9Dnj+S6kIM3W/xKYt9
8a6arPn0TAl64GJ83Ic3VPzwsyVQXefcViZQhKxxtFxvJN5MAfltvB/jEJEEq1XW
Ql1kjRHQ5O/+iTGqAmMCxGTqLqkmwY715jdGPyf4pq/O87zK31rPalEQ9kCxAfjb
l7rb8U8/bXZiBjYUhw==
-----END CERTIFICATE-----
