Certificate:
    Data:
        Version: 3 (0x2)
        Serial Number: 28 (0x1c)
        Signature Algorithm: sha256WithRSAEncryption
        Issuer: C=US, ST=California, L=Santa Clara, O=pkg5, CN=ch1.1_ta3/emailAddress=ch1.1_ta3
        Validity
            Not Before: Oct 22 10:15:15 2021 GMT
            Not After : Jul 18 10:15:15 2024 GMT
        Subject: C=US, ST=California, L=Santa Clara, O=pkg5, CN=cs1_ch1.1_ta3/emailAddress=cs1_ch1.1_ta3
        Subject Public Key Info:
            Public Key Algorithm: rsaEncryption
                Public-Key: (2048 bit)
                Modulus:
                    00:ac:f8:9d:49:0f:63:64:9f:70:fe:a8:20:88:62:
                    4b:5e:f4:1e:29:ee:fb:66:70:cf:e3:7b:bd:c8:6d:
                    bf:87:fe:13:1a:19:02:f5:63:21:aa:fb:53:cb:dd:
                    5f:d2:61:8c:61:44:80:48:be:d1:42:b1:b9:51:b9:
                    83:2c:e2:9d:a3:e0:c3:18:07:ee:af:ef:1a:5a:4c:
                    fc:79:31:08:77:13:66:ba:42:37:b0:99:37:f1:84:
                    8f:e8:c5:cb:c1:c8:e6:ac:5a:ef:0e:2a:d5:fb:5e:
                    e3:a3:b0:e0:31:f8:2a:74:4e:07:89:e4:de:8a:29:
                    0d:32:13:af:f0:ef:73:f1:3e:70:fc:23:8b:fc:21:
                    29:5c:81:89:29:16:1a:ce:75:dd:25:90:2f:57:31:
                    fb:18:2e:6b:95:3b:1f:6e:cf:cb:43:e7:87:a6:8d:
                    3d:81:03:ba:d1:d3:ca:12:e4:9d:ad:33:fa:61:a4:
                    74:cb:1b:97:d2:a4:8d:7b:38:b8:79:1c:9f:20:91:
                    49:aa:c8:b6:8e:bf:0a:9c:2f:6a:96:a8:13:0e:78:
                    56:2e:e2:49:2f:2c:99:e3:a4:38:92:20:80:48:3e:
                    1f:d3:85:a6:74:c5:ce:ae:87:f4:6b:10:4e:19:0f:
                    d4:47:5e:ee:f1:c4:4d:1a:db:78:aa:77:69:a5:61:
                    73:31
                Exponent: 65537 (0x10001)
        X509v3 extensions:
            X509v3 Basic Constraints: critical
                CA:FALSE
            X509v3 Key Usage: critical
                Digital Signature
            X509v3 Subject Key Identifier: 
                F6:08:EC:57:4D:2F:E6:E2:95:82:0A:FD:5F:6E:8A:CF:29:62:2B:10
            X509v3 Authority Key Identifier: 
                54:CD:D4:1E:61:07:59:B2:CE:65:E1:6D:94:C3:F0:8C:2E:2A:95:AA
    Signature Algorithm: sha256WithRSAEncryption
    Signature Value:
        22:d1:51:96:5b:da:ef:63:4a:c4:7e:a9:93:43:7d:d3:17:d4:
        86:fa:c0:f1:1d:88:63:43:e7:7e:61:a9:32:c0:c1:4b:ea:3f:
        67:99:78:d7:86:f7:db:37:80:a6:3b:38:f1:36:43:64:d3:4d:
        be:c7:1f:6f:24:94:d5:12:e9:7a:c6:ea:fc:6a:53:ca:a0:fb:
        c3:81:47:16:4a:67:9e:fa:74:4a:fd:9b:7f:0e:1c:7b:eb:79:
        86:2d:01:ec:aa:90:08:9a:26:b1:8f:1a:0f:2c:d6:bb:0c:35:
        f5:83:cd:58:ab:8f:14:37:49:79:4c:79:38:7d:49:0d:a8:97:
        35:6f:58:37:b7:01:f4:44:0e:da:35:e6:05:ac:55:49:7f:ec:
        66:72:98:17:b9:1c:2a:2f:e8:5f:d7:19:c8:83:63:ea:5f:60:
        65:7c:50:9f:50:42:20:5b:ee:f8:eb:28:27:ba:7d:45:7f:9a:
        2d:86:04:fe:12:85:7f:2d:89:c5:b7:77:41:70:46:17:41:5b:
        f6:0e:0b:70:ca:ac:65:89:e7:2c:e6:71:ad:45:8d:06:9e:58:
        8c:cb:e9:e3:1d:77:35:5d:e4:aa:f9:ec:0c:bd:cb:17:cd:14:
        47:b9:52:2f:f1:76:c2:81:86:3b:d9:de:bf:81:04:3a:b3:a3:
        a0:4a:a1:e0
-----BEGIN CERTIFICATE-----
MIIDzTCCArWgAwIBAgIBHDANBgkqhkiG9w0BAQsFADB1MQswCQYDVQQGEwJVUzET
MBEGA1UECAwKQ2FsaWZvcm5pYTEUMBIGA1UEBwwLU2FudGEgQ2xhcmExDTALBgNV
BAoMBHBrZzUxEjAQBgNVBAMMCWNoMS4xX3RhMzEYMBYGCSqGSIb3DQEJARYJY2gx
LjFfdGEzMB4XDTIxMTAyMjEwMTUxNVoXDTI0MDcxODEwMTUxNVowfTELMAkGA1UE
BhMCVVMxEzARBgNVBAgMCkNhbGlmb3JuaWExFDASBgNVBAcMC1NhbnRhIENsYXJh
MQ0wCwYDVQQKDARwa2c1MRYwFAYDVQQDDA1jczFfY2gxLjFfdGEzMRwwGgYJKoZI
hvcNAQkBFg1jczFfY2gxLjFfdGEzMIIBIjANBgkqhkiG9w0BAQEFAAOCAQ8AMIIB
CgKCAQEArPidSQ9jZJ9w/qggiGJLXvQeKe77ZnDP43u9yG2/h/4TGhkC9WMhqvtT
y91f0mGMYUSASL7RQrG5UbmDLOKdo+DDGAfur+8aWkz8eTEIdxNmukI3sJk38YSP
6MXLwcjmrFrvDirV+17jo7DgMfgqdE4HieTeiikNMhOv8O9z8T5w/COL/CEpXIGJ
KRYaznXdJZAvVzH7GC5rlTsfbs/LQ+eHpo09gQO60dPKEuSdrTP6YaR0yxuX0qSN
ezi4eRyfIJFJqsi2jr8KnC9qlqgTDnhWLuJJLyyZ46Q4kiCASD4f04WmdMXOrof0
axBOGQ/UR17u8cRNGtt4qndppWFzMQIDAQABo2AwXjAMBgNVHRMBAf8EAjAAMA4G
A1UdDwEB/wQEAwIHgDAdBgNVHQ4EFgQU9gjsV00v5uKVggr9X26KzyliKxAwHwYD
VR0jBBgwFoAUVM3UHmEHWbLOZeFtlMPwjC4qlaowDQYJKoZIhvcNAQELBQADggEB
ACLRUZZb2u9jSsR+qZNDfdMX1Ib6wPEdiGND535hqTLAwUvqP2eZeNeG99s3gKY7
OPE2Q2TTTb7HH28klNUS6XrG6vxqU8qg+8OBRxZKZ576dEr9m38OHHvreYYtAeyq
kAiaJrGPGg8s1rsMNfWDzVirjxQ3SXlMeTh9SQ2olzVvWDe3AfREDto15gWsVUl/
7GZymBe5HCov6F/XGciDY+pfYGV8UJ9QQiBb7vjrKCe6fUV/mi2GBP4ShX8ticW3
d0FwRhdBW/YOC3DKrGWJ5yzmca1FjQaeWIzL6eMddzVd5Kr57Ay9yxfNFEe5Ui/x
dsKBhjvZ3r+BBDqzo6BKoeA=
-----END CERTIFICATE-----
