Certificate:
    Data:
        Version: 3 (0x2)
        Serial Number: 28 (0x1c)
    Signature Algorithm: sha256WithRSAEncryption
        Issuer: C=US, ST=California, L=Santa Clara, O=pkg5, CN=ch1.1_ta3/emailAddress=ch1.1_ta3
        Validity
            Not Before: Nov 16 10:58:49 2017 GMT
            Not After : Aug 12 10:58:49 2020 GMT
        Subject: C=US, ST=California, L=Santa Clara, O=pkg5, CN=cs1_ch1.1_ta3/emailAddress=cs1_ch1.1_ta3
        Subject Public Key Info:
            Public Key Algorithm: rsaEncryption
                Public-Key: (1024 bit)
                Modulus:
                    00:bc:61:9b:96:ed:00:f3:76:59:ad:b0:b7:0e:c2:
                    15:13:9c:52:24:9c:d1:3c:0a:c7:01:5b:9a:5f:f5:
                    54:89:d7:9c:ab:ca:d4:ea:b1:1e:57:3c:b5:9f:08:
                    49:de:68:72:82:01:0a:b9:5e:0d:5a:1c:ea:b8:a3:
                    1c:b9:42:d5:da:f5:1a:42:9f:c6:da:5f:ff:35:29:
                    07:2a:42:e8:bf:1c:8b:de:e2:f8:67:34:ff:94:e8:
                    35:01:06:86:61:8f:5c:dd:65:23:95:31:2a:f0:56:
                    2b:e0:30:b4:a5:b8:7a:5b:7b:18:1a:09:c3:57:d9:
                    dd:0c:85:b4:75:bc:58:c2:51
                Exponent: 65537 (0x10001)
        X509v3 extensions:
            X509v3 Basic Constraints: critical
                CA:FALSE
            X509v3 Key Usage: critical
                Digital Signature
    Signature Algorithm: sha256WithRSAEncryption
         50:3c:8b:95:97:11:41:8c:86:14:6a:61:94:57:2d:35:ac:70:
         ba:c4:06:cd:97:4b:0a:21:11:86:d9:85:bf:83:09:12:75:a3:
         ff:ca:d3:cd:ab:0c:59:ad:0b:0f:42:f2:2d:dc:a5:0d:9a:f2:
         eb:d0:73:09:cf:11:8e:c9:f2:74:31:27:04:f1:66:4e:94:97:
         6d:4a:4c:04:9a:9f:e8:9a:8f:16:ff:57:9b:79:06:46:d5:b7:
         77:ad:ee:fb:92:ea:11:6a:93:9f:c6:ea:c7:01:60:2c:34:ba:
         2d:9b:d1:86:f1:9d:a1:76:be:a7:93:31:41:f1:b2:a4:0f:69:
         31:5f:e4:a9:3f:be:4e:d1:31:a5:fb:0f:36:bc:28:57:16:3f:
         af:22:ed:5d:c2:7f:d6:81:e2:dd:c7:85:ef:d7:ae:26:d7:6a:
         ea:80:84:97:42:da:fa:bc:b0:a3:e8:f0:02:af:a5:5b:29:02:
         71:59:4e:03:07:e7:4c:cc:cf:5a:43:12:fe:dc:62:8f:46:ae:
         fe:b9:37:64:d2:8d:d0:5d:bc:6f:5e:40:71:9f:18:62:aa:cb:
         4d:62:40:d0:bd:5a:95:1f:af:67:76:2d:98:25:d6:75:8c:7b:
         4e:e1:d7:2f:39:0b:38:43:5b:08:1f:a2:9d:0e:d3:46:77:92:
         24:69:76:57
-----BEGIN CERTIFICATE-----
MIIDCTCCAfGgAwIBAgIBHDANBgkqhkiG9w0BAQsFADB1MQswCQYDVQQGEwJVUzET
MBEGA1UECAwKQ2FsaWZvcm5pYTEUMBIGA1UEBwwLU2FudGEgQ2xhcmExDTALBgNV
BAoMBHBrZzUxEjAQBgNVBAMMCWNoMS4xX3RhMzEYMBYGCSqGSIb3DQEJARYJY2gx
LjFfdGEzMB4XDTE3MTExNjEwNTg0OVoXDTIwMDgxMjEwNTg0OVowfTELMAkGA1UE
BhMCVVMxEzARBgNVBAgMCkNhbGlmb3JuaWExFDASBgNVBAcMC1NhbnRhIENsYXJh
MQ0wCwYDVQQKDARwa2c1MRYwFAYDVQQDDA1jczFfY2gxLjFfdGEzMRwwGgYJKoZI
hvcNAQkBFg1jczFfY2gxLjFfdGEzMIGfMA0GCSqGSIb3DQEBAQUAA4GNADCBiQKB
gQC8YZuW7QDzdlmtsLcOwhUTnFIknNE8CscBW5pf9VSJ15yrytTqsR5XPLWfCEne
aHKCAQq5Xg1aHOq4oxy5QtXa9RpCn8baX/81KQcqQui/HIve4vhnNP+U6DUBBoZh
j1zdZSOVMSrwVivgMLSluHpbexgaCcNX2d0MhbR1vFjCUQIDAQABoyAwHjAMBgNV
HRMBAf8EAjAAMA4GA1UdDwEB/wQEAwIHgDANBgkqhkiG9w0BAQsFAAOCAQEAUDyL
lZcRQYyGFGphlFctNaxwusQGzZdLCiERhtmFv4MJEnWj/8rTzasMWa0LD0LyLdyl
DZry69BzCc8RjsnydDEnBPFmTpSXbUpMBJqf6JqPFv9Xm3kGRtW3d63u+5LqEWqT
n8bqxwFgLDS6LZvRhvGdoXa+p5MxQfGypA9pMV/kqT++TtExpfsPNrwoVxY/ryLt
XcJ/1oHi3ceF79euJtdq6oCEl0La+rywo+jwAq+lWykCcVlOAwfnTMzPWkMS/txi
j0au/rk3ZNKN0F28b15AcZ8YYqrLTWJA0L1alR+vZ3YtmCXWdYx7TuHXLzkLOENb
CB+inQ7TRneSJGl2Vw==
-----END CERTIFICATE-----
