Certificate:
    Data:
        Version: 3 (0x2)
        Serial Number: 28 (0x1c)
        Signature Algorithm: sha256WithRSAEncryption
        Issuer: C=US, ST=California, L=Santa Clara, O=pkg5, CN=ch1.1_ta3/emailAddress=ch1.1_ta3
        Validity
            Not Before: Dec 15 15:37:25 2022 GMT
            Not After : Sep 10 15:37:25 2025 GMT
        Subject: C=US, ST=California, L=Santa Clara, O=pkg5, CN=cs1_ch1.1_ta3/emailAddress=cs1_ch1.1_ta3
        Subject Public Key Info:
            Public Key Algorithm: rsaEncryption
                Public-Key: (2048 bit)
                Modulus:
                    00:ac:7b:4d:bf:ae:98:a8:f2:33:37:44:b8:51:f6:
                    05:df:d2:24:be:fa:c2:c5:f9:26:53:0c:0d:32:c5:
                    b5:8a:c6:06:3c:43:99:9a:6d:78:3b:42:2c:b4:6e:
                    54:94:7d:a8:9b:2b:38:95:c4:c1:33:92:63:ed:52:
                    7a:8f:8d:71:2d:86:17:7f:fc:58:81:b1:e7:27:f8:
                    e0:89:c8:29:c1:ad:2c:b5:26:6c:18:69:40:30:8f:
                    b3:c0:29:06:f7:46:d0:ab:7f:83:69:db:fc:06:82:
                    1a:08:4e:14:6f:a8:88:00:bf:46:0e:b7:dc:99:94:
                    65:3a:0d:02:7b:a4:bb:47:0f:82:c5:4a:41:9f:cf:
                    a9:06:0c:b5:5b:06:80:e0:f4:37:4e:82:2a:e7:31:
                    b0:de:9a:c6:d2:b4:4d:b5:0a:6e:f0:1f:df:b7:79:
                    42:a3:4a:a8:ee:03:e6:ca:92:d5:ec:2b:a6:39:12:
                    fb:33:70:09:36:6a:25:03:81:52:f1:19:22:f9:f4:
                    e1:00:85:f3:25:e1:6f:25:c0:d9:65:f0:0f:e6:b0:
                    3a:7b:b4:74:9d:0a:af:fd:c4:86:98:38:c9:97:5c:
                    37:53:01:f0:58:53:7d:d3:d1:59:5b:58:18:56:65:
                    f3:b2:10:ad:9d:b4:c1:d4:b0:69:6d:0d:6d:40:bf:
                    13:23
                Exponent: 65537 (0x10001)
        X509v3 extensions:
            X509v3 Basic Constraints: critical
                CA:FALSE
            X509v3 Key Usage: critical
                Digital Signature
            X509v3 Subject Key Identifier: 
                2D:10:CC:B4:01:B1:B0:76:09:22:3B:6B:2B:C1:23:EA:05:D3:1B:0F
            X509v3 Authority Key Identifier: 
                F9:87:9D:2E:D0:DC:EC:DB:95:BD:A1:B6:FA:24:AB:3E:F3:2E:4C:A3
    Signature Algorithm: sha256WithRSAEncryption
    Signature Value:
        3c:7d:24:85:53:de:88:89:c3:5c:2e:52:ce:0b:94:0b:7d:a5:
        15:1d:55:3c:c8:9e:8a:46:e4:94:06:6c:59:bc:62:55:99:b9:
        fd:a9:8a:6d:50:5b:4a:11:fd:96:82:ff:32:e9:43:de:48:94:
        5a:35:c7:f8:8c:b0:c4:10:4f:68:20:33:51:17:3e:31:cf:e7:
        d7:f5:1f:2f:c3:d6:8d:7e:f0:e3:b4:f0:bc:2a:5b:8a:dc:9d:
        f3:26:92:e8:ed:0e:a3:df:7f:88:f5:97:77:0b:4a:9c:29:de:
        b8:0b:df:4f:ba:db:0e:cf:2e:6f:87:01:44:87:07:be:81:44:
        d5:ed:0a:91:64:f0:d2:52:f7:bf:2d:d2:d0:4f:09:71:20:e4:
        92:52:94:dd:b2:7e:6a:06:11:e0:36:f7:9e:89:ed:45:ac:ec:
        d4:a6:aa:df:7d:e6:31:74:b5:dd:2c:7c:55:3c:85:5b:40:03:
        5a:55:07:58:da:cf:34:1e:00:25:7f:d4:8c:f3:ef:80:de:d4:
        40:6f:f3:39:5f:c4:8f:34:63:d6:c1:df:99:d2:53:b0:03:0e:
        18:f9:32:29:32:2c:aa:fe:2a:07:03:7e:c1:5b:2c:91:da:4e:
        39:1c:7e:80:6c:33:25:0f:bf:80:b6:fc:7e:60:94:11:f3:9a:
        05:16:70:96
-----BEGIN CERTIFICATE-----
MIIDzTCCArWgAwIBAgIBHDANBgkqhkiG9w0BAQsFADB1MQswCQYDVQQGEwJVUzET
MBEGA1UECAwKQ2FsaWZvcm5pYTEUMBIGA1UEBwwLU2FudGEgQ2xhcmExDTALBgNV
BAoMBHBrZzUxEjAQBgNVBAMMCWNoMS4xX3RhMzEYMBYGCSqGSIb3DQEJARYJY2gx
LjFfdGEzMB4XDTIyMTIxNTE1MzcyNVoXDTI1MDkxMDE1MzcyNVowfTELMAkGA1UE
BhMCVVMxEzARBgNVBAgMCkNhbGlmb3JuaWExFDASBgNVBAcMC1NhbnRhIENsYXJh
MQ0wCwYDVQQKDARwa2c1MRYwFAYDVQQDDA1jczFfY2gxLjFfdGEzMRwwGgYJKoZI
hvcNAQkBFg1jczFfY2gxLjFfdGEzMIIBIjANBgkqhkiG9w0BAQEFAAOCAQ8AMIIB
CgKCAQEArHtNv66YqPIzN0S4UfYF39IkvvrCxfkmUwwNMsW1isYGPEOZmm14O0Is
tG5UlH2omys4lcTBM5Jj7VJ6j41xLYYXf/xYgbHnJ/jgicgpwa0stSZsGGlAMI+z
wCkG90bQq3+Dadv8BoIaCE4Ub6iIAL9GDrfcmZRlOg0Ce6S7Rw+CxUpBn8+pBgy1
WwaA4PQ3ToIq5zGw3prG0rRNtQpu8B/ft3lCo0qo7gPmypLV7CumORL7M3AJNmol
A4FS8Rki+fThAIXzJeFvJcDZZfAP5rA6e7R0nQqv/cSGmDjJl1w3UwHwWFN909FZ
W1gYVmXzshCtnbTB1LBpbQ1tQL8TIwIDAQABo2AwXjAMBgNVHRMBAf8EAjAAMA4G
A1UdDwEB/wQEAwIHgDAdBgNVHQ4EFgQULRDMtAGxsHYJIjtrK8Ej6gXTGw8wHwYD
VR0jBBgwFoAU+YedLtDc7NuVvaG2+iSrPvMuTKMwDQYJKoZIhvcNAQELBQADggEB
ADx9JIVT3oiJw1wuUs4LlAt9pRUdVTzInopG5JQGbFm8YlWZuf2pim1QW0oR/ZaC
/zLpQ95IlFo1x/iMsMQQT2ggM1EXPjHP59f1Hy/D1o1+8OO08LwqW4rcnfMmkujt
DqPff4j1l3cLSpwp3rgL30+62w7PLm+HAUSHB76BRNXtCpFk8NJS978t0tBPCXEg
5JJSlN2yfmoGEeA2956J7UWs7NSmqt995jF0td0sfFU8hVtAA1pVB1jazzQeACV/
1Izz74De1EBv8zlfxI80Y9bB35nSU7ADDhj5MikyLKr+KgcDfsFbLJHaTjkcfoBs
MyUPv4C2/H5glBHzmgUWcJY=
-----END CERTIFICATE-----
