Certificate:
    Data:
        Version: 3 (0x2)
        Serial Number: 29 (0x1d)
    Signature Algorithm: sha256WithRSAEncryption
        Issuer: C=US, ST=California, L=Santa Clara, O=pkg5, CN=ch1.2_ta3/emailAddress=ch1.2_ta3
        Validity
            Not Before: Nov 28 22:50:57 2016 GMT
            Not After : Aug 25 22:50:57 2019 GMT
        Subject: C=US, ST=California, L=Santa Clara, O=pkg5, CN=cs1_ch1.2_ta3/emailAddress=cs1_ch1.2_ta3
        Subject Public Key Info:
            Public Key Algorithm: rsaEncryption
                Public-Key: (1024 bit)
                Modulus:
                    00:a1:af:e1:6a:1d:b3:c2:20:54:aa:aa:ce:9a:b8:
                    a7:e4:47:c7:7e:ce:a6:c3:43:16:74:3d:38:b6:49:
                    87:7b:83:aa:7c:c2:6f:da:b0:f3:a4:16:77:12:44:
                    29:7d:4f:7d:20:b9:cd:5e:9c:1e:c0:b6:62:6f:84:
                    55:e4:dd:eb:0c:2d:ad:23:ee:92:85:4e:ec:07:ab:
                    1e:bf:42:1c:2a:da:10:22:2d:be:6f:d8:0d:e5:48:
                    f2:76:f3:e0:2f:41:42:5a:aa:03:42:4e:d5:d6:36:
                    36:a4:99:80:67:69:1b:53:34:88:05:f0:7e:58:0f:
                    8d:f5:53:dd:05:cd:7c:41:47
                Exponent: 65537 (0x10001)
        X509v3 extensions:
            X509v3 Basic Constraints: critical
                CA:FALSE
            X509v3 Key Usage: critical
                Digital Signature
    Signature Algorithm: sha256WithRSAEncryption
         15:22:5b:ac:78:c9:25:9a:2b:56:4f:39:68:9a:dd:ed:b6:32:
         d3:02:a2:35:93:17:76:c0:5f:c0:c9:16:a6:c9:30:a2:d4:98:
         3c:7c:2b:ea:57:11:d7:4a:86:f4:63:e2:9b:53:2a:a4:e5:ad:
         8d:bd:c1:32:8b:a0:3e:b7:45:d4:63:f1:cd:b5:14:48:6b:a5:
         36:26:ef:51:e9:de:45:c7:61:33:82:dc:d6:9a:e1:3f:64:f7:
         92:ac:1c:f3:fb:77:0c:db:17:83:e0:49:17:f8:41:9c:a3:1a:
         2a:fd:18:f3:bb:e5:9c:ab:de:4b:c3:8e:23:ee:2e:1a:68:63:
         0a:2c:30:b5:e1:af:45:10:0c:a6:84:22:78:90:16:f7:2f:1a:
         c9:de:a2:1e:87:d8:f0:73:b5:51:97:aa:cd:0b:b3:86:89:83:
         5c:ba:7d:ea:a0:b0:dd:b8:8e:e7:af:c6:17:84:19:4e:d4:a7:
         a5:c4:7d:00:2e:ed:c9:9c:c0:63:ba:68:62:c5:f1:a9:d5:b6:
         75:67:d5:d5:27:b2:c6:3c:7b:a3:b4:4c:30:e4:1c:b5:d7:cd:
         52:e6:37:98:40:27:ab:07:00:d5:ee:4b:8d:5d:4c:9a:e1:f7:
         2e:c6:a5:fa:01:b1:17:6f:87:b9:89:bf:12:25:4e:90:43:c7:
         24:bb:cb:95
-----BEGIN CERTIFICATE-----
MIIDCTCCAfGgAwIBAgIBHTANBgkqhkiG9w0BAQsFADB1MQswCQYDVQQGEwJVUzET
MBEGA1UECAwKQ2FsaWZvcm5pYTEUMBIGA1UEBwwLU2FudGEgQ2xhcmExDTALBgNV
BAoMBHBrZzUxEjAQBgNVBAMMCWNoMS4yX3RhMzEYMBYGCSqGSIb3DQEJARYJY2gx
LjJfdGEzMB4XDTE2MTEyODIyNTA1N1oXDTE5MDgyNTIyNTA1N1owfTELMAkGA1UE
BhMCVVMxEzARBgNVBAgMCkNhbGlmb3JuaWExFDASBgNVBAcMC1NhbnRhIENsYXJh
MQ0wCwYDVQQKDARwa2c1MRYwFAYDVQQDDA1jczFfY2gxLjJfdGEzMRwwGgYJKoZI
hvcNAQkBFg1jczFfY2gxLjJfdGEzMIGfMA0GCSqGSIb3DQEBAQUAA4GNADCBiQKB
gQChr+FqHbPCIFSqqs6auKfkR8d+zqbDQxZ0PTi2SYd7g6p8wm/asPOkFncSRCl9
T30guc1enB7AtmJvhFXk3esMLa0j7pKFTuwHqx6/Qhwq2hAiLb5v2A3lSPJ28+Av
QUJaqgNCTtXWNjakmYBnaRtTNIgF8H5YD431U90FzXxBRwIDAQABoyAwHjAMBgNV
HRMBAf8EAjAAMA4GA1UdDwEB/wQEAwIHgDANBgkqhkiG9w0BAQsFAAOCAQEAFSJb
rHjJJZorVk85aJrd7bYy0wKiNZMXdsBfwMkWpskwotSYPHwr6lcR10qG9GPim1Mq
pOWtjb3BMougPrdF1GPxzbUUSGulNibvUeneRcdhM4Lc1prhP2T3kqwc8/t3DNsX
g+BJF/hBnKMaKv0Y87vlnKveS8OOI+4uGmhjCiwwteGvRRAMpoQieJAW9y8ayd6i
HofY8HO1UZeqzQuzhomDXLp96qCw3biO56/GF4QZTtSnpcR9AC7tyZzAY7poYsXx
qdW2dWfV1Seyxjx7o7RMMOQctdfNUuY3mEAnqwcA1e5LjV1MmuH3Lsal+gGxF2+H
uYm/EiVOkEPHJLvLlQ==
-----END CERTIFICATE-----
