Certificate:
    Data:
        Version: 3 (0x2)
        Serial Number: 30 (0x1e)
        Signature Algorithm: sha256WithRSAEncryption
        Issuer: C=US, ST=California, L=Santa Clara, O=pkg5, CN=ch1.2_ta3/emailAddress=ch1.2_ta3
        Validity
            Not Before: Nov 17 23:01:31 2020 GMT
            Not After : Aug 14 23:01:31 2023 GMT
        Subject: C=US, ST=California, L=Santa Clara, O=pkg5, CN=cs1_ch1.2_ta3/emailAddress=cs1_ch1.2_ta3
        Subject Public Key Info:
            Public Key Algorithm: rsaEncryption
                RSA Public-Key: (1024 bit)
                Modulus:
                    00:ba:aa:f1:6a:ed:76:32:45:d8:0f:1e:6d:3e:b5:
                    e5:c1:e0:17:60:cc:59:cf:b6:42:9f:64:51:c5:de:
                    06:cf:f7:ff:bb:04:9c:36:08:9f:08:dd:8d:d5:6f:
                    6c:16:f1:67:2e:02:b4:85:06:65:e9:fe:53:9f:fa:
                    85:c8:3d:24:37:42:b3:27:f7:d2:42:0e:75:8d:a8:
                    3a:1b:7c:b6:a2:c6:f6:ed:af:6e:c2:08:60:1d:e0:
                    50:62:b2:72:d6:64:82:8e:c9:04:65:bd:42:74:49:
                    73:50:6d:ff:3f:6a:51:a3:af:88:d5:cd:68:6b:0f:
                    0b:f5:3c:de:0e:52:78:0d:11
                Exponent: 65537 (0x10001)
        X509v3 extensions:
            X509v3 Basic Constraints: critical
                CA:FALSE
            X509v3 Key Usage: critical
                Digital Signature
    Signature Algorithm: sha256WithRSAEncryption
         db:87:ea:09:88:44:39:e1:e3:07:f1:35:1e:85:ca:b4:1b:62:
         c2:96:41:49:0a:2a:de:98:f6:86:39:1d:35:e0:09:8e:22:bd:
         d9:b8:78:e3:06:34:d3:ba:0e:7a:38:41:68:a2:af:18:27:d2:
         01:a6:12:40:72:b8:26:a8:8c:aa:f9:ac:56:74:e7:72:96:92:
         ad:0a:f3:36:33:29:d9:03:87:2e:65:98:17:81:db:3d:3f:e8:
         f6:ee:5e:57:42:31:2c:9d:af:e2:0b:79:c3:51:c0:8f:e5:32:
         6a:f1:80:d0:28:db:65:24:dc:ce:01:db:04:3c:da:7a:7d:e4:
         87:bd:a2:ed:77:de:48:0f:be:61:ba:b6:68:bd:95:25:65:9b:
         ce:e8:5f:6d:32:43:6f:b2:4e:bf:a9:d4:5f:0b:3d:82:df:bd:
         8b:49:ba:bb:60:8f:5e:1f:5a:ac:56:07:24:a3:a2:ea:af:43:
         de:c4:a9:5f:72:d8:24:cc:b8:9f:94:d0:21:dc:4c:4b:78:f2:
         98:ea:60:bc:ef:84:57:7c:f1:ee:9b:e3:93:f4:a2:ff:28:3e:
         39:40:a2:18:fa:cc:c5:f5:8f:fa:4c:db:d1:ae:8b:5e:95:0e:
         3c:00:bf:4c:a5:4a:0b:f5:52:68:52:80:32:68:07:c8:33:cd:
         d7:56:56:1c
-----BEGIN CERTIFICATE-----
MIIDCTCCAfGgAwIBAgIBHjANBgkqhkiG9w0BAQsFADB1MQswCQYDVQQGEwJVUzET
MBEGA1UECAwKQ2FsaWZvcm5pYTEUMBIGA1UEBwwLU2FudGEgQ2xhcmExDTALBgNV
BAoMBHBrZzUxEjAQBgNVBAMMCWNoMS4yX3RhMzEYMBYGCSqGSIb3DQEJARYJY2gx
LjJfdGEzMB4XDTIwMTExNzIzMDEzMVoXDTIzMDgxNDIzMDEzMVowfTELMAkGA1UE
BhMCVVMxEzARBgNVBAgMCkNhbGlmb3JuaWExFDASBgNVBAcMC1NhbnRhIENsYXJh
MQ0wCwYDVQQKDARwa2c1MRYwFAYDVQQDDA1jczFfY2gxLjJfdGEzMRwwGgYJKoZI
hvcNAQkBFg1jczFfY2gxLjJfdGEzMIGfMA0GCSqGSIb3DQEBAQUAA4GNADCBiQKB
gQC6qvFq7XYyRdgPHm0+teXB4BdgzFnPtkKfZFHF3gbP9/+7BJw2CJ8I3Y3Vb2wW
8WcuArSFBmXp/lOf+oXIPSQ3QrMn99JCDnWNqDobfLaixvbtr27CCGAd4FBisnLW
ZIKOyQRlvUJ0SXNQbf8/alGjr4jVzWhrDwv1PN4OUngNEQIDAQABoyAwHjAMBgNV
HRMBAf8EAjAAMA4GA1UdDwEB/wQEAwIHgDANBgkqhkiG9w0BAQsFAAOCAQEA24fq
CYhEOeHjB/E1HoXKtBtiwpZBSQoq3pj2hjkdNeAJjiK92bh44wY007oOejhBaKKv
GCfSAaYSQHK4JqiMqvmsVnTncpaSrQrzNjMp2QOHLmWYF4HbPT/o9u5eV0IxLJ2v
4gt5w1HAj+UyavGA0CjbZSTczgHbBDzaen3kh72i7XfeSA++Ybq2aL2VJWWbzuhf
bTJDb7JOv6nUXws9gt+9i0m6u2CPXh9arFYHJKOi6q9D3sSpX3LYJMy4n5TQIdxM
S3jymOpgvO+EV3zx7pvjk/Si/yg+OUCiGPrMxfWP+kzb0a6LXpUOPAC/TKVKC/VS
aFKAMmgHyDPN11ZWHA==
-----END CERTIFICATE-----
