Certificate:
    Data:
        Version: 3 (0x2)
        Serial Number: 30 (0x1e)
        Signature Algorithm: sha256WithRSAEncryption
        Issuer: C=US, ST=California, L=Santa Clara, O=pkg5, CN=ch1.2_ta3/emailAddress=ch1.2_ta3
        Validity
            Not Before: Nov 14 14:26:56 2024 GMT
            Not After : Aug 11 14:26:56 2027 GMT
        Subject: C=US, ST=California, L=Santa Clara, O=pkg5, CN=cs1_ch1.2_ta3/emailAddress=cs1_ch1.2_ta3
        Subject Public Key Info:
            Public Key Algorithm: rsaEncryption
                Public-Key: (2048 bit)
                Modulus:
                    00:97:af:b8:c7:0f:7a:38:06:2e:27:c2:c8:fb:4f:
                    39:91:72:d0:f3:02:66:95:29:f8:d8:70:98:52:14:
                    a7:60:2d:ad:28:55:57:84:ff:c1:3c:5b:f3:4a:b1:
                    26:af:e7:68:89:e4:20:6f:1a:09:95:5b:9a:c7:7b:
                    3f:03:1a:94:2e:f6:be:a0:76:14:68:c1:af:0a:00:
                    56:82:49:b8:ff:15:f9:a4:d1:b5:f1:98:17:0f:62:
                    ed:55:cd:19:e0:53:49:12:39:6e:a8:c6:2c:d6:8d:
                    74:dd:1c:0e:8d:77:0e:c2:07:05:bc:b9:6e:f8:8e:
                    ee:05:63:af:33:e7:1d:eb:63:d4:a2:51:8a:5a:7a:
                    8f:6b:92:b5:af:4e:a4:a5:dc:99:04:d2:3e:27:e8:
                    13:58:7f:9e:31:4d:f2:2f:0f:d6:37:aa:bc:de:24:
                    76:ea:13:b2:ad:c9:7f:72:cc:cb:38:55:b8:d6:07:
                    cc:eb:9f:41:9e:f1:ce:67:cf:79:24:2b:a9:da:42:
                    f8:96:8f:9f:83:3a:79:8c:d7:ca:12:28:aa:fc:cc:
                    75:97:89:84:55:7a:eb:f1:b8:31:88:fb:a2:9e:af:
                    a6:3e:32:38:53:10:74:b3:38:77:93:38:86:61:38:
                    9c:fd:0b:9c:be:11:e6:60:d6:99:f5:b5:6a:eb:3f:
                    3d:1f
                Exponent: 65537 (0x10001)
        X509v3 extensions:
            X509v3 Basic Constraints: critical
                CA:FALSE
            X509v3 Key Usage: critical
                Digital Signature
            X509v3 Subject Key Identifier: 
                4F:BF:3F:6A:93:B0:5A:F5:A1:22:EB:F9:9A:09:31:0D:3A:1F:A8:FC
            X509v3 Authority Key Identifier: 
                7C:C2:BD:53:47:9A:F5:B0:16:D8:C7:4F:03:1C:60:D9:32:F4:8B:A3
    Signature Algorithm: sha256WithRSAEncryption
    Signature Value:
        41:c5:4a:fc:a6:35:72:ba:dc:d4:16:f9:d8:82:ec:48:5a:75:
        fe:96:34:be:51:31:e0:76:55:b8:23:34:bb:a3:1f:49:6e:91:
        7c:47:84:69:14:02:d0:7e:09:df:e7:72:d3:3f:1c:55:4b:6f:
        74:be:32:fd:14:cb:0a:99:ff:ed:b9:3f:63:96:c0:20:14:56:
        fd:c4:bb:19:2b:4e:a9:27:b1:73:db:2b:65:1f:6e:8d:64:12:
        f7:57:63:eb:99:2e:eb:ab:a7:d9:28:7f:d0:fe:5d:ca:30:50:
        2b:15:d1:c1:f8:2c:2b:a7:18:97:55:f8:6b:6c:8a:45:66:5c:
        40:74:e4:72:ba:e3:89:70:0c:1c:1b:25:8a:4f:b0:ee:1a:15:
        43:95:a1:da:2b:e0:71:80:61:a8:cf:12:bf:67:12:c2:54:4a:
        58:a2:ce:3f:40:c7:4e:43:f2:a1:c9:4b:6e:98:f0:1c:96:79:
        72:a7:da:46:28:79:87:15:56:cf:f2:6a:2a:bf:c6:f6:06:10:
        3b:94:c1:8c:1a:ca:62:be:90:fb:64:79:12:f1:c3:fd:f7:92:
        3c:ed:ac:64:a2:44:12:c6:81:a3:bf:10:56:52:d8:b7:59:63:
        60:2f:7e:6e:f4:bb:89:1a:73:fa:08:90:e6:36:8b:57:41:57:
        d1:24:92:9b
-----BEGIN CERTIFICATE-----
MIIDzTCCArWgAwIBAgIBHjANBgkqhkiG9w0BAQsFADB1MQswCQYDVQQGEwJVUzET
MBEGA1UECAwKQ2FsaWZvcm5pYTEUMBIGA1UEBwwLU2FudGEgQ2xhcmExDTALBgNV
BAoMBHBrZzUxEjAQBgNVBAMMCWNoMS4yX3RhMzEYMBYGCSqGSIb3DQEJARYJY2gx
LjJfdGEzMB4XDTI0MTExNDE0MjY1NloXDTI3MDgxMTE0MjY1NlowfTELMAkGA1UE
BhMCVVMxEzARBgNVBAgMCkNhbGlmb3JuaWExFDASBgNVBAcMC1NhbnRhIENsYXJh
MQ0wCwYDVQQKDARwa2c1MRYwFAYDVQQDDA1jczFfY2gxLjJfdGEzMRwwGgYJKoZI
hvcNAQkBFg1jczFfY2gxLjJfdGEzMIIBIjANBgkqhkiG9w0BAQEFAAOCAQ8AMIIB
CgKCAQEAl6+4xw96OAYuJ8LI+085kXLQ8wJmlSn42HCYUhSnYC2tKFVXhP/BPFvz
SrEmr+doieQgbxoJlVuax3s/AxqULva+oHYUaMGvCgBWgkm4/xX5pNG18ZgXD2Lt
Vc0Z4FNJEjluqMYs1o103RwOjXcOwgcFvLlu+I7uBWOvM+cd62PUolGKWnqPa5K1
r06kpdyZBNI+J+gTWH+eMU3yLw/WN6q83iR26hOyrcl/cszLOFW41gfM659BnvHO
Z895JCup2kL4lo+fgzp5jNfKEiiq/Mx1l4mEVXrr8bgxiPuinq+mPjI4UxB0szh3
kziGYTic/QucvhHmYNaZ9bVq6z89HwIDAQABo2AwXjAMBgNVHRMBAf8EAjAAMA4G
A1UdDwEB/wQEAwIHgDAdBgNVHQ4EFgQUT78/apOwWvWhIuv5mgkxDTofqPwwHwYD
VR0jBBgwFoAUfMK9U0ea9bAW2MdPAxxg2TL0i6MwDQYJKoZIhvcNAQELBQADggEB
AEHFSvymNXK63NQW+diC7Ehadf6WNL5RMeB2VbgjNLujH0lukXxHhGkUAtB+Cd/n
ctM/HFVLb3S+Mv0UywqZ/+25P2OWwCAUVv3EuxkrTqknsXPbK2Ufbo1kEvdXY+uZ
Luurp9kof9D+XcowUCsV0cH4LCunGJdV+GtsikVmXEB05HK644lwDBwbJYpPsO4a
FUOVodor4HGAYajPEr9nEsJUSliizj9Ax05D8qHJS26Y8ByWeXKn2kYoeYcVVs/y
aiq/xvYGEDuUwYwaymK+kPtkeRLxw/33kjztrGSiRBLGgaO/EFZS2LdZY2Avfm70
u4kac/oIkOY2i1dBV9Ekkps=
-----END CERTIFICATE-----
