Certificate:
    Data:
        Version: 3 (0x2)
        Serial Number: 30 (0x1e)
    Signature Algorithm: sha256WithRSAEncryption
        Issuer: C=US, ST=California, L=Santa Clara, O=pkg5, CN=ch1.2_ta3/emailAddress=ch1.2_ta3
        Validity
            Not Before: Mar 20 10:20:54 2018 GMT
            Not After : Dec 14 10:20:54 2020 GMT
        Subject: C=US, ST=California, L=Santa Clara, O=pkg5, CN=cs1_ch1.2_ta3/emailAddress=cs1_ch1.2_ta3
        Subject Public Key Info:
            Public Key Algorithm: rsaEncryption
                Public-Key: (1024 bit)
                Modulus:
                    00:cb:5c:18:88:28:e4:b3:69:bf:08:db:78:98:a7:
                    88:9d:82:63:f1:10:e3:11:6a:53:41:fd:76:e9:78:
                    d1:45:92:b0:8b:5a:c9:01:96:be:88:18:cb:a5:20:
                    16:70:40:cb:3b:f8:10:74:07:a5:bd:62:19:1c:4b:
                    a7:84:13:81:87:9f:b4:0d:be:99:4d:ba:fe:06:12:
                    d0:21:ba:da:a2:66:cb:48:07:ec:b8:de:35:89:8d:
                    e5:0e:b9:e1:ea:cb:67:0a:f5:94:23:bd:19:27:5b:
                    13:d3:b2:59:5f:07:69:da:b3:be:30:88:60:1c:61:
                    9c:46:ec:96:a8:c8:f6:15:f9
                Exponent: 65537 (0x10001)
        X509v3 extensions:
            X509v3 Basic Constraints: critical
                CA:FALSE
            X509v3 Key Usage: critical
                Digital Signature
    Signature Algorithm: sha256WithRSAEncryption
         71:ca:a4:c4:62:fe:6a:8d:09:ca:fe:e2:07:fe:bc:87:0e:cf:
         d2:b6:9e:4e:4e:ab:66:7b:b2:f7:11:25:5e:b5:05:79:6c:1e:
         db:ba:b0:2b:7d:88:93:92:36:18:b9:f1:d5:07:4e:5c:3e:92:
         a0:b3:31:d2:25:48:bb:6f:ed:d4:c2:d0:68:b6:65:b3:f3:be:
         25:96:ef:81:23:12:f0:ba:07:7b:ba:ca:54:08:e3:88:35:51:
         d9:d1:26:6f:ce:1e:da:23:ba:f1:02:13:c8:c7:e5:2d:5f:c4:
         ce:22:d4:4b:e2:cd:84:0a:3c:52:6c:ba:0c:ab:78:85:b2:6b:
         c0:53:66:11:9f:7a:73:d2:07:17:31:df:e5:4b:4b:95:d2:5f:
         1f:50:4c:00:82:2b:3a:06:79:96:82:65:0c:62:59:d9:15:3f:
         41:07:e7:49:89:4c:6a:e9:eb:36:a8:61:84:0a:9d:a1:88:a8:
         3d:79:f6:1b:c7:04:84:37:a3:e2:a2:81:f4:ca:0c:80:7f:40:
         86:e4:b0:7e:0e:19:94:6b:23:88:f8:da:ca:aa:b3:c9:c9:0f:
         41:d5:8d:ed:6d:4c:c8:0b:9c:7f:b8:d8:4f:5c:33:11:5b:b4:
         c5:4a:34:67:30:63:09:7d:ba:98:23:da:c0:e4:fc:d8:27:1e:
         8c:c9:c9:ab
-----BEGIN CERTIFICATE-----
MIIDCTCCAfGgAwIBAgIBHjANBgkqhkiG9w0BAQsFADB1MQswCQYDVQQGEwJVUzET
MBEGA1UECAwKQ2FsaWZvcm5pYTEUMBIGA1UEBwwLU2FudGEgQ2xhcmExDTALBgNV
BAoMBHBrZzUxEjAQBgNVBAMMCWNoMS4yX3RhMzEYMBYGCSqGSIb3DQEJARYJY2gx
LjJfdGEzMB4XDTE4MDMyMDEwMjA1NFoXDTIwMTIxNDEwMjA1NFowfTELMAkGA1UE
BhMCVVMxEzARBgNVBAgMCkNhbGlmb3JuaWExFDASBgNVBAcMC1NhbnRhIENsYXJh
MQ0wCwYDVQQKDARwa2c1MRYwFAYDVQQDDA1jczFfY2gxLjJfdGEzMRwwGgYJKoZI
hvcNAQkBFg1jczFfY2gxLjJfdGEzMIGfMA0GCSqGSIb3DQEBAQUAA4GNADCBiQKB
gQDLXBiIKOSzab8I23iYp4idgmPxEOMRalNB/XbpeNFFkrCLWskBlr6IGMulIBZw
QMs7+BB0B6W9YhkcS6eEE4GHn7QNvplNuv4GEtAhutqiZstIB+y43jWJjeUOueHq
y2cK9ZQjvRknWxPTsllfB2nas74wiGAcYZxG7JaoyPYV+QIDAQABoyAwHjAMBgNV
HRMBAf8EAjAAMA4GA1UdDwEB/wQEAwIHgDANBgkqhkiG9w0BAQsFAAOCAQEAccqk
xGL+ao0Jyv7iB/68hw7P0raeTk6rZnuy9xElXrUFeWwe27qwK32Ik5I2GLnx1QdO
XD6SoLMx0iVIu2/t1MLQaLZls/O+JZbvgSMS8LoHe7rKVAjjiDVR2dEmb84e2iO6
8QITyMflLV/EziLUS+LNhAo8Umy6DKt4hbJrwFNmEZ96c9IHFzHf5UtLldJfH1BM
AIIrOgZ5loJlDGJZ2RU/QQfnSYlMaunrNqhhhAqdoYioPXn2G8cEhDej4qKB9MoM
gH9AhuSwfg4ZlGsjiPjayqqzyckPQdWN7W1MyAucf7jYT1wzEVu0xUo0ZzBjCX26
mCPawOT82CcejMnJqw==
-----END CERTIFICATE-----
