Certificate:
    Data:
        Version: 3 (0x2)
        Serial Number: 30 (0x1e)
    Signature Algorithm: sha256WithRSAEncryption
        Issuer: C=US, ST=California, L=Santa Clara, O=pkg5, CN=ch1.2_ta3/emailAddress=ch1.2_ta3
        Validity
            Not Before: Nov 16 10:58:49 2017 GMT
            Not After : Aug 12 10:58:49 2020 GMT
        Subject: C=US, ST=California, L=Santa Clara, O=pkg5, CN=cs1_ch1.2_ta3/emailAddress=cs1_ch1.2_ta3
        Subject Public Key Info:
            Public Key Algorithm: rsaEncryption
                Public-Key: (1024 bit)
                Modulus:
                    00:c2:b9:f3:21:1c:0a:6c:79:3b:19:ae:f7:a6:33:
                    59:c5:58:35:42:dd:3a:7c:bb:54:db:cd:aa:9b:53:
                    24:6d:db:18:b5:40:aa:c9:24:08:95:dc:10:34:51:
                    4f:f6:64:7f:d0:b9:de:30:ac:da:95:c0:f6:88:ad:
                    be:0b:34:0f:0b:06:e6:13:40:92:65:69:91:22:21:
                    d6:b4:a6:73:30:ee:88:1e:16:ec:a3:aa:2d:3f:4a:
                    ae:25:4f:60:1b:17:cc:eb:74:7d:9c:9c:7f:d5:3a:
                    d4:7b:ff:6e:57:bb:a5:ed:5f:05:b7:ff:c2:9d:91:
                    59:94:73:56:9c:d8:25:96:97
                Exponent: 65537 (0x10001)
        X509v3 extensions:
            X509v3 Basic Constraints: critical
                CA:FALSE
            X509v3 Key Usage: critical
                Digital Signature
    Signature Algorithm: sha256WithRSAEncryption
         8d:e4:5b:c9:de:32:7e:97:6c:8d:7c:0b:16:7f:0d:cc:79:1f:
         6b:de:c7:bf:c4:03:55:b1:4a:ce:06:80:26:ad:d6:22:93:fa:
         1e:3e:d1:ad:24:1c:5d:ea:27:18:f1:7e:07:57:90:4f:3a:8f:
         7a:36:ef:88:fc:73:ba:4c:e5:2a:ac:9f:83:91:96:09:08:f8:
         5c:d2:24:0e:98:7f:9f:be:50:49:c1:85:fb:68:d2:57:b2:27:
         ae:ea:65:64:94:87:7b:87:78:5b:48:d8:4f:34:4d:5a:d7:98:
         cb:de:83:7b:9e:f8:53:cc:f6:f4:b1:ae:d3:67:97:1d:ab:80:
         60:03:2e:30:f2:7a:a9:5f:b1:91:7e:34:f3:7c:f3:0c:fd:7f:
         de:91:9c:22:05:6d:86:fd:e5:1f:94:25:ef:db:f9:a8:66:d0:
         a2:61:66:ab:f1:82:a9:4d:c0:61:9c:cb:67:32:44:35:bb:23:
         db:c4:8b:db:14:10:77:69:3b:53:38:48:71:f3:2a:35:d3:50:
         9d:27:0e:7b:46:71:93:d0:e5:64:2d:c0:c9:90:a9:d9:df:f3:
         95:3e:53:c5:f5:8b:4c:03:fb:e2:d6:51:f1:4b:ef:b9:a6:5b:
         78:7c:bb:c1:d9:1f:a0:27:6c:b1:39:54:aa:6e:d0:7b:81:39:
         bf:70:7c:45
-----BEGIN CERTIFICATE-----
MIIDCTCCAfGgAwIBAgIBHjANBgkqhkiG9w0BAQsFADB1MQswCQYDVQQGEwJVUzET
MBEGA1UECAwKQ2FsaWZvcm5pYTEUMBIGA1UEBwwLU2FudGEgQ2xhcmExDTALBgNV
BAoMBHBrZzUxEjAQBgNVBAMMCWNoMS4yX3RhMzEYMBYGCSqGSIb3DQEJARYJY2gx
LjJfdGEzMB4XDTE3MTExNjEwNTg0OVoXDTIwMDgxMjEwNTg0OVowfTELMAkGA1UE
BhMCVVMxEzARBgNVBAgMCkNhbGlmb3JuaWExFDASBgNVBAcMC1NhbnRhIENsYXJh
MQ0wCwYDVQQKDARwa2c1MRYwFAYDVQQDDA1jczFfY2gxLjJfdGEzMRwwGgYJKoZI
hvcNAQkBFg1jczFfY2gxLjJfdGEzMIGfMA0GCSqGSIb3DQEBAQUAA4GNADCBiQKB
gQDCufMhHApseTsZrvemM1nFWDVC3Tp8u1TbzaqbUyRt2xi1QKrJJAiV3BA0UU/2
ZH/Qud4wrNqVwPaIrb4LNA8LBuYTQJJlaZEiIda0pnMw7ogeFuyjqi0/Sq4lT2Ab
F8zrdH2cnH/VOtR7/25Xu6XtXwW3/8KdkVmUc1ac2CWWlwIDAQABoyAwHjAMBgNV
HRMBAf8EAjAAMA4GA1UdDwEB/wQEAwIHgDANBgkqhkiG9w0BAQsFAAOCAQEAjeRb
yd4yfpdsjXwLFn8NzHkfa97Hv8QDVbFKzgaAJq3WIpP6Hj7RrSQcXeonGPF+B1eQ
TzqPejbviPxzukzlKqyfg5GWCQj4XNIkDph/n75QScGF+2jSV7InruplZJSHe4d4
W0jYTzRNWteYy96De574U8z29LGu02eXHauAYAMuMPJ6qV+xkX4083zzDP1/3pGc
IgVthv3lH5Ql79v5qGbQomFmq/GCqU3AYZzLZzJENbsj28SL2xQQd2k7UzhIcfMq
NdNQnScOe0Zxk9DlZC3AyZCp2d/zlT5TxfWLTAP74tZR8UvvuaZbeHy7wdkfoCds
sTlUqm7Qe4E5v3B8RQ==
-----END CERTIFICATE-----
