Certificate:
    Data:
        Version: 3 (0x2)
        Serial Number: 31 (0x1f)
    Signature Algorithm: sha256WithRSAEncryption
        Issuer: C=US, ST=California, L=Santa Clara, O=pkg5, CN=ch1.3_ta3/emailAddress=ch1.3_ta3
        Validity
            Not Before: Dec  6 03:06:43 2014 GMT
            Not After : Sep  1 03:06:43 2017 GMT
        Subject: C=US, ST=California, L=Santa Clara, O=pkg5, CN=cs1_ch1.3_ta3/emailAddress=cs1_ch1.3_ta3
        Subject Public Key Info:
            Public Key Algorithm: rsaEncryption
                Public-Key: (1024 bit)
                Modulus:
                    00:d3:6c:aa:ca:7e:25:c2:52:7c:fb:46:cd:b8:24:
                    52:3d:f8:92:e6:53:23:fd:d0:7a:04:c7:78:ed:6f:
                    a5:fc:4d:37:5c:64:6c:53:d5:47:83:e6:37:d1:a4:
                    52:c6:13:68:9e:23:95:c0:3d:ac:29:68:c6:3a:9a:
                    71:39:31:7d:c1:59:7c:c4:f9:56:cc:b3:b4:8f:81:
                    dd:44:67:0e:cc:e5:94:4d:b7:f6:70:f9:6c:fd:27:
                    6b:ed:ef:f4:24:80:ed:33:02:97:c7:b4:d2:42:0f:
                    9d:d1:50:b9:4c:18:61:47:cf:03:f0:b3:69:25:ab:
                    1c:6e:1c:cd:59:53:ce:91:01
                Exponent: 65537 (0x10001)
        X509v3 extensions:
            X509v3 Basic Constraints: critical
                CA:FALSE
            X509v3 Key Usage: critical
                Digital Signature
    Signature Algorithm: sha256WithRSAEncryption
         7b:33:50:8a:5b:2f:76:49:9b:76:b5:81:cc:21:6d:55:b3:5b:
         b5:51:a6:29:bd:da:54:31:ed:0a:fa:c5:05:e4:b1:09:a3:ad:
         5b:4c:17:95:18:ea:e1:21:22:fa:23:17:29:27:3a:1a:42:ec:
         91:cb:6a:28:c3:17:c8:b1:83:96:51:80:e7:ef:0f:5a:8c:7d:
         4c:f7:cc:3e:8d:1a:cd:77:51:b3:77:73:00:fe:ba:a5:85:85:
         77:71:9b:ce:e3:f1:cc:b0:ce:4e:35:70:cb:a8:3e:23:8b:82:
         ba:60:45:83:7a:b1:3d:c4:8f:51:fb:ba:23:1f:08:0f:53:96:
         78:a1
-----BEGIN CERTIFICATE-----
MIICiDCCAfGgAwIBAgIBHzANBgkqhkiG9w0BAQsFADB1MQswCQYDVQQGEwJVUzET
MBEGA1UECAwKQ2FsaWZvcm5pYTEUMBIGA1UEBwwLU2FudGEgQ2xhcmExDTALBgNV
BAoMBHBrZzUxEjAQBgNVBAMMCWNoMS4zX3RhMzEYMBYGCSqGSIb3DQEJARYJY2gx
LjNfdGEzMB4XDTE0MTIwNjAzMDY0M1oXDTE3MDkwMTAzMDY0M1owfTELMAkGA1UE
BhMCVVMxEzARBgNVBAgMCkNhbGlmb3JuaWExFDASBgNVBAcMC1NhbnRhIENsYXJh
MQ0wCwYDVQQKDARwa2c1MRYwFAYDVQQDDA1jczFfY2gxLjNfdGEzMRwwGgYJKoZI
hvcNAQkBFg1jczFfY2gxLjNfdGEzMIGfMA0GCSqGSIb3DQEBAQUAA4GNADCBiQKB
gQDTbKrKfiXCUnz7Rs24JFI9+JLmUyP90HoEx3jtb6X8TTdcZGxT1UeD5jfRpFLG
E2ieI5XAPawpaMY6mnE5MX3BWXzE+VbMs7SPgd1EZw7M5ZRNt/Zw+Wz9J2vt7/Qk
gO0zApfHtNJCD53RULlMGGFHzwPws2klqxxuHM1ZU86RAQIDAQABoyAwHjAMBgNV
HRMBAf8EAjAAMA4GA1UdDwEB/wQEAwIHgDANBgkqhkiG9w0BAQsFAAOBgQB7M1CK
Wy92SZt2tYHMIW1Vs1u1UaYpvdpUMe0K+sUF5LEJo61bTBeVGOrhISL6IxcpJzoa
QuyRy2oowxfIsYOWUYDn7w9ajH1M98w+jRrNd1Gzd3MA/rqlhYV3cZvO4/HMsM5O
NXDLqD4ji4K6YEWDerE9xI9R+7ojHwgPU5Z4oQ==
-----END CERTIFICATE-----
