Certificate:
    Data:
        Version: 3 (0x2)
        Serial Number: 31 (0x1f)
    Signature Algorithm: sha256WithRSAEncryption
        Issuer: C=US, ST=California, L=Santa Clara, O=pkg5, CN=ch1.3_ta3/emailAddress=ch1.3_ta3
        Validity
            Not Before: Nov 28 22:50:57 2016 GMT
            Not After : Aug 25 22:50:57 2019 GMT
        Subject: C=US, ST=California, L=Santa Clara, O=pkg5, CN=cs1_ch1.3_ta3/emailAddress=cs1_ch1.3_ta3
        Subject Public Key Info:
            Public Key Algorithm: rsaEncryption
                Public-Key: (1024 bit)
                Modulus:
                    00:cd:15:eb:43:63:25:1c:fd:1d:10:6d:61:b7:ae:
                    ce:22:f1:fd:82:27:23:33:f2:ba:fe:43:89:06:5c:
                    32:df:22:c6:8f:76:30:7c:6d:35:7f:4c:86:44:e2:
                    66:c9:54:b2:bf:96:de:37:5c:e7:c5:9f:bc:b0:f4:
                    6a:24:22:b1:4e:18:6a:87:a9:95:1c:2b:e4:98:79:
                    aa:81:29:e0:ab:5a:92:c5:65:24:8d:a2:0b:80:6a:
                    2e:d9:9a:3a:60:56:a9:5c:b3:fc:17:3d:e9:cc:8f:
                    d5:01:5d:6b:07:bf:20:97:e9:2a:4e:84:d2:a6:05:
                    ee:72:e3:23:9c:72:2e:e4:47
                Exponent: 65537 (0x10001)
        X509v3 extensions:
            X509v3 Basic Constraints: critical
                CA:FALSE
            X509v3 Key Usage: critical
                Digital Signature
    Signature Algorithm: sha256WithRSAEncryption
         0a:8d:7a:a9:07:4a:8a:63:56:f5:9c:c4:cc:94:97:d6:7e:88:
         ce:08:62:d6:59:38:4f:4f:3b:a3:9c:14:0e:75:06:59:11:fd:
         a6:1f:23:a2:f9:a9:3c:a8:8f:75:0e:a0:52:70:81:d8:66:9d:
         3b:4f:4c:ac:a4:a0:67:52:c1:3f:63:5c:48:20:78:a5:5e:24:
         a6:f8:ab:96:d0:3f:b0:1a:42:97:20:9e:c9:ef:e3:61:79:f0:
         ea:d1:c9:a6:06:c9:c7:39:3e:69:a0:08:01:53:71:75:13:27:
         54:31:f8:ff:d4:b3:2c:a6:bc:eb:7b:9b:97:15:9c:31:ea:0e:
         75:c1:da:3d:1d:19:7c:8c:6b:c8:fb:c6:a2:07:c1:81:2e:9a:
         a8:8a:c3:39:b3:75:d9:4c:64:43:df:ff:13:8a:75:60:94:fc:
         b0:2d:e5:d6:00:6e:14:54:dc:35:21:bd:ef:eb:b4:75:3d:e1:
         ef:ad:97:4e:be:43:54:70:a8:f2:e8:a3:9a:13:60:e9:93:1d:
         d0:00:67:c9:a6:3c:c3:c3:4b:73:de:2e:96:ec:ab:a3:1f:47:
         54:93:7d:5b:75:f8:78:8d:03:69:18:85:ca:ea:a0:a1:0a:9d:
         a0:29:a6:07:6d:1e:0a:dc:73:6e:89:6f:99:ea:eb:d3:f9:72:
         88:86:0b:f9
-----BEGIN CERTIFICATE-----
MIIDCTCCAfGgAwIBAgIBHzANBgkqhkiG9w0BAQsFADB1MQswCQYDVQQGEwJVUzET
MBEGA1UECAwKQ2FsaWZvcm5pYTEUMBIGA1UEBwwLU2FudGEgQ2xhcmExDTALBgNV
BAoMBHBrZzUxEjAQBgNVBAMMCWNoMS4zX3RhMzEYMBYGCSqGSIb3DQEJARYJY2gx
LjNfdGEzMB4XDTE2MTEyODIyNTA1N1oXDTE5MDgyNTIyNTA1N1owfTELMAkGA1UE
BhMCVVMxEzARBgNVBAgMCkNhbGlmb3JuaWExFDASBgNVBAcMC1NhbnRhIENsYXJh
MQ0wCwYDVQQKDARwa2c1MRYwFAYDVQQDDA1jczFfY2gxLjNfdGEzMRwwGgYJKoZI
hvcNAQkBFg1jczFfY2gxLjNfdGEzMIGfMA0GCSqGSIb3DQEBAQUAA4GNADCBiQKB
gQDNFetDYyUc/R0QbWG3rs4i8f2CJyMz8rr+Q4kGXDLfIsaPdjB8bTV/TIZE4mbJ
VLK/lt43XOfFn7yw9GokIrFOGGqHqZUcK+SYeaqBKeCrWpLFZSSNoguAai7Zmjpg
Vqlcs/wXPenMj9UBXWsHvyCX6SpOhNKmBe5y4yOcci7kRwIDAQABoyAwHjAMBgNV
HRMBAf8EAjAAMA4GA1UdDwEB/wQEAwIHgDANBgkqhkiG9w0BAQsFAAOCAQEACo16
qQdKimNW9ZzEzJSX1n6Izghi1lk4T087o5wUDnUGWRH9ph8jovmpPKiPdQ6gUnCB
2GadO09MrKSgZ1LBP2NcSCB4pV4kpvirltA/sBpClyCeye/jYXnw6tHJpgbJxzk+
aaAIAVNxdRMnVDH4/9SzLKa863ublxWcMeoOdcHaPR0ZfIxryPvGogfBgS6aqIrD
ObN12UxkQ9//E4p1YJT8sC3l1gBuFFTcNSG97+u0dT3h762XTr5DVHCo8uijmhNg
6ZMd0ABnyaY8w8NLc94uluyrox9HVJN9W3X4eI0DaRiFyuqgoQqdoCmmB20eCtxz
bolvmerr0/lyiIYL+Q==
-----END CERTIFICATE-----
