Certificate:
    Data:
        Version: 3 (0x2)
        Serial Number: 32 (0x20)
        Signature Algorithm: sha256WithRSAEncryption
        Issuer: C=US, ST=California, L=Santa Clara, O=pkg5, CN=ch1.3_ta3/emailAddress=ch1.3_ta3
        Validity
            Not Before: May 23 15:47:20 2024 GMT
            Not After : Feb 17 15:47:20 2027 GMT
        Subject: C=US, ST=California, L=Santa Clara, O=pkg5, CN=cs1_ch1.3_ta3/emailAddress=cs1_ch1.3_ta3
        Subject Public Key Info:
            Public Key Algorithm: rsaEncryption
                Public-Key: (2048 bit)
                Modulus:
                    00:ab:d8:be:96:af:60:f8:da:e2:5a:87:e8:77:6d:
                    7c:5e:a6:c4:a1:b3:99:5f:5d:97:2e:48:8f:9f:3c:
                    b5:a5:01:1d:80:de:d1:a0:5b:ce:7f:9f:56:3d:59:
                    db:9a:c3:0f:8f:05:11:72:ab:3b:e2:2a:7b:40:7a:
                    f8:8d:5a:6c:7a:e6:9d:a5:88:98:35:c9:d7:27:c4:
                    17:de:3e:f7:88:e3:85:c8:2f:ad:05:82:01:fd:7f:
                    d7:98:ab:4c:77:ac:53:4d:d4:5e:3d:eb:eb:b0:cf:
                    08:de:7b:6a:d6:d0:4d:dc:17:72:71:fa:ec:86:71:
                    04:99:04:41:a0:ba:37:82:36:18:b0:7b:a9:c1:d8:
                    da:43:41:76:ae:9a:3d:78:ed:fe:9d:31:ae:01:b2:
                    6e:8f:6b:e1:e3:5b:69:37:26:a4:e4:fc:7b:01:08:
                    8e:be:60:39:48:18:6d:f7:6b:19:63:0e:3b:e3:45:
                    5a:8e:24:31:5f:bf:cf:59:76:fc:23:75:f1:f1:bc:
                    02:0d:93:ec:fa:cf:b2:40:7b:14:84:a3:ef:72:e9:
                    77:75:21:43:de:84:1a:4d:69:d3:33:ad:6b:58:d1:
                    18:0c:bf:fe:9c:08:83:89:ca:10:eb:10:6b:71:1b:
                    3e:dc:6c:a3:bd:de:b5:fd:cb:8d:33:12:39:be:4d:
                    ac:cb
                Exponent: 65537 (0x10001)
        X509v3 extensions:
            X509v3 Basic Constraints: critical
                CA:FALSE
            X509v3 Key Usage: critical
                Digital Signature
            X509v3 Subject Key Identifier: 
                38:A5:1B:31:41:AC:BE:6F:99:96:0B:63:B4:B2:A1:5D:BE:F7:D2:CF
            X509v3 Authority Key Identifier: 
                91:E2:DD:E9:B9:7E:BF:87:AD:E2:CB:1D:7E:4F:0B:3A:85:D6:58:2D
    Signature Algorithm: sha256WithRSAEncryption
    Signature Value:
        7d:1a:d2:f6:6d:52:c0:c0:92:94:a3:40:02:a1:66:f3:a6:87:
        48:6e:56:9f:15:51:0f:b6:6a:13:71:50:dc:d0:53:82:a8:ad:
        6b:6c:b8:7b:8d:df:85:9f:4f:b6:49:3a:84:2b:da:ad:1b:c8:
        0a:a6:90:18:e7:64:69:b5:1d:e2:da:59:9e:1d:c6:c2:77:68:
        d8:a8:8f:27:07:61:92:77:6b:ec:93:3a:4b:3f:ae:0e:3a:a6:
        20:04:7d:76:01:8f:75:5d:f1:3c:3e:0b:87:b7:4f:73:66:78:
        c8:c5:40:bb:3b:62:da:20:2a:34:ed:45:15:f3:43:bc:57:e3:
        d9:fd:44:7a:5f:01:83:35:c1:ce:4b:31:8e:97:53:ba:69:6a:
        33:0b:0f:39:09:69:ae:89:7b:21:3a:a5:7c:90:3a:ae:97:37:
        a2:58:eb:7b:d3:94:8b:5e:37:df:33:59:60:85:0d:ed:0b:0e:
        61:79:83:e8:7d:13:95:82:a3:5b:8b:ce:c4:c5:5f:7f:38:d4:
        a9:29:31:c7:14:72:94:43:52:29:9d:f8:b3:0c:14:5e:c7:e3:
        35:9a:9f:e2:17:8c:b2:88:ca:7c:8f:a9:57:62:7e:68:8e:3d:
        1f:1d:47:b3:f5:9d:ff:55:09:0f:f6:b0:3d:71:8c:e9:73:43:
        b0:7e:14:a0
-----BEGIN CERTIFICATE-----
MIIDzTCCArWgAwIBAgIBIDANBgkqhkiG9w0BAQsFADB1MQswCQYDVQQGEwJVUzET
MBEGA1UECAwKQ2FsaWZvcm5pYTEUMBIGA1UEBwwLU2FudGEgQ2xhcmExDTALBgNV
BAoMBHBrZzUxEjAQBgNVBAMMCWNoMS4zX3RhMzEYMBYGCSqGSIb3DQEJARYJY2gx
LjNfdGEzMB4XDTI0MDUyMzE1NDcyMFoXDTI3MDIxNzE1NDcyMFowfTELMAkGA1UE
BhMCVVMxEzARBgNVBAgMCkNhbGlmb3JuaWExFDASBgNVBAcMC1NhbnRhIENsYXJh
MQ0wCwYDVQQKDARwa2c1MRYwFAYDVQQDDA1jczFfY2gxLjNfdGEzMRwwGgYJKoZI
hvcNAQkBFg1jczFfY2gxLjNfdGEzMIIBIjANBgkqhkiG9w0BAQEFAAOCAQ8AMIIB
CgKCAQEAq9i+lq9g+NriWofod218XqbEobOZX12XLkiPnzy1pQEdgN7RoFvOf59W
PVnbmsMPjwURcqs74ip7QHr4jVpseuadpYiYNcnXJ8QX3j73iOOFyC+tBYIB/X/X
mKtMd6xTTdRePevrsM8I3ntq1tBN3BdycfrshnEEmQRBoLo3gjYYsHupwdjaQ0F2
rpo9eO3+nTGuAbJuj2vh41tpNyak5Px7AQiOvmA5SBht92sZYw4740VajiQxX7/P
WXb8I3Xx8bwCDZPs+s+yQHsUhKPvcul3dSFD3oQaTWnTM61rWNEYDL/+nAiDicoQ
6xBrcRs+3Gyjvd61/cuNMxI5vk2sywIDAQABo2AwXjAMBgNVHRMBAf8EAjAAMA4G
A1UdDwEB/wQEAwIHgDAdBgNVHQ4EFgQUOKUbMUGsvm+ZlgtjtLKhXb730s8wHwYD
VR0jBBgwFoAUkeLd6bl+v4et4ssdfk8LOoXWWC0wDQYJKoZIhvcNAQELBQADggEB
AH0a0vZtUsDAkpSjQAKhZvOmh0huVp8VUQ+2ahNxUNzQU4KorWtsuHuN34WfT7ZJ
OoQr2q0byAqmkBjnZGm1HeLaWZ4dxsJ3aNiojycHYZJ3a+yTOks/rg46piAEfXYB
j3Vd8Tw+C4e3T3NmeMjFQLs7YtogKjTtRRXzQ7xX49n9RHpfAYM1wc5LMY6XU7pp
ajMLDzkJaa6JeyE6pXyQOq6XN6JY63vTlIteN98zWWCFDe0LDmF5g+h9E5WCo1uL
zsTFX3841KkpMccUcpRDUimd+LMMFF7H4zWan+IXjLKIynyPqVdifmiOPR8dR7P1
nf9VCQ/2sD1xjOlzQ7B+FKA=
-----END CERTIFICATE-----
