Certificate:
    Data:
        Version: 3 (0x2)
        Serial Number: 32 (0x20)
    Signature Algorithm: sha256WithRSAEncryption
        Issuer: C=US, ST=California, L=Santa Clara, O=pkg5, CN=ch1.3_ta3/emailAddress=ch1.3_ta3
        Validity
            Not Before: Mar 20 10:20:54 2018 GMT
            Not After : Dec 14 10:20:54 2020 GMT
        Subject: C=US, ST=California, L=Santa Clara, O=pkg5, CN=cs1_ch1.3_ta3/emailAddress=cs1_ch1.3_ta3
        Subject Public Key Info:
            Public Key Algorithm: rsaEncryption
                Public-Key: (1024 bit)
                Modulus:
                    00:d2:7f:16:7a:ad:0f:f0:30:16:f2:55:b5:91:46:
                    17:26:65:96:2b:9c:3b:74:4e:c9:a1:96:a7:71:fc:
                    aa:1f:c1:a4:4c:36:a1:0f:65:4d:d6:f9:35:6c:c6:
                    5b:f3:d5:14:ba:a1:45:cb:92:a0:e3:e0:88:8f:84:
                    bb:60:38:4a:40:30:fd:03:cf:45:c0:16:f2:7c:8a:
                    a8:2b:34:d7:b9:b2:35:18:e9:9f:1a:74:36:da:8e:
                    2e:85:f6:2f:03:10:1e:26:cb:ac:58:d9:a2:60:e3:
                    d6:92:b3:42:17:bc:9f:0b:08:b8:77:b0:67:e5:b2:
                    2a:30:27:16:86:22:5a:27:e3
                Exponent: 65537 (0x10001)
        X509v3 extensions:
            X509v3 Basic Constraints: critical
                CA:FALSE
            X509v3 Key Usage: critical
                Digital Signature
    Signature Algorithm: sha256WithRSAEncryption
         05:61:66:28:b9:31:ec:ca:f2:e7:64:d8:d7:ad:86:0e:e8:5d:
         99:9b:01:f6:d5:1a:8b:cd:7a:08:54:a2:c1:2b:2a:71:8e:aa:
         6e:62:64:f2:7c:2c:00:fe:7a:88:83:11:30:0f:60:f3:8d:73:
         1e:89:3d:e0:68:22:a5:0f:51:e8:b6:77:a3:0c:cf:4a:f9:b7:
         d9:35:cd:76:d3:cb:8f:c5:6a:ce:11:62:4d:a9:cf:d2:20:f2:
         83:a3:d1:0b:79:cd:9f:4c:26:35:e3:96:db:a5:e2:86:5c:66:
         4b:df:58:64:12:2a:b5:c1:81:58:c0:44:d1:bb:dd:95:6d:8e:
         cd:a9:d2:42:dc:62:44:a6:e4:7e:9c:f5:e7:76:58:d8:9a:fb:
         8b:1d:23:13:57:23:c6:ae:fc:67:23:df:f9:f0:aa:1e:16:c3:
         9a:94:7c:3d:6e:dc:ac:7a:8f:ea:77:f7:58:94:05:92:0f:c9:
         9d:4f:6a:f9:39:a4:cd:5b:5f:2e:29:8a:2d:70:a8:ab:a3:65:
         15:d4:a6:ed:7d:4c:6b:47:42:03:af:be:84:26:f7:b1:c8:e6:
         09:36:a8:77:03:35:aa:38:bd:9b:66:a7:eb:06:9a:5d:c8:12:
         0f:1d:65:31:d4:6e:fc:cd:19:18:7a:5a:b6:2e:a7:22:cb:ca:
         2a:df:8d:4c
-----BEGIN CERTIFICATE-----
MIIDCTCCAfGgAwIBAgIBIDANBgkqhkiG9w0BAQsFADB1MQswCQYDVQQGEwJVUzET
MBEGA1UECAwKQ2FsaWZvcm5pYTEUMBIGA1UEBwwLU2FudGEgQ2xhcmExDTALBgNV
BAoMBHBrZzUxEjAQBgNVBAMMCWNoMS4zX3RhMzEYMBYGCSqGSIb3DQEJARYJY2gx
LjNfdGEzMB4XDTE4MDMyMDEwMjA1NFoXDTIwMTIxNDEwMjA1NFowfTELMAkGA1UE
BhMCVVMxEzARBgNVBAgMCkNhbGlmb3JuaWExFDASBgNVBAcMC1NhbnRhIENsYXJh
MQ0wCwYDVQQKDARwa2c1MRYwFAYDVQQDDA1jczFfY2gxLjNfdGEzMRwwGgYJKoZI
hvcNAQkBFg1jczFfY2gxLjNfdGEzMIGfMA0GCSqGSIb3DQEBAQUAA4GNADCBiQKB
gQDSfxZ6rQ/wMBbyVbWRRhcmZZYrnDt0Tsmhlqdx/KofwaRMNqEPZU3W+TVsxlvz
1RS6oUXLkqDj4IiPhLtgOEpAMP0Dz0XAFvJ8iqgrNNe5sjUY6Z8adDbaji6F9i8D
EB4my6xY2aJg49aSs0IXvJ8LCLh3sGflsiowJxaGIlon4wIDAQABoyAwHjAMBgNV
HRMBAf8EAjAAMA4GA1UdDwEB/wQEAwIHgDANBgkqhkiG9w0BAQsFAAOCAQEABWFm
KLkx7Mry52TY162GDuhdmZsB9tUai816CFSiwSsqcY6qbmJk8nwsAP56iIMRMA9g
841zHok94GgipQ9R6LZ3owzPSvm32TXNdtPLj8VqzhFiTanP0iDyg6PRC3nNn0wm
NeOW26XihlxmS99YZBIqtcGBWMBE0bvdlW2OzanSQtxiRKbkfpz153ZY2Jr7ix0j
E1cjxq78ZyPf+fCqHhbDmpR8PW7crHqP6nf3WJQFkg/JnU9q+TmkzVtfLimKLXCo
q6NlFdSm7X1Ma0dCA6++hCb3scjmCTaodwM1qji9m2an6waaXcgSDx1lMdRu/M0Z
GHpati6nIsvKKt+NTA==
-----END CERTIFICATE-----
