Certificate:
    Data:
        Version: 3 (0x2)
        Serial Number: 32 (0x20)
        Signature Algorithm: sha256WithRSAEncryption
        Issuer: C=US, ST=California, L=Santa Clara, O=pkg5, CN=ch1.3_ta3/emailAddress=ch1.3_ta3
        Validity
            Not Before: Nov 17 23:01:31 2020 GMT
            Not After : Aug 14 23:01:31 2023 GMT
        Subject: C=US, ST=California, L=Santa Clara, O=pkg5, CN=cs1_ch1.3_ta3/emailAddress=cs1_ch1.3_ta3
        Subject Public Key Info:
            Public Key Algorithm: rsaEncryption
                RSA Public-Key: (1024 bit)
                Modulus:
                    00:9b:99:4d:dc:90:50:48:4a:88:e1:51:6d:7c:64:
                    ef:4b:4f:be:04:86:1c:2b:59:23:c5:5b:b5:f0:42:
                    6b:e0:a5:4e:9f:16:17:d2:84:b6:e4:19:3b:c6:cd:
                    f0:29:b9:66:e2:76:ed:cd:b0:02:4e:6b:89:e2:c5:
                    e5:3f:f6:37:cd:18:4e:24:32:31:03:bc:e6:9e:64:
                    c6:20:28:cf:e7:12:c0:87:17:e4:0b:fb:f3:49:78:
                    a6:b1:79:86:05:73:be:5e:38:a1:0b:81:51:bd:42:
                    28:49:a7:d1:fc:84:fe:c2:ee:82:6d:af:f7:c4:be:
                    97:e3:d4:ea:5c:7c:9e:50:51
                Exponent: 65537 (0x10001)
        X509v3 extensions:
            X509v3 Basic Constraints: critical
                CA:FALSE
            X509v3 Key Usage: critical
                Digital Signature
    Signature Algorithm: sha256WithRSAEncryption
         5c:3d:da:8f:cf:47:4f:52:e0:77:97:94:8e:17:c9:c3:ef:2e:
         0c:43:8e:a7:f8:21:f0:0d:14:78:61:08:3e:ab:7e:9d:d4:bd:
         25:1f:75:57:ed:57:4d:7c:35:0b:13:96:18:ba:54:33:c5:93:
         b6:d6:d0:b7:60:69:bc:d3:07:71:d8:4e:c3:02:a9:db:11:40:
         ed:ad:78:4a:7b:b9:04:a4:b6:58:68:d9:ea:a9:74:9b:89:bd:
         e4:0f:40:35:e9:81:19:7f:d5:dc:f9:90:f8:f7:a7:93:65:5b:
         c0:d8:da:3a:ac:cd:61:09:ae:3b:95:14:d1:c2:7f:5d:0e:6f:
         7d:8f:da:5c:1c:99:ef:e0:94:17:ce:62:66:5f:39:3d:e3:33:
         38:6b:ae:d2:7a:3f:e9:9a:e4:db:b5:90:90:4a:76:74:1e:8c:
         56:51:91:ab:25:41:e8:e1:6a:f1:cd:63:74:96:0e:f1:95:68:
         9f:ff:cb:89:54:86:47:e4:37:34:e0:3a:e7:91:e9:72:26:f8:
         29:15:60:f5:31:d4:5a:ac:52:11:f2:85:82:36:30:5a:e0:d0:
         ff:b6:a3:87:a9:01:2b:5e:b5:a0:bd:eb:f4:89:e5:d7:7d:11:
         c8:57:ea:1e:69:bf:14:4b:f5:c5:f8:38:fb:c3:ea:f3:db:00:
         a1:88:6d:a0
-----BEGIN CERTIFICATE-----
MIIDCTCCAfGgAwIBAgIBIDANBgkqhkiG9w0BAQsFADB1MQswCQYDVQQGEwJVUzET
MBEGA1UECAwKQ2FsaWZvcm5pYTEUMBIGA1UEBwwLU2FudGEgQ2xhcmExDTALBgNV
BAoMBHBrZzUxEjAQBgNVBAMMCWNoMS4zX3RhMzEYMBYGCSqGSIb3DQEJARYJY2gx
LjNfdGEzMB4XDTIwMTExNzIzMDEzMVoXDTIzMDgxNDIzMDEzMVowfTELMAkGA1UE
BhMCVVMxEzARBgNVBAgMCkNhbGlmb3JuaWExFDASBgNVBAcMC1NhbnRhIENsYXJh
MQ0wCwYDVQQKDARwa2c1MRYwFAYDVQQDDA1jczFfY2gxLjNfdGEzMRwwGgYJKoZI
hvcNAQkBFg1jczFfY2gxLjNfdGEzMIGfMA0GCSqGSIb3DQEBAQUAA4GNADCBiQKB
gQCbmU3ckFBISojhUW18ZO9LT74EhhwrWSPFW7XwQmvgpU6fFhfShLbkGTvGzfAp
uWbidu3NsAJOa4nixeU/9jfNGE4kMjEDvOaeZMYgKM/nEsCHF+QL+/NJeKaxeYYF
c75eOKELgVG9QihJp9H8hP7C7oJtr/fEvpfj1OpcfJ5QUQIDAQABoyAwHjAMBgNV
HRMBAf8EAjAAMA4GA1UdDwEB/wQEAwIHgDANBgkqhkiG9w0BAQsFAAOCAQEAXD3a
j89HT1Lgd5eUjhfJw+8uDEOOp/gh8A0UeGEIPqt+ndS9JR91V+1XTXw1CxOWGLpU
M8WTttbQt2BpvNMHcdhOwwKp2xFA7a14Snu5BKS2WGjZ6ql0m4m95A9ANemBGX/V
3PmQ+Penk2VbwNjaOqzNYQmuO5UU0cJ/XQ5vfY/aXByZ7+CUF85iZl85PeMzOGuu
0no/6Zrk27WQkEp2dB6MVlGRqyVB6OFq8c1jdJYO8ZVon//LiVSGR+Q3NOA655Hp
cib4KRVg9THUWqxSEfKFgjYwWuDQ/7ajh6kBK161oL3r9Inl130RyFfqHmm/FEv1
xfg4+8Pq89sAoYhtoA==
-----END CERTIFICATE-----
