Certificate:
    Data:
        Version: 3 (0x2)
        Serial Number: 32 (0x20)
        Signature Algorithm: sha256WithRSAEncryption
        Issuer: C=US, ST=California, L=Santa Clara, O=pkg5, CN=ch1.3_ta3/emailAddress=ch1.3_ta3
        Validity
            Not Before: Nov 14 14:26:56 2024 GMT
            Not After : Aug 11 14:26:56 2027 GMT
        Subject: C=US, ST=California, L=Santa Clara, O=pkg5, CN=cs1_ch1.3_ta3/emailAddress=cs1_ch1.3_ta3
        Subject Public Key Info:
            Public Key Algorithm: rsaEncryption
                Public-Key: (2048 bit)
                Modulus:
                    00:d8:49:65:9c:3b:6e:fb:e7:fb:2d:14:73:c2:e1:
                    5c:97:ef:0b:1e:71:5d:4e:6d:c6:dd:9c:0a:3b:d6:
                    15:e5:d5:9f:96:02:9f:d1:c3:8d:27:ef:7c:00:35:
                    b1:af:75:00:16:31:bd:f7:c3:0c:3d:0c:0d:80:b3:
                    a9:d9:c0:70:9e:7d:db:b8:07:31:da:d3:20:12:f3:
                    84:e2:d5:b9:0f:c1:28:b1:f2:79:c9:b4:0d:fe:02:
                    99:95:10:95:b8:91:9c:3e:2a:d8:ef:f4:b3:9e:d0:
                    c8:09:62:16:82:a4:a7:8f:13:22:35:b8:12:53:4b:
                    89:7f:d9:50:be:d8:c9:d5:76:67:1a:f0:36:71:20:
                    9f:65:94:0f:f3:14:50:e3:ec:16:1d:a8:3a:7c:6d:
                    91:89:35:18:73:7d:f1:85:4a:85:b6:a6:c7:ae:bc:
                    3f:cb:fb:26:ea:eb:28:8c:2b:85:f0:53:8b:1b:bb:
                    ec:0c:26:96:55:01:2e:f7:03:89:7c:37:50:e0:fe:
                    02:03:02:99:67:9b:fa:94:ae:8d:12:92:3a:3e:a1:
                    a5:fa:b2:80:0c:33:2e:86:c2:be:28:dd:8d:62:1a:
                    88:c5:a9:b4:37:1b:15:23:74:1b:de:1f:f5:b7:07:
                    cb:0a:0e:4c:5c:b4:d5:9f:2f:9e:ef:6d:84:6d:41:
                    d5:c7
                Exponent: 65537 (0x10001)
        X509v3 extensions:
            X509v3 Basic Constraints: critical
                CA:FALSE
            X509v3 Key Usage: critical
                Digital Signature
            X509v3 Subject Key Identifier: 
                64:C3:6A:E3:A2:18:8E:58:01:A8:C3:7B:C3:28:78:01:E7:66:67:22
            X509v3 Authority Key Identifier: 
                CA:DB:25:10:54:61:97:E1:AD:50:E3:47:61:EA:F1:FC:C3:81:79:D7
    Signature Algorithm: sha256WithRSAEncryption
    Signature Value:
        23:a5:4c:58:ab:13:d7:2a:77:a9:3b:af:c6:f0:77:10:ce:7d:
        f0:19:99:4d:09:4f:18:b2:75:ed:cb:05:77:a6:01:2d:81:30:
        2e:6e:78:53:6e:ca:bd:8b:80:fb:be:a0:cc:32:d4:62:b4:72:
        29:52:58:bf:ef:88:c8:87:ad:12:51:f7:f4:21:9b:30:06:04:
        07:1d:b7:a5:49:49:99:bd:83:05:08:95:50:3f:cd:8a:31:e2:
        b6:5c:72:5b:7f:06:f1:47:74:f2:90:fa:bf:d7:37:cf:87:f7:
        46:a6:43:72:b7:a5:3e:a8:11:d1:be:b2:36:15:01:3d:04:23:
        e7:8a:6c:02:8f:3c:f8:27:bd:43:6a:a6:21:05:8b:7a:6f:4a:
        0c:03:24:c1:71:d2:9d:e5:99:7e:bf:56:7d:8e:ea:97:40:88:
        b6:3d:3b:83:8e:7e:f6:eb:94:41:2f:5a:b0:f8:66:bf:80:c2:
        bb:ef:9c:a7:80:1c:fa:be:e8:43:06:db:47:42:7b:e2:b4:07:
        51:98:ef:44:18:d4:ef:b2:94:d9:f1:41:5e:09:cf:24:17:05:
        1f:d0:ec:2a:b8:f4:8a:01:29:57:e2:79:6a:9d:13:54:9e:a7:
        ab:e4:96:55:99:b1:9b:7f:60:a0:42:7c:0a:a6:76:30:07:f9:
        45:6c:f4:bd
-----BEGIN CERTIFICATE-----
MIIDzTCCArWgAwIBAgIBIDANBgkqhkiG9w0BAQsFADB1MQswCQYDVQQGEwJVUzET
MBEGA1UECAwKQ2FsaWZvcm5pYTEUMBIGA1UEBwwLU2FudGEgQ2xhcmExDTALBgNV
BAoMBHBrZzUxEjAQBgNVBAMMCWNoMS4zX3RhMzEYMBYGCSqGSIb3DQEJARYJY2gx
LjNfdGEzMB4XDTI0MTExNDE0MjY1NloXDTI3MDgxMTE0MjY1NlowfTELMAkGA1UE
BhMCVVMxEzARBgNVBAgMCkNhbGlmb3JuaWExFDASBgNVBAcMC1NhbnRhIENsYXJh
MQ0wCwYDVQQKDARwa2c1MRYwFAYDVQQDDA1jczFfY2gxLjNfdGEzMRwwGgYJKoZI
hvcNAQkBFg1jczFfY2gxLjNfdGEzMIIBIjANBgkqhkiG9w0BAQEFAAOCAQ8AMIIB
CgKCAQEA2EllnDtu++f7LRRzwuFcl+8LHnFdTm3G3ZwKO9YV5dWflgKf0cONJ+98
ADWxr3UAFjG998MMPQwNgLOp2cBwnn3buAcx2tMgEvOE4tW5D8EosfJ5ybQN/gKZ
lRCVuJGcPirY7/SzntDICWIWgqSnjxMiNbgSU0uJf9lQvtjJ1XZnGvA2cSCfZZQP
8xRQ4+wWHag6fG2RiTUYc33xhUqFtqbHrrw/y/sm6usojCuF8FOLG7vsDCaWVQEu
9wOJfDdQ4P4CAwKZZ5v6lK6NEpI6PqGl+rKADDMuhsK+KN2NYhqIxam0NxsVI3Qb
3h/1twfLCg5MXLTVny+e722EbUHVxwIDAQABo2AwXjAMBgNVHRMBAf8EAjAAMA4G
A1UdDwEB/wQEAwIHgDAdBgNVHQ4EFgQUZMNq46IYjlgBqMN7wyh4AedmZyIwHwYD
VR0jBBgwFoAUytslEFRhl+GtUONHYerx/MOBedcwDQYJKoZIhvcNAQELBQADggEB
ACOlTFirE9cqd6k7r8bwdxDOffAZmU0JTxiyde3LBXemAS2BMC5ueFNuyr2LgPu+
oMwy1GK0cilSWL/viMiHrRJR9/QhmzAGBAcdt6VJSZm9gwUIlVA/zYox4rZcclt/
BvFHdPKQ+r/XN8+H90amQ3K3pT6oEdG+sjYVAT0EI+eKbAKPPPgnvUNqpiEFi3pv
SgwDJMFx0p3lmX6/Vn2O6pdAiLY9O4OOfvbrlEEvWrD4Zr+AwrvvnKeAHPq+6EMG
20dCe+K0B1GY70QY1O+ylNnxQV4JzyQXBR/Q7Cq49IoBKVfieWqdE1Sep6vkllWZ
sZt/YKBCfAqmdjAH+UVs9L0=
-----END CERTIFICATE-----
