Certificate:
    Data:
        Version: 3 (0x2)
        Serial Number: 32 (0x20)
    Signature Algorithm: sha256WithRSAEncryption
        Issuer: C=US, ST=California, L=Santa Clara, O=pkg5, CN=ch1.3_ta3/emailAddress=ch1.3_ta3
        Validity
            Not Before: Nov 16 10:58:50 2017 GMT
            Not After : Aug 12 10:58:50 2020 GMT
        Subject: C=US, ST=California, L=Santa Clara, O=pkg5, CN=cs1_ch1.3_ta3/emailAddress=cs1_ch1.3_ta3
        Subject Public Key Info:
            Public Key Algorithm: rsaEncryption
                Public-Key: (1024 bit)
                Modulus:
                    00:ad:7d:65:87:88:46:35:2b:69:dd:f4:2b:10:96:
                    67:2d:90:08:7c:47:2d:4e:c3:3a:a8:33:d2:2d:9b:
                    89:51:6c:4e:2a:24:41:3e:e6:98:9c:7b:3b:53:a5:
                    02:a1:d8:43:be:54:2f:86:37:2c:30:4e:a1:44:49:
                    f5:8d:12:6f:31:be:cd:8a:e4:d5:a2:9e:36:34:e9:
                    63:4b:f3:79:3d:f5:a7:84:97:3f:4c:ef:89:38:57:
                    49:b5:d4:37:cc:ea:47:56:b3:7f:90:77:fb:e5:f6:
                    d8:cb:5b:14:82:f9:7d:a1:48:80:d5:f6:50:18:e4:
                    64:0e:fc:a3:86:29:8b:97:ad
                Exponent: 65537 (0x10001)
        X509v3 extensions:
            X509v3 Basic Constraints: critical
                CA:FALSE
            X509v3 Key Usage: critical
                Digital Signature
    Signature Algorithm: sha256WithRSAEncryption
         8d:80:33:3b:07:4d:60:c1:41:84:38:a2:d3:91:ae:f8:63:cd:
         81:0f:60:50:ff:0a:de:8d:aa:c0:e7:e0:8c:a0:2a:06:16:13:
         5c:97:f3:ef:33:a5:0e:17:cf:ac:4c:b9:16:2c:49:c1:7c:e2:
         66:75:63:a1:c0:7b:a9:f2:b0:65:45:e6:2c:05:28:92:5d:5b:
         36:aa:63:9e:54:45:14:54:14:8d:6a:e4:07:f4:fd:27:75:82:
         b3:10:c3:65:98:b3:d3:e3:b5:a9:9a:c6:c0:55:6a:c5:65:83:
         45:32:45:be:e0:d1:49:6e:0b:9a:9c:07:8e:a8:fd:37:bd:cf:
         41:9c:db:0f:01:23:db:6e:8c:2e:4b:ac:de:2a:6e:82:b6:0c:
         c3:27:ad:6b:e8:06:ba:7f:d3:2e:73:3d:4c:e8:17:89:06:2b:
         5e:0f:a0:ad:af:54:56:33:ed:d7:2d:09:41:50:d2:73:67:3a:
         c6:7f:6b:cd:89:92:db:c4:5c:c5:ea:ff:4e:4f:25:b8:14:64:
         25:81:e4:12:ff:64:12:b6:d5:28:13:21:ce:61:a1:17:11:27:
         2d:71:d4:e1:3c:ec:af:47:a7:19:3b:66:b3:db:09:2b:f3:d9:
         9d:6c:7c:e9:25:7d:fe:a9:ca:98:56:2e:e1:50:d9:20:6c:e0:
         d7:47:74:77
-----BEGIN CERTIFICATE-----
MIIDCTCCAfGgAwIBAgIBIDANBgkqhkiG9w0BAQsFADB1MQswCQYDVQQGEwJVUzET
MBEGA1UECAwKQ2FsaWZvcm5pYTEUMBIGA1UEBwwLU2FudGEgQ2xhcmExDTALBgNV
BAoMBHBrZzUxEjAQBgNVBAMMCWNoMS4zX3RhMzEYMBYGCSqGSIb3DQEJARYJY2gx
LjNfdGEzMB4XDTE3MTExNjEwNTg1MFoXDTIwMDgxMjEwNTg1MFowfTELMAkGA1UE
BhMCVVMxEzARBgNVBAgMCkNhbGlmb3JuaWExFDASBgNVBAcMC1NhbnRhIENsYXJh
MQ0wCwYDVQQKDARwa2c1MRYwFAYDVQQDDA1jczFfY2gxLjNfdGEzMRwwGgYJKoZI
hvcNAQkBFg1jczFfY2gxLjNfdGEzMIGfMA0GCSqGSIb3DQEBAQUAA4GNADCBiQKB
gQCtfWWHiEY1K2nd9CsQlmctkAh8Ry1OwzqoM9Itm4lRbE4qJEE+5piceztTpQKh
2EO+VC+GNywwTqFESfWNEm8xvs2K5NWinjY06WNL83k99aeElz9M74k4V0m11DfM
6kdWs3+Qd/vl9tjLWxSC+X2hSIDV9lAY5GQO/KOGKYuXrQIDAQABoyAwHjAMBgNV
HRMBAf8EAjAAMA4GA1UdDwEB/wQEAwIHgDANBgkqhkiG9w0BAQsFAAOCAQEAjYAz
OwdNYMFBhDii05Gu+GPNgQ9gUP8K3o2qwOfgjKAqBhYTXJfz7zOlDhfPrEy5FixJ
wXziZnVjocB7qfKwZUXmLAUokl1bNqpjnlRFFFQUjWrkB/T9J3WCsxDDZZiz0+O1
qZrGwFVqxWWDRTJFvuDRSW4LmpwHjqj9N73PQZzbDwEj226MLkus3ipugrYMwyet
a+gGun/TLnM9TOgXiQYrXg+gra9UVjPt1y0JQVDSc2c6xn9rzYmS28Rcxer/Tk8l
uBRkJYHkEv9kErbVKBMhzmGhFxEnLXHU4Tzsr0enGTtms9sJK/PZnWx86SV9/qnK
mFYu4VDZIGzg10d0dw==
-----END CERTIFICATE-----
