Certificate:
    Data:
        Version: 3 (0x2)
        Serial Number: 33 (0x21)
    Signature Algorithm: sha256WithRSAEncryption
        Issuer: C=US, ST=California, L=Santa Clara, O=pkg5, CN=ch1.4_ta3/emailAddress=ch1.4_ta3
        Validity
            Not Before: Dec  6 03:06:43 2014 GMT
            Not After : Sep  1 03:06:43 2017 GMT
        Subject: C=US, ST=California, L=Santa Clara, O=pkg5, CN=cs1_ch1.4_ta3/emailAddress=cs1_ch1.4_ta3
        Subject Public Key Info:
            Public Key Algorithm: rsaEncryption
                Public-Key: (1024 bit)
                Modulus:
                    00:af:72:af:d1:66:3d:7b:1c:d6:36:94:a8:1c:7a:
                    65:d8:af:f1:2a:17:fe:50:f4:f4:0a:d4:6f:4a:38:
                    e0:0b:89:fe:7d:65:e0:4a:90:ae:ef:1f:ea:24:d8:
                    fb:23:22:11:ef:25:8f:86:81:57:ff:4b:f9:34:5f:
                    9b:96:0b:ed:2d:de:68:c1:74:ac:f4:5c:8c:ea:b1:
                    6a:ea:5f:18:05:c3:8e:c0:ab:20:81:91:43:5c:88:
                    ed:d8:9d:95:04:c3:ec:60:ae:6f:ba:17:cd:8e:7b:
                    80:11:a4:41:e1:ae:a4:e7:71:3f:80:92:f4:c2:ff:
                    8b:80:f2:37:b5:f3:81:83:31
                Exponent: 65537 (0x10001)
        X509v3 extensions:
            X509v3 Basic Constraints: critical
                CA:FALSE
            X509v3 Key Usage: critical
                Digital Signature
    Signature Algorithm: sha256WithRSAEncryption
         36:fc:a9:33:1c:c5:e7:93:72:54:c9:e4:9b:12:c8:bd:21:c7:
         0f:d8:76:46:d6:bb:b6:69:d0:fb:c2:44:d3:20:52:cb:3f:ca:
         a5:57:2e:0d:cb:7f:6f:e2:73:66:d0:75:79:dd:93:b3:36:5f:
         0b:2f:a5:38:77:aa:6c:d3:53:bd:2d:47:72:7b:b9:53:6f:32:
         7c:54:60:9e:6f:28:67:fa:f1:cb:74:f4:9b:9f:4d:bd:21:4d:
         da:c9:83:5b:81:95:70:ae:0e:19:9c:e6:ff:01:ac:9d:01:a4:
         58:ca:de:8f:7e:07:f7:2f:4f:99:10:c6:16:33:2f:08:89:53:
         02:fa
-----BEGIN CERTIFICATE-----
MIICiDCCAfGgAwIBAgIBITANBgkqhkiG9w0BAQsFADB1MQswCQYDVQQGEwJVUzET
MBEGA1UECAwKQ2FsaWZvcm5pYTEUMBIGA1UEBwwLU2FudGEgQ2xhcmExDTALBgNV
BAoMBHBrZzUxEjAQBgNVBAMMCWNoMS40X3RhMzEYMBYGCSqGSIb3DQEJARYJY2gx
LjRfdGEzMB4XDTE0MTIwNjAzMDY0M1oXDTE3MDkwMTAzMDY0M1owfTELMAkGA1UE
BhMCVVMxEzARBgNVBAgMCkNhbGlmb3JuaWExFDASBgNVBAcMC1NhbnRhIENsYXJh
MQ0wCwYDVQQKDARwa2c1MRYwFAYDVQQDDA1jczFfY2gxLjRfdGEzMRwwGgYJKoZI
hvcNAQkBFg1jczFfY2gxLjRfdGEzMIGfMA0GCSqGSIb3DQEBAQUAA4GNADCBiQKB
gQCvcq/RZj17HNY2lKgcemXYr/EqF/5Q9PQK1G9KOOALif59ZeBKkK7vH+ok2Psj
IhHvJY+GgVf/S/k0X5uWC+0t3mjBdKz0XIzqsWrqXxgFw47AqyCBkUNciO3YnZUE
w+xgrm+6F82Oe4ARpEHhrqTncT+AkvTC/4uA8je184GDMQIDAQABoyAwHjAMBgNV
HRMBAf8EAjAAMA4GA1UdDwEB/wQEAwIHgDANBgkqhkiG9w0BAQsFAAOBgQA2/Kkz
HMXnk3JUyeSbEsi9IccP2HZG1ru2adD7wkTTIFLLP8qlVy4Ny39v4nNm0HV53ZOz
Nl8LL6U4d6ps01O9LUdye7lTbzJ8VGCebyhn+vHLdPSbn029IU3ayYNbgZVwrg4Z
nOb/AaydAaRYyt6Pfgf3L0+ZEMYWMy8IiVMC+g==
-----END CERTIFICATE-----
