Certificate:
    Data:
        Version: 3 (0x2)
        Serial Number: 34 (0x22)
        Signature Algorithm: sha256WithRSAEncryption
        Issuer: C=US, ST=California, L=Santa Clara, O=pkg5, CN=ch1.4_ta3/emailAddress=ch1.4_ta3
        Validity
            Not Before: May 23 15:47:20 2024 GMT
            Not After : Feb 17 15:47:20 2027 GMT
        Subject: C=US, ST=California, L=Santa Clara, O=pkg5, CN=cs1_ch1.4_ta3/emailAddress=cs1_ch1.4_ta3
        Subject Public Key Info:
            Public Key Algorithm: rsaEncryption
                Public-Key: (2048 bit)
                Modulus:
                    00:d5:b4:ad:23:c1:ae:d4:10:94:4f:70:b3:2c:ac:
                    90:3d:49:b3:df:dd:33:84:cc:c0:af:f8:41:37:a5:
                    8d:2f:de:32:36:df:32:ca:7e:b2:a9:de:39:1c:bb:
                    9e:7c:6d:2f:1d:26:ae:12:00:b0:eb:a6:e2:a0:82:
                    94:23:b8:0c:6b:20:70:29:c9:6b:75:70:ca:b0:db:
                    1d:dc:02:aa:0f:bc:65:b3:f5:86:80:ff:76:af:16:
                    42:dd:51:a7:31:1a:c8:0f:f2:ed:83:ed:33:2a:18:
                    57:87:06:65:b9:b0:63:5d:7b:23:55:e1:6f:8a:1c:
                    c0:bd:fb:78:8f:c5:1c:8c:2e:77:d0:70:18:66:ad:
                    2b:0e:a7:1d:49:be:2b:97:d7:3e:93:8c:d3:10:ac:
                    9e:b7:8a:fc:72:49:90:d0:31:b5:8c:81:fa:9b:f7:
                    f5:9d:74:e3:ff:07:e2:f9:37:1e:68:2b:1a:da:88:
                    63:52:34:89:76:53:2d:6c:17:27:06:d5:08:13:1b:
                    33:38:ae:f2:86:0e:ca:6d:06:29:d4:cd:ee:dc:95:
                    44:83:dc:23:59:e8:41:c8:1d:9b:f8:55:43:d2:89:
                    5d:7a:b0:da:da:90:96:74:73:7c:7c:76:bd:d3:bf:
                    ef:60:86:a3:5f:50:bb:fb:57:f9:ce:9a:61:ed:b5:
                    fb:db
                Exponent: 65537 (0x10001)
        X509v3 extensions:
            X509v3 Basic Constraints: critical
                CA:FALSE
            X509v3 Key Usage: critical
                Digital Signature
            X509v3 Subject Key Identifier: 
                1F:54:75:B4:41:1C:B2:92:AF:7C:85:04:CC:A9:34:E7:F5:28:44:C3
            X509v3 Authority Key Identifier: 
                A9:A1:69:19:64:C7:AD:3F:EB:50:06:41:9E:15:1F:29:06:15:EC:6B
    Signature Algorithm: sha256WithRSAEncryption
    Signature Value:
        53:c0:93:0f:f9:2a:58:6d:6b:f1:6f:96:b1:99:09:65:14:55:
        7e:cc:0d:cc:93:da:11:67:58:b5:8e:7b:71:cb:1a:52:27:b4:
        f2:ef:f5:69:43:bc:75:ce:3c:94:4e:92:fb:a3:27:af:8f:7b:
        01:9e:28:f9:e3:d5:09:3b:b4:e7:e0:50:ef:70:b6:d2:93:21:
        0f:5e:f0:4c:0f:f9:32:b9:72:26:73:7e:6f:57:88:6d:c6:d4:
        b6:06:b0:ab:41:6f:d6:6e:5a:9e:77:ed:cf:a1:cd:c8:bb:76:
        c7:a0:14:e4:ca:a6:b3:fe:25:64:5a:bb:1e:a7:15:d0:e7:3e:
        92:c8:7a:3d:58:4f:a8:2e:41:f2:3e:40:7c:a2:f1:23:da:ff:
        08:54:1e:ca:23:eb:09:b4:5c:3b:fb:a0:94:e8:46:5b:7a:11:
        41:9c:cd:b1:24:b4:7e:fc:36:92:39:79:68:78:83:74:f7:83:
        55:42:d2:ed:a3:95:53:aa:92:9d:51:a5:d5:64:97:28:2e:09:
        44:1a:b2:ea:b1:af:df:e9:66:75:f6:10:db:03:85:da:15:4f:
        6c:20:fc:25:3c:58:c0:58:fb:ef:d2:4e:90:90:c3:79:32:50:
        65:15:3f:96:8c:93:b9:5d:75:16:16:fb:c0:45:d0:07:21:15:
        33:da:ab:29
-----BEGIN CERTIFICATE-----
MIIDzTCCArWgAwIBAgIBIjANBgkqhkiG9w0BAQsFADB1MQswCQYDVQQGEwJVUzET
MBEGA1UECAwKQ2FsaWZvcm5pYTEUMBIGA1UEBwwLU2FudGEgQ2xhcmExDTALBgNV
BAoMBHBrZzUxEjAQBgNVBAMMCWNoMS40X3RhMzEYMBYGCSqGSIb3DQEJARYJY2gx
LjRfdGEzMB4XDTI0MDUyMzE1NDcyMFoXDTI3MDIxNzE1NDcyMFowfTELMAkGA1UE
BhMCVVMxEzARBgNVBAgMCkNhbGlmb3JuaWExFDASBgNVBAcMC1NhbnRhIENsYXJh
MQ0wCwYDVQQKDARwa2c1MRYwFAYDVQQDDA1jczFfY2gxLjRfdGEzMRwwGgYJKoZI
hvcNAQkBFg1jczFfY2gxLjRfdGEzMIIBIjANBgkqhkiG9w0BAQEFAAOCAQ8AMIIB
CgKCAQEA1bStI8Gu1BCUT3CzLKyQPUmz390zhMzAr/hBN6WNL94yNt8yyn6yqd45
HLuefG0vHSauEgCw66bioIKUI7gMayBwKclrdXDKsNsd3AKqD7xls/WGgP92rxZC
3VGnMRrID/Ltg+0zKhhXhwZlubBjXXsjVeFvihzAvft4j8UcjC530HAYZq0rDqcd
Sb4rl9c+k4zTEKyet4r8ckmQ0DG1jIH6m/f1nXTj/wfi+TceaCsa2ohjUjSJdlMt
bBcnBtUIExszOK7yhg7KbQYp1M3u3JVEg9wjWehByB2b+FVD0olderDa2pCWdHN8
fHa907/vYIajX1C7+1f5zpph7bX72wIDAQABo2AwXjAMBgNVHRMBAf8EAjAAMA4G
A1UdDwEB/wQEAwIHgDAdBgNVHQ4EFgQUH1R1tEEcspKvfIUEzKk05/UoRMMwHwYD
VR0jBBgwFoAUqaFpGWTHrT/rUAZBnhUfKQYV7GswDQYJKoZIhvcNAQELBQADggEB
AFPAkw/5Klhta/FvlrGZCWUUVX7MDcyT2hFnWLWOe3HLGlIntPLv9WlDvHXOPJRO
kvujJ6+PewGeKPnj1Qk7tOfgUO9wttKTIQ9e8EwP+TK5ciZzfm9XiG3G1LYGsKtB
b9ZuWp537c+hzci7dsegFOTKprP+JWRaux6nFdDnPpLIej1YT6guQfI+QHyi8SPa
/whUHsoj6wm0XDv7oJToRlt6EUGczbEktH78NpI5eWh4g3T3g1VC0u2jlVOqkp1R
pdVklyguCUQasuqxr9/pZnX2ENsDhdoVT2wg/CU8WMBY++/STpCQw3kyUGUVP5aM
k7lddRYW+8BF0AchFTPaqyk=
-----END CERTIFICATE-----
