Certificate:
    Data:
        Version: 3 (0x2)
        Serial Number: 34 (0x22)
    Signature Algorithm: sha256WithRSAEncryption
        Issuer: C=US, ST=California, L=Santa Clara, O=pkg5, CN=ch1.4_ta3/emailAddress=ch1.4_ta3
        Validity
            Not Before: Nov 16 10:58:50 2017 GMT
            Not After : Aug 12 10:58:50 2020 GMT
        Subject: C=US, ST=California, L=Santa Clara, O=pkg5, CN=cs1_ch1.4_ta3/emailAddress=cs1_ch1.4_ta3
        Subject Public Key Info:
            Public Key Algorithm: rsaEncryption
                Public-Key: (1024 bit)
                Modulus:
                    00:ee:9c:02:d9:ba:a9:7e:3c:ce:e7:89:5d:ba:27:
                    bd:52:aa:ee:f2:33:e9:24:76:fb:06:83:1e:25:22:
                    2a:3f:49:ae:a8:c4:e8:26:94:f6:14:81:ee:2b:4b:
                    3c:6e:0e:21:08:bf:54:b8:ce:a9:40:af:3a:0f:6c:
                    4b:b4:f2:a0:2f:e8:97:e2:32:5a:72:05:e5:71:58:
                    5d:68:22:ac:4b:d6:60:3e:39:2b:b2:46:e7:25:43:
                    ee:9b:b0:7f:d9:52:2a:e0:1a:0b:eb:07:86:9d:56:
                    f8:1b:d3:35:36:ca:b0:aa:b3:ca:01:da:1e:3d:c0:
                    95:3d:38:25:60:16:f6:e3:ff
                Exponent: 65537 (0x10001)
        X509v3 extensions:
            X509v3 Basic Constraints: critical
                CA:FALSE
            X509v3 Key Usage: critical
                Digital Signature
    Signature Algorithm: sha256WithRSAEncryption
         81:f3:d2:9f:23:48:8a:a1:c3:51:a6:1f:cb:e4:84:d8:67:43:
         2e:f3:1c:6c:6e:12:44:51:38:29:da:d4:e5:1b:a7:3d:1c:34:
         75:ed:ae:b1:03:34:88:b6:5d:66:31:e1:06:73:6b:fd:c7:e7:
         02:cf:68:83:88:51:5d:59:01:bd:34:f8:f0:59:1a:20:f7:5d:
         69:78:1d:53:ae:d8:f6:5a:4b:7d:36:dd:2e:87:8c:c8:72:2c:
         2d:a6:82:50:19:63:8e:0b:bb:fd:3f:04:50:63:a5:e6:f5:f6:
         78:74:65:91:f7:34:37:cc:d6:eb:a6:f3:6b:10:4d:e5:98:0c:
         25:e4:9b:f6:e9:50:3d:4f:36:60:c1:ad:f4:6b:57:3f:84:94:
         05:2f:19:51:1d:ef:67:72:36:43:44:a2:6b:57:7a:8e:48:af:
         e5:fd:ea:fe:e4:17:bf:35:59:1e:52:f6:72:63:79:5f:d6:5d:
         50:01:2a:83:58:85:4c:c2:5e:ff:26:99:74:8c:b5:b6:85:fc:
         1e:fc:fe:0d:1a:fe:7f:44:ba:af:33:b6:92:90:4b:3b:ee:0e:
         f3:d3:e5:fb:e4:8e:4b:81:0f:ef:c7:7a:27:e0:a6:8b:f8:5f:
         61:7b:b9:03:f4:fe:ec:0a:3b:50:2a:04:e7:c8:83:0b:8b:90:
         3d:5f:42:e0
-----BEGIN CERTIFICATE-----
MIIDCTCCAfGgAwIBAgIBIjANBgkqhkiG9w0BAQsFADB1MQswCQYDVQQGEwJVUzET
MBEGA1UECAwKQ2FsaWZvcm5pYTEUMBIGA1UEBwwLU2FudGEgQ2xhcmExDTALBgNV
BAoMBHBrZzUxEjAQBgNVBAMMCWNoMS40X3RhMzEYMBYGCSqGSIb3DQEJARYJY2gx
LjRfdGEzMB4XDTE3MTExNjEwNTg1MFoXDTIwMDgxMjEwNTg1MFowfTELMAkGA1UE
BhMCVVMxEzARBgNVBAgMCkNhbGlmb3JuaWExFDASBgNVBAcMC1NhbnRhIENsYXJh
MQ0wCwYDVQQKDARwa2c1MRYwFAYDVQQDDA1jczFfY2gxLjRfdGEzMRwwGgYJKoZI
hvcNAQkBFg1jczFfY2gxLjRfdGEzMIGfMA0GCSqGSIb3DQEBAQUAA4GNADCBiQKB
gQDunALZuql+PM7niV26J71Squ7yM+kkdvsGgx4lIio/Sa6oxOgmlPYUge4rSzxu
DiEIv1S4zqlArzoPbEu08qAv6JfiMlpyBeVxWF1oIqxL1mA+OSuyRuclQ+6bsH/Z
UirgGgvrB4adVvgb0zU2yrCqs8oB2h49wJU9OCVgFvbj/wIDAQABoyAwHjAMBgNV
HRMBAf8EAjAAMA4GA1UdDwEB/wQEAwIHgDANBgkqhkiG9w0BAQsFAAOCAQEAgfPS
nyNIiqHDUaYfy+SE2GdDLvMcbG4SRFE4KdrU5RunPRw0de2usQM0iLZdZjHhBnNr
/cfnAs9og4hRXVkBvTT48FkaIPddaXgdU67Y9lpLfTbdLoeMyHIsLaaCUBljjgu7
/T8EUGOl5vX2eHRlkfc0N8zW66bzaxBN5ZgMJeSb9ulQPU82YMGt9GtXP4SUBS8Z
UR3vZ3I2Q0Sia1d6jkiv5f3q/uQXvzVZHlL2cmN5X9ZdUAEqg1iFTMJe/yaZdIy1
toX8Hvz+DRr+f0S6rzO2kpBLO+4O89Pl++SOS4EP78d6J+Cmi/hfYXu5A/T+7Ao7
UCoE58iDC4uQPV9C4A==
-----END CERTIFICATE-----
