Certificate:
    Data:
        Version: 3 (0x2)
        Serial Number: 34 (0x22)
    Signature Algorithm: sha256WithRSAEncryption
        Issuer: C=US, ST=California, L=Santa Clara, O=pkg5, CN=ch1.4_ta3/emailAddress=ch1.4_ta3
        Validity
            Not Before: Mar 20 10:20:54 2018 GMT
            Not After : Dec 14 10:20:54 2020 GMT
        Subject: C=US, ST=California, L=Santa Clara, O=pkg5, CN=cs1_ch1.4_ta3/emailAddress=cs1_ch1.4_ta3
        Subject Public Key Info:
            Public Key Algorithm: rsaEncryption
                Public-Key: (1024 bit)
                Modulus:
                    00:a3:0f:80:4e:79:ee:67:0b:f4:7d:ce:fe:5e:93:
                    1c:d3:83:c7:50:dd:3f:f9:a1:89:8a:88:27:65:b0:
                    c2:bc:3d:09:90:c9:82:42:0e:26:49:89:af:16:4b:
                    b9:31:52:d8:70:ee:8e:49:c9:c5:0e:9d:f1:fa:1c:
                    62:4d:11:d4:a1:c7:8b:68:8d:28:a6:55:e7:85:fb:
                    8c:04:2f:5c:e1:bb:0f:24:6f:c5:9e:04:52:3d:12:
                    3b:a7:2d:af:c2:3a:fb:5b:8b:51:97:77:ba:8d:90:
                    d9:57:38:59:53:c6:0e:69:12:3f:3b:91:2a:ab:79:
                    ac:89:92:cf:c0:78:ca:76:df
                Exponent: 65537 (0x10001)
        X509v3 extensions:
            X509v3 Basic Constraints: critical
                CA:FALSE
            X509v3 Key Usage: critical
                Digital Signature
    Signature Algorithm: sha256WithRSAEncryption
         29:3f:27:6b:4f:a0:7d:84:9b:19:f1:9a:d8:57:1b:e1:b8:aa:
         ce:e1:15:84:28:c1:8f:cb:7c:e1:b3:63:b7:07:0b:1d:ca:b2:
         79:42:75:9a:cc:83:72:3e:b7:ad:de:2d:c3:23:33:ec:8a:2f:
         16:3b:26:6e:42:fd:4c:5a:aa:ef:64:f1:d9:be:a4:c1:f4:4b:
         fd:df:4f:a2:b0:5e:97:48:7d:18:ca:18:6a:70:f5:85:f4:ff:
         54:db:d9:63:b2:ae:eb:65:3a:8b:d9:f7:c4:89:35:b9:54:35:
         a8:7d:ad:9e:de:ec:b0:9e:61:52:be:d6:fa:91:d6:74:02:43:
         b8:63:d0:22:a9:4e:85:bc:e4:24:f2:04:23:99:17:49:03:b9:
         13:a4:b2:f7:80:dd:a1:3c:1a:c4:6b:8c:ea:2b:20:e8:fb:bf:
         2f:36:c2:c4:9b:ae:48:1f:4b:dd:23:c1:34:a4:0e:b4:b5:97:
         43:ca:cc:61:da:c9:4a:c2:d2:cc:20:c9:f9:3a:36:ae:40:d2:
         43:74:6a:78:f0:12:c3:fd:95:f0:c3:49:78:56:e7:e0:ba:fd:
         63:c0:f4:31:cd:a0:a6:4c:43:73:fe:d6:3e:64:6a:50:a4:c1:
         ba:a6:d9:cd:8b:bc:68:93:0e:db:35:db:59:e5:47:f3:c4:09:
         96:9b:0e:63
-----BEGIN CERTIFICATE-----
MIIDCTCCAfGgAwIBAgIBIjANBgkqhkiG9w0BAQsFADB1MQswCQYDVQQGEwJVUzET
MBEGA1UECAwKQ2FsaWZvcm5pYTEUMBIGA1UEBwwLU2FudGEgQ2xhcmExDTALBgNV
BAoMBHBrZzUxEjAQBgNVBAMMCWNoMS40X3RhMzEYMBYGCSqGSIb3DQEJARYJY2gx
LjRfdGEzMB4XDTE4MDMyMDEwMjA1NFoXDTIwMTIxNDEwMjA1NFowfTELMAkGA1UE
BhMCVVMxEzARBgNVBAgMCkNhbGlmb3JuaWExFDASBgNVBAcMC1NhbnRhIENsYXJh
MQ0wCwYDVQQKDARwa2c1MRYwFAYDVQQDDA1jczFfY2gxLjRfdGEzMRwwGgYJKoZI
hvcNAQkBFg1jczFfY2gxLjRfdGEzMIGfMA0GCSqGSIb3DQEBAQUAA4GNADCBiQKB
gQCjD4BOee5nC/R9zv5ekxzTg8dQ3T/5oYmKiCdlsMK8PQmQyYJCDiZJia8WS7kx
Uthw7o5JycUOnfH6HGJNEdShx4tojSimVeeF+4wEL1zhuw8kb8WeBFI9EjunLa/C
Ovtbi1GXd7qNkNlXOFlTxg5pEj87kSqreayJks/AeMp23wIDAQABoyAwHjAMBgNV
HRMBAf8EAjAAMA4GA1UdDwEB/wQEAwIHgDANBgkqhkiG9w0BAQsFAAOCAQEAKT8n
a0+gfYSbGfGa2Fcb4biqzuEVhCjBj8t84bNjtwcLHcqyeUJ1msyDcj63rd4twyMz
7IovFjsmbkL9TFqq72Tx2b6kwfRL/d9PorBel0h9GMoYanD1hfT/VNvZY7Ku62U6
i9n3xIk1uVQ1qH2tnt7ssJ5hUr7W+pHWdAJDuGPQIqlOhbzkJPIEI5kXSQO5E6Sy
94DdoTwaxGuM6isg6Pu/LzbCxJuuSB9L3SPBNKQOtLWXQ8rMYdrJSsLSzCDJ+To2
rkDSQ3RqePASw/2V8MNJeFbn4Lr9Y8D0Mc2gpkxDc/7WPmRqUKTBuqbZzYu8aJMO
2zXbWeVH88QJlpsOYw==
-----END CERTIFICATE-----
