Certificate:
    Data:
        Version: 3 (0x2)
        Serial Number: 34 (0x22)
        Signature Algorithm: sha256WithRSAEncryption
        Issuer: C=US, ST=California, L=Santa Clara, O=pkg5, CN=ch1.4_ta3/emailAddress=ch1.4_ta3
        Validity
            Not Before: Dec 15 15:37:27 2022 GMT
            Not After : Sep 10 15:37:27 2025 GMT
        Subject: C=US, ST=California, L=Santa Clara, O=pkg5, CN=cs1_ch1.4_ta3/emailAddress=cs1_ch1.4_ta3
        Subject Public Key Info:
            Public Key Algorithm: rsaEncryption
                Public-Key: (2048 bit)
                Modulus:
                    00:b6:43:8f:af:c5:8a:16:b8:84:d1:c0:fc:c6:4b:
                    9a:74:3d:85:47:ef:a4:d6:5e:a0:5d:df:80:bb:80:
                    c3:0b:49:2b:6a:c0:85:ee:79:c4:03:f3:34:1d:4d:
                    a0:7b:f9:78:f0:20:1d:86:cd:99:3e:3a:78:0e:e7:
                    27:55:46:a9:ea:46:10:6b:9b:f5:cf:fd:aa:d0:6f:
                    4a:2b:56:65:d3:af:75:d5:47:c8:68:84:ed:54:f3:
                    35:17:2f:dc:94:28:56:a7:cd:60:a3:38:1e:3c:16:
                    d0:60:8a:ea:29:23:26:7e:22:ae:06:ba:b1:ed:02:
                    5b:86:8d:95:70:7f:40:4d:c4:95:fa:d3:ef:6d:93:
                    69:e5:5d:ee:16:51:81:a9:10:51:a6:ca:0d:bb:11:
                    66:3b:fc:bb:ce:e0:4e:9a:8f:6d:77:28:cd:7e:21:
                    88:8d:28:22:77:b6:e1:d0:26:56:f5:59:fd:e0:61:
                    a6:53:5f:de:31:6b:5a:85:5a:17:d4:38:c0:06:58:
                    9b:27:99:09:d7:ea:98:8e:68:fb:e8:d6:ac:0b:1e:
                    7e:6a:54:45:00:d5:c2:14:54:59:af:06:ba:ae:82:
                    80:b1:fc:92:8b:bf:90:3b:ae:df:6f:61:f1:e5:4b:
                    4e:c5:9d:54:93:2a:2e:e0:9f:17:30:6a:8f:b5:c2:
                    c0:d3
                Exponent: 65537 (0x10001)
        X509v3 extensions:
            X509v3 Basic Constraints: critical
                CA:FALSE
            X509v3 Key Usage: critical
                Digital Signature
            X509v3 Subject Key Identifier: 
                83:88:78:D7:22:8B:45:41:06:DB:18:49:45:75:AB:55:DE:7D:09:B7
            X509v3 Authority Key Identifier: 
                3D:FA:57:0F:20:07:30:89:60:EB:FE:C3:CC:B2:BB:43:DC:F6:50:80
    Signature Algorithm: sha256WithRSAEncryption
    Signature Value:
        3b:58:63:2e:5c:bf:d7:80:f5:12:85:34:05:f8:a0:15:f8:c6:
        b9:bb:28:32:af:bd:f7:6e:e5:2e:ae:02:ef:c3:f0:f5:13:66:
        fa:de:f8:c7:17:d9:73:66:ff:03:55:90:b2:65:b7:a0:ef:bd:
        47:ce:e9:21:2e:d3:43:4c:7f:88:4a:91:a8:43:95:47:2a:d9:
        26:7f:63:c5:a8:50:66:ab:21:cc:be:45:08:fa:05:5a:d1:3e:
        57:a7:4f:63:ec:d5:9f:c2:05:45:b2:99:28:d9:3c:03:ca:0c:
        bf:5b:7a:cc:88:bf:a0:27:af:8d:67:cb:cc:61:65:1e:1a:d1:
        be:3d:29:63:34:e3:af:dc:a4:44:81:49:b6:a5:ce:6b:a4:d1:
        3c:cf:93:97:ec:89:2f:2d:aa:a9:f0:11:5a:96:62:80:25:84:
        49:fa:db:7c:16:23:d4:79:20:91:c0:7e:58:3a:cc:b6:d4:3d:
        f6:f8:31:52:85:59:b4:d5:81:fc:19:f9:1b:f0:de:83:e8:3b:
        77:c2:e6:d3:9a:f3:a1:70:c3:d9:7c:88:00:57:05:f1:74:c7:
        8b:22:b0:ec:34:5a:ea:35:a4:5f:5d:77:8b:20:75:3e:98:74:
        08:db:8a:7a:fd:c1:5b:95:f5:59:52:c5:85:05:ec:2d:5e:16:
        a8:c8:73:f6
-----BEGIN CERTIFICATE-----
MIIDzTCCArWgAwIBAgIBIjANBgkqhkiG9w0BAQsFADB1MQswCQYDVQQGEwJVUzET
MBEGA1UECAwKQ2FsaWZvcm5pYTEUMBIGA1UEBwwLU2FudGEgQ2xhcmExDTALBgNV
BAoMBHBrZzUxEjAQBgNVBAMMCWNoMS40X3RhMzEYMBYGCSqGSIb3DQEJARYJY2gx
LjRfdGEzMB4XDTIyMTIxNTE1MzcyN1oXDTI1MDkxMDE1MzcyN1owfTELMAkGA1UE
BhMCVVMxEzARBgNVBAgMCkNhbGlmb3JuaWExFDASBgNVBAcMC1NhbnRhIENsYXJh
MQ0wCwYDVQQKDARwa2c1MRYwFAYDVQQDDA1jczFfY2gxLjRfdGEzMRwwGgYJKoZI
hvcNAQkBFg1jczFfY2gxLjRfdGEzMIIBIjANBgkqhkiG9w0BAQEFAAOCAQ8AMIIB
CgKCAQEAtkOPr8WKFriE0cD8xkuadD2FR++k1l6gXd+Au4DDC0krasCF7nnEA/M0
HU2ge/l48CAdhs2ZPjp4DucnVUap6kYQa5v1z/2q0G9KK1Zl06911UfIaITtVPM1
Fy/clChWp81gozgePBbQYIrqKSMmfiKuBrqx7QJbho2VcH9ATcSV+tPvbZNp5V3u
FlGBqRBRpsoNuxFmO/y7zuBOmo9tdyjNfiGIjSgid7bh0CZW9Vn94GGmU1/eMWta
hVoX1DjABlibJ5kJ1+qYjmj76NasCx5+alRFANXCFFRZrwa6roKAsfySi7+QO67f
b2Hx5UtOxZ1Ukyou4J8XMGqPtcLA0wIDAQABo2AwXjAMBgNVHRMBAf8EAjAAMA4G
A1UdDwEB/wQEAwIHgDAdBgNVHQ4EFgQUg4h41yKLRUEG2xhJRXWrVd59CbcwHwYD
VR0jBBgwFoAUPfpXDyAHMIlg6/7DzLK7Q9z2UIAwDQYJKoZIhvcNAQELBQADggEB
ADtYYy5cv9eA9RKFNAX4oBX4xrm7KDKvvfdu5S6uAu/D8PUTZvre+McX2XNm/wNV
kLJlt6DvvUfO6SEu00NMf4hKkahDlUcq2SZ/Y8WoUGarIcy+RQj6BVrRPlenT2Ps
1Z/CBUWymSjZPAPKDL9besyIv6Anr41ny8xhZR4a0b49KWM046/cpESBSbalzmuk
0TzPk5fsiS8tqqnwEVqWYoAlhEn623wWI9R5IJHAflg6zLbUPfb4MVKFWbTVgfwZ
+Rvw3oPoO3fC5tOa86Fww9l8iABXBfF0x4sisOw0Wuo1pF9dd4sgdT6YdAjbinr9
wVuV9VlSxYUF7C1eFqjIc/Y=
-----END CERTIFICATE-----
