Certificate:
    Data:
        Version: 3 (0x2)
        Serial Number: 34 (0x22)
        Signature Algorithm: sha256WithRSAEncryption
        Issuer: C=US, ST=California, L=Santa Clara, O=pkg5, CN=ch1.4_ta3/emailAddress=ch1.4_ta3
        Validity
            Not Before: Nov 14 14:26:56 2024 GMT
            Not After : Aug 11 14:26:56 2027 GMT
        Subject: C=US, ST=California, L=Santa Clara, O=pkg5, CN=cs1_ch1.4_ta3/emailAddress=cs1_ch1.4_ta3
        Subject Public Key Info:
            Public Key Algorithm: rsaEncryption
                Public-Key: (2048 bit)
                Modulus:
                    00:ad:5e:42:14:fd:f0:44:b1:48:1c:2f:92:cd:e0:
                    1b:ef:86:b3:78:f0:c3:09:f3:b2:aa:92:e1:d2:63:
                    63:9a:97:6d:f9:c4:6d:53:21:f5:eb:bf:df:54:3d:
                    af:34:d1:84:33:c2:37:4e:a9:25:ee:21:80:80:7f:
                    f9:0e:2b:ef:e1:01:b4:26:79:8a:ad:96:08:ef:e5:
                    a5:f5:aa:ad:19:49:de:b5:e1:5f:18:25:d9:a1:35:
                    83:f2:ec:71:e4:a2:1b:3f:4f:de:1d:cc:7d:a5:cc:
                    29:9c:d6:48:d7:2b:85:83:92:03:24:f4:de:5b:ed:
                    ea:5e:b1:8c:79:05:84:d3:03:83:a1:e5:f5:ed:58:
                    bc:46:2a:de:27:33:90:0d:ff:7e:2c:55:fc:1c:0e:
                    0b:d1:65:7e:9c:d1:39:c8:38:e3:ab:87:a8:50:10:
                    1c:6b:f0:c3:94:67:dc:ea:4f:90:32:73:a7:ce:93:
                    e4:35:9d:64:49:3a:e3:31:61:64:e6:22:41:09:4c:
                    ed:e1:33:cb:7f:db:df:e7:2c:b3:77:6b:c7:99:32:
                    51:c9:ed:e5:12:21:5b:82:a4:d9:b5:02:77:8b:62:
                    89:31:a9:bb:6f:c3:be:c1:a6:03:8b:2d:fb:23:c1:
                    78:2f:a6:6a:75:c1:44:0d:33:a2:e6:6d:d4:13:87:
                    3b:4b
                Exponent: 65537 (0x10001)
        X509v3 extensions:
            X509v3 Basic Constraints: critical
                CA:FALSE
            X509v3 Key Usage: critical
                Digital Signature
            X509v3 Subject Key Identifier: 
                21:5C:EA:5C:58:91:5E:E7:4F:4F:A1:B8:AD:8C:54:C2:32:D8:2A:22
            X509v3 Authority Key Identifier: 
                CF:98:1F:F4:D3:EB:BC:4C:09:4C:54:16:66:BA:15:C0:22:07:E7:E4
    Signature Algorithm: sha256WithRSAEncryption
    Signature Value:
        40:04:92:38:74:5b:e3:93:e1:c5:d3:a1:d7:a2:de:27:e8:3d:
        e4:43:9a:fc:81:b0:69:5e:22:dd:88:22:27:24:15:52:d5:40:
        11:23:4c:7f:47:ea:ce:10:d6:91:f4:58:c5:c6:6a:0a:8a:8f:
        29:eb:11:bd:54:a5:3c:3e:c4:b2:9a:55:52:50:4b:02:1c:d3:
        d1:5b:68:e3:f1:f2:f8:12:ef:e7:40:4b:41:f6:7c:88:23:f7:
        ab:9d:6e:f8:f8:f3:93:9d:78:ee:ca:f2:68:a7:8e:85:ea:33:
        91:d8:f3:d6:47:6b:67:80:b8:ad:8b:4e:22:6b:ba:46:4d:94:
        f6:b8:54:42:91:c9:15:68:03:68:82:3d:34:d8:f2:c8:04:aa:
        dd:4a:b7:01:71:c4:20:3e:be:a0:19:a0:7e:68:86:1d:50:a2:
        2e:05:7a:b3:50:c6:58:e6:c5:17:5a:c0:dc:e5:9c:de:6f:ce:
        42:95:e2:74:67:e5:fc:e6:95:b1:e0:8e:0e:ae:bb:2c:4c:54:
        94:93:02:db:03:45:21:15:7b:ff:0d:27:38:b4:b0:20:4f:c9:
        34:e9:c1:90:cf:9a:03:75:4c:03:8c:8c:f8:b5:17:cd:8c:89:
        a8:f2:e9:b6:26:6f:c1:72:d5:d0:e5:68:fc:08:f5:c5:8a:d5:
        52:11:f7:ce
-----BEGIN CERTIFICATE-----
MIIDzTCCArWgAwIBAgIBIjANBgkqhkiG9w0BAQsFADB1MQswCQYDVQQGEwJVUzET
MBEGA1UECAwKQ2FsaWZvcm5pYTEUMBIGA1UEBwwLU2FudGEgQ2xhcmExDTALBgNV
BAoMBHBrZzUxEjAQBgNVBAMMCWNoMS40X3RhMzEYMBYGCSqGSIb3DQEJARYJY2gx
LjRfdGEzMB4XDTI0MTExNDE0MjY1NloXDTI3MDgxMTE0MjY1NlowfTELMAkGA1UE
BhMCVVMxEzARBgNVBAgMCkNhbGlmb3JuaWExFDASBgNVBAcMC1NhbnRhIENsYXJh
MQ0wCwYDVQQKDARwa2c1MRYwFAYDVQQDDA1jczFfY2gxLjRfdGEzMRwwGgYJKoZI
hvcNAQkBFg1jczFfY2gxLjRfdGEzMIIBIjANBgkqhkiG9w0BAQEFAAOCAQ8AMIIB
CgKCAQEArV5CFP3wRLFIHC+SzeAb74azePDDCfOyqpLh0mNjmpdt+cRtUyH167/f
VD2vNNGEM8I3Tqkl7iGAgH/5Divv4QG0JnmKrZYI7+Wl9aqtGUneteFfGCXZoTWD
8uxx5KIbP0/eHcx9pcwpnNZI1yuFg5IDJPTeW+3qXrGMeQWE0wODoeX17Vi8Rire
JzOQDf9+LFX8HA4L0WV+nNE5yDjjq4eoUBAca/DDlGfc6k+QMnOnzpPkNZ1kSTrj
MWFk5iJBCUzt4TPLf9vf5yyzd2vHmTJRye3lEiFbgqTZtQJ3i2KJMam7b8O+waYD
iy37I8F4L6ZqdcFEDTOi5m3UE4c7SwIDAQABo2AwXjAMBgNVHRMBAf8EAjAAMA4G
A1UdDwEB/wQEAwIHgDAdBgNVHQ4EFgQUIVzqXFiRXudPT6G4rYxUwjLYKiIwHwYD
VR0jBBgwFoAUz5gf9NPrvEwJTFQWZroVwCIH5+QwDQYJKoZIhvcNAQELBQADggEB
AEAEkjh0W+OT4cXTodei3ifoPeRDmvyBsGleIt2IIickFVLVQBEjTH9H6s4Q1pH0
WMXGagqKjynrEb1UpTw+xLKaVVJQSwIc09FbaOPx8vgS7+dAS0H2fIgj96udbvj4
85OdeO7K8minjoXqM5HY89ZHa2eAuK2LTiJrukZNlPa4VEKRyRVoA2iCPTTY8sgE
qt1KtwFxxCA+vqAZoH5ohh1Qoi4FerNQxljmxRdawNzlnN5vzkKV4nRn5fzmlbHg
jg6uuyxMVJSTAtsDRSEVe/8NJzi0sCBPyTTpwZDPmgN1TAOMjPi1F82Miajy6bYm
b8Fy1dDlaPwI9cWK1VIR984=
-----END CERTIFICATE-----
