Certificate:
    Data:
        Version: 3 (0x2)
        Serial Number: 35 (0x23)
    Signature Algorithm: sha256WithRSAEncryption
        Issuer: C=US, ST=California, L=Santa Clara, O=pkg5, CN=ch1_ta4/emailAddress=ch1_ta4
        Validity
            Not Before: Dec  6 03:06:43 2014 GMT
            Not After : Sep  1 03:06:43 2017 GMT
        Subject: C=US, ST=California, L=Santa Clara, O=pkg5, CN=cs1_ch1_ta4/emailAddress=cs1_ch1_ta4
        Subject Public Key Info:
            Public Key Algorithm: rsaEncryption
                Public-Key: (1024 bit)
                Modulus:
                    00:a7:bf:b7:fd:31:28:b7:4a:cc:b3:cd:0b:2b:a2:
                    c4:1d:07:79:14:e0:f1:9b:64:f6:2b:3b:97:f5:23:
                    e1:21:99:6d:74:fe:db:cb:f7:9a:cf:10:40:a6:b7:
                    d8:a0:b7:5a:dc:cb:87:ea:59:46:25:44:b6:7f:3f:
                    b1:d7:b6:b6:05:da:bd:9e:82:86:e4:0c:4e:f5:bd:
                    b4:59:07:72:f7:90:d3:8b:e0:b5:21:fb:19:77:0b:
                    58:94:ee:41:db:ff:ec:93:47:fc:d9:b7:b2:52:6b:
                    db:be:93:cd:1a:33:3e:87:ca:bf:9f:35:f7:14:51:
                    df:a8:dc:69:30:d2:a0:37:07
                Exponent: 65537 (0x10001)
        X509v3 extensions:
            X509v3 Basic Constraints: critical
                CA:FALSE
            X509v3 CRL Distribution Points: 

                Full Name:
                  URI:http://localhost:12001/file/0/ch1_ta4_crl.pem

    Signature Algorithm: sha256WithRSAEncryption
         be:8d:94:9f:c8:02:72:a9:73:5a:ec:03:f0:fa:bd:bf:b8:47:
         78:0f:4b:c2:28:be:d5:ee:95:3b:b9:76:ae:b7:6d:b4:96:77:
         51:8b:f2:69:0d:2a:6e:7e:80:46:cc:98:4e:66:28:d5:4f:f5:
         7c:cf:95:27:bf:06:71:a9:9a:ef:6d:c3:9d:44:b9:d4:3d:07:
         07:d4:d2:62:35:ff:70:f1:47:d5:78:77:d7:99:32:6c:48:39:
         c6:7f:ad:0f:d6:c9:1e:83:5a:f1:ca:24:1a:74:48:8c:04:9c:
         7d:ed:94:a1:db:5c:79:92:17:28:27:20:71:78:45:b5:67:f8:
         ee:36
-----BEGIN CERTIFICATE-----
MIICsDCCAhmgAwIBAgIBIzANBgkqhkiG9w0BAQsFADBxMQswCQYDVQQGEwJVUzET
MBEGA1UECAwKQ2FsaWZvcm5pYTEUMBIGA1UEBwwLU2FudGEgQ2xhcmExDTALBgNV
BAoMBHBrZzUxEDAOBgNVBAMMB2NoMV90YTQxFjAUBgkqhkiG9w0BCQEWB2NoMV90
YTQwHhcNMTQxMjA2MDMwNjQzWhcNMTcwOTAxMDMwNjQzWjB5MQswCQYDVQQGEwJV
UzETMBEGA1UECAwKQ2FsaWZvcm5pYTEUMBIGA1UEBwwLU2FudGEgQ2xhcmExDTAL
BgNVBAoMBHBrZzUxFDASBgNVBAMMC2NzMV9jaDFfdGE0MRowGAYJKoZIhvcNAQkB
FgtjczFfY2gxX3RhNDCBnzANBgkqhkiG9w0BAQEFAAOBjQAwgYkCgYEAp7+3/TEo
t0rMs80LK6LEHQd5FODxm2T2KzuX9SPhIZltdP7by/eazxBAprfYoLda3MuH6llG
JUS2fz+x17a2Bdq9noKG5AxO9b20WQdy95DTi+C1IfsZdwtYlO5B2//sk0f82bey
UmvbvpPNGjM+h8q/nzX3FFHfqNxpMNKgNwcCAwEAAaNQME4wDAYDVR0TAQH/BAIw
ADA+BgNVHR8ENzA1MDOgMaAvhi1odHRwOi8vbG9jYWxob3N0OjEyMDAxL2ZpbGUv
MC9jaDFfdGE0X2NybC5wZW0wDQYJKoZIhvcNAQELBQADgYEAvo2Un8gCcqlzWuwD
8Pq9v7hHeA9Lwii+1e6VO7l2rrdttJZ3UYvyaQ0qbn6ARsyYTmYo1U/1fM+VJ78G
cama723DnUS51D0HB9TSYjX/cPFH1Xh315kybEg5xn+tD9bJHoNa8cokGnRIjASc
fe2UodtceZIXKCcgcXhFtWf47jY=
-----END CERTIFICATE-----
