Certificate:
    Data:
        Version: 3 (0x2)
        Serial Number: 35 (0x23)
    Signature Algorithm: sha256WithRSAEncryption
        Issuer: C=US, ST=California, L=Santa Clara, O=pkg5, CN=ch1_ta4/emailAddress=ch1_ta4
        Validity
            Not Before: Nov 28 22:50:57 2016 GMT
            Not After : Aug 25 22:50:57 2019 GMT
        Subject: C=US, ST=California, L=Santa Clara, O=pkg5, CN=cs1_ch1_ta4/emailAddress=cs1_ch1_ta4
        Subject Public Key Info:
            Public Key Algorithm: rsaEncryption
                Public-Key: (1024 bit)
                Modulus:
                    00:e5:fa:07:11:8a:b0:b9:64:69:b9:15:5e:b9:6a:
                    6c:e1:ca:83:30:b9:2d:5e:fe:93:37:54:38:d2:b4:
                    e4:7b:60:ab:63:d9:26:a0:d5:d4:93:c1:1c:1e:48:
                    b6:82:ce:bc:43:ec:34:cc:54:4b:a8:75:3b:5d:ea:
                    af:03:4b:fb:6e:8e:fb:74:af:ad:17:ab:d3:0e:a0:
                    4f:1b:89:8a:f8:24:cf:ae:0a:db:ea:a2:31:89:3d:
                    d1:4c:f3:fc:40:e7:cc:48:a8:d4:b2:4c:ff:91:39:
                    3b:49:0b:d0:2f:88:b1:cc:83:a0:57:65:8c:6e:38:
                    a3:b1:a9:5e:8e:a7:12:35:19
                Exponent: 65537 (0x10001)
        X509v3 extensions:
            X509v3 Basic Constraints: critical
                CA:FALSE
            X509v3 CRL Distribution Points: 

                Full Name:
                  URI:http://localhost:12001/file/0/ch1_ta4_crl.pem

    Signature Algorithm: sha256WithRSAEncryption
         71:bf:8d:74:18:3b:b0:56:06:e8:a8:a9:46:39:a5:bc:b9:ce:
         70:00:d4:1f:89:a6:9b:c1:8e:30:db:e6:ac:70:92:ce:79:b5:
         29:a9:22:3c:2b:0e:b1:ff:30:ed:83:33:c3:25:dd:15:c4:5c:
         a1:33:c1:ec:f9:47:49:1a:5a:d1:af:00:b1:26:24:7a:f4:c1:
         6f:ec:5b:cf:fd:9a:3d:ca:17:5a:b2:3d:40:d6:1b:9b:73:0a:
         02:17:e8:d4:c4:e3:a0:f5:d7:e3:f5:c5:87:80:74:52:d8:82:
         ff:52:80:ad:44:a3:10:a7:75:46:56:94:d3:82:de:3b:67:25:
         e2:0a:13:e9:0c:65:c6:88:b2:72:37:8f:9f:9c:a4:9c:57:0a:
         2e:fc:e5:d0:31:2d:d2:65:06:b0:bf:23:33:e8:6e:19:06:0c:
         9c:ae:68:22:44:ff:2a:b9:0e:9e:e3:ac:80:75:10:11:d6:96:
         d7:d6:7a:0e:46:3e:b4:a3:3a:9e:e2:8e:3e:22:c6:e7:cb:a3:
         98:0f:b3:c2:89:8f:3e:e7:1c:00:a1:bd:c8:34:40:51:25:43:
         7b:52:21:9b:37:4a:8c:aa:36:cf:6d:53:d9:c3:95:c4:35:10:
         88:09:9c:90:63:16:5b:03:29:24:d6:53:f4:bc:c1:dc:76:6e:
         cf:c7:fe:3c
-----BEGIN CERTIFICATE-----
MIIDMTCCAhmgAwIBAgIBIzANBgkqhkiG9w0BAQsFADBxMQswCQYDVQQGEwJVUzET
MBEGA1UECAwKQ2FsaWZvcm5pYTEUMBIGA1UEBwwLU2FudGEgQ2xhcmExDTALBgNV
BAoMBHBrZzUxEDAOBgNVBAMMB2NoMV90YTQxFjAUBgkqhkiG9w0BCQEWB2NoMV90
YTQwHhcNMTYxMTI4MjI1MDU3WhcNMTkwODI1MjI1MDU3WjB5MQswCQYDVQQGEwJV
UzETMBEGA1UECAwKQ2FsaWZvcm5pYTEUMBIGA1UEBwwLU2FudGEgQ2xhcmExDTAL
BgNVBAoMBHBrZzUxFDASBgNVBAMMC2NzMV9jaDFfdGE0MRowGAYJKoZIhvcNAQkB
FgtjczFfY2gxX3RhNDCBnzANBgkqhkiG9w0BAQEFAAOBjQAwgYkCgYEA5foHEYqw
uWRpuRVeuWps4cqDMLktXv6TN1Q40rTke2CrY9kmoNXUk8EcHki2gs68Q+w0zFRL
qHU7XeqvA0v7bo77dK+tF6vTDqBPG4mK+CTPrgrb6qIxiT3RTPP8QOfMSKjUskz/
kTk7SQvQL4ixzIOgV2WMbjijsalejqcSNRkCAwEAAaNQME4wDAYDVR0TAQH/BAIw
ADA+BgNVHR8ENzA1MDOgMaAvhi1odHRwOi8vbG9jYWxob3N0OjEyMDAxL2ZpbGUv
MC9jaDFfdGE0X2NybC5wZW0wDQYJKoZIhvcNAQELBQADggEBAHG/jXQYO7BWBuio
qUY5pby5znAA1B+JppvBjjDb5qxwks55tSmpIjwrDrH/MO2DM8Ml3RXEXKEzwez5
R0kaWtGvALEmJHr0wW/sW8/9mj3KF1qyPUDWG5tzCgIX6NTE46D11+P1xYeAdFLY
gv9SgK1EoxCndUZWlNOC3jtnJeIKE+kMZcaIsnI3j5+cpJxXCi785dAxLdJlBrC/
IzPobhkGDJyuaCJE/yq5Dp7jrIB1EBHWltfWeg5GPrSjOp7ijj4ixufLo5gPs8KJ
jz7nHAChvcg0QFElQ3tSIZs3SoyqNs9tU9nDlcQ1EIgJnJBjFlsDKSTWU/S8wdx2
bs/H/jw=
-----END CERTIFICATE-----
