Certificate:
    Data:
        Version: 3 (0x2)
        Serial Number: 36 (0x24)
    Signature Algorithm: sha256WithRSAEncryption
        Issuer: C=US, ST=California, L=Santa Clara, O=pkg5, CN=ch1_ta4/emailAddress=ch1_ta4
        Validity
            Not Before: Dec  6 03:06:43 2014 GMT
            Not After : Sep  1 03:06:43 2017 GMT
        Subject: C=US, ST=California, L=Santa Clara, O=pkg5, CN=cs2_ch1_ta4/emailAddress=cs2_ch1_ta4
        Subject Public Key Info:
            Public Key Algorithm: rsaEncryption
                Public-Key: (1024 bit)
                Modulus:
                    00:bc:fe:c8:4a:0d:34:6f:ff:76:80:f5:f7:c5:17:
                    47:bb:5c:39:26:8d:da:da:9f:6d:76:8b:1a:3c:63:
                    fd:5f:69:1b:1c:b7:76:3e:70:51:b3:fe:d6:0f:35:
                    51:53:0e:e1:ec:c8:22:c6:6f:ca:a1:2f:48:54:0b:
                    8c:ea:dc:c7:df:be:ad:b1:38:f4:43:5c:63:30:27:
                    0d:5b:ff:aa:90:13:67:b9:6f:20:fe:d4:72:d3:40:
                    65:53:d1:bf:e6:7b:11:4a:2c:66:8b:f0:5a:46:90:
                    ff:54:7e:f4:d8:22:e4:1e:50:07:4c:89:21:20:2d:
                    69:66:91:5e:36:b1:c1:02:f9
                Exponent: 65537 (0x10001)
        X509v3 extensions:
            X509v3 Subject Key Identifier: 
                7E:25:39:36:BC:20:76:C0:F8:70:A5:74:1F:2A:44:28:6C:A3:8A:C7
            X509v3 Authority Key Identifier: 
                keyid:B7:CD:2E:E3:4E:F8:1F:1C:39:44:2E:36:BD:E6:50:36:3B:96:9D:61
                DirName:/C=US/ST=California/L=Santa Clara/O=pkg5/CN=ta4/emailAddress=ta4
                serial:22

            X509v3 Basic Constraints: critical
                CA:FALSE
            X509v3 CRL Distribution Points: 

                Full Name:
                  URI:http://localhost:12001/file/0/example_file

    Signature Algorithm: sha256WithRSAEncryption
         8d:ee:be:ee:45:3a:03:ef:46:9a:d3:69:39:26:00:1f:64:ce:
         b5:8a:83:53:0d:f1:ee:be:ec:b4:da:64:37:b7:02:23:51:ef:
         b0:33:3d:62:e9:77:6a:95:a4:2a:e5:6d:4c:be:2c:53:26:65:
         aa:e0:1e:ce:01:76:a6:96:b2:d3:2b:0b:e8:03:8b:c3:96:bf:
         9c:6e:3e:11:1e:d7:81:32:df:87:ee:5d:f1:e3:7b:e0:ff:55:
         fb:ff:4a:a2:41:78:01:5f:83:ad:70:68:f8:ea:12:75:0e:70:
         11:d5:7a:c2:de:33:bd:ac:ed:a8:e8:03:4d:a1:1b:42:10:65:
         c8:67
-----BEGIN CERTIFICATE-----
MIIDZjCCAs+gAwIBAgIBJDANBgkqhkiG9w0BAQsFADBxMQswCQYDVQQGEwJVUzET
MBEGA1UECAwKQ2FsaWZvcm5pYTEUMBIGA1UEBwwLU2FudGEgQ2xhcmExDTALBgNV
BAoMBHBrZzUxEDAOBgNVBAMMB2NoMV90YTQxFjAUBgkqhkiG9w0BCQEWB2NoMV90
YTQwHhcNMTQxMjA2MDMwNjQzWhcNMTcwOTAxMDMwNjQzWjB5MQswCQYDVQQGEwJV
UzETMBEGA1UECAwKQ2FsaWZvcm5pYTEUMBIGA1UEBwwLU2FudGEgQ2xhcmExDTAL
BgNVBAoMBHBrZzUxFDASBgNVBAMMC2NzMl9jaDFfdGE0MRowGAYJKoZIhvcNAQkB
FgtjczJfY2gxX3RhNDCBnzANBgkqhkiG9w0BAQEFAAOBjQAwgYkCgYEAvP7ISg00
b/92gPX3xRdHu1w5Jo3a2p9tdosaPGP9X2kbHLd2PnBRs/7WDzVRUw7h7Mgixm/K
oS9IVAuM6tzH376tsTj0Q1xjMCcNW/+qkBNnuW8g/tRy00BlU9G/5nsRSixmi/Ba
RpD/VH702CLkHlAHTIkhIC1pZpFeNrHBAvkCAwEAAaOCAQQwggEAMB0GA1UdDgQW
BBR+JTk2vCB2wPhwpXQfKkQobKOKxzCBkwYDVR0jBIGLMIGIgBS3zS7jTvgfHDlE
Lja95lA2O5adYaFtpGswaTELMAkGA1UEBhMCVVMxEzARBgNVBAgMCkNhbGlmb3Ju
aWExFDASBgNVBAcMC1NhbnRhIENsYXJhMQ0wCwYDVQQKDARwa2c1MQwwCgYDVQQD
DAN0YTQxEjAQBgkqhkiG9w0BCQEWA3RhNIIBIjAMBgNVHRMBAf8EAjAAMDsGA1Ud
HwQ0MDIwMKAuoCyGKmh0dHA6Ly9sb2NhbGhvc3Q6MTIwMDEvZmlsZS8wL2V4YW1w
bGVfZmlsZTANBgkqhkiG9w0BAQsFAAOBgQCN7r7uRToD70aa02k5JgAfZM61ioNT
DfHuvuy02mQ3twIjUe+wMz1i6XdqlaQq5W1MvixTJmWq4B7OAXamlrLTKwvoA4vD
lr+cbj4RHteBMt+H7l3x43vg/1X7/0qiQXgBX4OtcGj46hJ1DnAR1XrC3jO9rO2o
6ANNoRtCEGXIZw==
-----END CERTIFICATE-----
