Certificate:
    Data:
        Version: 3 (0x2)
        Serial Number: 36 (0x24)
        Signature Algorithm: sha256WithRSAEncryption
        Issuer: C=US, ST=California, L=Santa Clara, O=pkg5, CN=ch1_ta4/emailAddress=ch1_ta4
        Validity
            Not Before: May 23 15:47:21 2024 GMT
            Not After : Feb 17 15:47:21 2027 GMT
        Subject: C=US, ST=California, L=Santa Clara, O=pkg5, CN=cs1_ch1_ta4/emailAddress=cs1_ch1_ta4
        Subject Public Key Info:
            Public Key Algorithm: rsaEncryption
                Public-Key: (2048 bit)
                Modulus:
                    00:c0:41:0a:ab:6e:88:2f:73:3d:c5:fe:98:0b:22:
                    9e:59:3d:4a:e9:8b:a5:25:13:b2:84:93:e5:2a:e4:
                    24:50:78:93:b7:73:37:0e:b8:6e:bf:a9:b9:58:20:
                    72:2d:33:63:d3:24:a9:01:ef:25:4d:78:a8:20:91:
                    4b:43:2f:d1:e0:e0:b0:93:c8:41:2c:87:ef:e9:9a:
                    2e:62:fc:a3:3e:41:4a:9a:d4:2f:28:0d:0d:b4:00:
                    2c:cb:a2:34:98:35:a2:70:5b:a7:04:22:e1:a4:e5:
                    c4:9e:b7:7c:55:84:97:99:46:5f:8a:64:cc:f9:ee:
                    35:53:03:c7:16:74:e5:65:b4:ff:25:b2:8d:16:a6:
                    a7:3c:84:89:af:c7:fc:52:60:2f:a3:1f:5f:70:f9:
                    75:8e:e3:28:00:c7:d5:7e:07:21:96:e1:7c:d9:0e:
                    f9:4c:64:f2:8c:82:fa:63:46:35:6b:36:3f:df:98:
                    4c:5a:07:5e:7d:d9:93:be:62:33:95:3c:23:c3:f6:
                    81:17:d3:5a:6e:23:18:1c:b8:3e:b8:ca:bf:38:e3:
                    a3:64:ea:0c:c9:1f:50:9b:8f:6f:36:34:77:60:14:
                    5d:a9:9e:03:f9:6c:07:05:c8:fa:92:3e:00:35:2a:
                    fb:a9:3e:05:62:f6:31:56:a8:48:3e:fb:ed:dc:bf:
                    06:3f
                Exponent: 65537 (0x10001)
        X509v3 extensions:
            X509v3 Basic Constraints: critical
                CA:FALSE
            X509v3 CRL Distribution Points: 
                Full Name:
                  URI:http://localhost:12001/file/0/ch1_ta4_crl.pem
            X509v3 Subject Key Identifier: 
                36:DB:FB:85:45:D0:AB:DB:79:9E:24:C3:77:68:71:CB:07:67:03:C9
            X509v3 Authority Key Identifier: 
                2B:7C:4F:B9:53:AE:C8:E2:A9:09:D9:F9:BF:4B:7B:29:7B:90:9F:55
    Signature Algorithm: sha256WithRSAEncryption
    Signature Value:
        93:be:01:6c:d8:e9:cc:20:50:07:59:4e:76:59:05:cf:21:0d:
        39:18:ba:ea:57:ae:e4:26:6c:09:5b:4f:1f:f1:a4:dd:56:28:
        e4:de:9c:32:24:80:42:e1:a8:f5:0a:c1:c4:f9:47:11:27:40:
        2f:d2:69:29:5c:fd:3a:d8:e2:9f:e7:4f:4b:fb:7c:49:bc:ee:
        f0:ba:b8:f3:52:b4:96:f5:0b:de:30:69:27:87:c9:6f:e5:83:
        c5:1b:2f:89:f1:62:18:41:08:61:e9:4f:32:2a:06:55:67:84:
        8c:a4:b7:2d:66:eb:20:29:98:38:f5:2b:35:97:5f:d9:f0:be:
        a3:3f:31:1b:06:9b:d4:95:ce:9e:b1:b2:80:6d:33:75:be:a3:
        f0:93:62:5e:c3:f0:6f:12:5c:e0:90:19:f3:49:c5:99:f4:d0:
        1a:60:b1:2a:73:ff:fb:13:6c:6d:06:a8:f8:3c:c8:05:86:61:
        c9:22:7e:4b:60:98:f7:99:39:13:e1:56:91:cd:ff:b5:e8:5c:
        4c:a3:38:4a:65:a6:1e:3e:a3:f2:79:a0:1c:5c:e9:f9:39:ca:
        1b:13:8b:e3:7c:cc:c1:3f:0f:4d:76:3e:b0:f4:da:0e:c9:9e:
        19:fa:c1:4b:51:d0:c0:f9:40:18:bf:4c:9e:86:c8:cc:97:72:
        6f:c3:1d:68
-----BEGIN CERTIFICATE-----
MIID9zCCAt+gAwIBAgIBJDANBgkqhkiG9w0BAQsFADBxMQswCQYDVQQGEwJVUzET
MBEGA1UECAwKQ2FsaWZvcm5pYTEUMBIGA1UEBwwLU2FudGEgQ2xhcmExDTALBgNV
BAoMBHBrZzUxEDAOBgNVBAMMB2NoMV90YTQxFjAUBgkqhkiG9w0BCQEWB2NoMV90
YTQwHhcNMjQwNTIzMTU0NzIxWhcNMjcwMjE3MTU0NzIxWjB5MQswCQYDVQQGEwJV
UzETMBEGA1UECAwKQ2FsaWZvcm5pYTEUMBIGA1UEBwwLU2FudGEgQ2xhcmExDTAL
BgNVBAoMBHBrZzUxFDASBgNVBAMMC2NzMV9jaDFfdGE0MRowGAYJKoZIhvcNAQkB
FgtjczFfY2gxX3RhNDCCASIwDQYJKoZIhvcNAQEBBQADggEPADCCAQoCggEBAMBB
CqtuiC9zPcX+mAsinlk9SumLpSUTsoST5SrkJFB4k7dzNw64br+puVggci0zY9Mk
qQHvJU14qCCRS0Mv0eDgsJPIQSyH7+maLmL8oz5BSprULygNDbQALMuiNJg1onBb
pwQi4aTlxJ63fFWEl5lGX4pkzPnuNVMDxxZ05WW0/yWyjRampzyEia/H/FJgL6Mf
X3D5dY7jKADH1X4HIZbhfNkO+Uxk8oyC+mNGNWs2P9+YTFoHXn3Zk75iM5U8I8P2
gRfTWm4jGBy4PrjKvzjjo2TqDMkfUJuPbzY0d2AUXameA/lsBwXI+pI+ADUq+6k+
BWL2MVaoSD777dy/Bj8CAwEAAaOBkTCBjjAMBgNVHRMBAf8EAjAAMD4GA1UdHwQ3
MDUwM6AxoC+GLWh0dHA6Ly9sb2NhbGhvc3Q6MTIwMDEvZmlsZS8wL2NoMV90YTRf
Y3JsLnBlbTAdBgNVHQ4EFgQUNtv7hUXQq9t5niTDd2hxywdnA8kwHwYDVR0jBBgw
FoAUK3xPuVOuyOKpCdn5v0t7KXuQn1UwDQYJKoZIhvcNAQELBQADggEBAJO+AWzY
6cwgUAdZTnZZBc8hDTkYuupXruQmbAlbTx/xpN1WKOTenDIkgELhqPUKwcT5RxEn
QC/SaSlc/TrY4p/nT0v7fEm87vC6uPNStJb1C94waSeHyW/lg8UbL4nxYhhBCGHp
TzIqBlVnhIykty1m6yApmDj1KzWXX9nwvqM/MRsGm9SVzp6xsoBtM3W+o/CTYl7D
8G8SXOCQGfNJxZn00BpgsSpz//sTbG0GqPg8yAWGYckifktgmPeZORPhVpHN/7Xo
XEyjOEplph4+o/J5oBxc6fk5yhsTi+N8zME/D012PrD02g7Jnhn6wUtR0MD5QBi/
TJ6GyMyXcm/DHWg=
-----END CERTIFICATE-----
