Certificate:
    Data:
        Version: 3 (0x2)
        Serial Number: 36 (0x24)
        Signature Algorithm: sha256WithRSAEncryption
        Issuer: C=US, ST=California, L=Santa Clara, O=pkg5, CN=ch1_ta4/emailAddress=ch1_ta4
        Validity
            Not Before: Oct 24 21:43:11 2023 GMT
            Not After : Jul 20 21:43:11 2026 GMT
        Subject: C=US, ST=California, L=Santa Clara, O=pkg5, CN=cs1_ch1_ta4/emailAddress=cs1_ch1_ta4
        Subject Public Key Info:
            Public Key Algorithm: rsaEncryption
                Public-Key: (2048 bit)
                Modulus:
                    00:b8:66:1a:80:93:62:01:94:81:f1:1e:ea:ea:ea:
                    4f:f4:9c:db:43:02:94:cb:81:40:7f:d9:71:7a:db:
                    ab:34:d5:de:ce:29:4c:3e:ac:02:84:31:c9:c2:44:
                    78:3c:ec:35:d2:12:d3:a3:52:ae:80:d9:03:95:df:
                    18:72:80:56:2d:7a:ad:d4:45:0c:8f:34:91:bb:8b:
                    67:53:b5:0f:27:fe:cc:33:2b:85:9b:eb:4d:37:0f:
                    6d:cb:79:d1:65:cf:87:8c:d8:dd:ea:56:e4:95:5e:
                    87:45:eb:6a:5b:3d:99:d4:8b:06:de:07:27:1a:5e:
                    4b:97:5c:6f:10:00:f0:95:3c:4a:a9:49:90:b6:e6:
                    01:02:75:db:7f:b6:88:5f:0c:f3:07:c0:26:07:ba:
                    4a:ce:37:68:76:41:f1:7b:7b:81:8c:0a:a7:9f:a7:
                    35:54:b1:cd:73:31:65:04:4c:6d:be:a2:d3:18:16:
                    d2:1e:c2:d1:51:9a:73:c3:41:a9:a6:e2:77:32:39:
                    55:3b:4e:40:c7:64:c7:db:26:b5:6d:6e:c7:18:9f:
                    8c:43:6c:4d:80:f4:9c:af:24:e9:52:3f:bb:0b:95:
                    8c:b0:4c:f8:fc:81:f6:61:41:42:d1:9f:49:b8:9e:
                    89:29:1a:2b:0d:a5:19:3b:3a:4e:13:fc:10:ac:b0:
                    bd:73
                Exponent: 65537 (0x10001)
        X509v3 extensions:
            X509v3 Basic Constraints: critical
                CA:FALSE
            X509v3 CRL Distribution Points: 
                Full Name:
                  URI:http://localhost:12001/file/0/ch1_ta4_crl.pem
            X509v3 Subject Key Identifier: 
                B2:A6:24:C5:29:41:AB:E9:94:03:A7:31:B3:0B:55:DF:8B:0E:EF:C3
            X509v3 Authority Key Identifier: 
                3C:21:78:84:F9:73:24:3A:7F:39:6C:DF:92:A8:F4:37:30:5E:47:09
    Signature Algorithm: sha256WithRSAEncryption
    Signature Value:
        72:77:4b:0e:5e:e9:ff:23:08:e6:04:30:f6:89:70:05:7d:b8:
        03:d4:33:38:25:ab:0a:bd:dd:fa:9f:21:d2:bd:b7:f6:01:8a:
        ee:2b:45:55:2c:2e:90:38:71:43:db:14:51:42:fb:04:b6:4b:
        67:a7:be:d6:cc:8e:22:9f:12:a2:28:0c:bc:f1:f4:a3:fc:6a:
        66:c0:7c:b9:26:ed:1b:d1:2f:22:c2:d0:50:85:36:9d:b7:5d:
        9e:dc:1b:ad:23:cd:a9:83:81:35:91:0f:b3:df:64:bb:1b:a9:
        c8:d3:82:94:b0:ad:1a:06:4c:de:fc:53:0a:e5:15:a5:25:07:
        8a:3f:0f:49:56:e7:66:b8:7d:bc:db:7d:44:29:02:cd:99:e0:
        c5:b4:c3:5d:49:04:1c:b5:51:f3:15:00:02:d4:07:c9:77:46:
        7e:28:47:aa:8a:37:7f:17:27:b0:6c:41:db:bb:51:49:78:82:
        23:1e:c7:38:61:92:db:fc:a9:3f:1a:1a:53:08:14:bc:9e:f9:
        f0:e7:e3:df:59:68:39:c2:a4:2b:0d:bd:60:05:ab:5a:39:c7:
        1f:70:6d:74:58:57:36:e0:a6:2d:08:37:cb:79:49:ba:ef:86:
        67:27:f8:92:7e:93:d2:72:4b:7c:fb:e3:be:df:63:c8:6d:de:
        a3:04:b5:84
-----BEGIN CERTIFICATE-----
MIID9zCCAt+gAwIBAgIBJDANBgkqhkiG9w0BAQsFADBxMQswCQYDVQQGEwJVUzET
MBEGA1UECAwKQ2FsaWZvcm5pYTEUMBIGA1UEBwwLU2FudGEgQ2xhcmExDTALBgNV
BAoMBHBrZzUxEDAOBgNVBAMMB2NoMV90YTQxFjAUBgkqhkiG9w0BCQEWB2NoMV90
YTQwHhcNMjMxMDI0MjE0MzExWhcNMjYwNzIwMjE0MzExWjB5MQswCQYDVQQGEwJV
UzETMBEGA1UECAwKQ2FsaWZvcm5pYTEUMBIGA1UEBwwLU2FudGEgQ2xhcmExDTAL
BgNVBAoMBHBrZzUxFDASBgNVBAMMC2NzMV9jaDFfdGE0MRowGAYJKoZIhvcNAQkB
FgtjczFfY2gxX3RhNDCCASIwDQYJKoZIhvcNAQEBBQADggEPADCCAQoCggEBALhm
GoCTYgGUgfEe6urqT/Sc20MClMuBQH/ZcXrbqzTV3s4pTD6sAoQxycJEeDzsNdIS
06NSroDZA5XfGHKAVi16rdRFDI80kbuLZ1O1Dyf+zDMrhZvrTTcPbct50WXPh4zY
3epW5JVeh0Xrals9mdSLBt4HJxpeS5dcbxAA8JU8SqlJkLbmAQJ123+2iF8M8wfA
Jge6Ss43aHZB8Xt7gYwKp5+nNVSxzXMxZQRMbb6i0xgW0h7C0VGac8NBqabidzI5
VTtOQMdkx9smtW1uxxifjENsTYD0nK8k6VI/uwuVjLBM+PyB9mFBQtGfSbieiSka
Kw2lGTs6ThP8EKywvXMCAwEAAaOBkTCBjjAMBgNVHRMBAf8EAjAAMD4GA1UdHwQ3
MDUwM6AxoC+GLWh0dHA6Ly9sb2NhbGhvc3Q6MTIwMDEvZmlsZS8wL2NoMV90YTRf
Y3JsLnBlbTAdBgNVHQ4EFgQUsqYkxSlBq+mUA6cxswtV34sO78MwHwYDVR0jBBgw
FoAUPCF4hPlzJDp/OWzfkqj0NzBeRwkwDQYJKoZIhvcNAQELBQADggEBAHJ3Sw5e
6f8jCOYEMPaJcAV9uAPUMzglqwq93fqfIdK9t/YBiu4rRVUsLpA4cUPbFFFC+wS2
S2envtbMjiKfEqIoDLzx9KP8ambAfLkm7RvRLyLC0FCFNp23XZ7cG60jzamDgTWR
D7PfZLsbqcjTgpSwrRoGTN78UwrlFaUlB4o/D0lW52a4fbzbfUQpAs2Z4MW0w11J
BBy1UfMVAALUB8l3Rn4oR6qKN38XJ7BsQdu7UUl4giMexzhhktv8qT8aGlMIFLye
+fDn499ZaDnCpCsNvWAFq1o5xx9wbXRYVzbgpi0IN8t5Sbrvhmcn+JJ+k9JyS3z7
477fY8ht3qMEtYQ=
-----END CERTIFICATE-----
