Certificate:
    Data:
        Version: 3 (0x2)
        Serial Number: 36 (0x24)
        Signature Algorithm: sha256WithRSAEncryption
        Issuer: C=US, ST=California, L=Santa Clara, O=pkg5, CN=ch1_ta4/emailAddress=ch1_ta4
        Validity
            Not Before: Nov 17 23:01:32 2020 GMT
            Not After : Aug 14 23:01:32 2023 GMT
        Subject: C=US, ST=California, L=Santa Clara, O=pkg5, CN=cs1_ch1_ta4/emailAddress=cs1_ch1_ta4
        Subject Public Key Info:
            Public Key Algorithm: rsaEncryption
                RSA Public-Key: (1024 bit)
                Modulus:
                    00:ba:62:14:e8:64:7b:54:2e:c4:4d:2d:be:2e:86:
                    7c:50:ac:e4:9e:cb:42:14:f2:8f:f6:20:1c:da:5d:
                    41:2e:6f:ff:5a:ef:0a:68:45:8e:66:30:e4:b3:e3:
                    e7:b4:58:d6:11:47:ef:09:08:69:22:f5:45:69:aa:
                    57:99:b7:dc:74:6e:d7:b6:5e:8f:de:40:6d:45:7d:
                    16:26:83:7f:0d:e2:af:1d:df:d8:fd:2a:05:72:59:
                    b1:b1:9a:5c:4e:32:57:14:dd:80:5b:23:4b:54:88:
                    7a:1d:02:35:07:66:cc:94:f9:f7:58:9a:9f:fe:14:
                    92:64:45:34:a7:50:93:94:65
                Exponent: 65537 (0x10001)
        X509v3 extensions:
            X509v3 Basic Constraints: critical
                CA:FALSE
            X509v3 CRL Distribution Points: 

                Full Name:
                  URI:http://localhost:12001/file/0/ch1_ta4_crl.pem

    Signature Algorithm: sha256WithRSAEncryption
         95:66:c2:44:76:a5:37:4e:1c:5e:dd:0e:00:dd:95:aa:7e:2e:
         e0:95:99:a5:86:c8:88:ee:aa:f7:83:6e:fd:17:d6:08:2d:46:
         f4:50:95:b3:74:79:af:12:93:b8:aa:0c:69:de:10:c2:42:60:
         b4:81:66:0c:3b:50:dd:e4:d7:bf:2f:84:e4:52:99:2c:67:ea:
         54:6d:74:9c:8a:67:25:a0:50:f6:3b:8a:a3:c8:c7:d8:fb:65:
         1c:5a:24:a5:76:83:7a:36:d9:19:3e:9f:44:29:06:f0:d6:d6:
         9a:51:87:e0:af:a9:60:29:08:42:a7:a0:76:c2:48:61:80:8f:
         52:b6:f6:a0:ad:67:95:81:00:bf:51:09:5a:72:70:94:af:a4:
         56:47:d1:cd:19:3d:d2:dc:c1:bf:5b:16:6f:ee:0b:bd:7a:a5:
         5a:e1:eb:0e:c6:60:fd:43:1a:fc:95:2d:b1:de:94:4d:0b:43:
         2a:f1:8a:ef:34:e5:53:3f:e2:b3:97:ea:4f:8a:91:b3:70:26:
         c9:79:8b:a9:2f:cb:3a:2f:7f:e5:ba:4a:98:05:a2:59:11:a3:
         f5:91:a4:29:b7:f5:ff:f6:97:bd:8e:fa:64:75:14:23:b1:c7:
         d0:b3:58:1d:8a:8e:cb:24:4b:78:6b:e6:06:57:8b:6f:8e:c4:
         0f:e0:77:ad
-----BEGIN CERTIFICATE-----
MIIDMTCCAhmgAwIBAgIBJDANBgkqhkiG9w0BAQsFADBxMQswCQYDVQQGEwJVUzET
MBEGA1UECAwKQ2FsaWZvcm5pYTEUMBIGA1UEBwwLU2FudGEgQ2xhcmExDTALBgNV
BAoMBHBrZzUxEDAOBgNVBAMMB2NoMV90YTQxFjAUBgkqhkiG9w0BCQEWB2NoMV90
YTQwHhcNMjAxMTE3MjMwMTMyWhcNMjMwODE0MjMwMTMyWjB5MQswCQYDVQQGEwJV
UzETMBEGA1UECAwKQ2FsaWZvcm5pYTEUMBIGA1UEBwwLU2FudGEgQ2xhcmExDTAL
BgNVBAoMBHBrZzUxFDASBgNVBAMMC2NzMV9jaDFfdGE0MRowGAYJKoZIhvcNAQkB
FgtjczFfY2gxX3RhNDCBnzANBgkqhkiG9w0BAQEFAAOBjQAwgYkCgYEAumIU6GR7
VC7ETS2+LoZ8UKzknstCFPKP9iAc2l1BLm//Wu8KaEWOZjDks+PntFjWEUfvCQhp
IvVFaapXmbfcdG7Xtl6P3kBtRX0WJoN/DeKvHd/Y/SoFclmxsZpcTjJXFN2AWyNL
VIh6HQI1B2bMlPn3WJqf/hSSZEU0p1CTlGUCAwEAAaNQME4wDAYDVR0TAQH/BAIw
ADA+BgNVHR8ENzA1MDOgMaAvhi1odHRwOi8vbG9jYWxob3N0OjEyMDAxL2ZpbGUv
MC9jaDFfdGE0X2NybC5wZW0wDQYJKoZIhvcNAQELBQADggEBAJVmwkR2pTdOHF7d
DgDdlap+LuCVmaWGyIjuqveDbv0X1ggtRvRQlbN0ea8Sk7iqDGneEMJCYLSBZgw7
UN3k178vhORSmSxn6lRtdJyKZyWgUPY7iqPIx9j7ZRxaJKV2g3o22Rk+n0QpBvDW
1ppRh+CvqWApCEKnoHbCSGGAj1K29qCtZ5WBAL9RCVpycJSvpFZH0c0ZPdLcwb9b
Fm/uC716pVrh6w7GYP1DGvyVLbHelE0LQyrxiu805VM/4rOX6k+KkbNwJsl5i6kv
yzovf+W6SpgFolkRo/WRpCm39f/2l72O+mR1FCOxx9CzWB2KjsskS3hr5gZXi2+O
xA/gd60=
-----END CERTIFICATE-----
