Certificate:
    Data:
        Version: 3 (0x2)
        Serial Number: 37 (0x25)
    Signature Algorithm: sha256WithRSAEncryption
        Issuer: C=US, ST=California, L=Santa Clara, O=pkg5, CN=ch1_ta4/emailAddress=ch1_ta4
        Validity
            Not Before: Nov 16 10:58:50 2017 GMT
            Not After : Aug 12 10:58:50 2020 GMT
        Subject: C=US, ST=California, L=Santa Clara, O=pkg5, CN=cs2_ch1_ta4/emailAddress=cs2_ch1_ta4
        Subject Public Key Info:
            Public Key Algorithm: rsaEncryption
                Public-Key: (1024 bit)
                Modulus:
                    00:de:82:42:79:31:69:eb:8b:6c:60:e7:b4:41:e4:
                    d0:c5:bd:8b:e3:1d:fa:c6:ea:cb:c1:17:4e:0d:75:
                    5f:b2:ed:a0:0c:8c:00:d3:eb:26:ee:6a:7d:97:85:
                    d0:48:88:50:fb:b8:69:d6:47:3b:c5:ed:0f:25:e0:
                    ea:6e:cf:dd:5f:13:9b:4b:b3:03:58:70:55:2e:32:
                    4b:9a:98:32:fa:fb:66:31:1f:de:88:43:0b:3c:59:
                    42:4b:6e:5a:6d:aa:6c:cd:e5:59:70:82:05:92:43:
                    17:4f:eb:e7:8e:5f:91:de:2a:5f:3d:fb:20:9f:a4:
                    a9:97:18:d6:94:00:42:6b:69
                Exponent: 65537 (0x10001)
        X509v3 extensions:
            X509v3 Subject Key Identifier: 
                16:E0:17:FD:96:5C:48:1C:7F:BF:20:3C:FE:2A:27:6F:90:49:49:35
            X509v3 Authority Key Identifier: 
                keyid:C0:4C:8E:76:A5:28:E7:6F:54:02:24:4F:C1:2E:BF:43:BE:42:82:6A
                DirName:/C=US/ST=California/L=Santa Clara/O=pkg5/CN=ta4/emailAddress=ta4
                serial:23

            X509v3 Basic Constraints: critical
                CA:FALSE
            X509v3 CRL Distribution Points: 

                Full Name:
                  URI:http://localhost:12001/file/0/example_file

    Signature Algorithm: sha256WithRSAEncryption
         60:42:38:ee:82:9e:66:d5:4e:4b:a5:46:6f:11:a1:78:92:bb:
         59:9a:13:9f:7e:cd:f4:aa:5b:f3:57:c1:37:46:5e:df:bc:21:
         25:87:55:65:06:a7:9b:1c:56:f4:64:72:d3:7d:8a:30:7a:48:
         27:38:b6:ab:9a:82:2e:d3:3f:66:c3:a0:87:86:e8:bc:22:98:
         53:d6:5d:7c:75:11:24:bb:3b:05:92:8b:6c:c4:d2:2e:ea:dd:
         0e:0d:37:f0:48:d1:80:fc:38:1a:bb:a9:4e:36:3c:02:cd:81:
         6b:cb:58:81:d0:f9:a7:52:1c:d1:07:df:2b:ab:87:46:c1:82:
         17:b9:2e:2d:b4:e3:6e:10:80:79:a3:bc:de:cc:c0:b8:50:c7:
         55:a7:25:44:cf:79:bb:75:7e:45:dd:10:90:ea:30:1d:6b:15:
         f4:7a:b8:b5:8d:44:87:27:8a:cb:0f:1b:8d:36:de:2e:1b:f0:
         e9:9f:12:be:28:54:7a:e6:78:5d:c9:6a:01:a2:a5:ff:e3:43:
         f1:32:9f:27:2a:8f:8f:83:6f:c4:1a:fb:8e:6b:f8:28:14:8c:
         03:7d:73:d6:4c:8b:97:09:b0:d0:df:46:65:56:cd:1a:15:cb:
         01:3b:f7:2b:5f:72:8e:2b:81:fe:ad:0b:72:55:84:66:e3:d9:
         5e:53:aa:37
-----BEGIN CERTIFICATE-----
MIID5zCCAs+gAwIBAgIBJTANBgkqhkiG9w0BAQsFADBxMQswCQYDVQQGEwJVUzET
MBEGA1UECAwKQ2FsaWZvcm5pYTEUMBIGA1UEBwwLU2FudGEgQ2xhcmExDTALBgNV
BAoMBHBrZzUxEDAOBgNVBAMMB2NoMV90YTQxFjAUBgkqhkiG9w0BCQEWB2NoMV90
YTQwHhcNMTcxMTE2MTA1ODUwWhcNMjAwODEyMTA1ODUwWjB5MQswCQYDVQQGEwJV
UzETMBEGA1UECAwKQ2FsaWZvcm5pYTEUMBIGA1UEBwwLU2FudGEgQ2xhcmExDTAL
BgNVBAoMBHBrZzUxFDASBgNVBAMMC2NzMl9jaDFfdGE0MRowGAYJKoZIhvcNAQkB
FgtjczJfY2gxX3RhNDCBnzANBgkqhkiG9w0BAQEFAAOBjQAwgYkCgYEA3oJCeTFp
64tsYOe0QeTQxb2L4x36xurLwRdODXVfsu2gDIwA0+sm7mp9l4XQSIhQ+7hp1kc7
xe0PJeDqbs/dXxObS7MDWHBVLjJLmpgy+vtmMR/eiEMLPFlCS25abapszeVZcIIF
kkMXT+vnjl+R3ipfPfsgn6SplxjWlABCa2kCAwEAAaOCAQQwggEAMB0GA1UdDgQW
BBQW4Bf9llxIHH+/IDz+KidvkElJNTCBkwYDVR0jBIGLMIGIgBTATI52pSjnb1QC
JE/BLr9DvkKCaqFtpGswaTELMAkGA1UEBhMCVVMxEzARBgNVBAgMCkNhbGlmb3Ju
aWExFDASBgNVBAcMC1NhbnRhIENsYXJhMQ0wCwYDVQQKDARwa2c1MQwwCgYDVQQD
DAN0YTQxEjAQBgkqhkiG9w0BCQEWA3RhNIIBIzAMBgNVHRMBAf8EAjAAMDsGA1Ud
HwQ0MDIwMKAuoCyGKmh0dHA6Ly9sb2NhbGhvc3Q6MTIwMDEvZmlsZS8wL2V4YW1w
bGVfZmlsZTANBgkqhkiG9w0BAQsFAAOCAQEAYEI47oKeZtVOS6VGbxGheJK7WZoT
n37N9Kpb81fBN0Ze37whJYdVZQanmxxW9GRy032KMHpIJzi2q5qCLtM/ZsOgh4bo
vCKYU9ZdfHURJLs7BZKLbMTSLurdDg038EjRgPw4GrupTjY8As2Ba8tYgdD5p1Ic
0QffK6uHRsGCF7kuLbTjbhCAeaO83szAuFDHVaclRM95u3V+Rd0QkOowHWsV9Hq4
tY1EhyeKyw8bjTbeLhvw6Z8SvihUeuZ4XclqAaKl/+ND8TKfJyqPj4NvxBr7jmv4
KBSMA31z1kyLlwmw0N9GZVbNGhXLATv3K19yjiuB/q0LclWEZuPZXlOqNw==
-----END CERTIFICATE-----
