Certificate:
    Data:
        Version: 3 (0x2)
        Serial Number: 37 (0x25)
        Signature Algorithm: sha256WithRSAEncryption
        Issuer: C=US, ST=California, L=Santa Clara, O=pkg5, CN=ch1_ta4/emailAddress=ch1_ta4
        Validity
            Not Before: Nov 17 23:01:32 2020 GMT
            Not After : Aug 14 23:01:32 2023 GMT
        Subject: C=US, ST=California, L=Santa Clara, O=pkg5, CN=cs2_ch1_ta4/emailAddress=cs2_ch1_ta4
        Subject Public Key Info:
            Public Key Algorithm: rsaEncryption
                RSA Public-Key: (1024 bit)
                Modulus:
                    00:d8:3e:f1:60:3f:bb:68:76:41:5e:e9:1a:08:fe:
                    12:e6:48:54:be:eb:f0:9c:c5:e8:4c:61:79:32:38:
                    7f:c0:e6:a0:4b:89:20:90:4b:46:fa:a1:cc:e0:f2:
                    24:68:ef:26:77:f2:bf:e1:ce:f8:1c:35:b9:d6:21:
                    70:47:8f:3a:a4:57:d5:d4:06:69:6e:46:ad:e8:24:
                    88:ef:d8:06:54:dc:00:32:4e:72:04:79:61:26:42:
                    b5:3f:11:a9:2c:c1:72:88:82:5f:78:9e:96:50:cc:
                    cd:1a:1f:9c:8c:e8:a0:6d:4c:74:dc:04:bc:93:57:
                    56:00:bf:ce:ec:ea:2f:d1:51
                Exponent: 65537 (0x10001)
        X509v3 extensions:
            X509v3 Subject Key Identifier: 
                3E:95:FE:12:9D:EA:D3:FB:F1:46:A1:32:E6:42:59:D4:A4:4E:24:08
            X509v3 Authority Key Identifier: 
                keyid:4D:C3:CC:FA:8F:0C:80:D1:BA:40:87:98:39:1E:5A:2D:5C:9B:07:13
                DirName:/C=US/ST=California/L=Santa Clara/O=pkg5/CN=ta4/emailAddress=ta4
                serial:23

            X509v3 Basic Constraints: critical
                CA:FALSE
            X509v3 CRL Distribution Points: 

                Full Name:
                  URI:http://localhost:12001/file/0/example_file

    Signature Algorithm: sha256WithRSAEncryption
         bb:0f:88:ae:c1:27:f0:34:88:a5:f1:e0:6a:43:f0:15:4b:32:
         6d:cc:a1:33:5a:e0:76:18:e5:a4:0e:6a:f0:c7:ed:79:c5:0f:
         ae:ef:3b:44:9f:10:cc:05:7e:b8:6d:ba:6e:c2:ef:3e:2c:4e:
         20:e9:7b:6c:de:fb:7a:7e:3f:0a:44:1b:7e:c5:a5:6c:e1:dd:
         5d:98:f5:71:e6:0c:8e:2c:72:64:c6:7e:c3:22:ab:8d:b1:32:
         d7:e7:dd:9d:02:92:fb:c5:e4:9d:65:ac:de:94:cd:ef:df:6e:
         27:9a:08:e6:89:aa:36:0e:02:e7:f3:e8:5a:3a:30:d3:96:98:
         85:80:81:f4:4b:7e:f8:89:4e:48:45:a5:79:1e:cf:ce:76:c0:
         a0:3b:3c:36:57:25:29:79:67:7e:2d:30:07:8f:48:fa:84:c1:
         45:85:11:07:90:59:0d:67:1e:a2:c0:b1:b8:8b:49:c3:0f:a8:
         43:1a:33:c1:87:e2:dd:47:c1:78:9d:c3:f5:23:4f:8f:b9:29:
         7f:0f:7f:ba:b8:a7:21:d4:bf:85:f6:3e:00:72:97:d7:fa:21:
         03:13:45:e2:11:45:2c:b7:70:a3:a0:52:58:38:c5:5e:4a:e1:
         2d:11:22:63:71:7b:f7:54:24:b5:a8:e3:22:cb:e0:fe:ce:40:
         b2:29:2a:de
-----BEGIN CERTIFICATE-----
MIID5zCCAs+gAwIBAgIBJTANBgkqhkiG9w0BAQsFADBxMQswCQYDVQQGEwJVUzET
MBEGA1UECAwKQ2FsaWZvcm5pYTEUMBIGA1UEBwwLU2FudGEgQ2xhcmExDTALBgNV
BAoMBHBrZzUxEDAOBgNVBAMMB2NoMV90YTQxFjAUBgkqhkiG9w0BCQEWB2NoMV90
YTQwHhcNMjAxMTE3MjMwMTMyWhcNMjMwODE0MjMwMTMyWjB5MQswCQYDVQQGEwJV
UzETMBEGA1UECAwKQ2FsaWZvcm5pYTEUMBIGA1UEBwwLU2FudGEgQ2xhcmExDTAL
BgNVBAoMBHBrZzUxFDASBgNVBAMMC2NzMl9jaDFfdGE0MRowGAYJKoZIhvcNAQkB
FgtjczJfY2gxX3RhNDCBnzANBgkqhkiG9w0BAQEFAAOBjQAwgYkCgYEA2D7xYD+7
aHZBXukaCP4S5khUvuvwnMXoTGF5Mjh/wOagS4kgkEtG+qHM4PIkaO8md/K/4c74
HDW51iFwR486pFfV1AZpbkat6CSI79gGVNwAMk5yBHlhJkK1PxGpLMFyiIJfeJ6W
UMzNGh+cjOigbUx03AS8k1dWAL/O7Oov0VECAwEAAaOCAQQwggEAMB0GA1UdDgQW
BBQ+lf4SnerT+/FGoTLmQlnUpE4kCDCBkwYDVR0jBIGLMIGIgBRNw8z6jwyA0bpA
h5g5HlotXJsHE6FtpGswaTELMAkGA1UEBhMCVVMxEzARBgNVBAgMCkNhbGlmb3Ju
aWExFDASBgNVBAcMC1NhbnRhIENsYXJhMQ0wCwYDVQQKDARwa2c1MQwwCgYDVQQD
DAN0YTQxEjAQBgkqhkiG9w0BCQEWA3RhNIIBIzAMBgNVHRMBAf8EAjAAMDsGA1Ud
HwQ0MDIwMKAuoCyGKmh0dHA6Ly9sb2NhbGhvc3Q6MTIwMDEvZmlsZS8wL2V4YW1w
bGVfZmlsZTANBgkqhkiG9w0BAQsFAAOCAQEAuw+IrsEn8DSIpfHgakPwFUsybcyh
M1rgdhjlpA5q8MftecUPru87RJ8QzAV+uG26bsLvPixOIOl7bN77en4/CkQbfsWl
bOHdXZj1ceYMjixyZMZ+wyKrjbEy1+fdnQKS+8XknWWs3pTN799uJ5oI5omqNg4C
5/PoWjow05aYhYCB9Et++IlOSEWleR7PznbAoDs8NlclKXlnfi0wB49I+oTBRYUR
B5BZDWceosCxuItJww+oQxozwYfi3UfBeJ3D9SNPj7kpfw9/urinIdS/hfY+AHKX
1/ohAxNF4hFFLLdwo6BSWDjFXkrhLREiY3F791QktajjIsvg/s5Asikq3g==
-----END CERTIFICATE-----
