Certificate:
    Data:
        Version: 3 (0x2)
        Serial Number: 37 (0x25)
        Signature Algorithm: sha256WithRSAEncryption
        Issuer: C=US, ST=California, L=Santa Clara, O=pkg5, CN=ch1_ta4/emailAddress=ch1_ta4
        Validity
            Not Before: Dec 15 15:37:29 2022 GMT
            Not After : Sep 10 15:37:29 2025 GMT
        Subject: C=US, ST=California, L=Santa Clara, O=pkg5, CN=cs2_ch1_ta4/emailAddress=cs2_ch1_ta4
        Subject Public Key Info:
            Public Key Algorithm: rsaEncryption
                Public-Key: (2048 bit)
                Modulus:
                    00:9a:aa:9e:12:49:1c:8f:61:c6:a9:71:38:5d:10:
                    7c:65:c8:1d:ed:84:d6:cb:4c:ac:3a:f5:c0:af:11:
                    66:2d:26:9b:6b:13:9a:7e:d7:9d:6a:00:34:46:52:
                    d5:6d:ce:1c:da:4f:0e:b6:63:0e:8b:6a:27:04:da:
                    5c:75:24:84:d4:6c:46:35:6a:39:78:af:11:0b:8b:
                    2a:dd:62:38:a4:b6:7d:e8:98:60:09:b0:80:47:1b:
                    f6:06:39:2e:ab:5e:99:22:aa:98:9a:04:34:88:ce:
                    4f:c3:92:b9:5e:b4:04:52:54:7d:e9:4d:06:41:4e:
                    7e:01:2a:12:79:24:a4:28:82:55:be:c8:a9:60:04:
                    00:75:a2:13:77:45:26:1a:11:7a:94:c9:d4:b9:07:
                    d0:9d:e0:ee:ff:76:77:c6:e5:c9:2a:c2:27:5f:30:
                    d3:e2:2b:2e:0b:b1:1c:37:72:fc:9f:b0:3e:31:7c:
                    75:ce:5e:82:c3:d2:13:0f:e4:11:0d:3d:90:86:ee:
                    f6:d2:23:c0:6a:a2:7e:c6:bf:b2:0f:8f:50:5d:2e:
                    a2:b8:7e:ac:e0:fd:73:bc:19:b2:6f:0e:dd:f8:a8:
                    48:ad:ec:88:f6:a7:67:6d:b8:c0:19:0d:47:a0:e2:
                    62:48:78:fb:12:e5:a3:07:6c:d9:c4:97:36:ca:75:
                    e9:a9
                Exponent: 65537 (0x10001)
        X509v3 extensions:
            X509v3 Subject Key Identifier: 
                79:22:A8:19:15:9A:36:D2:68:C8:0F:A4:E1:37:0B:99:74:39:68:43
            X509v3 Authority Key Identifier: 
                keyid:BC:89:23:C0:1A:53:7D:34:1E:E8:72:E2:9A:95:BE:39:0D:B5:6B:5D
                DirName:/C=US/ST=California/L=Santa Clara/O=pkg5/CN=ta4/emailAddress=ta4
                serial:23
            X509v3 Basic Constraints: critical
                CA:FALSE
            X509v3 CRL Distribution Points: 
                Full Name:
                  URI:http://localhost:12001/file/0/example_file
    Signature Algorithm: sha256WithRSAEncryption
    Signature Value:
        84:e0:77:cd:8f:f2:47:61:bd:a5:00:a6:f8:a4:d9:1f:58:53:
        e8:78:da:83:34:ce:61:89:1d:b4:84:be:2c:77:a8:01:61:8e:
        2f:a9:19:39:f7:c0:43:cd:79:9f:e4:97:f1:92:7a:d1:77:6a:
        7a:e6:c5:96:96:c8:3a:a5:f1:01:39:5e:92:6b:53:4a:57:9a:
        a3:be:1e:03:da:6b:5d:19:08:a0:76:c1:23:3a:0c:39:75:d1:
        a6:63:36:d6:01:b6:ed:e4:16:15:9d:b8:33:03:c6:fb:fa:7e:
        9b:b6:d6:39:aa:d2:71:f5:bf:3b:1e:21:0c:d7:67:83:90:07:
        df:7c:92:a4:7b:bd:37:2b:13:3e:8c:21:ae:e2:08:b2:56:eb:
        c6:2d:6e:04:cf:ad:18:a2:02:fb:7f:60:e4:a2:84:c1:59:9b:
        19:89:f1:42:56:07:98:40:11:9f:c1:41:12:8a:eb:f3:60:62:
        4f:18:57:0a:2a:12:64:ae:4f:ac:c7:06:42:c5:b8:8e:a3:40:
        f4:eb:26:94:a4:f6:3a:12:99:93:68:20:4f:a6:ce:61:9f:93:
        c3:0b:f7:58:ad:6d:c5:ac:fe:b7:cf:ee:0e:14:e8:72:1e:c8:
        0c:96:82:64:c2:ca:b9:4d:3b:39:52:1a:fe:81:6c:05:ea:25:
        0b:66:e6:98
-----BEGIN CERTIFICATE-----
MIIEazCCA1OgAwIBAgIBJTANBgkqhkiG9w0BAQsFADBxMQswCQYDVQQGEwJVUzET
MBEGA1UECAwKQ2FsaWZvcm5pYTEUMBIGA1UEBwwLU2FudGEgQ2xhcmExDTALBgNV
BAoMBHBrZzUxEDAOBgNVBAMMB2NoMV90YTQxFjAUBgkqhkiG9w0BCQEWB2NoMV90
YTQwHhcNMjIxMjE1MTUzNzI5WhcNMjUwOTEwMTUzNzI5WjB5MQswCQYDVQQGEwJV
UzETMBEGA1UECAwKQ2FsaWZvcm5pYTEUMBIGA1UEBwwLU2FudGEgQ2xhcmExDTAL
BgNVBAoMBHBrZzUxFDASBgNVBAMMC2NzMl9jaDFfdGE0MRowGAYJKoZIhvcNAQkB
FgtjczJfY2gxX3RhNDCCASIwDQYJKoZIhvcNAQEBBQADggEPADCCAQoCggEBAJqq
nhJJHI9hxqlxOF0QfGXIHe2E1stMrDr1wK8RZi0mm2sTmn7XnWoANEZS1W3OHNpP
DrZjDotqJwTaXHUkhNRsRjVqOXivEQuLKt1iOKS2feiYYAmwgEcb9gY5LqtemSKq
mJoENIjOT8OSuV60BFJUfelNBkFOfgEqEnkkpCiCVb7IqWAEAHWiE3dFJhoRepTJ
1LkH0J3g7v92d8blySrCJ18w0+IrLguxHDdy/J+wPjF8dc5egsPSEw/kEQ09kIbu
9tIjwGqifsa/sg+PUF0uorh+rOD9c7wZsm8O3fioSK3siPanZ224wBkNR6DiYkh4
+xLlowds2cSXNsp16akCAwEAAaOCAQQwggEAMB0GA1UdDgQWBBR5IqgZFZo20mjI
D6ThNwuZdDloQzCBkwYDVR0jBIGLMIGIgBS8iSPAGlN9NB7ocuKalb45DbVrXaFt
pGswaTELMAkGA1UEBhMCVVMxEzARBgNVBAgMCkNhbGlmb3JuaWExFDASBgNVBAcM
C1NhbnRhIENsYXJhMQ0wCwYDVQQKDARwa2c1MQwwCgYDVQQDDAN0YTQxEjAQBgkq
hkiG9w0BCQEWA3RhNIIBIzAMBgNVHRMBAf8EAjAAMDsGA1UdHwQ0MDIwMKAuoCyG
Kmh0dHA6Ly9sb2NhbGhvc3Q6MTIwMDEvZmlsZS8wL2V4YW1wbGVfZmlsZTANBgkq
hkiG9w0BAQsFAAOCAQEAhOB3zY/yR2G9pQCm+KTZH1hT6HjagzTOYYkdtIS+LHeo
AWGOL6kZOffAQ815n+SX8ZJ60XdqeubFlpbIOqXxATlekmtTSleao74eA9prXRkI
oHbBIzoMOXXRpmM21gG27eQWFZ24MwPG+/p+m7bWOarScfW/Ox4hDNdng5AH33yS
pHu9NysTPowhruIIslbrxi1uBM+tGKIC+39g5KKEwVmbGYnxQlYHmEARn8FBEorr
82BiTxhXCioSZK5PrMcGQsW4jqNA9OsmlKT2OhKZk2ggT6bOYZ+Twwv3WK1txaz+
t8/uDhToch7IDJaCZMLKuU07OVIa/oFsBeolC2bmmA==
-----END CERTIFICATE-----
