Certificate:
    Data:
        Version: 3 (0x2)
        Serial Number: 37 (0x25)
        Signature Algorithm: sha256WithRSAEncryption
        Issuer: C=US, ST=California, L=Santa Clara, O=pkg5, CN=ch1_ta4/emailAddress=ch1_ta4
        Validity
            Not Before: Nov 14 14:26:57 2024 GMT
            Not After : Aug 11 14:26:57 2027 GMT
        Subject: C=US, ST=California, L=Santa Clara, O=pkg5, CN=cs2_ch1_ta4/emailAddress=cs2_ch1_ta4
        Subject Public Key Info:
            Public Key Algorithm: rsaEncryption
                Public-Key: (2048 bit)
                Modulus:
                    00:c8:df:8b:52:d2:47:18:c7:5f:63:2a:65:f1:0f:
                    72:f3:38:b6:1c:6e:45:52:1b:33:b9:c4:9d:c2:32:
                    67:c6:96:9d:0c:43:09:41:ee:3c:97:bd:a9:1d:77:
                    9a:74:03:ec:4c:88:7c:14:1d:da:dc:ad:d8:d4:3e:
                    97:d1:a0:71:c9:0a:51:12:a6:1b:24:11:22:90:ea:
                    e4:8a:ba:cd:24:4c:7b:7e:cb:2d:d5:41:81:94:a7:
                    86:8b:55:03:c1:62:f7:d7:f4:cf:8e:5e:b1:e9:27:
                    65:52:99:d0:01:9e:5f:f1:e3:94:a0:58:26:1e:d0:
                    d9:19:2a:03:c6:23:99:cd:b1:70:61:cf:aa:de:d5:
                    b0:0a:24:65:44:07:a0:59:7a:97:6b:fd:14:b2:3a:
                    c7:bb:a7:59:a1:e6:f3:cd:ba:6a:fb:cd:42:d3:44:
                    f3:2d:df:7c:df:54:b6:e0:2d:06:79:22:56:92:a5:
                    1d:5c:69:4e:ca:b3:44:1e:4c:16:50:45:ed:63:9f:
                    bf:2d:08:10:7a:39:bc:31:87:bd:a7:cf:98:49:61:
                    8c:8b:8a:ce:f8:79:2b:e6:19:dd:d5:81:4d:27:e7:
                    80:af:c7:c3:5b:c7:a2:a0:02:73:61:36:54:06:cf:
                    34:af:7f:29:cc:e4:ef:56:ac:7d:a8:00:0e:3b:9f:
                    b6:19
                Exponent: 65537 (0x10001)
        X509v3 extensions:
            X509v3 Subject Key Identifier: 
                BF:DC:D9:19:8F:2B:7F:78:5B:9F:10:37:20:E9:02:B0:B1:C7:21:FD
            X509v3 Authority Key Identifier: 
                keyid:3E:81:C4:66:D7:17:83:A6:DB:1A:AA:09:6B:22:48:C9:DE:1D:66:AC
                DirName:/C=US/ST=California/L=Santa Clara/O=pkg5/CN=ta4/emailAddress=ta4
                serial:23
            X509v3 Basic Constraints: critical
                CA:FALSE
            X509v3 CRL Distribution Points: 
                Full Name:
                  URI:http://localhost:12001/file/0/example_file
    Signature Algorithm: sha256WithRSAEncryption
    Signature Value:
        4a:b8:d2:27:9a:11:74:6e:52:b5:65:5f:4f:a5:aa:17:ee:74:
        47:53:c8:a4:44:2f:65:90:88:ed:cd:ac:1b:7a:b0:07:72:c0:
        15:a3:dc:85:81:23:83:a5:0b:c3:38:3a:5d:3d:14:b3:93:68:
        53:e9:4c:f5:ac:26:5d:71:a7:c3:d2:8b:aa:65:9f:74:b0:6b:
        c6:c4:4e:d1:f6:45:b3:18:2a:94:2a:d5:9e:8c:66:4d:49:c1:
        cf:f3:98:3b:6b:41:05:7c:1b:bb:1f:69:e5:68:41:b2:c9:a6:
        6e:ae:00:15:57:4f:63:fe:d9:38:40:92:d8:ac:0e:b6:32:18:
        58:9d:62:1c:a9:49:3a:4e:7b:42:66:49:4b:18:a9:42:50:ab:
        77:7b:c5:8d:db:82:10:9b:30:de:da:72:46:1c:c5:a0:fe:b3:
        73:e6:b4:2b:8a:f6:e7:e7:9d:e1:b3:21:e8:d1:94:f1:2d:83:
        e8:a8:50:f6:3f:4d:25:24:85:1d:39:f1:a6:3a:b2:c7:d8:07:
        52:56:d5:2a:f2:2c:8a:7c:7d:20:91:1d:e6:a6:6c:0d:dc:46:
        52:f3:3f:35:15:d7:9c:a8:dd:29:93:85:c8:f2:0f:4b:3f:72:
        ac:da:2c:19:ec:05:7f:1f:9e:0b:2c:da:80:87:e4:48:91:75:
        bf:41:4c:bf
-----BEGIN CERTIFICATE-----
MIIEazCCA1OgAwIBAgIBJTANBgkqhkiG9w0BAQsFADBxMQswCQYDVQQGEwJVUzET
MBEGA1UECAwKQ2FsaWZvcm5pYTEUMBIGA1UEBwwLU2FudGEgQ2xhcmExDTALBgNV
BAoMBHBrZzUxEDAOBgNVBAMMB2NoMV90YTQxFjAUBgkqhkiG9w0BCQEWB2NoMV90
YTQwHhcNMjQxMTE0MTQyNjU3WhcNMjcwODExMTQyNjU3WjB5MQswCQYDVQQGEwJV
UzETMBEGA1UECAwKQ2FsaWZvcm5pYTEUMBIGA1UEBwwLU2FudGEgQ2xhcmExDTAL
BgNVBAoMBHBrZzUxFDASBgNVBAMMC2NzMl9jaDFfdGE0MRowGAYJKoZIhvcNAQkB
FgtjczJfY2gxX3RhNDCCASIwDQYJKoZIhvcNAQEBBQADggEPADCCAQoCggEBAMjf
i1LSRxjHX2MqZfEPcvM4thxuRVIbM7nEncIyZ8aWnQxDCUHuPJe9qR13mnQD7EyI
fBQd2tyt2NQ+l9GgcckKURKmGyQRIpDq5Iq6zSRMe37LLdVBgZSnhotVA8Fi99f0
z45eseknZVKZ0AGeX/HjlKBYJh7Q2RkqA8Yjmc2xcGHPqt7VsAokZUQHoFl6l2v9
FLI6x7unWaHm8826avvNQtNE8y3ffN9UtuAtBnkiVpKlHVxpTsqzRB5MFlBF7WOf
vy0IEHo5vDGHvafPmElhjIuKzvh5K+YZ3dWBTSfngK/Hw1vHoqACc2E2VAbPNK9/
Kczk71asfagADjufthkCAwEAAaOCAQQwggEAMB0GA1UdDgQWBBS/3NkZjyt/eFuf
EDcg6QKwscch/TCBkwYDVR0jBIGLMIGIgBQ+gcRm1xeDptsaqglrIkjJ3h1mrKFt
pGswaTELMAkGA1UEBhMCVVMxEzARBgNVBAgMCkNhbGlmb3JuaWExFDASBgNVBAcM
C1NhbnRhIENsYXJhMQ0wCwYDVQQKDARwa2c1MQwwCgYDVQQDDAN0YTQxEjAQBgkq
hkiG9w0BCQEWA3RhNIIBIzAMBgNVHRMBAf8EAjAAMDsGA1UdHwQ0MDIwMKAuoCyG
Kmh0dHA6Ly9sb2NhbGhvc3Q6MTIwMDEvZmlsZS8wL2V4YW1wbGVfZmlsZTANBgkq
hkiG9w0BAQsFAAOCAQEASrjSJ5oRdG5StWVfT6WqF+50R1PIpEQvZZCI7c2sG3qw
B3LAFaPchYEjg6ULwzg6XT0Us5NoU+lM9awmXXGnw9KLqmWfdLBrxsRO0fZFsxgq
lCrVnoxmTUnBz/OYO2tBBXwbux9p5WhBssmmbq4AFVdPY/7ZOECS2KwOtjIYWJ1i
HKlJOk57QmZJSxipQlCrd3vFjduCEJsw3tpyRhzFoP6zc+a0K4r25+ed4bMh6NGU
8S2D6KhQ9j9NJSSFHTnxpjqyx9gHUlbVKvIsinx9IJEd5qZsDdxGUvM/NRXXnKjd
KZOFyPIPSz9yrNosGewFfx+eCyzagIfkSJF1v0FMvw==
-----END CERTIFICATE-----
