Certificate:
    Data:
        Version: 3 (0x2)
        Serial Number: 38 (0x26)
        Signature Algorithm: sha256WithRSAEncryption
        Issuer: C=US, ST=California, L=Santa Clara, O=pkg5, CN=ch1_ta4/emailAddress=ch1_ta4
        Validity
            Not Before: Nov 17 23:01:32 2020 GMT
            Not After : Aug 14 23:01:32 2023 GMT
        Subject: C=US, ST=California, L=Santa Clara, O=pkg5, CN=cs3_ch1_ta4/emailAddress=cs3_ch1_ta4
        Subject Public Key Info:
            Public Key Algorithm: rsaEncryption
                RSA Public-Key: (1024 bit)
                Modulus:
                    00:ab:3f:8d:85:85:a1:4b:bc:da:09:9e:15:72:7d:
                    c5:09:b3:55:5c:f2:34:62:be:e2:33:9c:4f:95:02:
                    c8:78:30:29:33:18:e5:ca:52:34:10:e7:29:44:99:
                    f4:e5:72:0d:e1:72:fd:e5:56:69:69:68:8c:d3:43:
                    3e:82:99:fa:9d:bd:b7:fd:06:65:4e:21:14:9a:51:
                    a0:17:a1:c1:b6:ef:25:2f:b2:68:60:15:37:37:4f:
                    52:f3:ef:3f:67:c1:a2:5d:62:57:fa:3d:a8:2a:e8:
                    e7:77:65:d9:f2:5d:63:a3:5f:a4:a9:f2:dd:ab:4e:
                    ca:8d:28:3e:07:42:9c:2f:5d
                Exponent: 65537 (0x10001)
        X509v3 extensions:
            X509v3 Subject Key Identifier: 
                E8:1C:BF:E3:F2:54:B6:84:F1:98:DE:52:8F:C6:DB:19:3C:28:9A:D5
            X509v3 Authority Key Identifier: 
                keyid:4D:C3:CC:FA:8F:0C:80:D1:BA:40:87:98:39:1E:5A:2D:5C:9B:07:13
                DirName:/C=US/ST=California/L=Santa Clara/O=pkg5/CN=ta4/emailAddress=ta4
                serial:23

            X509v3 Basic Constraints: critical
                CA:FALSE
            X509v3 CRL Distribution Points: 

                Full Name:
                  URI:foo://bar/baz

    Signature Algorithm: sha256WithRSAEncryption
         3e:ec:0e:ba:32:e0:c6:79:a4:2e:48:1f:58:83:66:a9:da:5e:
         98:5d:cd:0c:fa:f7:e1:f4:ff:e2:88:b4:98:a8:e4:7c:01:22:
         77:e9:51:0f:0f:27:1f:2d:01:eb:ed:dc:db:99:e4:e0:f5:a9:
         df:8a:54:0f:84:45:c5:7d:ac:ad:6e:8b:33:38:a8:62:cd:d8:
         99:5f:e3:76:35:b1:2e:3b:82:1f:5c:00:96:0f:a1:f2:ce:ac:
         73:26:da:47:ce:4c:cd:4a:37:5a:65:47:82:f5:fb:48:be:97:
         3e:62:e8:a7:0f:b0:cf:af:e5:10:0e:15:d6:ad:2d:f2:0e:d9:
         ef:16:c8:d4:d5:e5:3e:41:b0:91:1e:16:b2:b0:3f:16:75:4c:
         df:ef:15:94:8f:b6:71:92:32:28:0c:26:e6:5b:e3:b0:52:80:
         22:25:30:82:97:1e:1f:16:3e:f0:d7:f5:a5:00:4c:44:34:57:
         99:da:85:b6:03:54:21:6a:eb:fb:13:ed:d1:14:e6:3f:37:c4:
         45:c4:41:8b:93:74:25:9b:c4:ad:8e:6d:73:88:71:0f:5b:1f:
         19:5b:7c:e5:88:8d:dd:4a:60:6b:9c:c7:03:bb:59:ec:52:45:
         9e:1d:2e:f4:db:f2:31:a8:b9:6f:ca:02:5f:75:09:4a:19:73:
         7b:50:7f:4a
-----BEGIN CERTIFICATE-----
MIIDyDCCArCgAwIBAgIBJjANBgkqhkiG9w0BAQsFADBxMQswCQYDVQQGEwJVUzET
MBEGA1UECAwKQ2FsaWZvcm5pYTEUMBIGA1UEBwwLU2FudGEgQ2xhcmExDTALBgNV
BAoMBHBrZzUxEDAOBgNVBAMMB2NoMV90YTQxFjAUBgkqhkiG9w0BCQEWB2NoMV90
YTQwHhcNMjAxMTE3MjMwMTMyWhcNMjMwODE0MjMwMTMyWjB5MQswCQYDVQQGEwJV
UzETMBEGA1UECAwKQ2FsaWZvcm5pYTEUMBIGA1UEBwwLU2FudGEgQ2xhcmExDTAL
BgNVBAoMBHBrZzUxFDASBgNVBAMMC2NzM19jaDFfdGE0MRowGAYJKoZIhvcNAQkB
FgtjczNfY2gxX3RhNDCBnzANBgkqhkiG9w0BAQEFAAOBjQAwgYkCgYEAqz+NhYWh
S7zaCZ4Vcn3FCbNVXPI0Yr7iM5xPlQLIeDApMxjlylI0EOcpRJn05XIN4XL95VZp
aWiM00M+gpn6nb23/QZlTiEUmlGgF6HBtu8lL7JoYBU3N09S8+8/Z8GiXWJX+j2o
Kujnd2XZ8l1jo1+kqfLdq07KjSg+B0KcL10CAwEAAaOB5jCB4zAdBgNVHQ4EFgQU
6By/4/JUtoTxmN5Sj8bbGTwomtUwgZMGA1UdIwSBizCBiIAUTcPM+o8MgNG6QIeY
OR5aLVybBxOhbaRrMGkxCzAJBgNVBAYTAlVTMRMwEQYDVQQIDApDYWxpZm9ybmlh
MRQwEgYDVQQHDAtTYW50YSBDbGFyYTENMAsGA1UECgwEcGtnNTEMMAoGA1UEAwwD
dGE0MRIwEAYJKoZIhvcNAQkBFgN0YTSCASMwDAYDVR0TAQH/BAIwADAeBgNVHR8E
FzAVMBOgEaAPhg1mb286Ly9iYXIvYmF6MA0GCSqGSIb3DQEBCwUAA4IBAQA+7A66
MuDGeaQuSB9Yg2ap2l6YXc0M+vfh9P/iiLSYqOR8ASJ36VEPDycfLQHr7dzbmeTg
9anfilQPhEXFfaytboszOKhizdiZX+N2NbEuO4IfXACWD6HyzqxzJtpHzkzNSjda
ZUeC9ftIvpc+YuinD7DPr+UQDhXWrS3yDtnvFsjU1eU+QbCRHhaysD8WdUzf7xWU
j7ZxkjIoDCbmW+OwUoAiJTCClx4fFj7w1/WlAExENFeZ2oW2A1Qhauv7E+3RFOY/
N8RFxEGLk3Qlm8Stjm1ziHEPWx8ZW3zliI3dSmBrnMcDu1nsUkWeHS702/IxqLlv
ygJfdQlKGXN7UH9K
-----END CERTIFICATE-----
