Certificate:
    Data:
        Version: 3 (0x2)
        Serial Number: 38 (0x26)
    Signature Algorithm: sha256WithRSAEncryption
        Issuer: C=US, ST=California, L=Santa Clara, O=pkg5, CN=ch1_ta4/emailAddress=ch1_ta4
        Validity
            Not Before: Nov 16 10:58:50 2017 GMT
            Not After : Aug 12 10:58:50 2020 GMT
        Subject: C=US, ST=California, L=Santa Clara, O=pkg5, CN=cs3_ch1_ta4/emailAddress=cs3_ch1_ta4
        Subject Public Key Info:
            Public Key Algorithm: rsaEncryption
                Public-Key: (1024 bit)
                Modulus:
                    00:b4:3a:a4:76:38:4d:c1:d5:d5:0e:eb:85:bf:06:
                    34:98:9a:5c:a0:c0:17:cc:6a:9f:d4:fb:e8:e8:13:
                    58:79:e7:74:c4:84:59:27:c1:e2:a1:6e:41:f4:78:
                    c9:97:e6:69:bb:e9:b3:6c:5b:32:ba:d5:f6:f5:2a:
                    07:95:6e:9b:28:40:76:fd:65:2b:78:4f:02:bd:5b:
                    fa:25:7b:7b:4f:82:7c:d0:2f:6a:f3:f1:f7:75:5b:
                    85:33:68:b7:d9:e6:ca:4f:c7:23:95:3d:89:00:97:
                    ed:97:58:53:1a:ec:b4:8d:d2:10:de:23:64:2e:c0:
                    a6:7d:dc:84:a6:11:09:96:b3
                Exponent: 65537 (0x10001)
        X509v3 extensions:
            X509v3 Subject Key Identifier: 
                5C:D5:23:31:51:48:DC:44:92:01:CE:B8:95:B3:7D:75:9C:77:C9:F6
            X509v3 Authority Key Identifier: 
                keyid:C0:4C:8E:76:A5:28:E7:6F:54:02:24:4F:C1:2E:BF:43:BE:42:82:6A
                DirName:/C=US/ST=California/L=Santa Clara/O=pkg5/CN=ta4/emailAddress=ta4
                serial:23

            X509v3 Basic Constraints: critical
                CA:FALSE
            X509v3 CRL Distribution Points: 

                Full Name:
                  URI:foo://bar/baz

    Signature Algorithm: sha256WithRSAEncryption
         a4:b0:79:f6:76:d5:e8:3a:10:c0:91:a0:25:d9:6e:5c:fa:ed:
         fb:38:5b:52:83:54:03:09:cf:02:75:61:db:4a:06:61:b0:99:
         3d:b9:de:67:56:ff:e4:9b:56:94:11:1f:a8:ff:84:17:13:84:
         06:c3:fb:09:90:c4:75:85:37:42:7c:7b:ed:83:31:c3:46:57:
         e7:83:57:f1:84:7e:da:34:7f:55:0a:fc:d0:4d:e7:31:e2:37:
         c3:ad:34:22:5a:86:15:e7:28:77:e6:b7:08:06:33:49:12:c3:
         68:28:91:60:fd:13:b1:34:de:de:b6:55:79:be:64:1d:54:47:
         ec:50:69:7e:49:42:29:c5:42:e8:50:8f:15:00:a4:9a:69:90:
         8d:19:0b:9c:00:1e:35:59:44:b7:20:05:fb:82:69:d0:91:30:
         35:23:2c:69:75:58:d0:e4:dc:88:fb:8b:2a:15:4c:f4:27:75:
         b3:e2:1a:56:cc:7b:29:ae:6d:53:76:f6:c4:b3:6b:cc:33:e6:
         6b:0c:ca:26:3f:8e:07:f5:9a:ce:55:92:95:e4:dc:95:53:65:
         9b:72:ff:dd:d3:13:25:ca:68:d0:18:0a:e3:ad:f7:a5:fc:29:
         9d:cf:5d:6c:14:6e:46:ab:5a:ca:70:56:01:5e:68:25:f9:02:
         5d:5f:c9:26
-----BEGIN CERTIFICATE-----
MIIDyDCCArCgAwIBAgIBJjANBgkqhkiG9w0BAQsFADBxMQswCQYDVQQGEwJVUzET
MBEGA1UECAwKQ2FsaWZvcm5pYTEUMBIGA1UEBwwLU2FudGEgQ2xhcmExDTALBgNV
BAoMBHBrZzUxEDAOBgNVBAMMB2NoMV90YTQxFjAUBgkqhkiG9w0BCQEWB2NoMV90
YTQwHhcNMTcxMTE2MTA1ODUwWhcNMjAwODEyMTA1ODUwWjB5MQswCQYDVQQGEwJV
UzETMBEGA1UECAwKQ2FsaWZvcm5pYTEUMBIGA1UEBwwLU2FudGEgQ2xhcmExDTAL
BgNVBAoMBHBrZzUxFDASBgNVBAMMC2NzM19jaDFfdGE0MRowGAYJKoZIhvcNAQkB
FgtjczNfY2gxX3RhNDCBnzANBgkqhkiG9w0BAQEFAAOBjQAwgYkCgYEAtDqkdjhN
wdXVDuuFvwY0mJpcoMAXzGqf1Pvo6BNYeed0xIRZJ8HioW5B9HjJl+Zpu+mzbFsy
utX29SoHlW6bKEB2/WUreE8CvVv6JXt7T4J80C9q8/H3dVuFM2i32ebKT8cjlT2J
AJftl1hTGuy0jdIQ3iNkLsCmfdyEphEJlrMCAwEAAaOB5jCB4zAdBgNVHQ4EFgQU
XNUjMVFI3ESSAc64lbN9dZx3yfYwgZMGA1UdIwSBizCBiIAUwEyOdqUo529UAiRP
wS6/Q75CgmqhbaRrMGkxCzAJBgNVBAYTAlVTMRMwEQYDVQQIDApDYWxpZm9ybmlh
MRQwEgYDVQQHDAtTYW50YSBDbGFyYTENMAsGA1UECgwEcGtnNTEMMAoGA1UEAwwD
dGE0MRIwEAYJKoZIhvcNAQkBFgN0YTSCASMwDAYDVR0TAQH/BAIwADAeBgNVHR8E
FzAVMBOgEaAPhg1mb286Ly9iYXIvYmF6MA0GCSqGSIb3DQEBCwUAA4IBAQCksHn2
dtXoOhDAkaAl2W5c+u37OFtSg1QDCc8CdWHbSgZhsJk9ud5nVv/km1aUER+o/4QX
E4QGw/sJkMR1hTdCfHvtgzHDRlfng1fxhH7aNH9VCvzQTecx4jfDrTQiWoYV5yh3
5rcIBjNJEsNoKJFg/ROxNN7etlV5vmQdVEfsUGl+SUIpxULoUI8VAKSaaZCNGQuc
AB41WUS3IAX7gmnQkTA1IyxpdVjQ5NyI+4sqFUz0J3Wz4hpWzHsprm1TdvbEs2vM
M+ZrDMomP44H9ZrOVZKV5NyVU2Wbcv/d0xMlymjQGArjrfel/Cmdz11sFG5Gq1rK
cFYBXmgl+QJdX8km
-----END CERTIFICATE-----
