Certificate:
    Data:
        Version: 3 (0x2)
        Serial Number: 38 (0x26)
        Signature Algorithm: sha256WithRSAEncryption
        Issuer: C=US, ST=California, L=Santa Clara, O=pkg5, CN=ch1_ta4/emailAddress=ch1_ta4
        Validity
            Not Before: May 23 15:47:21 2024 GMT
            Not After : Feb 17 15:47:21 2027 GMT
        Subject: C=US, ST=California, L=Santa Clara, O=pkg5, CN=cs3_ch1_ta4/emailAddress=cs3_ch1_ta4
        Subject Public Key Info:
            Public Key Algorithm: rsaEncryption
                Public-Key: (2048 bit)
                Modulus:
                    00:b4:e5:2e:f7:8a:28:70:ea:55:a5:22:5e:5c:82:
                    05:97:78:69:96:37:0b:38:28:23:d1:b3:9a:ed:df:
                    dd:5d:e5:d0:d3:3f:b2:f5:9f:a7:56:8f:57:90:96:
                    12:a8:22:d9:9e:ee:30:37:a3:80:b6:b1:25:27:3b:
                    11:27:96:c7:01:c5:f1:ca:cd:8d:8a:36:5b:31:cd:
                    c1:97:56:b5:fd:0c:7f:ae:bc:4b:b2:4b:38:bb:b5:
                    3e:d3:df:17:70:eb:bd:5f:5a:70:d5:9f:fc:5f:71:
                    b8:29:8b:83:23:fc:63:c3:46:cc:56:a0:a2:a4:d4:
                    20:53:be:77:ad:a1:2f:d5:8c:c6:08:3e:e5:6a:a6:
                    34:95:7d:e8:69:5d:a8:09:cf:e2:30:62:7e:d6:8a:
                    6f:e6:95:c1:22:ac:50:8b:e0:90:d4:98:ea:1e:b1:
                    4c:ac:fc:1e:a7:36:51:e5:1d:cc:cb:10:6b:00:44:
                    aa:c0:22:82:ee:58:1d:9e:64:99:20:ef:9e:fb:73:
                    6b:10:6c:6b:a2:8b:04:51:08:13:4b:66:7b:35:a0:
                    14:23:18:14:b4:25:35:ae:bf:c5:7e:c5:4b:a0:4c:
                    d1:f9:1a:83:9b:5e:76:99:29:8b:d9:e2:bc:88:28:
                    0d:49:f4:9a:d8:a4:fc:59:2d:83:a6:a1:ab:8c:8f:
                    e0:83
                Exponent: 65537 (0x10001)
        X509v3 extensions:
            X509v3 Subject Key Identifier: 
                22:CE:0C:52:47:EB:8F:DF:CF:EF:22:5B:5F:29:07:92:9E:2D:52:15
            X509v3 Authority Key Identifier: 
                keyid:2B:7C:4F:B9:53:AE:C8:E2:A9:09:D9:F9:BF:4B:7B:29:7B:90:9F:55
                DirName:/C=US/ST=California/L=Santa Clara/O=pkg5/CN=ta4/emailAddress=ta4
                serial:23
            X509v3 Basic Constraints: critical
                CA:FALSE
            X509v3 CRL Distribution Points: 
                Full Name:
                  URI:foo://bar/baz
    Signature Algorithm: sha256WithRSAEncryption
    Signature Value:
        5b:08:f7:0a:52:27:1f:6c:df:aa:a6:67:85:53:80:09:22:d2:
        1d:29:23:b7:89:17:5d:97:a3:bf:1c:ce:03:10:59:e5:8e:e9:
        bc:0d:d8:1f:a7:61:3a:8c:7e:e7:c1:33:a0:82:4c:09:82:2e:
        65:4d:1a:4f:7d:7e:a7:ed:7c:9d:c5:f3:1e:7a:8e:4f:e2:cf:
        1b:07:28:14:d5:0a:97:a4:cb:a7:f5:0b:3a:33:1e:9a:52:0e:
        c3:b1:f6:02:10:9f:fa:8e:dd:6d:ea:57:ee:65:06:cf:d8:07:
        a0:4d:38:20:31:24:92:a8:26:71:78:97:aa:cd:dc:4a:dd:3c:
        b3:0e:90:b5:39:59:e0:bd:f0:ab:90:22:d5:3f:de:b7:fc:e9:
        5f:2f:43:65:f1:5e:0e:58:8c:b5:6b:8b:7f:6e:3f:a2:2f:6d:
        e1:f4:ab:98:fe:f5:fa:d5:a1:ab:39:a8:03:f3:70:fb:10:c7:
        66:11:c8:d8:0e:63:57:7b:8c:c8:c0:60:c4:d5:0c:0f:d5:8f:
        03:29:b6:58:e1:3d:45:4f:07:10:6e:bd:ec:1a:b9:f4:3a:2b:
        ab:f6:bd:ca:ec:09:47:21:1d:25:8e:8e:32:0c:f9:db:9c:4f:
        71:c4:f1:6c:6c:1f:62:54:df:61:4d:1e:0f:db:84:f4:6a:8e:
        f5:27:6f:3a
-----BEGIN CERTIFICATE-----
MIIETDCCAzSgAwIBAgIBJjANBgkqhkiG9w0BAQsFADBxMQswCQYDVQQGEwJVUzET
MBEGA1UECAwKQ2FsaWZvcm5pYTEUMBIGA1UEBwwLU2FudGEgQ2xhcmExDTALBgNV
BAoMBHBrZzUxEDAOBgNVBAMMB2NoMV90YTQxFjAUBgkqhkiG9w0BCQEWB2NoMV90
YTQwHhcNMjQwNTIzMTU0NzIxWhcNMjcwMjE3MTU0NzIxWjB5MQswCQYDVQQGEwJV
UzETMBEGA1UECAwKQ2FsaWZvcm5pYTEUMBIGA1UEBwwLU2FudGEgQ2xhcmExDTAL
BgNVBAoMBHBrZzUxFDASBgNVBAMMC2NzM19jaDFfdGE0MRowGAYJKoZIhvcNAQkB
FgtjczNfY2gxX3RhNDCCASIwDQYJKoZIhvcNAQEBBQADggEPADCCAQoCggEBALTl
LveKKHDqVaUiXlyCBZd4aZY3CzgoI9Gzmu3f3V3l0NM/svWfp1aPV5CWEqgi2Z7u
MDejgLaxJSc7ESeWxwHF8crNjYo2WzHNwZdWtf0Mf668S7JLOLu1PtPfF3DrvV9a
cNWf/F9xuCmLgyP8Y8NGzFagoqTUIFO+d62hL9WMxgg+5WqmNJV96GldqAnP4jBi
ftaKb+aVwSKsUIvgkNSY6h6xTKz8Hqc2UeUdzMsQawBEqsAigu5YHZ5kmSDvnvtz
axBsa6KLBFEIE0tmezWgFCMYFLQlNa6/xX7FS6BM0fkag5tedpkpi9nivIgoDUn0
mtik/Fktg6ahq4yP4IMCAwEAAaOB5jCB4zAdBgNVHQ4EFgQUIs4MUkfrj9/P7yJb
XykHkp4tUhUwgZMGA1UdIwSBizCBiIAUK3xPuVOuyOKpCdn5v0t7KXuQn1WhbaRr
MGkxCzAJBgNVBAYTAlVTMRMwEQYDVQQIDApDYWxpZm9ybmlhMRQwEgYDVQQHDAtT
YW50YSBDbGFyYTENMAsGA1UECgwEcGtnNTEMMAoGA1UEAwwDdGE0MRIwEAYJKoZI
hvcNAQkBFgN0YTSCASMwDAYDVR0TAQH/BAIwADAeBgNVHR8EFzAVMBOgEaAPhg1m
b286Ly9iYXIvYmF6MA0GCSqGSIb3DQEBCwUAA4IBAQBbCPcKUicfbN+qpmeFU4AJ
ItIdKSO3iRddl6O/HM4DEFnljum8Ddgfp2E6jH7nwTOggkwJgi5lTRpPfX6n7Xyd
xfMeeo5P4s8bBygU1QqXpMun9Qs6Mx6aUg7DsfYCEJ/6jt1t6lfuZQbP2AegTTgg
MSSSqCZxeJeqzdxK3TyzDpC1OVngvfCrkCLVP963/OlfL0Nl8V4OWIy1a4t/bj+i
L23h9KuY/vX61aGrOagD83D7EMdmEcjYDmNXe4zIwGDE1QwP1Y8DKbZY4T1FTwcQ
br3sGrn0Oiur9r3K7AlHIR0ljo4yDPnbnE9xxPFsbB9iVN9hTR4P24T0ao71J286
-----END CERTIFICATE-----
