Certificate:
    Data:
        Version: 3 (0x2)
        Serial Number: 38 (0x26)
        Signature Algorithm: sha256WithRSAEncryption
        Issuer: C=US, ST=California, L=Santa Clara, O=pkg5, CN=ch1_ta4/emailAddress=ch1_ta4
        Validity
            Not Before: Nov 14 14:26:57 2024 GMT
            Not After : Aug 11 14:26:57 2027 GMT
        Subject: C=US, ST=California, L=Santa Clara, O=pkg5, CN=cs3_ch1_ta4/emailAddress=cs3_ch1_ta4
        Subject Public Key Info:
            Public Key Algorithm: rsaEncryption
                Public-Key: (2048 bit)
                Modulus:
                    00:ba:26:28:8a:d3:20:0b:98:11:50:d1:83:a1:d2:
                    8d:7f:29:f6:00:0c:a8:6c:c5:77:77:52:c2:40:77:
                    9c:ff:5a:69:e5:20:31:ff:4f:6a:5f:db:a5:50:8a:
                    82:fb:f4:a7:6d:3e:58:28:0e:93:19:28:98:0b:02:
                    49:3e:a9:10:f4:f6:52:72:82:20:6b:97:4f:71:0e:
                    d3:a4:f3:1a:f8:07:4e:80:ee:79:89:4c:7b:72:c9:
                    81:ae:9c:55:c3:9d:50:ee:64:f0:c5:8c:08:9a:b1:
                    e9:7e:e3:c5:56:9d:3e:d9:be:bf:42:18:c8:9f:f4:
                    d8:a2:03:52:9b:ff:4f:8e:1c:9a:c0:13:92:56:3b:
                    74:23:1d:2d:06:63:2c:ce:22:ea:9a:ee:9c:7d:c9:
                    28:6c:c0:ff:a4:c7:9b:80:50:9e:f7:ca:53:a3:9c:
                    52:28:82:b4:f2:86:a7:2e:b2:5e:26:04:66:42:7a:
                    f3:da:be:b3:9e:11:aa:fb:2a:2c:fc:07:10:06:97:
                    0b:14:ef:c7:f2:60:ac:ef:df:4f:2f:db:0d:1f:2a:
                    39:cb:a9:6a:3e:42:f4:28:db:8e:25:b8:2f:45:2b:
                    d1:a7:96:31:39:c5:fb:a4:8f:c5:eb:03:72:78:07:
                    42:d1:f4:99:53:e2:06:88:6b:f9:e7:33:0e:19:ab:
                    8f:c1
                Exponent: 65537 (0x10001)
        X509v3 extensions:
            X509v3 Subject Key Identifier: 
                07:1A:67:C7:5E:C2:BD:A3:B1:E0:31:43:4F:F1:D8:14:0C:32:C4:1B
            X509v3 Authority Key Identifier: 
                keyid:3E:81:C4:66:D7:17:83:A6:DB:1A:AA:09:6B:22:48:C9:DE:1D:66:AC
                DirName:/C=US/ST=California/L=Santa Clara/O=pkg5/CN=ta4/emailAddress=ta4
                serial:23
            X509v3 Basic Constraints: critical
                CA:FALSE
            X509v3 CRL Distribution Points: 
                Full Name:
                  URI:foo://bar/baz
    Signature Algorithm: sha256WithRSAEncryption
    Signature Value:
        a1:2f:a2:45:fa:0d:fe:4e:a9:4b:4f:2f:f7:7c:98:7a:80:36:
        09:e7:51:f3:a3:87:ec:9e:b5:77:bb:d4:0f:b0:4e:b4:50:14:
        5a:38:3a:f1:37:03:0f:95:ea:42:d4:ac:f2:ca:06:6a:b8:fd:
        fe:31:57:ec:57:6c:fc:d2:39:4a:31:6e:41:1c:41:06:a0:75:
        c4:80:0b:e9:f7:45:bf:e3:78:03:a1:50:73:56:c2:30:df:a7:
        0b:a7:96:d2:2d:17:ab:5a:80:95:48:69:f9:dc:d6:83:20:cb:
        3e:34:03:b8:a1:0e:ba:2e:04:7c:ed:8b:35:2b:19:87:28:4a:
        be:3b:83:3c:b4:fa:f7:5c:a3:33:9f:b1:45:e4:40:5e:da:72:
        d0:20:31:6f:94:e4:2c:97:32:47:cd:12:e2:1c:2f:be:f2:5b:
        c3:7e:50:56:76:0e:ff:2e:a1:d5:f3:25:f1:e8:2d:21:12:0a:
        0b:15:d1:bd:e1:5c:e9:06:16:e1:2d:3d:87:5b:12:6f:e4:86:
        87:06:93:25:25:af:54:bf:49:36:98:2a:09:1b:bd:d3:91:f1:
        76:96:3e:b1:7e:95:a3:fa:c1:b5:1e:b9:82:66:08:88:a4:88:
        67:6c:fb:41:6c:bc:ac:23:98:c7:4b:c2:71:58:71:b6:bc:be:
        c2:da:90:08
-----BEGIN CERTIFICATE-----
MIIETDCCAzSgAwIBAgIBJjANBgkqhkiG9w0BAQsFADBxMQswCQYDVQQGEwJVUzET
MBEGA1UECAwKQ2FsaWZvcm5pYTEUMBIGA1UEBwwLU2FudGEgQ2xhcmExDTALBgNV
BAoMBHBrZzUxEDAOBgNVBAMMB2NoMV90YTQxFjAUBgkqhkiG9w0BCQEWB2NoMV90
YTQwHhcNMjQxMTE0MTQyNjU3WhcNMjcwODExMTQyNjU3WjB5MQswCQYDVQQGEwJV
UzETMBEGA1UECAwKQ2FsaWZvcm5pYTEUMBIGA1UEBwwLU2FudGEgQ2xhcmExDTAL
BgNVBAoMBHBrZzUxFDASBgNVBAMMC2NzM19jaDFfdGE0MRowGAYJKoZIhvcNAQkB
FgtjczNfY2gxX3RhNDCCASIwDQYJKoZIhvcNAQEBBQADggEPADCCAQoCggEBALom
KIrTIAuYEVDRg6HSjX8p9gAMqGzFd3dSwkB3nP9aaeUgMf9Pal/bpVCKgvv0p20+
WCgOkxkomAsCST6pEPT2UnKCIGuXT3EO06TzGvgHToDueYlMe3LJga6cVcOdUO5k
8MWMCJqx6X7jxVadPtm+v0IYyJ/02KIDUpv/T44cmsATklY7dCMdLQZjLM4i6pru
nH3JKGzA/6THm4BQnvfKU6OcUiiCtPKGpy6yXiYEZkJ689q+s54RqvsqLPwHEAaX
CxTvx/JgrO/fTy/bDR8qOcupaj5C9CjbjiW4L0Ur0aeWMTnF+6SPxesDcngHQtH0
mVPiBohr+eczDhmrj8ECAwEAAaOB5jCB4zAdBgNVHQ4EFgQUBxpnx17CvaOx4DFD
T/HYFAwyxBswgZMGA1UdIwSBizCBiIAUPoHEZtcXg6bbGqoJayJIyd4dZqyhbaRr
MGkxCzAJBgNVBAYTAlVTMRMwEQYDVQQIDApDYWxpZm9ybmlhMRQwEgYDVQQHDAtT
YW50YSBDbGFyYTENMAsGA1UECgwEcGtnNTEMMAoGA1UEAwwDdGE0MRIwEAYJKoZI
hvcNAQkBFgN0YTSCASMwDAYDVR0TAQH/BAIwADAeBgNVHR8EFzAVMBOgEaAPhg1m
b286Ly9iYXIvYmF6MA0GCSqGSIb3DQEBCwUAA4IBAQChL6JF+g3+TqlLTy/3fJh6
gDYJ51Hzo4fsnrV3u9QPsE60UBRaODrxNwMPlepC1KzyygZquP3+MVfsV2z80jlK
MW5BHEEGoHXEgAvp90W/43gDoVBzVsIw36cLp5bSLRerWoCVSGn53NaDIMs+NAO4
oQ66LgR87Ys1KxmHKEq+O4M8tPr3XKMzn7FF5EBe2nLQIDFvlOQslzJHzRLiHC++
8lvDflBWdg7/LqHV8yXx6C0hEgoLFdG94VzpBhbhLT2HWxJv5IaHBpMlJa9Uv0k2
mCoJG73TkfF2lj6xfpWj+sG1HrmCZgiIpIhnbPtBbLysI5jHS8JxWHG2vL7C2pAI
-----END CERTIFICATE-----
