Certificate:
    Data:
        Version: 3 (0x2)
        Serial Number: 40 (0x28)
        Signature Algorithm: sha256WithRSAEncryption
        Issuer: C=US, ST=California, L=Santa Clara, O=pkg5, CN=ch1.1_ta4/emailAddress=ch1.1_ta4
        Validity
            Not Before: Nov 17 23:01:33 2020 GMT
            Not After : Aug 14 23:01:33 2023 GMT
        Subject: C=US, ST=California, L=Santa Clara, O=pkg5, CN=cs1_ch1.1_ta4/emailAddress=cs1_ch1.1_ta4
        Subject Public Key Info:
            Public Key Algorithm: rsaEncryption
                RSA Public-Key: (1024 bit)
                Modulus:
                    00:c7:4d:57:41:9d:0d:5c:2f:ba:11:00:af:d2:a0:
                    18:b0:d5:13:6d:35:62:c1:3c:f7:fe:d5:59:c2:8c:
                    28:4c:e7:eb:c5:f4:b5:0a:fd:c8:31:a9:31:2b:5a:
                    09:2c:08:74:ee:f7:98:0c:b1:36:fe:5c:c8:f8:bb:
                    15:c2:bd:15:dd:d7:e3:8f:87:86:d8:6c:06:ec:b9:
                    59:48:68:3b:00:b2:0c:5e:a3:5d:65:34:7a:55:73:
                    51:55:27:46:ad:6f:14:6d:11:70:eb:b4:41:8e:fd:
                    e2:18:dc:ba:4a:88:72:14:57:33:5c:93:58:e2:02:
                    02:b9:a5:bc:97:30:e9:db:6d
                Exponent: 65537 (0x10001)
        X509v3 extensions:
            X509v3 Basic Constraints: critical
                CA:FALSE
            X509v3 CRL Distribution Points: 

                Full Name:
                  URI:http://localhost:12001/file/0/ch1.1_ta4_crl.pem

    Signature Algorithm: sha256WithRSAEncryption
         a2:18:fd:ad:5a:b6:90:24:39:2c:d6:20:2c:6d:bf:39:7a:73:
         58:80:4c:9a:f8:16:10:a4:89:e8:f3:63:7c:db:d9:49:35:a4:
         a1:2f:0f:d2:bc:bf:27:35:31:63:36:85:3c:ca:4d:0a:9d:17:
         50:5f:36:4a:c7:9e:48:35:11:6a:2a:67:82:4b:2e:2d:3a:ef:
         ca:fa:1f:ad:7a:20:82:86:c4:98:b8:b2:8c:08:4c:d2:d8:c1:
         6b:9e:b7:32:3e:ad:59:1d:05:8d:b4:17:0c:ac:f0:36:14:79:
         c3:bf:cc:09:22:17:f3:a4:f9:d8:d7:e3:66:a1:d2:56:32:ed:
         68:e5:6c:1e:83:2d:51:81:67:bd:8c:29:0d:e0:05:d5:68:2d:
         a7:34:87:b8:2e:a3:f6:be:06:27:8f:db:04:c5:7f:06:eb:5f:
         9d:a8:8f:e1:0b:0b:17:fb:a9:9a:63:7a:ac:57:9a:e7:06:23:
         d6:be:c4:1a:ed:f9:ac:b2:58:cd:2a:26:b9:13:a2:f1:d1:24:
         2b:30:dc:38:88:9d:dd:60:52:d5:60:dd:88:a5:cc:38:63:c0:
         40:05:39:e6:18:a8:fb:de:b5:20:e4:0d:8d:30:4b:2d:20:7a:
         22:23:c5:ef:e0:64:46:3a:73:ef:ca:89:06:c9:5f:41:f8:0f:
         12:5d:d8:f3
-----BEGIN CERTIFICATE-----
MIIDOzCCAiOgAwIBAgIBKDANBgkqhkiG9w0BAQsFADB1MQswCQYDVQQGEwJVUzET
MBEGA1UECAwKQ2FsaWZvcm5pYTEUMBIGA1UEBwwLU2FudGEgQ2xhcmExDTALBgNV
BAoMBHBrZzUxEjAQBgNVBAMMCWNoMS4xX3RhNDEYMBYGCSqGSIb3DQEJARYJY2gx
LjFfdGE0MB4XDTIwMTExNzIzMDEzM1oXDTIzMDgxNDIzMDEzM1owfTELMAkGA1UE
BhMCVVMxEzARBgNVBAgMCkNhbGlmb3JuaWExFDASBgNVBAcMC1NhbnRhIENsYXJh
MQ0wCwYDVQQKDARwa2c1MRYwFAYDVQQDDA1jczFfY2gxLjFfdGE0MRwwGgYJKoZI
hvcNAQkBFg1jczFfY2gxLjFfdGE0MIGfMA0GCSqGSIb3DQEBAQUAA4GNADCBiQKB
gQDHTVdBnQ1cL7oRAK/SoBiw1RNtNWLBPPf+1VnCjChM5+vF9LUK/cgxqTErWgks
CHTu95gMsTb+XMj4uxXCvRXd1+OPh4bYbAbsuVlIaDsAsgxeo11lNHpVc1FVJ0at
bxRtEXDrtEGO/eIY3LpKiHIUVzNck1jiAgK5pbyXMOnbbQIDAQABo1IwUDAMBgNV
HRMBAf8EAjAAMEAGA1UdHwQ5MDcwNaAzoDGGL2h0dHA6Ly9sb2NhbGhvc3Q6MTIw
MDEvZmlsZS8wL2NoMS4xX3RhNF9jcmwucGVtMA0GCSqGSIb3DQEBCwUAA4IBAQCi
GP2tWraQJDks1iAsbb85enNYgEya+BYQpIno82N829lJNaShLw/SvL8nNTFjNoU8
yk0KnRdQXzZKx55INRFqKmeCSy4tOu/K+h+teiCChsSYuLKMCEzS2MFrnrcyPq1Z
HQWNtBcMrPA2FHnDv8wJIhfzpPnY1+NmodJWMu1o5Wwegy1RgWe9jCkN4AXVaC2n
NIe4LqP2vgYnj9sExX8G61+dqI/hCwsX+6maY3qsV5rnBiPWvsQa7fmssljNKia5
E6Lx0SQrMNw4iJ3dYFLVYN2Ipcw4Y8BABTnmGKj73rUg5A2NMEstIHoiI8Xv4GRG
OnPvyokGyV9B+A8SXdjz
-----END CERTIFICATE-----
