Certificate:
    Data:
        Version: 3 (0x2)
        Serial Number: 40 (0x28)
    Signature Algorithm: sha256WithRSAEncryption
        Issuer: C=US, ST=California, L=Santa Clara, O=pkg5, CN=ch1.1_ta4/emailAddress=ch1.1_ta4
        Validity
            Not Before: Nov 16 10:58:50 2017 GMT
            Not After : Aug 12 10:58:50 2020 GMT
        Subject: C=US, ST=California, L=Santa Clara, O=pkg5, CN=cs1_ch1.1_ta4/emailAddress=cs1_ch1.1_ta4
        Subject Public Key Info:
            Public Key Algorithm: rsaEncryption
                Public-Key: (1024 bit)
                Modulus:
                    00:ab:3b:f2:21:55:72:26:b1:2e:3d:a7:31:71:1c:
                    95:a0:2a:9f:98:c4:76:9f:77:6c:e3:2e:43:b7:68:
                    6c:b2:8c:b8:eb:02:10:33:b5:10:d7:b2:d3:23:17:
                    05:10:d1:d4:3c:3f:12:46:45:db:94:66:40:68:54:
                    1a:30:f3:61:46:08:99:9f:41:85:51:e7:8e:c2:de:
                    19:2e:f2:6b:36:f2:05:7b:1b:1a:62:41:bd:46:78:
                    b5:e2:e0:36:cb:73:f7:d0:ee:06:87:48:db:6b:9f:
                    d0:f7:d2:cc:87:dd:5c:c0:9f:16:60:31:aa:d3:22:
                    84:9b:4b:d4:85:75:a1:3e:dd
                Exponent: 65537 (0x10001)
        X509v3 extensions:
            X509v3 Basic Constraints: critical
                CA:FALSE
            X509v3 CRL Distribution Points: 

                Full Name:
                  URI:http://localhost:12001/file/0/ch1.1_ta4_crl.pem

    Signature Algorithm: sha256WithRSAEncryption
         16:7d:62:55:17:ad:f9:bb:b2:04:8d:3f:83:37:f2:1b:d2:8f:
         ec:a0:f4:20:a2:25:bb:14:4c:a9:68:ef:a4:7f:85:d3:d2:5f:
         6a:06:ad:f9:52:27:3d:37:1c:9c:64:3f:66:ce:a8:3e:55:15:
         75:44:a7:6d:e0:36:30:b5:e8:13:55:a6:10:3e:8f:d4:68:b0:
         94:92:ec:5f:24:03:30:ec:b6:0b:de:53:6a:4c:fd:44:94:cb:
         55:dd:34:fc:e3:74:98:97:0d:b8:bc:3b:ef:fb:2f:36:47:88:
         35:8c:04:8f:e2:64:57:e0:cd:99:15:79:68:28:01:fe:a0:4c:
         83:8c:03:03:41:0a:68:96:3d:de:bd:8a:31:85:e7:7d:af:78:
         16:ca:47:ed:55:16:90:09:f4:0a:e9:73:89:00:a1:7c:33:bc:
         63:f0:54:33:6e:21:bb:88:46:bc:ed:9f:56:92:6c:4e:a4:ab:
         af:5b:63:86:44:3f:2d:3b:a2:71:59:44:dd:8e:7a:6e:40:de:
         0a:af:a2:2d:42:25:12:ad:1b:1e:4a:01:9c:68:73:d5:67:79:
         91:a1:b1:3c:e8:dd:a3:94:ad:b7:ec:de:88:2f:ce:dc:18:6e:
         dc:fd:c0:bf:d9:8a:46:60:56:aa:e8:39:ba:7e:0c:e9:cf:26:
         fd:e7:48:bd
-----BEGIN CERTIFICATE-----
MIIDOzCCAiOgAwIBAgIBKDANBgkqhkiG9w0BAQsFADB1MQswCQYDVQQGEwJVUzET
MBEGA1UECAwKQ2FsaWZvcm5pYTEUMBIGA1UEBwwLU2FudGEgQ2xhcmExDTALBgNV
BAoMBHBrZzUxEjAQBgNVBAMMCWNoMS4xX3RhNDEYMBYGCSqGSIb3DQEJARYJY2gx
LjFfdGE0MB4XDTE3MTExNjEwNTg1MFoXDTIwMDgxMjEwNTg1MFowfTELMAkGA1UE
BhMCVVMxEzARBgNVBAgMCkNhbGlmb3JuaWExFDASBgNVBAcMC1NhbnRhIENsYXJh
MQ0wCwYDVQQKDARwa2c1MRYwFAYDVQQDDA1jczFfY2gxLjFfdGE0MRwwGgYJKoZI
hvcNAQkBFg1jczFfY2gxLjFfdGE0MIGfMA0GCSqGSIb3DQEBAQUAA4GNADCBiQKB
gQCrO/IhVXImsS49pzFxHJWgKp+YxHafd2zjLkO3aGyyjLjrAhAztRDXstMjFwUQ
0dQ8PxJGRduUZkBoVBow82FGCJmfQYVR547C3hku8ms28gV7GxpiQb1GeLXi4DbL
c/fQ7gaHSNtrn9D30syH3VzAnxZgMarTIoSbS9SFdaE+3QIDAQABo1IwUDAMBgNV
HRMBAf8EAjAAMEAGA1UdHwQ5MDcwNaAzoDGGL2h0dHA6Ly9sb2NhbGhvc3Q6MTIw
MDEvZmlsZS8wL2NoMS4xX3RhNF9jcmwucGVtMA0GCSqGSIb3DQEBCwUAA4IBAQAW
fWJVF635u7IEjT+DN/Ib0o/soPQgoiW7FEypaO+kf4XT0l9qBq35Uic9NxycZD9m
zqg+VRV1RKdt4DYwtegTVaYQPo/UaLCUkuxfJAMw7LYL3lNqTP1ElMtV3TT843SY
lw24vDvv+y82R4g1jASP4mRX4M2ZFXloKAH+oEyDjAMDQQpolj3evYoxhed9r3gW
ykftVRaQCfQK6XOJAKF8M7xj8FQzbiG7iEa87Z9WkmxOpKuvW2OGRD8tO6JxWUTd
jnpuQN4Kr6ItQiUSrRseSgGcaHPVZ3mRobE86N2jlK237N6IL87cGG7c/cC/2YpG
YFaq6Dm6fgzpzyb950i9
-----END CERTIFICATE-----
