Certificate:
    Data:
        Version: 3 (0x2)
        Serial Number: 40 (0x28)
        Signature Algorithm: sha256WithRSAEncryption
        Issuer: C=US, ST=California, L=Santa Clara, O=pkg5, CN=ch1.1_ta4/emailAddress=ch1.1_ta4
        Validity
            Not Before: May 23 15:47:21 2024 GMT
            Not After : Feb 17 15:47:21 2027 GMT
        Subject: C=US, ST=California, L=Santa Clara, O=pkg5, CN=cs1_ch1.1_ta4/emailAddress=cs1_ch1.1_ta4
        Subject Public Key Info:
            Public Key Algorithm: rsaEncryption
                Public-Key: (2048 bit)
                Modulus:
                    00:b8:2c:ba:49:02:4b:1b:df:0c:57:65:0a:f3:37:
                    75:ca:9e:14:8c:21:00:8a:77:24:ed:c2:8e:8a:9d:
                    e3:1d:a9:11:1a:fa:5a:23:b3:7d:84:99:5f:2f:03:
                    e4:17:bb:31:35:53:f9:7c:35:92:59:3c:27:98:0b:
                    a7:2a:83:49:64:7a:3f:13:6b:b2:dd:17:54:6f:67:
                    ad:f7:17:f3:df:29:4f:0e:8b:ec:cf:2d:6c:3d:e8:
                    72:dc:9e:88:3a:6a:dc:55:9a:9f:52:70:7e:98:41:
                    fd:29:ca:f7:e0:a9:ea:c0:0d:8c:20:b4:2e:28:a4:
                    0d:fc:ea:24:fe:86:3b:94:77:41:dd:43:b1:8e:f1:
                    12:af:d6:37:77:c4:09:7e:13:36:7b:f2:aa:51:c6:
                    aa:f0:fb:6e:29:68:3b:1b:df:18:d2:d9:7f:ea:71:
                    7d:de:ab:61:01:0d:e6:a8:13:fa:29:3f:0f:a6:f6:
                    77:74:69:93:15:3b:ee:89:da:d1:6a:3a:a5:ca:b6:
                    6a:45:c0:4c:2d:f6:43:fe:ac:82:16:ff:05:ae:44:
                    ee:18:43:d2:49:15:31:ef:65:30:1a:4b:6e:d2:09:
                    71:23:c5:14:c6:85:7a:1e:05:15:02:84:a5:75:36:
                    58:0a:d9:83:3c:f4:b3:71:fc:64:45:71:b1:5a:5a:
                    aa:e7
                Exponent: 65537 (0x10001)
        X509v3 extensions:
            X509v3 Basic Constraints: critical
                CA:FALSE
            X509v3 CRL Distribution Points: 
                Full Name:
                  URI:http://localhost:12001/file/0/ch1.1_ta4_crl.pem
            X509v3 Subject Key Identifier: 
                39:F5:AD:3E:0C:6F:98:49:3F:14:11:9E:2A:F2:36:77:8A:83:51:2B
            X509v3 Authority Key Identifier: 
                96:C2:BB:09:84:4D:5D:B4:EA:39:D7:79:44:0D:6C:32:4A:53:FC:E9
    Signature Algorithm: sha256WithRSAEncryption
    Signature Value:
        6d:f0:f0:29:ee:07:ed:ac:63:41:85:03:85:b7:bd:21:b2:c2:
        e5:a7:79:08:c7:b3:a0:65:dd:4f:ce:6d:9f:e8:1b:76:ab:c6:
        3e:2c:b4:1f:16:7e:0e:02:51:69:d9:c0:3e:aa:4c:1a:18:c7:
        f7:ed:96:84:95:ee:6c:9a:25:40:6e:e0:e5:74:69:b5:70:f2:
        dc:0b:fb:90:a3:9a:61:62:5c:5c:f8:8b:34:32:22:2f:04:68:
        25:53:06:21:39:98:d2:d3:23:b9:3d:de:96:d7:78:ef:54:d4:
        f1:a5:8d:35:4d:09:25:c8:42:8c:68:f3:e3:3f:1f:ab:e5:11:
        79:90:32:20:f5:17:ae:9e:be:f2:2a:05:51:a2:ed:0d:45:6f:
        d3:8b:14:48:4a:70:b6:8d:03:3a:3f:d6:a5:b6:a7:bf:29:cb:
        fb:68:5b:a3:24:cd:24:65:ba:8a:36:65:b2:c7:43:7c:ba:ec:
        79:8d:a1:ab:9c:eb:28:06:96:55:2f:30:e7:76:c1:a6:69:11:
        17:ab:1d:9e:2e:b3:65:6a:c4:66:ef:6c:ba:38:15:fe:82:b9:
        52:48:fe:cc:16:71:ef:64:49:df:aa:ce:95:3c:97:80:3d:8d:
        79:59:d7:13:0c:d1:4c:8c:fa:8b:64:4e:22:16:72:c3:70:a4:
        bb:9c:5c:d3
-----BEGIN CERTIFICATE-----
MIIEATCCAumgAwIBAgIBKDANBgkqhkiG9w0BAQsFADB1MQswCQYDVQQGEwJVUzET
MBEGA1UECAwKQ2FsaWZvcm5pYTEUMBIGA1UEBwwLU2FudGEgQ2xhcmExDTALBgNV
BAoMBHBrZzUxEjAQBgNVBAMMCWNoMS4xX3RhNDEYMBYGCSqGSIb3DQEJARYJY2gx
LjFfdGE0MB4XDTI0MDUyMzE1NDcyMVoXDTI3MDIxNzE1NDcyMVowfTELMAkGA1UE
BhMCVVMxEzARBgNVBAgMCkNhbGlmb3JuaWExFDASBgNVBAcMC1NhbnRhIENsYXJh
MQ0wCwYDVQQKDARwa2c1MRYwFAYDVQQDDA1jczFfY2gxLjFfdGE0MRwwGgYJKoZI
hvcNAQkBFg1jczFfY2gxLjFfdGE0MIIBIjANBgkqhkiG9w0BAQEFAAOCAQ8AMIIB
CgKCAQEAuCy6SQJLG98MV2UK8zd1yp4UjCEAinck7cKOip3jHakRGvpaI7N9hJlf
LwPkF7sxNVP5fDWSWTwnmAunKoNJZHo/E2uy3RdUb2et9xfz3ylPDovszy1sPehy
3J6IOmrcVZqfUnB+mEH9Kcr34KnqwA2MILQuKKQN/Ook/oY7lHdB3UOxjvESr9Y3
d8QJfhM2e/KqUcaq8PtuKWg7G98Y0tl/6nF93qthAQ3mqBP6KT8PpvZ3dGmTFTvu
idrRajqlyrZqRcBMLfZD/qyCFv8FrkTuGEPSSRUx72UwGktu0glxI8UUxoV6HgUV
AoSldTZYCtmDPPSzcfxkRXGxWlqq5wIDAQABo4GTMIGQMAwGA1UdEwEB/wQCMAAw
QAYDVR0fBDkwNzA1oDOgMYYvaHR0cDovL2xvY2FsaG9zdDoxMjAwMS9maWxlLzAv
Y2gxLjFfdGE0X2NybC5wZW0wHQYDVR0OBBYEFDn1rT4Mb5hJPxQRniryNneKg1Er
MB8GA1UdIwQYMBaAFJbCuwmETV206jnXeUQNbDJKU/zpMA0GCSqGSIb3DQEBCwUA
A4IBAQBt8PAp7gftrGNBhQOFt70hssLlp3kIx7OgZd1Pzm2f6Bt2q8Y+LLQfFn4O
AlFp2cA+qkwaGMf37ZaEle5smiVAbuDldGm1cPLcC/uQo5phYlxc+Is0MiIvBGgl
UwYhOZjS0yO5Pd6W13jvVNTxpY01TQklyEKMaPPjPx+r5RF5kDIg9Reunr7yKgVR
ou0NRW/TixRISnC2jQM6P9altqe/Kcv7aFujJM0kZbqKNmWyx0N8uux5jaGrnOso
BpZVLzDndsGmaREXqx2eLrNlasRm72y6OBX+grlSSP7MFnHvZEnfqs6VPJeAPY15
WdcTDNFMjPqLZE4iFnLDcKS7nFzT
-----END CERTIFICATE-----
