Certificate:
    Data:
        Version: 3 (0x2)
        Serial Number: 40 (0x28)
    Signature Algorithm: sha256WithRSAEncryption
        Issuer: C=US, ST=California, L=Santa Clara, O=pkg5, CN=ch1.1_ta4/emailAddress=ch1.1_ta4
        Validity
            Not Before: Mar 20 10:20:55 2018 GMT
            Not After : Dec 14 10:20:55 2020 GMT
        Subject: C=US, ST=California, L=Santa Clara, O=pkg5, CN=cs1_ch1.1_ta4/emailAddress=cs1_ch1.1_ta4
        Subject Public Key Info:
            Public Key Algorithm: rsaEncryption
                Public-Key: (1024 bit)
                Modulus:
                    00:b9:3c:ca:e7:90:4f:34:0c:85:f1:15:a8:e1:82:
                    d1:c0:09:3b:e9:b4:4e:dd:38:f0:5b:5c:16:04:1a:
                    a0:40:ce:39:2f:dc:a8:39:26:d2:5c:4a:eb:a1:d0:
                    ba:56:63:e4:92:0f:aa:4d:0b:a1:0e:13:4d:8e:16:
                    4f:2f:8d:d7:bc:7f:7b:e3:4b:f6:11:73:27:a4:82:
                    6d:76:80:77:17:50:6b:5c:81:e6:63:0d:f6:a0:a3:
                    7a:cd:90:b1:57:ba:5d:d6:bf:5e:d3:68:af:71:65:
                    40:7b:0d:ac:f7:b4:94:25:80:f6:3e:b8:19:3f:d2:
                    ab:9d:c5:cd:44:d3:aa:07:57
                Exponent: 65537 (0x10001)
        X509v3 extensions:
            X509v3 Basic Constraints: critical
                CA:FALSE
            X509v3 CRL Distribution Points: 

                Full Name:
                  URI:http://localhost:12001/file/0/ch1.1_ta4_crl.pem

    Signature Algorithm: sha256WithRSAEncryption
         44:17:ea:92:f2:d9:3d:7d:d3:d4:ae:e2:2a:e4:a9:1e:40:81:
         03:91:19:3a:db:c9:bd:70:6c:d5:82:f9:7a:0d:62:06:79:ae:
         0c:ce:e3:84:90:d2:7e:42:fd:3d:45:b3:75:cb:3c:6a:2c:dd:
         2c:c1:9c:7c:66:24:d7:7c:0c:54:4d:c7:59:1b:45:0c:e5:13:
         47:57:fb:81:21:75:ef:da:9c:74:82:28:85:f9:aa:72:9e:c8:
         eb:28:b3:8f:ef:9d:88:5c:9f:2a:5c:95:a5:c6:91:df:10:ba:
         b5:8e:f7:a1:7d:17:0a:32:18:d5:94:79:3a:15:74:eb:da:4a:
         a0:f2:68:0f:31:7c:ea:e1:53:73:f4:38:c5:b4:a5:da:e6:08:
         ab:22:ef:88:10:9e:a4:ea:89:66:67:c2:06:3a:c2:15:e8:fa:
         35:a9:ac:ef:fb:10:2b:53:04:cb:49:54:e0:ed:c0:25:ad:0c:
         50:f3:be:9e:76:36:4f:18:0b:ec:c3:5f:a2:91:78:3a:0c:0b:
         82:b4:b1:b9:9a:ff:bb:8d:98:02:b5:8a:83:8c:45:31:65:61:
         d4:a5:67:91:50:8d:12:44:30:99:6e:f4:c1:01:f5:4a:9b:f1:
         b1:20:e4:25:c3:cc:d7:e1:1a:77:be:43:5b:21:84:c5:25:bf:
         ea:37:2d:87
-----BEGIN CERTIFICATE-----
MIIDOzCCAiOgAwIBAgIBKDANBgkqhkiG9w0BAQsFADB1MQswCQYDVQQGEwJVUzET
MBEGA1UECAwKQ2FsaWZvcm5pYTEUMBIGA1UEBwwLU2FudGEgQ2xhcmExDTALBgNV
BAoMBHBrZzUxEjAQBgNVBAMMCWNoMS4xX3RhNDEYMBYGCSqGSIb3DQEJARYJY2gx
LjFfdGE0MB4XDTE4MDMyMDEwMjA1NVoXDTIwMTIxNDEwMjA1NVowfTELMAkGA1UE
BhMCVVMxEzARBgNVBAgMCkNhbGlmb3JuaWExFDASBgNVBAcMC1NhbnRhIENsYXJh
MQ0wCwYDVQQKDARwa2c1MRYwFAYDVQQDDA1jczFfY2gxLjFfdGE0MRwwGgYJKoZI
hvcNAQkBFg1jczFfY2gxLjFfdGE0MIGfMA0GCSqGSIb3DQEBAQUAA4GNADCBiQKB
gQC5PMrnkE80DIXxFajhgtHACTvptE7dOPBbXBYEGqBAzjkv3Kg5JtJcSuuh0LpW
Y+SSD6pNC6EOE02OFk8vjde8f3vjS/YRcyekgm12gHcXUGtcgeZjDfago3rNkLFX
ul3Wv17TaK9xZUB7Daz3tJQlgPY+uBk/0qudxc1E06oHVwIDAQABo1IwUDAMBgNV
HRMBAf8EAjAAMEAGA1UdHwQ5MDcwNaAzoDGGL2h0dHA6Ly9sb2NhbGhvc3Q6MTIw
MDEvZmlsZS8wL2NoMS4xX3RhNF9jcmwucGVtMA0GCSqGSIb3DQEBCwUAA4IBAQBE
F+qS8tk9fdPUruIq5KkeQIEDkRk628m9cGzVgvl6DWIGea4MzuOEkNJ+Qv09RbN1
yzxqLN0swZx8ZiTXfAxUTcdZG0UM5RNHV/uBIXXv2px0giiF+apynsjrKLOP752I
XJ8qXJWlxpHfELq1jvehfRcKMhjVlHk6FXTr2kqg8mgPMXzq4VNz9DjFtKXa5gir
Iu+IEJ6k6olmZ8IGOsIV6Po1qazv+xArUwTLSVTg7cAlrQxQ876edjZPGAvsw1+i
kXg6DAuCtLG5mv+7jZgCtYqDjEUxZWHUpWeRUI0SRDCZbvTBAfVKm/GxIOQlw8zX
4Rp3vkNbIYTFJb/qNy2H
-----END CERTIFICATE-----
