Certificate:
    Data:
        Version: 3 (0x2)
        Serial Number: 41 (0x29)
    Signature Algorithm: sha256WithRSAEncryption
        Issuer: C=US, ST=California, L=Santa Clara, O=pkg5, CN=ch1_ta5/emailAddress=ch1_ta5
        Validity
            Not Before: Dec  6 03:06:43 2014 GMT
            Not After : Sep  1 03:06:43 2017 GMT
        Subject: C=US, ST=California, L=Santa Clara, O=pkg5, CN=cs1_ch1_ta5/emailAddress=cs1_ch1_ta5
        Subject Public Key Info:
            Public Key Algorithm: rsaEncryption
                Public-Key: (1024 bit)
                Modulus:
                    00:ac:65:b5:38:a6:e0:a0:d3:23:f8:8b:64:bb:cc:
                    0a:b8:bb:d8:7e:e0:43:b9:09:51:60:c1:86:c9:1a:
                    54:22:db:fa:3d:fa:08:67:22:01:4b:f0:10:7b:d4:
                    3d:01:18:13:ef:eb:06:6b:56:f0:57:7e:3c:9e:d5:
                    7f:d0:68:d6:ca:3e:64:d6:e9:2b:8e:59:3f:3b:8a:
                    b6:6a:b2:a6:9f:bc:b6:3a:ea:7d:ab:c8:90:da:73:
                    e6:61:f2:c5:ae:ef:61:35:31:ef:af:0b:5e:7c:7f:
                    24:b8:33:a1:77:af:4b:87:bb:bc:f7:86:09:de:ed:
                    1c:7c:17:aa:a4:d0:6c:7b:01
                Exponent: 65537 (0x10001)
        X509v3 extensions:
            X509v3 Basic Constraints: critical
                CA:FALSE
            X509v3 Key Usage: critical
                Digital Signature
    Signature Algorithm: sha256WithRSAEncryption
         46:85:56:75:ea:51:65:66:24:42:23:33:67:0d:81:49:6e:7e:
         1f:be:71:44:fa:84:0b:46:20:84:9a:6c:00:63:11:13:08:d1:
         a4:c0:b5:c6:d7:20:55:07:0f:cd:8f:4f:5f:86:df:bd:e3:f1:
         93:fc:eb:db:7b:75:57:97:db:73:71:0a:93:da:9e:61:ea:27:
         0e:a4:fa:98:e5:15:7f:22:1e:4a:43:9e:44:84:46:57:ae:8c:
         0d:f9:1f:89:8c:32:10:ac:77:20:54:99:d5:1c:90:7b:5e:dc:
         15:a4:dc:e4:21:54:1f:85:f4:43:06:43:38:96:c6:88:77:2e:
         fd:41
-----BEGIN CERTIFICATE-----
MIICgDCCAemgAwIBAgIBKTANBgkqhkiG9w0BAQsFADBxMQswCQYDVQQGEwJVUzET
MBEGA1UECAwKQ2FsaWZvcm5pYTEUMBIGA1UEBwwLU2FudGEgQ2xhcmExDTALBgNV
BAoMBHBrZzUxEDAOBgNVBAMMB2NoMV90YTUxFjAUBgkqhkiG9w0BCQEWB2NoMV90
YTUwHhcNMTQxMjA2MDMwNjQzWhcNMTcwOTAxMDMwNjQzWjB5MQswCQYDVQQGEwJV
UzETMBEGA1UECAwKQ2FsaWZvcm5pYTEUMBIGA1UEBwwLU2FudGEgQ2xhcmExDTAL
BgNVBAoMBHBrZzUxFDASBgNVBAMMC2NzMV9jaDFfdGE1MRowGAYJKoZIhvcNAQkB
FgtjczFfY2gxX3RhNTCBnzANBgkqhkiG9w0BAQEFAAOBjQAwgYkCgYEArGW1OKbg
oNMj+Itku8wKuLvYfuBDuQlRYMGGyRpUItv6PfoIZyIBS/AQe9Q9ARgT7+sGa1bw
V348ntV/0GjWyj5k1ukrjlk/O4q2arKmn7y2Oup9q8iQ2nPmYfLFru9hNTHvrwte
fH8kuDOhd69Lh7u894YJ3u0cfBeqpNBsewECAwEAAaMgMB4wDAYDVR0TAQH/BAIw
ADAOBgNVHQ8BAf8EBAMCB4AwDQYJKoZIhvcNAQELBQADgYEARoVWdepRZWYkQiMz
Zw2BSW5+H75xRPqEC0YghJpsAGMREwjRpMC1xtcgVQcPzY9PX4bfvePxk/zr23t1
V5fbc3EKk9qeYeonDqT6mOUVfyIeSkOeRIRGV66MDfkfiYwyEKx3IFSZ1RyQe17c
FaTc5CFUH4X0QwZDOJbGiHcu/UE=
-----END CERTIFICATE-----
