Certificate:
    Data:
        Version: 3 (0x2)
        Serial Number: 41 (0x29)
    Signature Algorithm: sha256WithRSAEncryption
        Issuer: C=US, ST=California, L=Santa Clara, O=pkg5, CN=ch1_ta5/emailAddress=ch1_ta5
        Validity
            Not Before: Nov 28 22:50:58 2016 GMT
            Not After : Aug 25 22:50:58 2019 GMT
        Subject: C=US, ST=California, L=Santa Clara, O=pkg5, CN=cs1_ch1_ta5/emailAddress=cs1_ch1_ta5
        Subject Public Key Info:
            Public Key Algorithm: rsaEncryption
                Public-Key: (1024 bit)
                Modulus:
                    00:d5:47:8d:13:ea:1d:76:68:58:b6:73:8d:c1:3b:
                    5b:89:b0:af:0a:f2:d1:7b:90:ed:35:4e:1c:3b:00:
                    4c:6d:a5:70:2c:f7:a1:e5:01:6c:85:f7:27:62:dc:
                    b3:f7:a4:df:56:60:57:f0:12:4a:12:bd:f5:21:38:
                    d2:72:e1:e0:8b:33:ab:bf:d2:50:6e:b9:59:28:04:
                    e2:e1:8d:c9:c0:1f:5f:35:52:58:d3:3d:5b:51:ff:
                    45:24:7e:65:b2:e0:d9:d9:b3:95:05:ab:de:9c:82:
                    ad:ea:ed:3f:29:8d:c1:c4:55:f6:d9:5e:e9:41:26:
                    35:68:b2:60:47:96:17:79:9b
                Exponent: 65537 (0x10001)
        X509v3 extensions:
            X509v3 Basic Constraints: critical
                CA:FALSE
            X509v3 Key Usage: critical
                Digital Signature
    Signature Algorithm: sha256WithRSAEncryption
         31:62:ba:67:99:9f:15:43:ca:51:64:60:44:0f:06:3b:5a:ea:
         4a:a5:55:84:dd:0b:f8:a2:20:06:1f:86:78:11:47:f7:86:47:
         2a:06:5b:32:d4:d5:e0:20:f1:b7:cb:0f:64:ca:36:17:3a:40:
         69:76:df:da:c4:62:39:cf:7f:af:ea:66:3c:59:79:f1:f7:09:
         c1:5e:d7:72:66:db:33:21:cb:42:84:db:e5:fd:18:ef:ab:b5:
         a6:de:12:67:7e:a8:32:49:0e:60:0e:cf:a7:32:a5:1a:32:cb:
         4b:1c:91:e6:1a:4d:1a:57:40:ce:ba:d0:31:c8:4e:2f:cb:54:
         44:f2:4f:2c:57:5a:a6:7c:47:0d:3e:86:56:a6:e1:18:0e:0f:
         e4:71:b1:fc:c9:8b:71:83:6d:21:da:94:31:68:5a:b0:f4:95:
         39:d3:00:d4:1b:4b:bd:39:ed:0e:9f:9f:99:d1:ba:55:ac:13:
         c2:d0:a2:77:5f:28:ab:f8:4b:ff:98:04:3c:0e:6b:bd:c6:61:
         04:ab:e1:ab:53:10:eb:8b:8d:49:fc:9e:88:a2:84:cb:ef:44:
         ff:4b:7b:92:61:ed:81:d7:54:dc:42:0a:fd:6c:ea:68:1a:1a:
         32:2f:29:de:2d:e1:32:84:ed:41:c5:3d:be:09:0c:e3:42:13:
         c9:01:bb:33
-----BEGIN CERTIFICATE-----
MIIDATCCAemgAwIBAgIBKTANBgkqhkiG9w0BAQsFADBxMQswCQYDVQQGEwJVUzET
MBEGA1UECAwKQ2FsaWZvcm5pYTEUMBIGA1UEBwwLU2FudGEgQ2xhcmExDTALBgNV
BAoMBHBrZzUxEDAOBgNVBAMMB2NoMV90YTUxFjAUBgkqhkiG9w0BCQEWB2NoMV90
YTUwHhcNMTYxMTI4MjI1MDU4WhcNMTkwODI1MjI1MDU4WjB5MQswCQYDVQQGEwJV
UzETMBEGA1UECAwKQ2FsaWZvcm5pYTEUMBIGA1UEBwwLU2FudGEgQ2xhcmExDTAL
BgNVBAoMBHBrZzUxFDASBgNVBAMMC2NzMV9jaDFfdGE1MRowGAYJKoZIhvcNAQkB
FgtjczFfY2gxX3RhNTCBnzANBgkqhkiG9w0BAQEFAAOBjQAwgYkCgYEA1UeNE+od
dmhYtnONwTtbibCvCvLRe5DtNU4cOwBMbaVwLPeh5QFshfcnYtyz96TfVmBX8BJK
Er31ITjScuHgizOrv9JQbrlZKATi4Y3JwB9fNVJY0z1bUf9FJH5lsuDZ2bOVBave
nIKt6u0/KY3BxFX22V7pQSY1aLJgR5YXeZsCAwEAAaMgMB4wDAYDVR0TAQH/BAIw
ADAOBgNVHQ8BAf8EBAMCB4AwDQYJKoZIhvcNAQELBQADggEBADFiumeZnxVDylFk
YEQPBjta6kqlVYTdC/iiIAYfhngRR/eGRyoGWzLU1eAg8bfLD2TKNhc6QGl239rE
YjnPf6/qZjxZefH3CcFe13Jm2zMhy0KE2+X9GO+rtabeEmd+qDJJDmAOz6cypRoy
y0sckeYaTRpXQM660DHITi/LVETyTyxXWqZ8Rw0+hlam4RgOD+RxsfzJi3GDbSHa
lDFoWrD0lTnTANQbS7057Q6fn5nRulWsE8LQondfKKv4S/+YBDwOa73GYQSr4atT
EOuLjUn8noiihMvvRP9Le5Jh7YHXVNxCCv1s6mgaGjIvKd4t4TKE7UHFPb4JDONC
E8kBuzM=
-----END CERTIFICATE-----
