Certificate:
    Data:
        Version: 3 (0x2)
        Serial Number: 42 (0x2a)
        Signature Algorithm: sha256WithRSAEncryption
        Issuer: C=US, ST=California, L=Santa Clara, O=pkg5, CN=ch1_ta5/emailAddress=ch1_ta5
        Validity
            Not Before: Nov 17 23:01:33 2020 GMT
            Not After : Aug 14 23:01:33 2023 GMT
        Subject: C=US, ST=California, L=Santa Clara, O=pkg5, CN=cs1_ch1_ta5/emailAddress=cs1_ch1_ta5
        Subject Public Key Info:
            Public Key Algorithm: rsaEncryption
                RSA Public-Key: (1024 bit)
                Modulus:
                    00:dd:15:bd:6b:73:87:a0:dc:24:66:91:9c:7d:23:
                    0f:50:7c:6a:15:fb:9b:a2:f3:58:03:01:11:03:5c:
                    7c:ce:af:d1:a5:e0:a5:13:ec:70:2e:7d:c3:db:a6:
                    fc:d1:b9:ae:7a:97:0c:a0:7e:af:64:69:ee:1a:ad:
                    77:14:28:19:ed:31:29:43:6c:18:72:6f:4e:49:0f:
                    3d:05:c5:5d:6e:61:25:d5:34:aa:f1:1f:bf:2d:9c:
                    5d:63:7d:20:6b:d4:22:12:5c:8d:93:99:36:ee:32:
                    d0:40:f0:c2:70:75:51:59:3e:bf:4e:bb:32:fc:32:
                    71:fe:15:18:4a:0e:95:da:f5
                Exponent: 65537 (0x10001)
        X509v3 extensions:
            X509v3 Basic Constraints: critical
                CA:FALSE
            X509v3 Key Usage: critical
                Digital Signature
    Signature Algorithm: sha256WithRSAEncryption
         24:d9:74:2a:cb:49:f0:e0:55:75:4a:00:41:25:9c:c4:1e:d5:
         5e:31:fd:bc:f9:77:2c:ba:1e:91:3b:23:d7:83:14:1c:da:a9:
         87:cf:e7:88:65:d4:50:78:4d:31:64:7e:cf:21:e7:e7:56:a3:
         6c:8b:3c:04:7a:a2:c3:91:0f:68:72:3b:2e:03:d7:87:ae:9d:
         b0:25:e6:cc:2b:d1:88:8f:19:b6:e9:f6:50:6c:17:78:7f:6e:
         a9:39:03:86:66:8c:43:61:1e:b7:4b:8a:d9:03:61:ff:ab:9c:
         fe:a0:4e:11:d3:34:23:34:db:78:1d:6b:14:7f:ad:69:99:21:
         34:95:65:9d:f9:8f:f9:8b:38:84:5d:76:1b:4d:1b:6a:2a:ce:
         8d:1f:42:ee:21:21:88:a4:9a:08:7f:1d:ec:b3:42:41:ee:5b:
         2c:cf:01:56:1c:3e:1b:bd:7a:2e:0c:9e:37:4d:c8:11:b8:f5:
         4f:f8:3a:4c:51:1b:f8:03:73:6b:dd:84:e8:dd:49:e1:99:90:
         9f:13:28:d8:b4:c8:4d:8a:4f:e6:29:55:70:ff:3a:14:b9:88:
         b5:9e:29:39:17:d9:22:e8:63:4f:35:5e:52:a6:cb:dc:65:94:
         31:a3:c7:65:12:02:74:b8:1b:09:56:f5:35:74:fe:19:aa:b6:
         c3:1f:7d:dc
-----BEGIN CERTIFICATE-----
MIIDATCCAemgAwIBAgIBKjANBgkqhkiG9w0BAQsFADBxMQswCQYDVQQGEwJVUzET
MBEGA1UECAwKQ2FsaWZvcm5pYTEUMBIGA1UEBwwLU2FudGEgQ2xhcmExDTALBgNV
BAoMBHBrZzUxEDAOBgNVBAMMB2NoMV90YTUxFjAUBgkqhkiG9w0BCQEWB2NoMV90
YTUwHhcNMjAxMTE3MjMwMTMzWhcNMjMwODE0MjMwMTMzWjB5MQswCQYDVQQGEwJV
UzETMBEGA1UECAwKQ2FsaWZvcm5pYTEUMBIGA1UEBwwLU2FudGEgQ2xhcmExDTAL
BgNVBAoMBHBrZzUxFDASBgNVBAMMC2NzMV9jaDFfdGE1MRowGAYJKoZIhvcNAQkB
FgtjczFfY2gxX3RhNTCBnzANBgkqhkiG9w0BAQEFAAOBjQAwgYkCgYEA3RW9a3OH
oNwkZpGcfSMPUHxqFfubovNYAwERA1x8zq/RpeClE+xwLn3D26b80bmuepcMoH6v
ZGnuGq13FCgZ7TEpQ2wYcm9OSQ89BcVdbmEl1TSq8R+/LZxdY30ga9QiElyNk5k2
7jLQQPDCcHVRWT6/Trsy/DJx/hUYSg6V2vUCAwEAAaMgMB4wDAYDVR0TAQH/BAIw
ADAOBgNVHQ8BAf8EBAMCB4AwDQYJKoZIhvcNAQELBQADggEBACTZdCrLSfDgVXVK
AEElnMQe1V4x/bz5dyy6HpE7I9eDFBzaqYfP54hl1FB4TTFkfs8h5+dWo2yLPAR6
osORD2hyOy4D14eunbAl5swr0YiPGbbp9lBsF3h/bqk5A4ZmjENhHrdLitkDYf+r
nP6gThHTNCM023gdaxR/rWmZITSVZZ35j/mLOIRddhtNG2oqzo0fQu4hIYikmgh/
HeyzQkHuWyzPAVYcPhu9ei4MnjdNyBG49U/4OkxRG/gDc2vdhOjdSeGZkJ8TKNi0
yE2KT+YpVXD/OhS5iLWeKTkX2SLoY081XlKmy9xllDGjx2USAnS4GwlW9TV0/hmq
tsMffdw=
-----END CERTIFICATE-----
