Certificate:
    Data:
        Version: 3 (0x2)
        Serial Number: 42 (0x2a)
        Signature Algorithm: sha256WithRSAEncryption
        Issuer: C=US, ST=California, L=Santa Clara, O=pkg5, CN=ch1_ta5/emailAddress=ch1_ta5
        Validity
            Not Before: Nov 14 14:26:57 2024 GMT
            Not After : Aug 11 14:26:57 2027 GMT
        Subject: C=US, ST=California, L=Santa Clara, O=pkg5, CN=cs1_ch1_ta5/emailAddress=cs1_ch1_ta5
        Subject Public Key Info:
            Public Key Algorithm: rsaEncryption
                Public-Key: (2048 bit)
                Modulus:
                    00:c8:06:76:18:a8:fd:57:7c:33:32:b4:7c:70:2a:
                    c4:0d:1e:48:b7:e4:16:62:f9:09:71:75:90:f4:05:
                    31:1a:c0:a7:71:28:28:34:57:62:80:64:e0:b1:48:
                    af:34:74:d5:c3:f8:5e:00:6b:79:20:8f:71:54:5c:
                    fa:98:05:ae:02:7f:1f:6f:40:20:13:bb:a0:a3:e3:
                    07:80:90:01:db:37:2f:be:27:14:a4:dc:cb:d3:6c:
                    ca:6b:87:0f:b8:4e:31:fd:0c:ac:04:2a:e0:88:3f:
                    2d:1a:b2:f1:36:6b:76:e4:f7:be:a6:a6:ed:0a:c5:
                    e3:29:cd:af:4c:03:91:b8:c5:70:85:ef:0d:49:24:
                    f5:02:6b:0f:5f:37:84:90:3b:24:f2:1f:44:76:31:
                    37:ab:9b:1c:cf:0e:45:7e:c2:dc:e2:ca:86:37:c5:
                    9b:81:dd:b6:45:9f:0a:32:86:57:af:75:31:f0:11:
                    ef:35:6f:59:3f:b7:2d:6e:14:31:ab:cd:04:74:2d:
                    1c:ff:b4:f2:77:d8:1b:0e:d7:bb:f1:64:7d:fd:ea:
                    67:ab:87:2f:72:6c:cc:80:ae:e8:b7:e0:92:3c:71:
                    52:8f:9b:cd:50:de:11:3c:cd:66:3d:67:71:1d:aa:
                    6d:dc:3b:62:a3:5f:c1:c2:b5:42:67:07:76:ba:d8:
                    1e:69
                Exponent: 65537 (0x10001)
        X509v3 extensions:
            X509v3 Basic Constraints: critical
                CA:FALSE
            X509v3 Key Usage: critical
                Digital Signature
            X509v3 Subject Key Identifier: 
                5C:78:9A:D8:2E:9A:F0:91:36:BD:E6:AB:50:78:E4:04:FD:C5:D6:B9
            X509v3 Authority Key Identifier: 
                85:27:34:59:C8:FB:21:9D:D4:FE:A5:BD:E1:28:27:1B:40:36:EF:7F
    Signature Algorithm: sha256WithRSAEncryption
    Signature Value:
        11:63:b0:a1:d0:13:e5:70:43:7f:b8:ba:30:07:40:09:44:31:
        7e:f5:63:2b:4b:62:eb:c5:c9:d8:32:c6:7e:87:c2:b8:3a:57:
        6a:02:f4:bc:eb:72:f8:41:ab:e8:37:6e:8e:ce:97:c3:df:23:
        81:69:35:ae:01:72:b8:0b:19:f0:0e:b4:65:81:d2:38:b3:be:
        27:93:f0:83:2f:14:e0:b8:41:4f:84:a7:f0:9b:dc:c1:19:ff:
        70:fa:6b:40:6f:f7:b2:67:c9:59:58:ea:45:36:93:f0:29:9d:
        03:55:4d:b6:83:8a:a8:8c:c4:ed:e2:40:76:bb:f1:7e:ad:9f:
        9d:3f:90:bd:58:8e:0d:2e:10:16:7b:39:54:b6:d1:40:a2:89:
        cc:5f:73:48:fe:07:65:64:7b:1a:69:da:3c:cd:bc:da:f8:7a:
        64:c1:8c:1e:bc:be:7a:5e:4a:84:43:37:a0:32:7e:67:bf:22:
        e0:d9:20:26:35:b3:43:9a:82:2b:d5:dd:da:60:63:fb:12:72:
        30:19:43:e8:d5:17:1f:0e:3a:08:59:51:f6:6b:84:04:49:1e:
        5e:06:24:d5:5d:70:25:8a:fb:9e:67:72:ec:10:46:94:15:c4:
        0f:cc:7c:97:23:c4:68:f3:33:70:be:18:ab:1d:c0:97:08:cf:
        16:e9:b9:de
-----BEGIN CERTIFICATE-----
MIIDxTCCAq2gAwIBAgIBKjANBgkqhkiG9w0BAQsFADBxMQswCQYDVQQGEwJVUzET
MBEGA1UECAwKQ2FsaWZvcm5pYTEUMBIGA1UEBwwLU2FudGEgQ2xhcmExDTALBgNV
BAoMBHBrZzUxEDAOBgNVBAMMB2NoMV90YTUxFjAUBgkqhkiG9w0BCQEWB2NoMV90
YTUwHhcNMjQxMTE0MTQyNjU3WhcNMjcwODExMTQyNjU3WjB5MQswCQYDVQQGEwJV
UzETMBEGA1UECAwKQ2FsaWZvcm5pYTEUMBIGA1UEBwwLU2FudGEgQ2xhcmExDTAL
BgNVBAoMBHBrZzUxFDASBgNVBAMMC2NzMV9jaDFfdGE1MRowGAYJKoZIhvcNAQkB
FgtjczFfY2gxX3RhNTCCASIwDQYJKoZIhvcNAQEBBQADggEPADCCAQoCggEBAMgG
dhio/Vd8MzK0fHAqxA0eSLfkFmL5CXF1kPQFMRrAp3EoKDRXYoBk4LFIrzR01cP4
XgBreSCPcVRc+pgFrgJ/H29AIBO7oKPjB4CQAds3L74nFKTcy9NsymuHD7hOMf0M
rAQq4Ig/LRqy8TZrduT3vqam7QrF4ynNr0wDkbjFcIXvDUkk9QJrD183hJA7JPIf
RHYxN6ubHM8ORX7C3OLKhjfFm4HdtkWfCjKGV691MfAR7zVvWT+3LW4UMavNBHQt
HP+08nfYGw7Xu/Fkff3qZ6uHL3JszICu6LfgkjxxUo+bzVDeETzNZj1ncR2qbdw7
YqNfwcK1QmcHdrrYHmkCAwEAAaNgMF4wDAYDVR0TAQH/BAIwADAOBgNVHQ8BAf8E
BAMCB4AwHQYDVR0OBBYEFFx4mtgumvCRNr3mq1B45AT9xda5MB8GA1UdIwQYMBaA
FIUnNFnI+yGd1P6lveEoJxtANu9/MA0GCSqGSIb3DQEBCwUAA4IBAQARY7Ch0BPl
cEN/uLowB0AJRDF+9WMrS2LrxcnYMsZ+h8K4OldqAvS863L4QavoN26OzpfD3yOB
aTWuAXK4CxnwDrRlgdI4s74nk/CDLxTguEFPhKfwm9zBGf9w+mtAb/eyZ8lZWOpF
NpPwKZ0DVU22g4qojMTt4kB2u/F+rZ+dP5C9WI4NLhAWezlUttFAoonMX3NI/gdl
ZHsaado8zbza+HpkwYwevL56XkqEQzegMn5nvyLg2SAmNbNDmoIr1d3aYGP7EnIw
GUPo1RcfDjoIWVH2a4QESR5eBiTVXXAlivueZ3LsEEaUFcQPzHyXI8Ro8zNwvhir
HcCXCM8W6bne
-----END CERTIFICATE-----
