Certificate:
    Data:
        Version: 3 (0x2)
        Serial Number: 42 (0x2a)
        Signature Algorithm: sha256WithRSAEncryption
        Issuer: C=US, ST=California, L=Santa Clara, O=pkg5, CN=ch1_ta5/emailAddress=ch1_ta5
        Validity
            Not Before: May 23 15:47:22 2024 GMT
            Not After : Feb 17 15:47:22 2027 GMT
        Subject: C=US, ST=California, L=Santa Clara, O=pkg5, CN=cs1_ch1_ta5/emailAddress=cs1_ch1_ta5
        Subject Public Key Info:
            Public Key Algorithm: rsaEncryption
                Public-Key: (2048 bit)
                Modulus:
                    00:c9:89:9e:77:89:e7:68:69:bf:7c:15:47:04:11:
                    2d:ac:ce:39:d2:2d:70:ee:7c:5d:50:fc:5d:81:17:
                    3e:ad:fd:61:cf:ee:fa:3c:78:90:10:4b:11:9d:ed:
                    85:61:12:41:b8:6b:9f:f9:49:e8:85:44:24:9f:ab:
                    64:3a:f3:4e:95:b5:01:01:ac:f8:ba:a8:3c:89:f4:
                    ea:9e:3e:cc:92:de:95:4f:d3:94:e4:c3:3d:50:75:
                    6e:af:35:cd:98:ff:ef:54:95:8d:b2:22:0a:7f:cd:
                    e8:ac:8e:98:6e:e7:63:44:26:bc:0f:ec:59:94:d9:
                    a7:6d:a8:85:15:e5:18:d9:0f:6b:21:ca:f9:8a:3e:
                    b1:79:e0:3f:a2:d9:f0:85:b4:09:a1:63:3a:c6:26:
                    32:1b:e7:7b:62:48:b4:02:cd:ff:a4:ac:12:ef:1e:
                    42:e8:5d:5e:78:c2:b6:fd:62:d1:48:38:e0:27:59:
                    09:a2:64:58:32:9f:c2:cc:32:89:80:47:4b:e6:35:
                    99:32:3c:52:8a:e4:79:3a:00:62:1d:96:9c:15:99:
                    00:a7:50:24:3c:a5:4f:2f:8c:74:52:32:f0:2c:bc:
                    34:53:d5:3f:d4:42:cd:90:d2:59:69:72:16:fb:d7:
                    f3:3f:8c:85:99:08:78:db:ed:50:a6:9f:f0:ad:60:
                    4a:bd
                Exponent: 65537 (0x10001)
        X509v3 extensions:
            X509v3 Basic Constraints: critical
                CA:FALSE
            X509v3 Key Usage: critical
                Digital Signature
            X509v3 Subject Key Identifier: 
                BE:03:B2:A6:AF:8B:68:82:61:70:73:4A:9B:6C:29:5D:6D:EA:E2:64
            X509v3 Authority Key Identifier: 
                28:37:E5:12:4F:95:B6:44:CE:D2:2F:C8:1E:04:10:E6:72:92:F9:E4
    Signature Algorithm: sha256WithRSAEncryption
    Signature Value:
        82:5e:dd:ac:38:93:92:00:50:12:c9:48:34:38:43:91:d7:38:
        6f:84:28:c6:6b:e4:59:b4:e8:df:6a:be:32:b5:36:2b:b1:1c:
        68:98:81:b4:02:f9:d6:64:ab:43:60:da:ef:dd:b2:46:a8:f3:
        28:d2:8d:13:5e:91:fb:2c:05:a9:8a:30:e1:e9:9f:17:ef:1a:
        1d:77:55:71:82:56:65:16:23:85:30:95:1a:ea:82:a1:ce:02:
        90:4c:ae:e3:e2:14:dc:84:74:61:95:ce:28:37:e5:94:88:b4:
        25:97:fb:35:f3:ee:44:ee:a5:c8:c8:a0:ea:07:fc:83:3a:a8:
        5e:e0:52:4f:b9:5a:3d:51:5b:12:02:a5:2b:6a:41:63:9e:d9:
        0f:42:b2:66:03:3c:10:16:61:55:58:fa:df:9e:c9:81:93:fe:
        4a:88:05:6c:65:12:4e:c9:dc:d5:72:92:53:d5:77:79:14:1f:
        19:99:55:98:07:19:3e:1c:bb:fc:d2:84:5a:32:4f:41:7a:60:
        4c:87:da:60:3e:91:11:d2:e7:ed:87:6f:bc:2e:b3:37:ac:91:
        5c:40:5d:b2:b1:da:ae:e3:f2:6c:5f:a8:76:5f:79:69:dc:fe:
        21:a8:a7:75:44:40:66:13:8d:2d:8b:92:5d:97:13:c9:9a:74:
        27:49:47:ab
-----BEGIN CERTIFICATE-----
MIIDxTCCAq2gAwIBAgIBKjANBgkqhkiG9w0BAQsFADBxMQswCQYDVQQGEwJVUzET
MBEGA1UECAwKQ2FsaWZvcm5pYTEUMBIGA1UEBwwLU2FudGEgQ2xhcmExDTALBgNV
BAoMBHBrZzUxEDAOBgNVBAMMB2NoMV90YTUxFjAUBgkqhkiG9w0BCQEWB2NoMV90
YTUwHhcNMjQwNTIzMTU0NzIyWhcNMjcwMjE3MTU0NzIyWjB5MQswCQYDVQQGEwJV
UzETMBEGA1UECAwKQ2FsaWZvcm5pYTEUMBIGA1UEBwwLU2FudGEgQ2xhcmExDTAL
BgNVBAoMBHBrZzUxFDASBgNVBAMMC2NzMV9jaDFfdGE1MRowGAYJKoZIhvcNAQkB
FgtjczFfY2gxX3RhNTCCASIwDQYJKoZIhvcNAQEBBQADggEPADCCAQoCggEBAMmJ
nneJ52hpv3wVRwQRLazOOdItcO58XVD8XYEXPq39Yc/u+jx4kBBLEZ3thWESQbhr
n/lJ6IVEJJ+rZDrzTpW1AQGs+LqoPIn06p4+zJLelU/TlOTDPVB1bq81zZj/71SV
jbIiCn/N6KyOmG7nY0QmvA/sWZTZp22ohRXlGNkPayHK+Yo+sXngP6LZ8IW0CaFj
OsYmMhvne2JItALN/6SsEu8eQuhdXnjCtv1i0Ug44CdZCaJkWDKfwswyiYBHS+Y1
mTI8UorkeToAYh2WnBWZAKdQJDylTy+MdFIy8Cy8NFPVP9RCzZDSWWlyFvvX8z+M
hZkIeNvtUKaf8K1gSr0CAwEAAaNgMF4wDAYDVR0TAQH/BAIwADAOBgNVHQ8BAf8E
BAMCB4AwHQYDVR0OBBYEFL4Dsqavi2iCYXBzSptsKV1t6uJkMB8GA1UdIwQYMBaA
FCg35RJPlbZEztIvyB4EEOZykvnkMA0GCSqGSIb3DQEBCwUAA4IBAQCCXt2sOJOS
AFASyUg0OEOR1zhvhCjGa+RZtOjfar4ytTYrsRxomIG0AvnWZKtDYNrv3bJGqPMo
0o0TXpH7LAWpijDh6Z8X7xodd1VxglZlFiOFMJUa6oKhzgKQTK7j4hTchHRhlc4o
N+WUiLQll/s18+5E7qXIyKDqB/yDOqhe4FJPuVo9UVsSAqUrakFjntkPQrJmAzwQ
FmFVWPrfnsmBk/5KiAVsZRJOydzVcpJT1Xd5FB8ZmVWYBxk+HLv80oRaMk9BemBM
h9pgPpER0ufth2+8LrM3rJFcQF2ysdqu4/JsX6h2X3lp3P4hqKd1REBmE40ti5Jd
lxPJmnQnSUer
-----END CERTIFICATE-----
