Certificate:
    Data:
        Version: 3 (0x2)
        Serial Number: 42 (0x2a)
    Signature Algorithm: sha256WithRSAEncryption
        Issuer: C=US, ST=California, L=Santa Clara, O=pkg5, OU=ta6, CN=localhost/emailAddress=ta6
        Validity
            Not Before: Dec  6 03:06:44 2014 GMT
            Not After : Sep  1 03:06:44 2017 GMT
        Subject: C=US, ST=California, L=Santa Clara, O=pkg5, OU=cs1_ta6, CN=localhost/emailAddress=cs1_ta6
        Subject Public Key Info:
            Public Key Algorithm: rsaEncryption
                Public-Key: (1024 bit)
                Modulus:
                    00:be:b3:c9:ac:45:8e:7d:a1:c9:9f:29:99:f6:f9:
                    47:d2:e8:f1:f3:7d:62:b0:86:e0:07:11:8a:c8:c3:
                    e8:35:1b:ae:48:01:fd:15:8e:8e:87:cb:dd:87:fa:
                    af:c1:2a:c6:a9:d6:4a:20:3e:c5:21:53:5e:09:1d:
                    ff:8b:b9:26:24:48:83:69:ec:61:5a:ed:8d:3c:42:
                    70:f6:5e:1d:c9:c5:14:aa:6c:6a:17:38:ea:24:a1:
                    cf:ab:10:07:0f:4d:ad:c1:8c:b9:55:38:f5:51:ec:
                    06:34:11:d6:58:7f:ff:14:25:df:13:dc:33:4d:61:
                    4a:a7:e3:64:50:ec:a0:41:0f
                Exponent: 65537 (0x10001)
        X509v3 extensions:
            X509v3 Basic Constraints: critical
                CA:FALSE
            X509v3 Key Usage: critical
                Digital Signature
    Signature Algorithm: sha256WithRSAEncryption
         9b:44:be:b7:93:e4:43:83:96:d6:b6:dd:03:21:db:3e:88:16:
         53:54:21:95:ac:84:96:36:5c:48:b7:de:f7:4d:18:e7:c2:00:
         19:bf:07:a4:07:f5:19:93:89:34:05:24:2d:f2:d3:6d:06:4f:
         db:11:db:d5:48:04:21:74:23:2e:98:ce:b5:33:62:77:4a:a0:
         a4:8f:67:0a:21:c7:1e:b8:9d:12:62:4c:6d:c8:14:0c:6d:f1:
         ae:39:5d:5f:29:31:60:92:0e:49:58:56:84:de:42:98:62:6f:
         bc:f9:13:c7:c8:8e:aa:2a:f2:e1:b0:41:76:19:40:be:c7:b5:
         6b:67
-----BEGIN CERTIFICATE-----
MIICmTCCAgKgAwIBAgIBKjANBgkqhkiG9w0BAQsFADB9MQswCQYDVQQGEwJVUzET
MBEGA1UECAwKQ2FsaWZvcm5pYTEUMBIGA1UEBwwLU2FudGEgQ2xhcmExDTALBgNV
BAoMBHBrZzUxDDAKBgNVBAsMA3RhNjESMBAGA1UEAwwJbG9jYWxob3N0MRIwEAYJ
KoZIhvcNAQkBFgN0YTYwHhcNMTQxMjA2MDMwNjQ0WhcNMTcwOTAxMDMwNjQ0WjCB
hTELMAkGA1UEBhMCVVMxEzARBgNVBAgMCkNhbGlmb3JuaWExFDASBgNVBAcMC1Nh
bnRhIENsYXJhMQ0wCwYDVQQKDARwa2c1MRAwDgYDVQQLDAdjczFfdGE2MRIwEAYD
VQQDDAlsb2NhbGhvc3QxFjAUBgkqhkiG9w0BCQEWB2NzMV90YTYwgZ8wDQYJKoZI
hvcNAQEBBQADgY0AMIGJAoGBAL6zyaxFjn2hyZ8pmfb5R9Lo8fN9YrCG4AcRisjD
6DUbrkgB/RWOjofL3Yf6r8EqxqnWSiA+xSFTXgkd/4u5JiRIg2nsYVrtjTxCcPZe
HcnFFKpsahc46iShz6sQBw9NrcGMuVU49VHsBjQR1lh//xQl3xPcM01hSqfjZFDs
oEEPAgMBAAGjIDAeMAwGA1UdEwEB/wQCMAAwDgYDVR0PAQH/BAQDAgeAMA0GCSqG
SIb3DQEBCwUAA4GBAJtEvreT5EODlta23QMh2z6IFlNUIZWshJY2XEi33vdNGOfC
ABm/B6QH9RmTiTQFJC3y020GT9sR29VIBCF0Iy6YzrUzYndKoKSPZwohxx64nRJi
TG3IFAxt8a45XV8pMWCSDklYVoTeQphib7z5E8fIjqoq8uGwQXYZQL7HtWtn
-----END CERTIFICATE-----
