Certificate:
    Data:
        Version: 3 (0x2)
        Serial Number: 42 (0x2a)
    Signature Algorithm: sha256WithRSAEncryption
        Issuer: C=US, ST=California, L=Santa Clara, O=pkg5, CN=ch1_ta5/emailAddress=ch1_ta5
        Validity
            Not Before: Mar 20 10:20:56 2018 GMT
            Not After : Dec 14 10:20:56 2020 GMT
        Subject: C=US, ST=California, L=Santa Clara, O=pkg5, CN=cs1_ch1_ta5/emailAddress=cs1_ch1_ta5
        Subject Public Key Info:
            Public Key Algorithm: rsaEncryption
                Public-Key: (1024 bit)
                Modulus:
                    00:c2:58:f5:3c:44:e9:af:85:41:19:f7:3b:c5:ed:
                    c2:5c:32:40:24:04:dd:b4:09:a1:62:0d:3c:9e:57:
                    07:fa:d9:87:dd:af:b9:02:33:fd:4c:8d:60:cb:62:
                    aa:6c:b5:1d:9c:a7:56:d3:ea:62:af:5c:57:5e:c6:
                    1c:55:27:c1:16:1d:ca:d2:3f:a9:b2:96:13:87:e6:
                    61:db:43:40:9a:96:51:bf:fe:bb:9c:f9:a8:88:61:
                    3c:e2:09:80:6c:cc:be:1c:84:e7:a7:85:a6:dc:8b:
                    51:66:31:fe:de:bd:08:b4:0c:6f:b8:d4:ad:ed:cd:
                    43:ff:96:ba:74:09:b4:af:2b
                Exponent: 65537 (0x10001)
        X509v3 extensions:
            X509v3 Basic Constraints: critical
                CA:FALSE
            X509v3 Key Usage: critical
                Digital Signature
    Signature Algorithm: sha256WithRSAEncryption
         32:06:ec:cf:31:3d:a2:30:cd:31:76:b9:f3:2d:9e:69:cd:57:
         1d:0a:99:d2:02:ae:9e:48:29:12:7a:17:91:73:47:b5:f7:d6:
         0b:ce:92:7f:13:70:1b:98:92:a5:98:43:0e:34:4f:fd:64:dc:
         22:28:51:9c:81:ba:5c:64:74:68:da:27:0a:2c:d7:b8:dd:71:
         42:4e:77:6c:ea:3d:75:48:c7:3d:86:01:56:a5:44:93:f5:a6:
         83:ca:65:30:3e:69:0e:47:46:6b:5f:9c:6a:21:59:17:4e:89:
         8c:8f:22:74:1e:ba:0b:bf:2f:5e:69:98:22:aa:1b:4a:81:2c:
         48:bc:ca:8e:f8:9a:f0:03:4e:ef:ea:4a:31:a1:ff:2f:f8:b2:
         27:3f:b6:e9:cf:ea:b8:8e:53:f3:b3:f7:a1:b2:28:4b:40:31:
         e7:26:b4:08:1d:dc:fb:eb:a8:28:7b:9b:20:f3:7d:19:32:b1:
         d6:0b:aa:91:ab:82:93:ed:d1:a6:56:44:03:06:d6:d4:8d:56:
         81:11:4a:e5:c5:48:e9:fa:58:6a:3d:2a:4f:85:3f:26:43:4f:
         58:ed:d2:7b:11:3a:ab:c0:13:12:dc:47:05:88:3c:5c:da:95:
         c2:db:ca:66:87:3c:57:a3:43:3d:50:be:12:a0:dc:e4:71:31:
         68:26:1b:d7
-----BEGIN CERTIFICATE-----
MIIDATCCAemgAwIBAgIBKjANBgkqhkiG9w0BAQsFADBxMQswCQYDVQQGEwJVUzET
MBEGA1UECAwKQ2FsaWZvcm5pYTEUMBIGA1UEBwwLU2FudGEgQ2xhcmExDTALBgNV
BAoMBHBrZzUxEDAOBgNVBAMMB2NoMV90YTUxFjAUBgkqhkiG9w0BCQEWB2NoMV90
YTUwHhcNMTgwMzIwMTAyMDU2WhcNMjAxMjE0MTAyMDU2WjB5MQswCQYDVQQGEwJV
UzETMBEGA1UECAwKQ2FsaWZvcm5pYTEUMBIGA1UEBwwLU2FudGEgQ2xhcmExDTAL
BgNVBAoMBHBrZzUxFDASBgNVBAMMC2NzMV9jaDFfdGE1MRowGAYJKoZIhvcNAQkB
FgtjczFfY2gxX3RhNTCBnzANBgkqhkiG9w0BAQEFAAOBjQAwgYkCgYEAwlj1PETp
r4VBGfc7xe3CXDJAJATdtAmhYg08nlcH+tmH3a+5AjP9TI1gy2KqbLUdnKdW0+pi
r1xXXsYcVSfBFh3K0j+pspYTh+Zh20NAmpZRv/67nPmoiGE84gmAbMy+HITnp4Wm
3ItRZjH+3r0ItAxvuNSt7c1D/5a6dAm0rysCAwEAAaMgMB4wDAYDVR0TAQH/BAIw
ADAOBgNVHQ8BAf8EBAMCB4AwDQYJKoZIhvcNAQELBQADggEBADIG7M8xPaIwzTF2
ufMtnmnNVx0KmdICrp5IKRJ6F5FzR7X31gvOkn8TcBuYkqWYQw40T/1k3CIoUZyB
ulxkdGjaJwos17jdcUJOd2zqPXVIxz2GAValRJP1poPKZTA+aQ5HRmtfnGohWRdO
iYyPInQeugu/L15pmCKqG0qBLEi8yo74mvADTu/qSjGh/y/4sic/tunP6riOU/Oz
96GyKEtAMecmtAgd3PvrqCh7myDzfRkysdYLqpGrgpPt0aZWRAMG1tSNVoERSuXF
SOn6WGo9Kk+FPyZDT1jt0nsROqvAExLcRwWIPFzalcLbymaHPFejQz1QvhKg3ORx
MWgmG9c=
-----END CERTIFICATE-----
