Certificate:
    Data:
        Version: 3 (0x2)
        Serial Number: 42 (0x2a)
        Signature Algorithm: sha256WithRSAEncryption
        Issuer: C=US, ST=California, L=Santa Clara, O=pkg5, CN=ch1_ta5/emailAddress=ch1_ta5
        Validity
            Not Before: Dec 15 15:37:31 2022 GMT
            Not After : Sep 10 15:37:31 2025 GMT
        Subject: C=US, ST=California, L=Santa Clara, O=pkg5, CN=cs1_ch1_ta5/emailAddress=cs1_ch1_ta5
        Subject Public Key Info:
            Public Key Algorithm: rsaEncryption
                Public-Key: (2048 bit)
                Modulus:
                    00:b7:26:0f:69:6e:0c:1a:fa:3a:68:23:4d:18:c0:
                    9f:1d:fc:62:4a:c3:46:9a:38:3e:66:5c:da:bc:a9:
                    77:98:5e:12:1c:7a:d4:77:37:72:7c:1a:80:87:1b:
                    44:21:7d:09:7d:95:fb:cb:ab:a5:dc:34:e7:df:4b:
                    52:78:3f:b3:7f:36:d2:dc:3d:60:34:3c:ed:5d:05:
                    46:5e:94:e7:f7:81:e0:67:90:94:02:0f:15:d6:8c:
                    bc:f2:7f:15:8b:4d:e8:65:4d:2f:23:f3:bd:2d:87:
                    66:0f:bb:a2:29:7f:88:1b:22:9e:29:a2:97:56:53:
                    1c:ca:74:69:5f:17:3e:e6:87:30:cc:e0:22:f2:a3:
                    58:6a:0e:70:4b:5e:7d:48:28:f5:40:a8:2a:38:e3:
                    8d:19:da:dc:d9:ce:8e:2b:f4:df:fe:84:65:98:18:
                    5a:40:d8:8e:bd:da:52:f5:8d:58:92:83:fb:db:ad:
                    5f:ae:a7:7d:58:cf:a5:7e:dd:4a:28:19:af:51:44:
                    94:6b:35:6a:4b:a1:75:ec:84:be:18:55:10:22:ad:
                    10:85:27:86:51:0d:08:e9:5d:22:eb:1b:2d:76:30:
                    d3:19:e7:b5:2d:f4:04:6b:c8:25:0e:9c:28:67:3a:
                    c5:d2:f0:13:2a:84:5c:26:bd:e6:9c:a7:4a:56:16:
                    be:c9
                Exponent: 65537 (0x10001)
        X509v3 extensions:
            X509v3 Basic Constraints: critical
                CA:FALSE
            X509v3 Key Usage: critical
                Digital Signature
            X509v3 Subject Key Identifier: 
                8E:A6:EA:A3:30:42:C0:64:70:B3:EE:92:3D:69:46:EA:3D:BD:AE:C3
            X509v3 Authority Key Identifier: 
                2A:99:33:5F:D4:B0:C8:9E:5F:CA:E9:BF:7C:1B:7B:63:F4:0C:17:BB
    Signature Algorithm: sha256WithRSAEncryption
    Signature Value:
        93:cb:88:40:50:43:3b:26:2f:87:29:0a:19:28:04:0e:1e:1d:
        f7:da:00:1b:af:f4:13:51:f8:1c:e0:c4:9d:b3:a9:8c:a8:6d:
        c5:70:d1:48:4b:25:05:5c:44:e9:09:a1:bd:5a:8b:ce:63:b1:
        79:9d:a5:2f:89:99:2d:51:88:a3:80:13:ab:2b:05:b2:24:b9:
        61:3c:e8:5d:fd:14:b8:0b:b3:a3:95:1a:d7:ac:30:68:d6:30:
        35:13:a6:91:a2:55:e2:42:d9:eb:07:df:a1:84:99:d4:48:93:
        96:db:a4:b2:c8:03:76:d5:c9:61:6e:fb:d7:53:47:f1:46:f6:
        32:da:bb:7e:45:94:38:04:61:70:85:8f:ef:aa:f0:37:b8:d3:
        e7:f4:47:ee:3c:23:d0:35:dd:75:a1:7c:99:28:cf:79:47:1d:
        72:5a:00:64:0d:a3:4a:91:17:28:0a:1e:d4:5e:bf:cb:c4:53:
        08:be:15:4f:12:5f:8f:6e:c2:6d:43:9c:55:5c:22:a7:76:41:
        a7:4f:9b:34:3f:77:41:69:1f:0c:eb:8a:8f:35:c5:3a:34:38:
        3e:d6:93:f1:76:d9:2a:3a:2f:a4:6a:55:6f:ca:8d:24:8b:ce:
        7b:65:00:33:f5:ba:6f:2c:c3:59:28:81:a3:cd:5b:01:e7:c6:
        99:04:6f:1a
-----BEGIN CERTIFICATE-----
MIIDxTCCAq2gAwIBAgIBKjANBgkqhkiG9w0BAQsFADBxMQswCQYDVQQGEwJVUzET
MBEGA1UECAwKQ2FsaWZvcm5pYTEUMBIGA1UEBwwLU2FudGEgQ2xhcmExDTALBgNV
BAoMBHBrZzUxEDAOBgNVBAMMB2NoMV90YTUxFjAUBgkqhkiG9w0BCQEWB2NoMV90
YTUwHhcNMjIxMjE1MTUzNzMxWhcNMjUwOTEwMTUzNzMxWjB5MQswCQYDVQQGEwJV
UzETMBEGA1UECAwKQ2FsaWZvcm5pYTEUMBIGA1UEBwwLU2FudGEgQ2xhcmExDTAL
BgNVBAoMBHBrZzUxFDASBgNVBAMMC2NzMV9jaDFfdGE1MRowGAYJKoZIhvcNAQkB
FgtjczFfY2gxX3RhNTCCASIwDQYJKoZIhvcNAQEBBQADggEPADCCAQoCggEBALcm
D2luDBr6OmgjTRjAnx38YkrDRpo4PmZc2rypd5heEhx61Hc3cnwagIcbRCF9CX2V
+8urpdw0599LUng/s3820tw9YDQ87V0FRl6U5/eB4GeQlAIPFdaMvPJ/FYtN6GVN
LyPzvS2HZg+7oil/iBsinimil1ZTHMp0aV8XPuaHMMzgIvKjWGoOcEtefUgo9UCo
KjjjjRna3NnOjiv03/6EZZgYWkDYjr3aUvWNWJKD+9utX66nfVjPpX7dSigZr1FE
lGs1akuhdeyEvhhVECKtEIUnhlENCOldIusbLXYw0xnntS30BGvIJQ6cKGc6xdLw
EyqEXCa95pynSlYWvskCAwEAAaNgMF4wDAYDVR0TAQH/BAIwADAOBgNVHQ8BAf8E
BAMCB4AwHQYDVR0OBBYEFI6m6qMwQsBkcLPukj1pRuo9va7DMB8GA1UdIwQYMBaA
FCqZM1/UsMieX8rpv3wbe2P0DBe7MA0GCSqGSIb3DQEBCwUAA4IBAQCTy4hAUEM7
Ji+HKQoZKAQOHh332gAbr/QTUfgc4MSds6mMqG3FcNFISyUFXETpCaG9WovOY7F5
naUviZktUYijgBOrKwWyJLlhPOhd/RS4C7OjlRrXrDBo1jA1E6aRolXiQtnrB9+h
hJnUSJOW26SyyAN21clhbvvXU0fxRvYy2rt+RZQ4BGFwhY/vqvA3uNPn9EfuPCPQ
Nd11oXyZKM95Rx1yWgBkDaNKkRcoCh7UXr/LxFMIvhVPEl+PbsJtQ5xVXCKndkGn
T5s0P3dBaR8M64qPNcU6NDg+1pPxdtkqOi+kalVvyo0ki857ZQAz9bpvLMNZKIGj
zVsB58aZBG8a
-----END CERTIFICATE-----
