Certificate:
    Data:
        Version: 3 (0x2)
        Serial Number: 42 (0x2a)
        Signature Algorithm: sha256WithRSAEncryption
        Issuer: C=US, ST=California, L=Santa Clara, O=pkg5, CN=ch1_ta5/emailAddress=ch1_ta5
        Validity
            Not Before: Oct 24 21:43:14 2023 GMT
            Not After : Jul 20 21:43:14 2026 GMT
        Subject: C=US, ST=California, L=Santa Clara, O=pkg5, CN=cs1_ch1_ta5/emailAddress=cs1_ch1_ta5
        Subject Public Key Info:
            Public Key Algorithm: rsaEncryption
                Public-Key: (2048 bit)
                Modulus:
                    00:b3:30:f0:ec:7d:9a:c8:ce:8d:18:d8:19:0b:d0:
                    c9:92:75:e3:a3:16:89:0b:96:39:ae:4a:81:a0:5f:
                    2f:74:b0:c9:a9:5b:5a:24:2d:50:9e:af:14:ef:72:
                    a2:54:75:e2:af:c6:7d:3a:90:03:a9:29:af:99:63:
                    18:28:9c:c2:99:27:e1:7b:35:3e:6a:d9:ad:02:b7:
                    e3:65:b4:58:a6:76:2a:35:7f:1f:12:79:cf:75:0d:
                    19:ab:3e:51:a5:05:d1:05:c5:ea:f2:52:a0:ff:73:
                    81:a5:4d:a1:83:13:09:a6:55:41:9a:54:86:ea:fe:
                    c0:25:76:fe:1f:84:ec:3d:66:31:75:d6:00:39:53:
                    d7:e4:03:1f:61:e3:9a:ef:19:c0:25:19:46:73:29:
                    2e:d9:ee:0e:4c:cc:02:b6:7b:cd:8e:e5:8e:54:b1:
                    6d:2a:f7:55:98:bc:67:b2:6c:49:ff:e6:95:32:ed:
                    69:d3:cb:c1:ed:3c:6f:9e:68:28:08:7e:c0:58:4f:
                    67:1b:a2:f3:cb:6b:dd:f3:3f:94:52:a1:d2:55:65:
                    3d:46:67:5e:47:dc:b0:02:4f:6f:e6:f1:43:6a:a9:
                    be:88:6c:3c:ed:fd:ce:88:cf:6a:88:99:34:bb:23:
                    65:b5:bb:c6:a6:35:75:0a:6f:89:e7:93:9f:60:cf:
                    3c:81
                Exponent: 65537 (0x10001)
        X509v3 extensions:
            X509v3 Basic Constraints: critical
                CA:FALSE
            X509v3 Key Usage: critical
                Digital Signature
            X509v3 Subject Key Identifier: 
                BA:C5:01:E6:61:F3:AC:07:DA:E5:43:CA:75:68:48:49:B3:6C:56:28
            X509v3 Authority Key Identifier: 
                6C:6B:53:EF:C0:AD:D4:CD:56:45:90:51:85:8D:E8:12:2F:65:BA:F1
    Signature Algorithm: sha256WithRSAEncryption
    Signature Value:
        90:67:94:56:c6:da:dd:43:0d:99:36:72:28:13:c4:e4:ef:66:
        6e:da:49:f2:1c:2e:50:89:47:96:7e:38:ce:1b:c5:54:9d:58:
        1d:9d:a2:7b:b6:9c:e8:7a:fa:fd:15:8d:28:c7:12:a2:ee:90:
        17:d2:6c:53:0a:c6:f7:d4:2e:db:1a:1c:dd:4c:41:52:ff:5e:
        af:93:80:dd:5c:8a:75:a7:cf:73:73:38:8f:a4:d1:b6:d9:60:
        6e:0e:ad:21:7b:92:a1:37:5b:49:04:4c:bb:f8:7e:cb:45:1c:
        49:d9:3a:6f:b2:ca:0a:d2:d6:aa:54:a1:b1:13:c7:12:81:fc:
        3f:36:1f:83:0f:c8:e4:58:8d:79:52:d0:1a:a3:e1:08:78:33:
        aa:ea:0c:a3:fa:26:80:cc:fc:2c:1b:5d:1e:39:3b:40:65:85:
        3a:e6:28:6c:bb:b1:78:02:3f:a3:6a:9d:cc:e4:e9:0f:ff:18:
        b9:48:84:9c:94:3b:19:c1:c8:f4:3e:bd:6b:8f:67:13:e2:94:
        fa:eb:85:9d:e2:e8:f7:62:ff:ca:9c:57:b8:6c:62:25:60:3f:
        de:a3:52:b6:ca:9d:c8:4d:62:28:94:83:69:ad:9f:78:66:3d:
        55:b2:76:2a:0b:e7:28:73:4f:b2:52:6a:7a:d7:23:3d:70:2f:
        20:34:e5:da
-----BEGIN CERTIFICATE-----
MIIDxTCCAq2gAwIBAgIBKjANBgkqhkiG9w0BAQsFADBxMQswCQYDVQQGEwJVUzET
MBEGA1UECAwKQ2FsaWZvcm5pYTEUMBIGA1UEBwwLU2FudGEgQ2xhcmExDTALBgNV
BAoMBHBrZzUxEDAOBgNVBAMMB2NoMV90YTUxFjAUBgkqhkiG9w0BCQEWB2NoMV90
YTUwHhcNMjMxMDI0MjE0MzE0WhcNMjYwNzIwMjE0MzE0WjB5MQswCQYDVQQGEwJV
UzETMBEGA1UECAwKQ2FsaWZvcm5pYTEUMBIGA1UEBwwLU2FudGEgQ2xhcmExDTAL
BgNVBAoMBHBrZzUxFDASBgNVBAMMC2NzMV9jaDFfdGE1MRowGAYJKoZIhvcNAQkB
FgtjczFfY2gxX3RhNTCCASIwDQYJKoZIhvcNAQEBBQADggEPADCCAQoCggEBALMw
8Ox9msjOjRjYGQvQyZJ146MWiQuWOa5KgaBfL3SwyalbWiQtUJ6vFO9yolR14q/G
fTqQA6kpr5ljGCicwpkn4Xs1PmrZrQK342W0WKZ2KjV/HxJ5z3UNGas+UaUF0QXF
6vJSoP9zgaVNoYMTCaZVQZpUhur+wCV2/h+E7D1mMXXWADlT1+QDH2Hjmu8ZwCUZ
RnMpLtnuDkzMArZ7zY7ljlSxbSr3VZi8Z7JsSf/mlTLtadPLwe08b55oKAh+wFhP
Zxui88tr3fM/lFKh0lVlPUZnXkfcsAJPb+bxQ2qpvohsPO39zojPaoiZNLsjZbW7
xqY1dQpvieeTn2DPPIECAwEAAaNgMF4wDAYDVR0TAQH/BAIwADAOBgNVHQ8BAf8E
BAMCB4AwHQYDVR0OBBYEFLrFAeZh86wH2uVDynVoSEmzbFYoMB8GA1UdIwQYMBaA
FGxrU+/ArdTNVkWQUYWN6BIvZbrxMA0GCSqGSIb3DQEBCwUAA4IBAQCQZ5RWxtrd
Qw2ZNnIoE8Tk72Zu2knyHC5QiUeWfjjOG8VUnVgdnaJ7tpzoevr9FY0oxxKi7pAX
0mxTCsb31C7bGhzdTEFS/16vk4DdXIp1p89zcziPpNG22WBuDq0he5KhN1tJBEy7
+H7LRRxJ2TpvssoK0taqVKGxE8cSgfw/Nh+DD8jkWI15UtAao+EIeDOq6gyj+iaA
zPwsG10eOTtAZYU65ihsu7F4Aj+jap3M5OkP/xi5SISclDsZwcj0Pr1rj2cT4pT6
64Wd4uj3Yv/KnFe4bGIlYD/eo1K2yp3ITWIolINprZ94Zj1VsnYqC+coc0+yUmp6
1yM9cC8gNOXa
-----END CERTIFICATE-----
