Certificate:
    Data:
        Version: 3 (0x2)
        Serial Number: 43 (0x2b)
    Signature Algorithm: sha256WithRSAEncryption
        Issuer: C=US, ST=California, L=Santa Clara, O=pkg5, OU=ta7, CN=localhost/emailAddress=ta7
        Validity
            Not Before: Dec  6 03:06:44 2014 GMT
            Not After : Sep  1 03:06:44 2017 GMT
        Subject: C=US, ST=California, L=Santa Clara, O=pkg5, OU=cs1_ta7, CN=localhost/emailAddress=cs1_ta7
        Subject Public Key Info:
            Public Key Algorithm: rsaEncryption
                Public-Key: (1024 bit)
                Modulus:
                    00:a3:b7:90:ac:1e:63:08:89:dd:21:2a:04:0a:a5:
                    30:0c:db:4b:f3:02:f5:36:20:a7:bb:76:0a:b1:74:
                    91:5c:b7:a9:99:d3:fa:8d:89:f7:5f:e7:20:f3:af:
                    63:38:58:72:3c:de:5b:0d:12:25:17:c0:77:64:df:
                    9b:53:19:7a:77:e4:7f:09:b4:df:d9:49:ee:21:42:
                    fe:85:b5:67:8b:1f:87:f9:11:47:d0:b5:cb:ee:9b:
                    df:d7:bf:35:bf:ea:2a:4a:b7:59:cb:68:22:54:2d:
                    d7:8b:f7:ce:e1:86:a2:be:fa:7e:09:3d:29:e2:46:
                    fa:5d:0b:25:4a:bb:69:ef:1f
                Exponent: 65537 (0x10001)
        X509v3 extensions:
            X509v3 Basic Constraints: critical
                CA:FALSE
            X509v3 Key Usage: critical
                Digital Signature
    Signature Algorithm: sha256WithRSAEncryption
         1e:6a:51:1b:a0:36:a8:f1:73:70:c9:93:80:db:2a:e9:2a:7d:
         d1:5c:98:0f:29:73:be:5a:8a:bf:81:f1:2d:df:47:55:78:b1:
         d1:e0:5c:90:22:bd:3f:ec:5a:dc:89:c5:82:c4:b2:88:3c:c7:
         4a:c7:14:a3:fd:04:0a:e8:cb:1c:0d:0a:af:cc:d1:8d:d7:b0:
         06:e2:bb:11:13:3f:80:66:96:ac:ba:38:e4:7e:10:7d:dd:bf:
         d2:fb:b6:2c:b9:02:b9:e5:28:47:fb:08:ff:8b:e8:d6:c5:ad:
         5f:da:4a:4d:4c:9e:88:35:b5:e8:8c:57:8a:85:bc:1c:67:4d:
         f3:ea
-----BEGIN CERTIFICATE-----
MIICmTCCAgKgAwIBAgIBKzANBgkqhkiG9w0BAQsFADB9MQswCQYDVQQGEwJVUzET
MBEGA1UECAwKQ2FsaWZvcm5pYTEUMBIGA1UEBwwLU2FudGEgQ2xhcmExDTALBgNV
BAoMBHBrZzUxDDAKBgNVBAsMA3RhNzESMBAGA1UEAwwJbG9jYWxob3N0MRIwEAYJ
KoZIhvcNAQkBFgN0YTcwHhcNMTQxMjA2MDMwNjQ0WhcNMTcwOTAxMDMwNjQ0WjCB
hTELMAkGA1UEBhMCVVMxEzARBgNVBAgMCkNhbGlmb3JuaWExFDASBgNVBAcMC1Nh
bnRhIENsYXJhMQ0wCwYDVQQKDARwa2c1MRAwDgYDVQQLDAdjczFfdGE3MRIwEAYD
VQQDDAlsb2NhbGhvc3QxFjAUBgkqhkiG9w0BCQEWB2NzMV90YTcwgZ8wDQYJKoZI
hvcNAQEBBQADgY0AMIGJAoGBAKO3kKweYwiJ3SEqBAqlMAzbS/MC9TYgp7t2CrF0
kVy3qZnT+o2J91/nIPOvYzhYcjzeWw0SJRfAd2Tfm1MZenfkfwm039lJ7iFC/oW1
Z4sfh/kRR9C1y+6b39e/Nb/qKkq3WctoIlQt14v3zuGGor76fgk9KeJG+l0LJUq7
ae8fAgMBAAGjIDAeMAwGA1UdEwEB/wQCMAAwDgYDVR0PAQH/BAQDAgeAMA0GCSqG
SIb3DQEBCwUAA4GBAB5qURugNqjxc3DJk4DbKukqfdFcmA8pc75air+B8S3fR1V4
sdHgXJAivT/sWtyJxYLEsog8x0rHFKP9BAroyxwNCq/M0Y3XsAbiuxETP4Bmlqy6
OOR+EH3dv9L7tiy5ArnlKEf7CP+L6NbFrV/aSk1Mnog1teiMV4qFvBxnTfPq
-----END CERTIFICATE-----
