Certificate:
    Data:
        Version: 3 (0x2)
        Serial Number: 43 (0x2b)
        Signature Algorithm: sha256WithRSAEncryption
        Issuer: C=US, ST=California, L=Santa Clara, O=pkg5, OU=ta6, CN=localhost/emailAddress=ta6
        Validity
            Not Before: Nov 17 23:01:34 2020 GMT
            Not After : Aug 14 23:01:34 2023 GMT
        Subject: C=US, ST=California, L=Santa Clara, O=pkg5, OU=cs1_ta6, CN=localhost/emailAddress=cs1_ta6
        Subject Public Key Info:
            Public Key Algorithm: rsaEncryption
                RSA Public-Key: (1024 bit)
                Modulus:
                    00:cd:5c:7f:ad:f2:76:89:0e:dc:36:d6:28:fc:f6:
                    b3:ba:91:cf:95:3c:c1:75:33:3e:d7:48:c2:db:7a:
                    3f:6c:10:f3:d3:ed:86:9e:51:9a:64:fd:fe:d3:82:
                    01:46:cb:54:a6:14:21:03:00:8e:7a:9f:cd:1e:74:
                    b4:1c:65:32:f4:d2:64:7c:8c:ba:98:18:a6:5a:4b:
                    57:31:32:82:e6:50:96:e7:43:fc:d6:cd:f3:97:7e:
                    36:12:4b:c9:0e:e8:1b:47:48:f8:62:da:15:c4:13:
                    44:f5:aa:11:66:ea:88:9d:8f:47:15:1d:2c:ab:fd:
                    56:94:12:0b:d0:f8:fc:b7:1f
                Exponent: 65537 (0x10001)
        X509v3 extensions:
            X509v3 Basic Constraints: critical
                CA:FALSE
            X509v3 Key Usage: critical
                Digital Signature
    Signature Algorithm: sha256WithRSAEncryption
         19:92:32:6b:5b:6d:84:8d:2d:32:b7:3c:de:6a:d2:ed:5d:c5:
         41:32:93:dd:7c:48:24:9a:1f:de:a2:08:66:cf:d8:20:a6:37:
         f8:c0:26:21:f4:34:bd:3c:d9:99:47:5d:08:38:e4:af:5d:a9:
         e5:65:e9:20:ad:0e:1b:08:d9:8a:5d:b5:87:53:3c:37:81:c3:
         ab:34:cc:f0:16:cb:e3:95:8f:9f:48:e8:62:fc:f5:b4:5f:da:
         5a:7b:50:e2:02:51:84:58:4c:63:9e:b9:83:60:25:38:f6:b2:
         0c:df:94:a9:41:1d:b5:cd:80:1d:43:1c:9e:22:d8:dc:c2:77:
         37:d8:b2:d7:81:21:29:d5:26:71:b2:4b:bd:ee:63:1d:1a:8c:
         88:a0:47:72:64:88:5c:f8:74:aa:de:3e:48:23:b0:f1:57:14:
         f2:55:b9:36:ac:90:a6:a5:fb:7e:1e:dc:7d:2b:95:06:16:49:
         fc:82:98:73:f5:e9:d9:5e:19:eb:3b:ec:ce:6d:a5:bf:c9:e7:
         31:06:8a:34:b9:5f:ba:4f:a3:4e:90:ac:6b:b2:59:91:6d:30:
         8c:a1:6b:ed:8c:0d:e5:48:ff:ef:34:91:0f:47:fc:82:37:e0:
         d0:d1:a8:e7:65:10:09:67:db:fe:cc:bd:44:d5:db:0b:50:f5:
         cc:cb:d1:49
-----BEGIN CERTIFICATE-----
MIIDGjCCAgKgAwIBAgIBKzANBgkqhkiG9w0BAQsFADB9MQswCQYDVQQGEwJVUzET
MBEGA1UECAwKQ2FsaWZvcm5pYTEUMBIGA1UEBwwLU2FudGEgQ2xhcmExDTALBgNV
BAoMBHBrZzUxDDAKBgNVBAsMA3RhNjESMBAGA1UEAwwJbG9jYWxob3N0MRIwEAYJ
KoZIhvcNAQkBFgN0YTYwHhcNMjAxMTE3MjMwMTM0WhcNMjMwODE0MjMwMTM0WjCB
hTELMAkGA1UEBhMCVVMxEzARBgNVBAgMCkNhbGlmb3JuaWExFDASBgNVBAcMC1Nh
bnRhIENsYXJhMQ0wCwYDVQQKDARwa2c1MRAwDgYDVQQLDAdjczFfdGE2MRIwEAYD
VQQDDAlsb2NhbGhvc3QxFjAUBgkqhkiG9w0BCQEWB2NzMV90YTYwgZ8wDQYJKoZI
hvcNAQEBBQADgY0AMIGJAoGBAM1cf63ydokO3DbWKPz2s7qRz5U8wXUzPtdIwtt6
P2wQ89Pthp5RmmT9/tOCAUbLVKYUIQMAjnqfzR50tBxlMvTSZHyMupgYplpLVzEy
guZQludD/NbN85d+NhJLyQ7oG0dI+GLaFcQTRPWqEWbqiJ2PRxUdLKv9VpQSC9D4
/LcfAgMBAAGjIDAeMAwGA1UdEwEB/wQCMAAwDgYDVR0PAQH/BAQDAgeAMA0GCSqG
SIb3DQEBCwUAA4IBAQAZkjJrW22EjS0ytzzeatLtXcVBMpPdfEgkmh/eoghmz9gg
pjf4wCYh9DS9PNmZR10IOOSvXanlZekgrQ4bCNmKXbWHUzw3gcOrNMzwFsvjlY+f
SOhi/PW0X9pae1DiAlGEWExjnrmDYCU49rIM35SpQR21zYAdQxyeItjcwnc32LLX
gSEp1SZxsku97mMdGoyIoEdyZIhc+HSq3j5II7DxVxTyVbk2rJCmpft+Htx9K5UG
Fkn8gphz9enZXhnrO+zObaW/yecxBoo0uV+6T6NOkKxrslmRbTCMoWvtjA3lSP/v
NJEPR/yCN+DQ0ajnZRAJZ9v+zL1E1dsLUPXMy9FJ
-----END CERTIFICATE-----
