Certificate:
    Data:
        Version: 3 (0x2)
        Serial Number: 43 (0x2b)
    Signature Algorithm: sha256WithRSAEncryption
        Issuer: C=US, ST=California, L=Santa Clara, O=pkg5, OU=ta6, CN=localhost/emailAddress=ta6
        Validity
            Not Before: Nov 16 10:58:51 2017 GMT
            Not After : Aug 12 10:58:51 2020 GMT
        Subject: C=US, ST=California, L=Santa Clara, O=pkg5, OU=cs1_ta6, CN=localhost/emailAddress=cs1_ta6
        Subject Public Key Info:
            Public Key Algorithm: rsaEncryption
                Public-Key: (1024 bit)
                Modulus:
                    00:cb:bf:0f:71:51:1b:f6:70:ae:2f:65:bb:93:f5:
                    ab:14:e9:b1:cd:15:06:8b:9e:9b:d3:9e:ea:8b:e9:
                    81:c6:0b:39:3a:26:2a:c3:ae:10:2a:d2:a6:41:39:
                    b5:e3:ab:b4:17:7d:d7:10:49:86:91:24:0c:23:18:
                    d7:14:43:b8:a5:3a:f4:fc:0d:5d:49:23:67:26:bf:
                    27:84:05:f6:3b:8f:ba:83:8f:9c:d3:02:57:d0:6d:
                    66:09:8b:7a:c6:f5:fe:87:f8:ff:cb:5c:b6:20:96:
                    fe:3b:54:2c:ab:3d:15:7e:ab:1e:ee:86:27:2c:90:
                    79:c3:6c:e7:e9:88:b4:ab:df
                Exponent: 65537 (0x10001)
        X509v3 extensions:
            X509v3 Basic Constraints: critical
                CA:FALSE
            X509v3 Key Usage: critical
                Digital Signature
    Signature Algorithm: sha256WithRSAEncryption
         18:72:27:a2:05:80:82:d8:e0:25:29:99:3a:4c:80:6e:14:ce:
         f6:91:da:c6:8f:66:32:19:af:96:53:a6:e1:fa:e8:f7:7e:f8:
         ff:15:7a:a8:ec:2d:e4:dd:ba:52:c4:a2:2e:23:54:25:6a:79:
         17:b6:c0:2b:74:ff:af:a3:36:3f:89:39:1e:28:28:c3:89:de:
         8a:68:d2:23:96:7c:e7:ee:f9:41:e8:58:20:98:e4:05:a8:6f:
         e1:04:35:94:ef:53:f4:f2:6e:53:27:cf:c4:6d:b0:9d:c6:f3:
         d3:9b:55:bf:52:57:99:31:58:40:a4:fc:5f:8f:88:75:42:9e:
         f9:37:0c:1e:50:c5:63:ad:d6:a9:8b:77:f9:de:e8:2d:fb:5d:
         4e:77:d3:d0:6a:8a:bb:b7:15:fa:2c:28:de:8c:60:1d:3d:41:
         df:4b:1a:42:81:d4:64:e5:2b:7d:8a:e8:eb:26:63:ce:00:38:
         35:98:4a:92:2a:0a:1e:ca:d1:3c:04:d5:2f:68:57:08:e5:47:
         41:67:05:da:a3:b0:36:d9:c2:7d:76:8c:66:2b:ca:80:0d:92:
         06:39:8e:98:4a:ce:aa:95:98:23:74:9a:f7:8d:34:fb:c6:ee:
         d3:1b:67:e3:24:e0:81:a1:5f:d9:66:32:68:4d:0b:cf:7a:81:
         e8:a4:13:a5
-----BEGIN CERTIFICATE-----
MIIDGjCCAgKgAwIBAgIBKzANBgkqhkiG9w0BAQsFADB9MQswCQYDVQQGEwJVUzET
MBEGA1UECAwKQ2FsaWZvcm5pYTEUMBIGA1UEBwwLU2FudGEgQ2xhcmExDTALBgNV
BAoMBHBrZzUxDDAKBgNVBAsMA3RhNjESMBAGA1UEAwwJbG9jYWxob3N0MRIwEAYJ
KoZIhvcNAQkBFgN0YTYwHhcNMTcxMTE2MTA1ODUxWhcNMjAwODEyMTA1ODUxWjCB
hTELMAkGA1UEBhMCVVMxEzARBgNVBAgMCkNhbGlmb3JuaWExFDASBgNVBAcMC1Nh
bnRhIENsYXJhMQ0wCwYDVQQKDARwa2c1MRAwDgYDVQQLDAdjczFfdGE2MRIwEAYD
VQQDDAlsb2NhbGhvc3QxFjAUBgkqhkiG9w0BCQEWB2NzMV90YTYwgZ8wDQYJKoZI
hvcNAQEBBQADgY0AMIGJAoGBAMu/D3FRG/Zwri9lu5P1qxTpsc0VBouem9Oe6ovp
gcYLOTomKsOuECrSpkE5teOrtBd91xBJhpEkDCMY1xRDuKU69PwNXUkjZya/J4QF
9juPuoOPnNMCV9BtZgmLesb1/of4/8tctiCW/jtULKs9FX6rHu6GJyyQecNs5+mI
tKvfAgMBAAGjIDAeMAwGA1UdEwEB/wQCMAAwDgYDVR0PAQH/BAQDAgeAMA0GCSqG
SIb3DQEBCwUAA4IBAQAYcieiBYCC2OAlKZk6TIBuFM72kdrGj2YyGa+WU6bh+uj3
fvj/FXqo7C3k3bpSxKIuI1QlankXtsArdP+vozY/iTkeKCjDid6KaNIjlnzn7vlB
6FggmOQFqG/hBDWU71P08m5TJ8/EbbCdxvPTm1W/UleZMVhApPxfj4h1Qp75Nwwe
UMVjrdapi3f53ugt+11Od9PQaoq7txX6LCjejGAdPUHfSxpCgdRk5St9iujrJmPO
ADg1mEqSKgoeytE8BNUvaFcI5UdBZwXao7A22cJ9doxmK8qADZIGOY6YSs6qlZgj
dJr3jTT7xu7TG2fjJOCBoV/ZZjJoTQvPeoHopBOl
-----END CERTIFICATE-----
