Certificate:
    Data:
        Version: 3 (0x2)
        Serial Number: 43 (0x2b)
        Signature Algorithm: sha256WithRSAEncryption
        Issuer: C=US, ST=California, L=Santa Clara, O=pkg5, OU=ta6, CN=localhost/emailAddress=ta6
        Validity
            Not Before: Dec 15 15:37:32 2022 GMT
            Not After : Sep 10 15:37:32 2025 GMT
        Subject: C=US, ST=California, L=Santa Clara, O=pkg5, OU=cs1_ta6, CN=localhost/emailAddress=cs1_ta6
        Subject Public Key Info:
            Public Key Algorithm: rsaEncryption
                Public-Key: (2048 bit)
                Modulus:
                    00:97:41:9d:1c:88:12:5a:54:7f:c0:32:65:7b:89:
                    55:85:06:50:7a:33:a7:19:ca:8c:22:47:0b:00:2a:
                    47:96:b2:f3:e8:32:2c:18:f9:39:17:e5:70:99:50:
                    ed:0d:48:5b:18:f4:3d:62:a3:ec:a5:f3:2f:50:7a:
                    80:a5:6a:96:44:72:d1:de:e1:5d:7c:b8:df:47:50:
                    2e:bb:eb:75:aa:5b:f4:cd:50:e4:31:e5:85:c2:e3:
                    19:54:3a:05:79:e0:eb:07:69:d4:1e:f8:69:06:0e:
                    a6:3f:3f:ff:ff:84:41:e5:de:8f:89:18:f9:f6:3b:
                    36:76:75:00:af:ff:86:31:28:8f:97:af:81:11:32:
                    01:03:04:69:b4:14:ab:3b:36:cd:b1:2c:af:e9:f0:
                    fc:97:15:75:ad:07:f6:cc:a6:ba:44:f7:6d:c7:4f:
                    ee:15:49:7d:5b:72:b2:cf:cd:61:8f:2d:1c:db:73:
                    39:13:0d:f0:bb:46:52:01:9d:45:94:7a:88:b2:32:
                    54:57:ac:0a:c4:7d:bd:8b:9e:91:22:fe:a7:fd:17:
                    e1:e9:12:f9:d9:9a:87:8b:63:36:81:d3:b0:65:a1:
                    f2:5d:fb:89:90:ed:f7:39:09:1e:61:79:a8:fc:d0:
                    ad:5e:51:7b:04:3d:3f:5f:1c:57:33:0c:ba:dc:f0:
                    f8:a1
                Exponent: 65537 (0x10001)
        X509v3 extensions:
            X509v3 Basic Constraints: critical
                CA:FALSE
            X509v3 Key Usage: critical
                Digital Signature
            X509v3 Subject Key Identifier: 
                A6:D0:C2:F8:64:E7:7C:5A:C1:D3:36:86:00:A5:AD:27:88:58:E0:2A
            X509v3 Authority Key Identifier: 
                96:C0:7F:20:80:13:7E:48:F2:86:AE:DA:06:2F:41:2C:E5:93:D3:BF
    Signature Algorithm: sha256WithRSAEncryption
    Signature Value:
        90:b2:f7:a3:09:50:5c:d4:75:2f:5b:82:2e:20:1e:5f:ea:33:
        b8:1d:80:5c:dc:e6:34:49:b8:57:f4:f9:ad:a6:6e:f0:bb:59:
        e8:12:3f:c7:e7:71:a8:e3:d1:23:66:08:fa:1f:68:be:47:0a:
        42:35:7e:ee:b7:4a:82:d7:f1:20:68:2c:da:f9:da:7a:53:ab:
        59:00:dc:03:a0:ee:cf:84:b4:23:2c:15:d9:f6:f2:b9:33:64:
        2e:68:20:98:0c:f8:db:7f:45:d4:5c:c0:1e:0e:d3:5f:21:99:
        ef:ee:c7:b9:f6:d3:a6:6d:30:19:6a:5b:c4:3e:5a:c9:b9:ec:
        dc:dc:a2:bf:1a:a2:b7:5c:4c:99:12:80:4a:cf:65:86:d6:30:
        33:c5:4c:de:1b:f3:83:17:d2:2f:01:ca:17:9b:df:82:b3:89:
        a8:1a:57:a3:c5:11:67:1d:85:cb:64:87:ca:00:46:f8:a9:77:
        d3:ec:77:74:23:2c:85:64:63:32:9b:1f:16:6e:22:16:05:e6:
        37:22:0c:aa:0d:aa:42:e7:ad:07:53:30:92:9e:92:f5:3f:de:
        96:c9:89:44:09:57:88:69:f1:3c:d8:5a:32:77:33:3e:28:e0:
        b0:b2:6e:2d:b9:d0:59:6a:89:c1:1a:89:ee:2f:ff:99:80:1b:
        93:76:14:d5
-----BEGIN CERTIFICATE-----
MIID3jCCAsagAwIBAgIBKzANBgkqhkiG9w0BAQsFADB9MQswCQYDVQQGEwJVUzET
MBEGA1UECAwKQ2FsaWZvcm5pYTEUMBIGA1UEBwwLU2FudGEgQ2xhcmExDTALBgNV
BAoMBHBrZzUxDDAKBgNVBAsMA3RhNjESMBAGA1UEAwwJbG9jYWxob3N0MRIwEAYJ
KoZIhvcNAQkBFgN0YTYwHhcNMjIxMjE1MTUzNzMyWhcNMjUwOTEwMTUzNzMyWjCB
hTELMAkGA1UEBhMCVVMxEzARBgNVBAgMCkNhbGlmb3JuaWExFDASBgNVBAcMC1Nh
bnRhIENsYXJhMQ0wCwYDVQQKDARwa2c1MRAwDgYDVQQLDAdjczFfdGE2MRIwEAYD
VQQDDAlsb2NhbGhvc3QxFjAUBgkqhkiG9w0BCQEWB2NzMV90YTYwggEiMA0GCSqG
SIb3DQEBAQUAA4IBDwAwggEKAoIBAQCXQZ0ciBJaVH/AMmV7iVWFBlB6M6cZyowi
RwsAKkeWsvPoMiwY+TkX5XCZUO0NSFsY9D1io+yl8y9QeoClapZEctHe4V18uN9H
UC6763WqW/TNUOQx5YXC4xlUOgV54OsHadQe+GkGDqY/P///hEHl3o+JGPn2OzZ2
dQCv/4YxKI+Xr4ERMgEDBGm0FKs7Ns2xLK/p8PyXFXWtB/bMprpE923HT+4VSX1b
crLPzWGPLRzbczkTDfC7RlIBnUWUeoiyMlRXrArEfb2LnpEi/qf9F+HpEvnZmoeL
YzaB07BlofJd+4mQ7fc5CR5heaj80K1eUXsEPT9fHFczDLrc8PihAgMBAAGjYDBe
MAwGA1UdEwEB/wQCMAAwDgYDVR0PAQH/BAQDAgeAMB0GA1UdDgQWBBSm0ML4ZOd8
WsHTNoYApa0niFjgKjAfBgNVHSMEGDAWgBSWwH8ggBN+SPKGrtoGL0Es5ZPTvzAN
BgkqhkiG9w0BAQsFAAOCAQEAkLL3owlQXNR1L1uCLiAeX+ozuB2AXNzmNEm4V/T5
raZu8LtZ6BI/x+dxqOPRI2YI+h9ovkcKQjV+7rdKgtfxIGgs2vnaelOrWQDcA6Du
z4S0IywV2fbyuTNkLmggmAz4239F1FzAHg7TXyGZ7+7HufbTpm0wGWpbxD5aybns
3Nyivxqit1xMmRKASs9lhtYwM8VM3hvzgxfSLwHKF5vfgrOJqBpXo8URZx2Fy2SH
ygBG+Kl30+x3dCMshWRjMpsfFm4iFgXmNyIMqg2qQuetB1Mwkp6S9T/elsmJRAlX
iGnxPNhaMnczPijgsLJuLbnQWWqJwRqJ7i//mYAbk3YU1Q==
-----END CERTIFICATE-----
