Certificate:
    Data:
        Version: 3 (0x2)
        Serial Number: 44 (0x2c)
        Signature Algorithm: sha256WithRSAEncryption
        Issuer: C=US, ST=California, L=Santa Clara, O=pkg5, OU=ta7, CN=localhost/emailAddress=ta7
        Validity
            Not Before: Oct 24 21:43:16 2023 GMT
            Not After : Jul 20 21:43:16 2026 GMT
        Subject: C=US, ST=California, L=Santa Clara, O=pkg5, OU=cs1_ta7, CN=localhost/emailAddress=cs1_ta7
        Subject Public Key Info:
            Public Key Algorithm: rsaEncryption
                Public-Key: (2048 bit)
                Modulus:
                    00:a3:05:bb:8d:d4:ad:49:25:a2:8a:6e:0d:5e:1a:
                    fb:16:67:5e:a2:06:c3:bc:54:21:a6:f8:e8:7c:85:
                    25:48:07:39:72:46:79:2d:02:7b:38:20:e3:07:7b:
                    85:c6:19:46:6f:c2:e1:55:86:41:47:06:fb:2c:17:
                    ca:b0:85:72:4d:04:1c:3e:bf:f2:e0:eb:53:70:cd:
                    d4:57:e6:40:28:8b:57:70:1e:40:4f:9a:1f:09:e7:
                    37:67:d0:12:c4:bb:97:cd:90:ac:58:b3:99:56:52:
                    32:2a:a2:ef:aa:6c:bb:f8:76:29:ff:b9:ee:ad:50:
                    9c:68:76:61:0d:42:f2:42:81:c1:7a:f2:73:75:06:
                    87:da:28:73:78:86:d8:c4:23:f1:fb:59:31:42:23:
                    99:73:e4:ae:39:b5:12:20:1a:2d:a1:71:8f:e8:08:
                    0b:f7:14:c4:77:0e:ac:f6:b1:04:69:90:ed:eb:7b:
                    31:a9:9f:f3:7b:c4:54:18:9a:25:35:f9:dc:b6:0e:
                    da:2f:74:68:fb:79:7b:91:6f:61:5a:de:5e:2e:32:
                    f3:8e:19:79:eb:fd:69:1f:6a:6a:22:97:c4:bb:07:
                    aa:98:d8:a8:8e:22:0f:62:d2:8c:c3:d4:82:18:c2:
                    8e:e5:0f:ac:ca:f0:0a:b0:65:db:14:73:7e:d9:e7:
                    dd:c7
                Exponent: 65537 (0x10001)
        X509v3 extensions:
            X509v3 Basic Constraints: critical
                CA:FALSE
            X509v3 Key Usage: critical
                Digital Signature
            X509v3 Subject Key Identifier: 
                C3:E5:58:FE:24:6E:96:DF:03:16:1E:D0:58:F9:65:D0:8E:FB:E3:82
            X509v3 Authority Key Identifier: 
                1B:C3:39:5D:C8:15:07:DC:38:83:65:76:0A:82:CC:BD:4A:6A:6C:6C
    Signature Algorithm: sha256WithRSAEncryption
    Signature Value:
        a4:67:bf:8d:2d:08:b7:a0:5b:5f:54:e3:19:a5:68:de:4c:4a:
        6b:26:25:1e:c7:c6:1d:67:73:02:54:00:a0:fa:d9:0e:b2:71:
        34:e6:f0:fe:ed:26:c3:68:63:84:89:09:97:0a:1d:81:24:3b:
        4e:a6:be:b8:7c:21:3b:ec:45:17:b5:9e:9d:15:ba:8d:f9:69:
        c6:03:30:24:f5:6c:e2:2f:5f:3c:5f:a3:93:2c:c5:59:6e:4f:
        db:c7:1f:0d:da:41:96:b3:df:5d:60:34:05:2b:37:c0:74:55:
        82:db:03:07:f3:52:6f:e9:df:56:0c:da:2a:ca:1e:45:01:22:
        22:2e:02:25:70:6f:42:9f:ce:3e:b9:40:fe:2c:7a:14:b2:60:
        0d:7a:2c:a0:b5:c8:ae:d4:e0:5d:62:4b:4d:54:9c:e5:d5:ea:
        3a:5a:7f:94:37:29:75:55:38:c3:9d:bb:11:22:6d:4e:11:10:
        bf:26:10:b4:d2:10:f1:c9:5b:15:c9:67:4e:48:19:9d:b4:9c:
        ef:bb:7b:8e:da:7d:09:8e:04:ae:fd:25:3f:69:84:bb:c8:78:
        d8:48:42:5e:c2:76:60:4f:df:35:aa:e6:fa:b8:2b:6f:27:7b:
        15:04:b0:61:c4:c3:5e:5e:2a:59:60:6a:f3:91:bf:82:25:be:
        16:64:ba:37
-----BEGIN CERTIFICATE-----
MIID3jCCAsagAwIBAgIBLDANBgkqhkiG9w0BAQsFADB9MQswCQYDVQQGEwJVUzET
MBEGA1UECAwKQ2FsaWZvcm5pYTEUMBIGA1UEBwwLU2FudGEgQ2xhcmExDTALBgNV
BAoMBHBrZzUxDDAKBgNVBAsMA3RhNzESMBAGA1UEAwwJbG9jYWxob3N0MRIwEAYJ
KoZIhvcNAQkBFgN0YTcwHhcNMjMxMDI0MjE0MzE2WhcNMjYwNzIwMjE0MzE2WjCB
hTELMAkGA1UEBhMCVVMxEzARBgNVBAgMCkNhbGlmb3JuaWExFDASBgNVBAcMC1Nh
bnRhIENsYXJhMQ0wCwYDVQQKDARwa2c1MRAwDgYDVQQLDAdjczFfdGE3MRIwEAYD
VQQDDAlsb2NhbGhvc3QxFjAUBgkqhkiG9w0BCQEWB2NzMV90YTcwggEiMA0GCSqG
SIb3DQEBAQUAA4IBDwAwggEKAoIBAQCjBbuN1K1JJaKKbg1eGvsWZ16iBsO8VCGm
+Oh8hSVIBzlyRnktAns4IOMHe4XGGUZvwuFVhkFHBvssF8qwhXJNBBw+v/Lg61Nw
zdRX5kAoi1dwHkBPmh8J5zdn0BLEu5fNkKxYs5lWUjIqou+qbLv4din/ue6tUJxo
dmENQvJCgcF68nN1BofaKHN4htjEI/H7WTFCI5lz5K45tRIgGi2hcY/oCAv3FMR3
Dqz2sQRpkO3rezGpn/N7xFQYmiU1+dy2DtovdGj7eXuRb2Fa3l4uMvOOGXnr/Wkf
amoil8S7B6qY2KiOIg9i0ozD1IIYwo7lD6zK8AqwZdsUc37Z593HAgMBAAGjYDBe
MAwGA1UdEwEB/wQCMAAwDgYDVR0PAQH/BAQDAgeAMB0GA1UdDgQWBBTD5Vj+JG6W
3wMWHtBY+WXQjvvjgjAfBgNVHSMEGDAWgBQbwzldyBUH3DiDZXYKgsy9SmpsbDAN
BgkqhkiG9w0BAQsFAAOCAQEApGe/jS0It6BbX1TjGaVo3kxKayYlHsfGHWdzAlQA
oPrZDrJxNObw/u0mw2hjhIkJlwodgSQ7Tqa+uHwhO+xFF7WenRW6jflpxgMwJPVs
4i9fPF+jkyzFWW5P28cfDdpBlrPfXWA0BSs3wHRVgtsDB/NSb+nfVgzaKsoeRQEi
Ii4CJXBvQp/OPrlA/ix6FLJgDXosoLXIrtTgXWJLTVSc5dXqOlp/lDcpdVU4w527
ESJtThEQvyYQtNIQ8clbFclnTkgZnbSc77t7jtp9CY4Erv0lP2mEu8h42EhCXsJ2
YE/fNarm+rgrbyd7FQSwYcTDXl4qWWBq85G/giW+FmS6Nw==
-----END CERTIFICATE-----
