Certificate:
    Data:
        Version: 3 (0x2)
        Serial Number: 44 (0x2c)
    Signature Algorithm: sha256WithRSAEncryption
        Issuer: C=US, ST=California, L=Santa Clara, O=pkg5, OU=ta7, CN=localhost/emailAddress=ta7
        Validity
            Not Before: Nov 16 10:58:51 2017 GMT
            Not After : Aug 12 10:58:51 2020 GMT
        Subject: C=US, ST=California, L=Santa Clara, O=pkg5, OU=cs1_ta7, CN=localhost/emailAddress=cs1_ta7
        Subject Public Key Info:
            Public Key Algorithm: rsaEncryption
                Public-Key: (1024 bit)
                Modulus:
                    00:bf:3a:de:2a:71:cc:fd:d6:f0:89:d6:6d:50:f7:
                    2e:ac:a3:24:59:8a:9f:c8:eb:7f:43:92:05:7b:af:
                    1a:7e:5c:f1:bb:7f:f9:b1:35:3b:6f:bc:e1:1f:15:
                    38:c7:b1:84:88:a7:16:14:52:03:8a:96:26:2d:bc:
                    32:d0:84:cb:4f:38:7a:38:ac:b2:04:fc:28:47:77:
                    16:50:c7:e2:69:95:9f:5c:0d:5c:0f:b2:78:a7:a3:
                    c7:b4:2c:6a:e0:4f:c0:fa:7b:9f:ba:22:d4:34:16:
                    ae:40:c8:ad:46:4c:b5:4d:79:40:a8:de:be:9e:a6:
                    07:3c:73:ba:14:ae:4e:27:49
                Exponent: 65537 (0x10001)
        X509v3 extensions:
            X509v3 Basic Constraints: critical
                CA:FALSE
            X509v3 Key Usage: critical
                Digital Signature
    Signature Algorithm: sha256WithRSAEncryption
         98:a0:62:0d:03:4a:ac:7d:1a:8a:cb:15:15:82:7b:bd:d6:0a:
         e5:89:a1:b0:2a:78:c2:e0:9b:6c:79:93:f0:68:d7:84:4f:d7:
         2f:ae:75:24:67:ea:7c:29:a8:5b:f3:7b:3f:37:80:8e:47:c3:
         1a:99:8c:13:08:3b:bb:e4:6c:ba:68:b1:b5:5e:f3:0d:81:77:
         f4:30:54:a8:b4:29:c0:41:1f:30:80:78:b4:ac:d0:1a:a7:6c:
         7d:6c:ae:7c:69:a9:fa:7d:8a:3c:c1:d1:2f:40:db:58:96:da:
         e2:21:ac:c7:c3:3d:75:72:8c:af:22:0f:f9:53:a8:9c:ae:2f:
         21:23:f7:a8:5d:b4:a2:71:96:1c:7c:9e:2d:2c:df:73:98:7a:
         51:92:b3:14:95:e3:f8:ac:6c:14:80:6a:85:be:ea:7f:b7:2a:
         41:33:23:bb:ab:ba:16:58:4c:16:2f:ca:78:1c:ee:c6:9a:f7:
         15:71:ba:42:bc:71:e7:fa:fd:ae:2e:14:e7:a3:99:ec:68:b3:
         f7:1b:9c:20:cd:2d:d7:90:11:b5:e2:6b:7f:4a:e4:18:dd:82:
         a8:30:7c:00:50:f0:f8:f6:b3:53:71:06:08:f0:cb:eb:76:58:
         72:73:21:2c:c5:87:31:a8:cf:48:c1:75:4d:b6:0c:14:ad:f9:
         47:59:46:78
-----BEGIN CERTIFICATE-----
MIIDGjCCAgKgAwIBAgIBLDANBgkqhkiG9w0BAQsFADB9MQswCQYDVQQGEwJVUzET
MBEGA1UECAwKQ2FsaWZvcm5pYTEUMBIGA1UEBwwLU2FudGEgQ2xhcmExDTALBgNV
BAoMBHBrZzUxDDAKBgNVBAsMA3RhNzESMBAGA1UEAwwJbG9jYWxob3N0MRIwEAYJ
KoZIhvcNAQkBFgN0YTcwHhcNMTcxMTE2MTA1ODUxWhcNMjAwODEyMTA1ODUxWjCB
hTELMAkGA1UEBhMCVVMxEzARBgNVBAgMCkNhbGlmb3JuaWExFDASBgNVBAcMC1Nh
bnRhIENsYXJhMQ0wCwYDVQQKDARwa2c1MRAwDgYDVQQLDAdjczFfdGE3MRIwEAYD
VQQDDAlsb2NhbGhvc3QxFjAUBgkqhkiG9w0BCQEWB2NzMV90YTcwgZ8wDQYJKoZI
hvcNAQEBBQADgY0AMIGJAoGBAL863ipxzP3W8InWbVD3LqyjJFmKn8jrf0OSBXuv
Gn5c8bt/+bE1O2+84R8VOMexhIinFhRSA4qWJi28MtCEy084ejissgT8KEd3FlDH
4mmVn1wNXA+yeKejx7QsauBPwPp7n7oi1DQWrkDIrUZMtU15QKjevp6mBzxzuhSu
TidJAgMBAAGjIDAeMAwGA1UdEwEB/wQCMAAwDgYDVR0PAQH/BAQDAgeAMA0GCSqG
SIb3DQEBCwUAA4IBAQCYoGINA0qsfRqKyxUVgnu91grliaGwKnjC4JtseZPwaNeE
T9cvrnUkZ+p8Kahb83s/N4COR8MamYwTCDu75Gy6aLG1XvMNgXf0MFSotCnAQR8w
gHi0rNAap2x9bK58aan6fYo8wdEvQNtYltriIazHwz11coyvIg/5U6icri8hI/eo
XbSicZYcfJ4tLN9zmHpRkrMUleP4rGwUgGqFvup/typBMyO7q7oWWEwWL8p4HO7G
mvcVcbpCvHHn+v2uLhTno5nsaLP3G5wgzS3XkBG14mt/SuQY3YKoMHwAUPD49rNT
cQYI8MvrdlhycyEsxYcxqM9IwXVNtgwUrflHWUZ4
-----END CERTIFICATE-----
