Certificate:
    Data:
        Version: 3 (0x2)
        Serial Number: 44 (0x2c)
    Signature Algorithm: sha256WithRSAEncryption
        Issuer: C=US, ST=California, L=Santa Clara, O=pkg5, OU=ta7, CN=localhost/emailAddress=ta7
        Validity
            Not Before: Mar 20 10:20:56 2018 GMT
            Not After : Dec 14 10:20:56 2020 GMT
        Subject: C=US, ST=California, L=Santa Clara, O=pkg5, OU=cs1_ta7, CN=localhost/emailAddress=cs1_ta7
        Subject Public Key Info:
            Public Key Algorithm: rsaEncryption
                Public-Key: (1024 bit)
                Modulus:
                    00:c7:50:f3:25:2d:71:3e:d2:84:67:a3:af:6e:fd:
                    76:15:1b:aa:78:c8:40:4c:53:02:58:3c:33:96:b2:
                    36:df:7e:1a:5e:5d:70:58:43:df:a3:23:d4:ea:96:
                    91:2e:ad:7d:0a:82:39:6c:55:c5:ea:b4:03:ff:fe:
                    b8:e3:dc:2a:f5:cc:99:25:15:e0:cd:94:4a:85:66:
                    62:fc:77:68:81:3f:57:4f:7b:7a:7b:b2:7b:b6:6c:
                    e9:79:6f:e8:9a:ca:fc:04:b9:b3:4e:7b:21:1e:bf:
                    cd:46:ee:7b:b5:97:4b:78:83:47:00:9f:d3:33:df:
                    1a:cd:e3:75:22:42:3e:fc:01
                Exponent: 65537 (0x10001)
        X509v3 extensions:
            X509v3 Basic Constraints: critical
                CA:FALSE
            X509v3 Key Usage: critical
                Digital Signature
    Signature Algorithm: sha256WithRSAEncryption
         00:ee:72:8f:7e:97:30:00:e7:80:71:8f:b4:62:b4:0f:60:24:
         ad:fe:40:18:8f:06:e4:82:f5:46:01:e1:d8:db:e6:89:d2:b2:
         47:99:ed:90:da:21:50:0a:06:eb:24:9c:6c:e4:ab:7e:90:11:
         b1:fe:c3:22:34:5e:3e:b0:24:29:b7:78:9a:44:06:60:40:c4:
         0f:a3:6b:46:03:b8:61:6f:95:ad:f2:f7:e4:ef:9a:d4:67:dc:
         8b:92:5c:96:f7:99:e3:d9:cb:22:34:ed:c6:63:de:94:e2:a9:
         83:5a:d2:32:53:19:cb:ed:d7:12:f9:a1:66:08:70:2c:05:dd:
         b2:d2:eb:79:21:aa:d7:33:1b:51:a2:eb:2c:1f:c8:a7:9c:e7:
         eb:65:5a:53:70:e3:07:60:9e:f2:37:04:cc:77:9f:28:bc:f2:
         26:cc:1f:f7:8e:a0:80:e6:56:62:81:d1:5e:ab:62:c0:83:45:
         58:37:38:b6:0b:08:b1:11:a3:bc:88:db:cb:dc:a2:ba:d9:fd:
         05:c7:d3:5d:94:2d:a2:e3:8c:cc:eb:bc:01:2b:86:1f:ea:e4:
         92:2a:f7:69:71:53:18:57:27:ef:ce:d2:17:cd:1e:26:71:11:
         10:c6:e8:b6:04:33:21:95:d6:1d:9e:89:34:9f:8a:a0:ea:bf:
         51:28:e3:9f
-----BEGIN CERTIFICATE-----
MIIDGjCCAgKgAwIBAgIBLDANBgkqhkiG9w0BAQsFADB9MQswCQYDVQQGEwJVUzET
MBEGA1UECAwKQ2FsaWZvcm5pYTEUMBIGA1UEBwwLU2FudGEgQ2xhcmExDTALBgNV
BAoMBHBrZzUxDDAKBgNVBAsMA3RhNzESMBAGA1UEAwwJbG9jYWxob3N0MRIwEAYJ
KoZIhvcNAQkBFgN0YTcwHhcNMTgwMzIwMTAyMDU2WhcNMjAxMjE0MTAyMDU2WjCB
hTELMAkGA1UEBhMCVVMxEzARBgNVBAgMCkNhbGlmb3JuaWExFDASBgNVBAcMC1Nh
bnRhIENsYXJhMQ0wCwYDVQQKDARwa2c1MRAwDgYDVQQLDAdjczFfdGE3MRIwEAYD
VQQDDAlsb2NhbGhvc3QxFjAUBgkqhkiG9w0BCQEWB2NzMV90YTcwgZ8wDQYJKoZI
hvcNAQEBBQADgY0AMIGJAoGBAMdQ8yUtcT7ShGejr279dhUbqnjIQExTAlg8M5ay
Nt9+Gl5dcFhD36Mj1OqWkS6tfQqCOWxVxeq0A//+uOPcKvXMmSUV4M2USoVmYvx3
aIE/V097enuye7Zs6Xlv6JrK/AS5s057IR6/zUbue7WXS3iDRwCf0zPfGs3jdSJC
PvwBAgMBAAGjIDAeMAwGA1UdEwEB/wQCMAAwDgYDVR0PAQH/BAQDAgeAMA0GCSqG
SIb3DQEBCwUAA4IBAQAA7nKPfpcwAOeAcY+0YrQPYCSt/kAYjwbkgvVGAeHY2+aJ
0rJHme2Q2iFQCgbrJJxs5Kt+kBGx/sMiNF4+sCQpt3iaRAZgQMQPo2tGA7hhb5Wt
8vfk75rUZ9yLklyW95nj2csiNO3GY96U4qmDWtIyUxnL7dcS+aFmCHAsBd2y0ut5
IarXMxtRoussH8innOfrZVpTcOMHYJ7yNwTMd58ovPImzB/3jqCA5lZigdFeq2LA
g0VYNzi2CwixEaO8iNvL3KK62f0Fx9NdlC2i44zM67wBK4Yf6uSSKvdpcVMYVyfv
ztIXzR4mcREQxui2BDMhldYdnok0n4qg6r9RKOOf
-----END CERTIFICATE-----
