Certificate:
    Data:
        Version: 3 (0x2)
        Serial Number: 44 (0x2c)
        Signature Algorithm: sha256WithRSAEncryption
        Issuer: C=US, ST=California, L=Santa Clara, O=pkg5, OU=ta7, CN=localhost/emailAddress=ta7
        Validity
            Not Before: May 23 15:47:22 2024 GMT
            Not After : Feb 17 15:47:22 2027 GMT
        Subject: C=US, ST=California, L=Santa Clara, O=pkg5, OU=cs1_ta7, CN=localhost/emailAddress=cs1_ta7
        Subject Public Key Info:
            Public Key Algorithm: rsaEncryption
                Public-Key: (2048 bit)
                Modulus:
                    00:a9:38:bc:9f:0e:94:92:6b:15:17:c9:86:8d:2e:
                    8d:18:bb:9d:7c:26:d6:20:bd:df:37:9a:8f:4c:6b:
                    34:2f:6a:25:dd:37:5e:1a:4f:9d:32:8c:5c:02:ea:
                    39:9e:e9:55:d9:e3:7d:17:93:29:03:21:f5:e5:43:
                    cb:da:bf:72:a9:15:8e:dc:3a:d6:c9:88:60:f1:af:
                    80:b3:4b:60:17:39:d9:72:5a:20:ed:95:47:13:33:
                    02:00:4f:5c:23:64:92:f7:92:c3:b3:ba:cb:1b:ad:
                    74:06:06:df:4f:6c:b9:02:80:ff:0e:85:e3:f8:db:
                    9e:e6:5c:81:c9:74:01:48:b4:11:1a:2f:e6:a3:88:
                    86:c7:e6:24:ba:16:86:17:98:17:f1:76:6a:e6:11:
                    7f:29:e4:25:20:a8:be:df:85:36:09:de:09:89:61:
                    bb:4e:02:d6:2b:c3:13:b4:6b:94:2c:2e:2d:1f:77:
                    bf:fd:f2:1a:42:f3:87:af:ea:d6:4c:10:8f:18:d1:
                    0b:6e:1f:81:e1:1d:55:71:da:60:99:ae:66:17:f6:
                    93:de:0c:a8:e0:53:5b:db:cb:b9:a4:49:52:18:eb:
                    63:ef:06:d6:1b:09:77:64:b7:5a:1c:26:73:86:cd:
                    69:24:85:4e:2a:f8:c5:b4:1b:77:19:ca:36:24:d2:
                    61:ab
                Exponent: 65537 (0x10001)
        X509v3 extensions:
            X509v3 Basic Constraints: critical
                CA:FALSE
            X509v3 Key Usage: critical
                Digital Signature
            X509v3 Subject Key Identifier: 
                24:E3:20:C6:0B:36:BF:3E:9C:7F:C5:C2:2B:96:7A:2C:6A:72:0D:3D
            X509v3 Authority Key Identifier: 
                B7:31:47:3C:69:93:53:76:BD:C5:91:F1:20:96:C9:65:AE:93:89:B3
    Signature Algorithm: sha256WithRSAEncryption
    Signature Value:
        0d:fa:73:c1:b9:48:ea:86:29:ba:9a:5a:cb:76:46:3f:4f:5d:
        83:f6:7f:13:a0:81:a5:6b:2e:67:06:e3:3a:3c:34:f8:49:44:
        bd:4a:38:e0:9a:67:c7:8a:c3:87:63:f1:df:bc:9c:df:9b:bb:
        7f:24:4d:ac:25:d1:4f:df:79:b8:08:2a:37:be:e5:55:e5:e8:
        be:d5:f6:65:e4:ec:e9:9f:5b:22:77:ce:db:30:a6:7f:26:8b:
        3f:9a:60:9c:8f:e5:5b:bc:a8:3d:aa:1d:c9:fa:12:5c:4b:d8:
        0a:36:b2:bf:97:12:1b:64:69:3b:c6:3b:99:06:2e:ed:21:58:
        6c:d7:c8:3f:0e:2b:fc:50:a0:59:d7:f3:7e:2c:7c:9e:a1:92:
        10:fb:56:e1:bd:2a:29:32:a1:ae:43:00:84:47:85:02:6c:56:
        05:fd:ea:7e:5c:09:e7:7c:25:8a:b3:a5:d8:ef:ed:c4:ff:80:
        c7:1c:56:7b:96:b7:be:5d:96:b8:2e:c9:ec:70:2a:56:96:bd:
        1d:79:79:04:86:d7:7a:86:33:a7:42:36:d1:a6:12:ff:b9:4e:
        ef:cd:89:90:d7:24:09:e8:ab:99:47:e1:22:a7:e0:db:fa:e9:
        b3:98:37:fb:da:ef:d8:aa:77:e9:62:30:77:02:e1:70:55:98:
        95:68:28:55
-----BEGIN CERTIFICATE-----
MIID3jCCAsagAwIBAgIBLDANBgkqhkiG9w0BAQsFADB9MQswCQYDVQQGEwJVUzET
MBEGA1UECAwKQ2FsaWZvcm5pYTEUMBIGA1UEBwwLU2FudGEgQ2xhcmExDTALBgNV
BAoMBHBrZzUxDDAKBgNVBAsMA3RhNzESMBAGA1UEAwwJbG9jYWxob3N0MRIwEAYJ
KoZIhvcNAQkBFgN0YTcwHhcNMjQwNTIzMTU0NzIyWhcNMjcwMjE3MTU0NzIyWjCB
hTELMAkGA1UEBhMCVVMxEzARBgNVBAgMCkNhbGlmb3JuaWExFDASBgNVBAcMC1Nh
bnRhIENsYXJhMQ0wCwYDVQQKDARwa2c1MRAwDgYDVQQLDAdjczFfdGE3MRIwEAYD
VQQDDAlsb2NhbGhvc3QxFjAUBgkqhkiG9w0BCQEWB2NzMV90YTcwggEiMA0GCSqG
SIb3DQEBAQUAA4IBDwAwggEKAoIBAQCpOLyfDpSSaxUXyYaNLo0Yu518JtYgvd83
mo9MazQvaiXdN14aT50yjFwC6jme6VXZ430XkykDIfXlQ8vav3KpFY7cOtbJiGDx
r4CzS2AXOdlyWiDtlUcTMwIAT1wjZJL3ksOzussbrXQGBt9PbLkCgP8OheP4257m
XIHJdAFItBEaL+ajiIbH5iS6FoYXmBfxdmrmEX8p5CUgqL7fhTYJ3gmJYbtOAtYr
wxO0a5QsLi0fd7/98hpC84ev6tZMEI8Y0QtuH4HhHVVx2mCZrmYX9pPeDKjgU1vb
y7mkSVIY62PvBtYbCXdkt1ocJnOGzWkkhU4q+MW0G3cZyjYk0mGrAgMBAAGjYDBe
MAwGA1UdEwEB/wQCMAAwDgYDVR0PAQH/BAQDAgeAMB0GA1UdDgQWBBQk4yDGCza/
Ppx/xcIrlnosanINPTAfBgNVHSMEGDAWgBS3MUc8aZNTdr3FkfEglsllrpOJszAN
BgkqhkiG9w0BAQsFAAOCAQEADfpzwblI6oYpuppay3ZGP09dg/Z/E6CBpWsuZwbj
Ojw0+ElEvUo44Jpnx4rDh2Px37yc35u7fyRNrCXRT995uAgqN77lVeXovtX2ZeTs
6Z9bInfO2zCmfyaLP5pgnI/lW7yoPaodyfoSXEvYCjayv5cSG2RpO8Y7mQYu7SFY
bNfIPw4r/FCgWdfzfix8nqGSEPtW4b0qKTKhrkMAhEeFAmxWBf3qflwJ53wlirOl
2O/txP+AxxxWe5a3vl2WuC7J7HAqVpa9HXl5BIbXeoYzp0I20aYS/7lO782JkNck
CeirmUfhIqfg2/rps5g3+9rv2Kp36WIwdwLhcFWYlWgoVQ==
-----END CERTIFICATE-----
