Certificate:
    Data:
        Version: 3 (0x2)
        Serial Number: 44 (0x2c)
        Signature Algorithm: sha256WithRSAEncryption
        Issuer: C=US, ST=California, L=Santa Clara, O=pkg5, OU=ta7, CN=localhost/emailAddress=ta7
        Validity
            Not Before: Dec 15 15:37:32 2022 GMT
            Not After : Sep 10 15:37:32 2025 GMT
        Subject: C=US, ST=California, L=Santa Clara, O=pkg5, OU=cs1_ta7, CN=localhost/emailAddress=cs1_ta7
        Subject Public Key Info:
            Public Key Algorithm: rsaEncryption
                Public-Key: (2048 bit)
                Modulus:
                    00:c7:20:d4:55:7c:a0:18:c3:5b:b3:0b:a9:84:ad:
                    5e:5f:96:00:08:07:65:54:d0:aa:f7:26:a5:97:e5:
                    f7:d2:7c:2d:5b:c4:15:30:97:be:63:5e:32:62:4a:
                    7f:27:87:4f:0f:a6:25:12:24:2e:c4:a4:67:9a:39:
                    7b:22:04:44:79:d4:d8:ec:af:69:0f:ab:f8:53:96:
                    0b:ef:9f:9b:0d:10:06:2f:38:50:e2:90:a4:16:e7:
                    00:a0:7c:4d:1c:16:30:a8:f0:2a:17:a9:2a:3c:ee:
                    38:28:8f:5d:61:46:c0:2d:3d:2c:2d:a3:c3:06:fc:
                    b8:fd:27:93:b0:c0:69:00:17:1d:e1:ca:46:eb:93:
                    bb:a8:6b:3a:4c:34:58:61:a1:74:3c:e6:74:4d:ee:
                    9f:3e:62:cb:9e:1e:5b:1f:af:4e:09:13:08:40:1a:
                    35:d7:34:80:3a:ea:48:58:ca:1c:35:41:5c:49:de:
                    73:b5:c2:c6:4c:8f:19:de:0f:0b:da:1c:fb:c9:6b:
                    00:df:79:9f:d6:55:41:b0:b3:6f:5f:ad:0c:28:b6:
                    95:b1:b6:4c:db:f8:f8:9a:c7:d2:7f:83:cf:27:8f:
                    fd:3a:c1:f0:06:ab:cc:12:27:17:0f:38:cf:1f:7a:
                    e7:b5:02:ad:a9:7c:5c:46:79:8c:7d:a2:e1:d2:91:
                    05:f3
                Exponent: 65537 (0x10001)
        X509v3 extensions:
            X509v3 Basic Constraints: critical
                CA:FALSE
            X509v3 Key Usage: critical
                Digital Signature
            X509v3 Subject Key Identifier: 
                59:52:9D:57:41:4F:0C:80:1D:BC:3E:81:3C:23:5E:A8:FC:AB:39:68
            X509v3 Authority Key Identifier: 
                1C:1E:BC:CD:40:DF:CC:15:FA:A1:9C:08:E1:19:5E:8D:1D:47:5A:7A
    Signature Algorithm: sha256WithRSAEncryption
    Signature Value:
        b7:6f:02:c1:0c:f5:fa:54:a0:be:d0:cb:79:9b:60:86:15:6c:
        f1:11:d7:4f:fb:0c:64:f3:8f:a8:f2:03:0d:4e:4e:e9:2e:43:
        97:f0:7c:b1:e9:b1:2b:0d:8e:19:ea:93:9f:df:85:4b:a6:f1:
        de:f7:1a:4b:dc:12:5b:71:cf:ca:73:da:20:d3:09:08:53:61:
        a9:3f:e6:48:10:63:b8:fa:d6:b8:e8:9d:29:68:4c:50:89:88:
        d0:81:aa:9a:86:73:9c:58:e9:57:b1:0b:41:65:9d:46:09:f5:
        ee:4f:cf:12:39:c5:a8:03:f4:0a:2f:e1:b6:af:8c:10:01:13:
        84:cf:19:f2:f9:5f:42:7a:bf:25:17:8d:3f:22:37:7a:02:25:
        13:b6:a4:e3:a0:52:24:8b:2e:2b:ee:c7:3e:0d:04:7a:d3:75:
        0c:d7:8c:d0:7c:93:a5:d6:fa:d5:23:26:95:a3:5b:ad:e6:95:
        84:24:43:67:3d:5e:40:98:b3:c9:55:74:c1:b8:e7:8c:c1:46:
        1d:76:c0:0f:e9:67:16:c5:ce:3a:af:50:74:0b:e1:18:9c:26:
        ca:4b:74:30:ac:67:36:f5:cb:62:c1:4c:5f:db:4e:d6:92:8b:
        96:13:65:44:d5:d4:0b:1d:9d:a1:18:0e:a2:db:59:53:3f:39:
        9a:fb:90:c4
-----BEGIN CERTIFICATE-----
MIID3jCCAsagAwIBAgIBLDANBgkqhkiG9w0BAQsFADB9MQswCQYDVQQGEwJVUzET
MBEGA1UECAwKQ2FsaWZvcm5pYTEUMBIGA1UEBwwLU2FudGEgQ2xhcmExDTALBgNV
BAoMBHBrZzUxDDAKBgNVBAsMA3RhNzESMBAGA1UEAwwJbG9jYWxob3N0MRIwEAYJ
KoZIhvcNAQkBFgN0YTcwHhcNMjIxMjE1MTUzNzMyWhcNMjUwOTEwMTUzNzMyWjCB
hTELMAkGA1UEBhMCVVMxEzARBgNVBAgMCkNhbGlmb3JuaWExFDASBgNVBAcMC1Nh
bnRhIENsYXJhMQ0wCwYDVQQKDARwa2c1MRAwDgYDVQQLDAdjczFfdGE3MRIwEAYD
VQQDDAlsb2NhbGhvc3QxFjAUBgkqhkiG9w0BCQEWB2NzMV90YTcwggEiMA0GCSqG
SIb3DQEBAQUAA4IBDwAwggEKAoIBAQDHINRVfKAYw1uzC6mErV5flgAIB2VU0Kr3
JqWX5ffSfC1bxBUwl75jXjJiSn8nh08PpiUSJC7EpGeaOXsiBER51Njsr2kPq/hT
lgvvn5sNEAYvOFDikKQW5wCgfE0cFjCo8CoXqSo87jgoj11hRsAtPSwto8MG/Lj9
J5OwwGkAFx3hykbrk7uoazpMNFhhoXQ85nRN7p8+YsueHlsfr04JEwhAGjXXNIA6
6khYyhw1QVxJ3nO1wsZMjxneDwvaHPvJawDfeZ/WVUGws29frQwotpWxtkzb+Pia
x9J/g88nj/06wfAGq8wSJxcPOM8feue1Aq2pfFxGeYx9ouHSkQXzAgMBAAGjYDBe
MAwGA1UdEwEB/wQCMAAwDgYDVR0PAQH/BAQDAgeAMB0GA1UdDgQWBBRZUp1XQU8M
gB28PoE8I16o/Ks5aDAfBgNVHSMEGDAWgBQcHrzNQN/MFfqhnAjhGV6NHUdaejAN
BgkqhkiG9w0BAQsFAAOCAQEAt28CwQz1+lSgvtDLeZtghhVs8RHXT/sMZPOPqPID
DU5O6S5Dl/B8semxKw2OGeqTn9+FS6bx3vcaS9wSW3HPynPaINMJCFNhqT/mSBBj
uPrWuOidKWhMUImI0IGqmoZznFjpV7ELQWWdRgn17k/PEjnFqAP0Ci/htq+MEAET
hM8Z8vlfQnq/JReNPyI3egIlE7ak46BSJIsuK+7HPg0EetN1DNeM0HyTpdb61SMm
laNbreaVhCRDZz1eQJizyVV0wbjnjMFGHXbAD+lnFsXOOq9QdAvhGJwmykt0MKxn
NvXLYsFMX9tO1pKLlhNlRNXUCx2doRgOottZUz85mvuQxA==
-----END CERTIFICATE-----
