Certificate:
    Data:
        Version: 3 (0x2)
        Serial Number: 45 (0x2d)
        Signature Algorithm: sha256WithRSAEncryption
        Issuer: C=US, ST=California, L=Santa Clara, O=pkg5, OU=ta8, CN=localhost/emailAddress=ta8
        Validity
            Not Before: Oct 22 10:15:23 2021 GMT
            Not After : Jul 18 10:15:23 2024 GMT
        Subject: C=US, ST=California, L=Santa Clara, O=pkg5, OU=cs1_ta8, CN=localhost/emailAddress=cs1_ta8
        Subject Public Key Info:
            Public Key Algorithm: rsaEncryption
                Public-Key: (2048 bit)
                Modulus:
                    00:b6:37:78:03:88:2a:75:21:95:b4:60:4d:e5:ed:
                    41:23:66:3d:f3:cb:21:91:1c:bc:9f:f1:f6:4a:04:
                    8e:f3:31:6f:27:35:73:a1:cf:80:f6:3f:76:29:97:
                    ae:ba:60:aa:a3:65:9e:9a:3e:69:fd:ad:fc:7f:36:
                    29:5b:7c:89:fa:f4:79:6f:41:86:b6:22:b8:1d:86:
                    dc:97:28:ee:c8:fb:7e:67:c0:8e:50:cd:91:7e:3a:
                    81:1e:ee:4c:7e:4a:e7:0a:1b:c0:24:c5:48:00:8e:
                    1f:3a:6a:bd:ac:90:16:f4:3d:e4:5e:6d:47:1a:08:
                    a2:32:20:da:49:2a:e2:30:ac:a1:06:91:61:29:81:
                    d8:10:57:38:e0:33:a9:61:ac:05:0f:e8:9d:00:dd:
                    a9:21:0e:0b:22:22:ac:ef:aa:7e:c3:a4:f7:f8:ff:
                    63:aa:52:69:a1:45:3d:06:f0:22:b5:77:1d:9f:35:
                    8d:38:ba:bd:d8:3e:04:c9:1b:67:aa:26:47:1f:46:
                    3d:e8:7b:b3:31:68:45:93:a5:3a:cf:ae:8d:05:80:
                    1f:d5:45:5e:33:74:eb:d9:fc:51:31:7b:55:3d:05:
                    d6:a3:73:59:cb:5a:11:70:6b:dd:30:48:d6:ea:ab:
                    52:ad:de:69:ef:4b:f7:4c:03:9b:93:c2:88:6b:47:
                    14:31
                Exponent: 65537 (0x10001)
        X509v3 extensions:
            X509v3 Basic Constraints: critical
                CA:FALSE
            X509v3 Key Usage: critical
                Digital Signature
            X509v3 Subject Key Identifier: 
                D8:2F:DE:18:3B:5C:90:C4:EB:80:BD:CE:52:50:28:63:CB:26:EE:8A
            X509v3 Authority Key Identifier: 
                9A:FF:E0:E4:48:68:B0:3D:02:28:44:84:34:B0:DE:8E:6F:86:CC:79
    Signature Algorithm: sha256WithRSAEncryption
    Signature Value:
        d8:0f:65:17:54:c0:b9:63:97:cb:ea:4f:dc:6e:86:dc:5d:80:
        f2:ff:da:f2:6f:a4:be:d6:f4:3b:14:cf:a1:56:5b:d8:0d:04:
        2f:86:34:0d:42:19:9d:d5:0c:2b:14:14:f0:69:09:87:4a:27:
        7d:95:3d:ea:ab:81:d2:c6:76:60:76:bb:fd:92:67:8c:5a:99:
        bc:5e:79:44:91:58:67:fb:d9:62:8b:bf:0e:94:1a:f2:e0:f9:
        62:20:d2:ea:5e:54:ce:ca:bf:b1:59:36:cc:a7:17:06:7f:7c:
        ae:f9:74:44:a0:9e:63:c2:63:4b:d2:48:e8:bb:10:9d:8e:39:
        63:51:40:4b:28:d1:c9:cc:bc:07:b9:6e:26:e0:3c:bc:99:c3:
        68:72:24:f4:cc:51:45:a1:94:f8:1d:51:b2:23:73:ca:81:7c:
        95:10:66:5c:bb:f6:ac:3e:57:bd:bd:60:c2:db:30:b8:8c:0d:
        63:9b:2c:e9:17:06:87:1f:4e:c0:88:e5:0a:4d:a1:9c:55:9b:
        60:b8:9b:dd:33:89:65:f6:62:78:79:83:76:37:e9:e8:18:32:
        a8:96:ec:38:10:f5:37:4d:e7:64:c9:1e:37:2a:f5:5c:50:29:
        80:6f:4e:9f:ff:f3:60:80:f8:3c:d6:49:7b:69:fb:de:25:fd:
        20:c1:ef:04
-----BEGIN CERTIFICATE-----
MIID3jCCAsagAwIBAgIBLTANBgkqhkiG9w0BAQsFADB9MQswCQYDVQQGEwJVUzET
MBEGA1UECAwKQ2FsaWZvcm5pYTEUMBIGA1UEBwwLU2FudGEgQ2xhcmExDTALBgNV
BAoMBHBrZzUxDDAKBgNVBAsMA3RhODESMBAGA1UEAwwJbG9jYWxob3N0MRIwEAYJ
KoZIhvcNAQkBFgN0YTgwHhcNMjExMDIyMTAxNTIzWhcNMjQwNzE4MTAxNTIzWjCB
hTELMAkGA1UEBhMCVVMxEzARBgNVBAgMCkNhbGlmb3JuaWExFDASBgNVBAcMC1Nh
bnRhIENsYXJhMQ0wCwYDVQQKDARwa2c1MRAwDgYDVQQLDAdjczFfdGE4MRIwEAYD
VQQDDAlsb2NhbGhvc3QxFjAUBgkqhkiG9w0BCQEWB2NzMV90YTgwggEiMA0GCSqG
SIb3DQEBAQUAA4IBDwAwggEKAoIBAQC2N3gDiCp1IZW0YE3l7UEjZj3zyyGRHLyf
8fZKBI7zMW8nNXOhz4D2P3Ypl666YKqjZZ6aPmn9rfx/NilbfIn69HlvQYa2Irgd
htyXKO7I+35nwI5QzZF+OoEe7kx+SucKG8AkxUgAjh86ar2skBb0PeRebUcaCKIy
INpJKuIwrKEGkWEpgdgQVzjgM6lhrAUP6J0A3akhDgsiIqzvqn7DpPf4/2OqUmmh
RT0G8CK1dx2fNY04ur3YPgTJG2eqJkcfRj3oe7MxaEWTpTrPro0FgB/VRV4zdOvZ
/FExe1U9Bdajc1nLWhFwa90wSNbqq1Kt3mnvS/dMA5uTwohrRxQxAgMBAAGjYDBe
MAwGA1UdEwEB/wQCMAAwDgYDVR0PAQH/BAQDAgeAMB0GA1UdDgQWBBTYL94YO1yQ
xOuAvc5SUChjyybuijAfBgNVHSMEGDAWgBSa/+DkSGiwPQIoRIQ0sN6Ob4bMeTAN
BgkqhkiG9w0BAQsFAAOCAQEA2A9lF1TAuWOXy+pP3G6G3F2A8v/a8m+kvtb0OxTP
oVZb2A0EL4Y0DUIZndUMKxQU8GkJh0onfZU96quB0sZ2YHa7/ZJnjFqZvF55RJFY
Z/vZYou/DpQa8uD5YiDS6l5Uzsq/sVk2zKcXBn98rvl0RKCeY8JjS9JI6LsQnY45
Y1FASyjRycy8B7luJuA8vJnDaHIk9MxRRaGU+B1RsiNzyoF8lRBmXLv2rD5Xvb1g
wtswuIwNY5ss6RcGhx9OwIjlCk2hnFWbYLib3TOJZfZieHmDdjfp6BgyqJbsOBD1
N03nZMkeNyr1XFApgG9On//zYID4PNZJe2n73iX9IMHvBA==
-----END CERTIFICATE-----
