Certificate:
    Data:
        Version: 3 (0x2)
        Serial Number: 45 (0x2d)
    Signature Algorithm: sha256WithRSAEncryption
        Issuer: C=US, ST=California, L=Santa Clara, O=pkg5, OU=ta8, CN=localhost/emailAddress=ta8
        Validity
            Not Before: Nov 16 10:58:51 2017 GMT
            Not After : Aug 12 10:58:51 2020 GMT
        Subject: C=US, ST=California, L=Santa Clara, O=pkg5, OU=cs1_ta8, CN=localhost/emailAddress=cs1_ta8
        Subject Public Key Info:
            Public Key Algorithm: rsaEncryption
                Public-Key: (1024 bit)
                Modulus:
                    00:d5:d2:ae:b4:46:cd:83:cd:50:0b:45:2c:96:c4:
                    5c:b5:09:d7:ef:f9:41:9f:dd:cd:30:16:b6:ae:19:
                    87:fd:42:99:9f:65:05:7e:29:87:43:55:27:c7:cf:
                    1e:5c:39:6a:01:c6:28:9d:f4:a3:cd:a3:dd:80:a5:
                    1e:cd:45:0a:1d:b8:58:d9:91:bb:09:f1:03:27:70:
                    2d:16:f5:47:7a:9d:2c:1d:0a:d8:07:73:26:4e:8f:
                    a2:ef:8f:1f:47:7f:7a:7a:4b:53:55:6b:1b:ee:10:
                    dd:b6:6e:b9:5b:82:d6:12:41:1c:cb:1d:ae:26:c0:
                    47:79:67:e8:30:42:d4:13:b5
                Exponent: 65537 (0x10001)
        X509v3 extensions:
            X509v3 Basic Constraints: critical
                CA:FALSE
            X509v3 Key Usage: critical
                Digital Signature
    Signature Algorithm: sha256WithRSAEncryption
         75:6b:1e:93:e9:3d:88:e0:3a:36:5c:9e:a7:3c:01:c9:22:19:
         cc:10:91:bc:a6:26:00:b1:87:0f:12:fd:1a:47:c7:6f:0b:97:
         e1:69:19:29:38:56:2a:23:b8:89:d9:3d:a8:28:63:2c:46:e9:
         2b:b3:5c:0c:24:17:b3:10:68:38:25:21:75:2d:83:c4:f9:a8:
         08:ca:d8:a4:24:01:79:55:35:36:01:d4:08:6a:6f:99:63:b2:
         84:40:db:f6:c1:e9:b7:b5:df:6a:bb:a9:96:8f:9f:ec:01:a6:
         ab:e2:ea:08:30:94:60:f8:d0:db:63:4b:c5:b5:6f:4d:49:c4:
         42:35:9e:fc:82:06:b0:4b:9d:07:35:cf:e0:c0:b2:8f:5d:75:
         d8:84:e4:b0:7b:4d:08:4c:3f:52:b4:c9:28:c3:ff:51:f4:84:
         0f:36:8c:e3:8f:43:04:78:b2:b7:eb:8b:2a:3f:bc:2f:15:95:
         40:f8:26:29:23:0c:7d:25:f1:0b:cf:cc:13:27:23:f7:f9:12:
         65:bf:48:18:fe:ea:b6:9f:30:9e:cf:a2:62:a8:a0:8f:19:80:
         ed:aa:56:2d:fc:1e:50:14:3f:22:5b:d0:fe:8c:67:fb:76:44:
         9c:8c:7d:ed:06:d1:95:3d:bb:55:f9:2c:69:85:0d:e8:78:2b:
         83:64:dd:8a
-----BEGIN CERTIFICATE-----
MIIDGjCCAgKgAwIBAgIBLTANBgkqhkiG9w0BAQsFADB9MQswCQYDVQQGEwJVUzET
MBEGA1UECAwKQ2FsaWZvcm5pYTEUMBIGA1UEBwwLU2FudGEgQ2xhcmExDTALBgNV
BAoMBHBrZzUxDDAKBgNVBAsMA3RhODESMBAGA1UEAwwJbG9jYWxob3N0MRIwEAYJ
KoZIhvcNAQkBFgN0YTgwHhcNMTcxMTE2MTA1ODUxWhcNMjAwODEyMTA1ODUxWjCB
hTELMAkGA1UEBhMCVVMxEzARBgNVBAgMCkNhbGlmb3JuaWExFDASBgNVBAcMC1Nh
bnRhIENsYXJhMQ0wCwYDVQQKDARwa2c1MRAwDgYDVQQLDAdjczFfdGE4MRIwEAYD
VQQDDAlsb2NhbGhvc3QxFjAUBgkqhkiG9w0BCQEWB2NzMV90YTgwgZ8wDQYJKoZI
hvcNAQEBBQADgY0AMIGJAoGBANXSrrRGzYPNUAtFLJbEXLUJ1+/5QZ/dzTAWtq4Z
h/1CmZ9lBX4ph0NVJ8fPHlw5agHGKJ30o82j3YClHs1FCh24WNmRuwnxAydwLRb1
R3qdLB0K2AdzJk6Pou+PH0d/enpLU1VrG+4Q3bZuuVuC1hJBHMsdribAR3ln6DBC
1BO1AgMBAAGjIDAeMAwGA1UdEwEB/wQCMAAwDgYDVR0PAQH/BAQDAgeAMA0GCSqG
SIb3DQEBCwUAA4IBAQB1ax6T6T2I4Do2XJ6nPAHJIhnMEJG8piYAsYcPEv0aR8dv
C5fhaRkpOFYqI7iJ2T2oKGMsRukrs1wMJBezEGg4JSF1LYPE+agIytikJAF5VTU2
AdQIam+ZY7KEQNv2wem3td9qu6mWj5/sAaar4uoIMJRg+NDbY0vFtW9NScRCNZ78
ggawS50HNc/gwLKPXXXYhOSwe00ITD9StMkow/9R9IQPNozjj0MEeLK364sqP7wv
FZVA+CYpIwx9JfELz8wTJyP3+RJlv0gY/uq2nzCez6JiqKCPGYDtqlYt/B5QFD8i
W9D+jGf7dkScjH3tBtGVPbtV+SxphQ3oeCuDZN2K
-----END CERTIFICATE-----
