Certificate:
    Data:
        Version: 3 (0x2)
        Serial Number: 45 (0x2d)
        Signature Algorithm: sha256WithRSAEncryption
        Issuer: C=US, ST=California, L=Santa Clara, O=pkg5, OU=ta8, CN=localhost/emailAddress=ta8
        Validity
            Not Before: Nov 17 23:01:34 2020 GMT
            Not After : Aug 14 23:01:34 2023 GMT
        Subject: C=US, ST=California, L=Santa Clara, O=pkg5, OU=cs1_ta8, CN=localhost/emailAddress=cs1_ta8
        Subject Public Key Info:
            Public Key Algorithm: rsaEncryption
                RSA Public-Key: (1024 bit)
                Modulus:
                    00:e8:78:72:9b:79:08:2d:a1:e6:97:94:5a:da:86:
                    e2:67:d7:e3:a7:b8:5c:02:aa:33:1a:3e:2c:93:04:
                    bf:53:de:25:ed:14:6d:fe:97:7b:c2:7a:28:66:e7:
                    8f:9e:24:8a:40:b8:eb:39:c4:a4:09:81:33:27:25:
                    d6:f6:10:20:43:7c:53:e2:6a:9c:28:47:6f:33:3b:
                    4d:51:66:56:9d:00:61:d7:e4:f2:4a:5a:b2:ad:fa:
                    4c:56:27:73:33:84:18:32:d0:f1:d3:92:f9:30:21:
                    87:c7:6e:43:98:f1:01:e3:0c:db:dc:5b:85:21:71:
                    07:99:30:9c:71:5d:5a:55:25
                Exponent: 65537 (0x10001)
        X509v3 extensions:
            X509v3 Basic Constraints: critical
                CA:FALSE
            X509v3 Key Usage: critical
                Digital Signature
    Signature Algorithm: sha256WithRSAEncryption
         42:d1:34:c1:12:d6:3d:0f:41:bb:fb:92:c6:1e:fc:83:d0:ad:
         5e:9d:01:21:84:8f:4b:95:70:a9:ba:04:10:e4:fa:25:90:5f:
         11:d6:b0:c9:38:48:aa:67:f7:9e:1a:b9:50:41:7a:6d:cf:f4:
         8f:c7:c0:b5:9c:71:d4:95:fa:04:da:51:43:86:78:44:52:07:
         21:41:da:bb:cd:fa:b1:83:21:56:cc:aa:25:a2:d2:4a:66:5f:
         7b:fb:64:7a:b2:f8:4e:5a:3b:bd:4c:e0:5a:1d:98:11:c8:fe:
         fd:8b:ad:9d:c5:d6:94:61:f9:34:8d:46:a3:1c:5c:cd:1a:2f:
         8d:62:9e:d1:e4:7d:f5:06:a1:a3:de:35:b4:f1:11:0e:6d:e9:
         3f:83:56:e5:ea:34:b5:0e:3e:12:17:ab:76:9b:2b:c7:6f:2b:
         03:bf:e4:06:3c:14:95:a0:c4:2f:25:38:e9:30:13:7c:3a:61:
         2b:1d:ab:f1:1f:b6:2c:35:1a:35:3a:24:d0:8a:58:ee:f1:18:
         24:17:55:7d:22:2c:67:a9:fc:4c:3e:ef:3f:39:17:e7:1d:4d:
         57:e3:88:ad:05:a9:9d:76:7d:41:f5:4a:16:86:26:9a:00:74:
         6c:20:b8:3c:77:fd:1a:a1:0b:1c:eb:51:61:1e:cc:ac:6c:7a:
         2b:83:13:b3
-----BEGIN CERTIFICATE-----
MIIDGjCCAgKgAwIBAgIBLTANBgkqhkiG9w0BAQsFADB9MQswCQYDVQQGEwJVUzET
MBEGA1UECAwKQ2FsaWZvcm5pYTEUMBIGA1UEBwwLU2FudGEgQ2xhcmExDTALBgNV
BAoMBHBrZzUxDDAKBgNVBAsMA3RhODESMBAGA1UEAwwJbG9jYWxob3N0MRIwEAYJ
KoZIhvcNAQkBFgN0YTgwHhcNMjAxMTE3MjMwMTM0WhcNMjMwODE0MjMwMTM0WjCB
hTELMAkGA1UEBhMCVVMxEzARBgNVBAgMCkNhbGlmb3JuaWExFDASBgNVBAcMC1Nh
bnRhIENsYXJhMQ0wCwYDVQQKDARwa2c1MRAwDgYDVQQLDAdjczFfdGE4MRIwEAYD
VQQDDAlsb2NhbGhvc3QxFjAUBgkqhkiG9w0BCQEWB2NzMV90YTgwgZ8wDQYJKoZI
hvcNAQEBBQADgY0AMIGJAoGBAOh4cpt5CC2h5peUWtqG4mfX46e4XAKqMxo+LJME
v1PeJe0Ubf6Xe8J6KGbnj54kikC46znEpAmBMycl1vYQIEN8U+JqnChHbzM7TVFm
Vp0AYdfk8kpasq36TFYnczOEGDLQ8dOS+TAhh8duQ5jxAeMM29xbhSFxB5kwnHFd
WlUlAgMBAAGjIDAeMAwGA1UdEwEB/wQCMAAwDgYDVR0PAQH/BAQDAgeAMA0GCSqG
SIb3DQEBCwUAA4IBAQBC0TTBEtY9D0G7+5LGHvyD0K1enQEhhI9LlXCpugQQ5Pol
kF8R1rDJOEiqZ/eeGrlQQXptz/SPx8C1nHHUlfoE2lFDhnhEUgchQdq7zfqxgyFW
zKolotJKZl97+2R6svhOWju9TOBaHZgRyP79i62dxdaUYfk0jUajHFzNGi+NYp7R
5H31BqGj3jW08REObek/g1bl6jS1Dj4SF6t2myvHbysDv+QGPBSVoMQvJTjpMBN8
OmErHavxH7YsNRo1OiTQilju8RgkF1V9IixnqfxMPu8/ORfnHU1X44itBamddn1B
9UoWhiaaAHRsILg8d/0aoQsc61FhHsysbHorgxOz
-----END CERTIFICATE-----
