Certificate:
    Data:
        Version: 3 (0x2)
        Serial Number: 45 (0x2d)
        Signature Algorithm: sha256WithRSAEncryption
        Issuer: C=US, ST=California, L=Santa Clara, O=pkg5, OU=ta8, CN=localhost/emailAddress=ta8
        Validity
            Not Before: Oct 24 21:43:16 2023 GMT
            Not After : Jul 20 21:43:16 2026 GMT
        Subject: C=US, ST=California, L=Santa Clara, O=pkg5, OU=cs1_ta8, CN=localhost/emailAddress=cs1_ta8
        Subject Public Key Info:
            Public Key Algorithm: rsaEncryption
                Public-Key: (2048 bit)
                Modulus:
                    00:a5:01:ee:97:3c:90:60:ed:7e:04:1a:fd:cd:3c:
                    5e:76:43:db:79:05:b5:6a:3f:b8:93:aa:4c:d7:18:
                    b2:12:6e:69:b0:ed:61:53:77:ee:a9:3b:61:34:47:
                    96:0d:f7:70:60:6b:49:ad:72:ab:3b:dc:cf:55:ef:
                    2f:68:a2:41:18:e8:be:b6:cd:cb:67:cb:44:82:10:
                    7d:65:44:0f:44:a0:92:6e:b1:0b:7c:2c:c2:06:51:
                    d5:3d:cf:e1:f6:5a:ea:17:01:fa:e8:b4:54:ec:9b:
                    69:0e:d0:3b:53:18:7e:c9:ff:3f:7b:9e:e3:87:49:
                    0a:09:a0:99:4f:fa:1a:06:31:ab:b7:1a:8b:b4:02:
                    3e:9e:b7:ed:53:ed:15:b3:ec:d5:36:94:12:3b:ec:
                    a4:ab:af:e4:8c:07:a4:49:76:0e:32:46:84:f7:f5:
                    5e:7e:d9:00:85:b5:ef:7f:68:68:9e:9b:d4:df:1c:
                    8c:92:79:59:84:5b:3a:67:87:92:35:72:6d:b0:88:
                    dc:46:cf:d8:16:fd:9c:f5:c7:af:26:74:d7:a8:e3:
                    46:49:a6:c0:ee:c6:e9:3e:ec:d0:9a:39:b1:c9:0b:
                    29:84:61:76:3c:79:c2:42:90:0a:22:29:69:38:e3:
                    ac:a9:97:42:72:05:c7:60:15:25:68:94:8c:aa:2c:
                    be:35
                Exponent: 65537 (0x10001)
        X509v3 extensions:
            X509v3 Basic Constraints: critical
                CA:FALSE
            X509v3 Key Usage: critical
                Digital Signature
            X509v3 Subject Key Identifier: 
                11:4C:AC:2B:23:63:98:E5:1C:C6:11:EC:A3:F2:EC:C1:C6:F1:10:E7
            X509v3 Authority Key Identifier: 
                48:C6:16:3D:73:3A:9F:8C:D4:93:83:65:4A:96:F9:D3:C3:23:E4:CF
    Signature Algorithm: sha256WithRSAEncryption
    Signature Value:
        5a:f3:11:74:31:77:e5:ff:70:b8:3f:86:36:c7:8e:55:87:b3:
        9f:47:ea:04:35:aa:83:62:48:75:8f:a4:93:f4:97:a6:2a:15:
        58:50:31:c1:2b:38:69:ee:f3:ba:7f:2e:02:e9:c0:05:41:45:
        46:e4:37:73:4b:d2:10:c9:d6:0d:70:62:46:b2:1b:8e:56:6d:
        2c:b4:75:24:b2:8a:73:43:88:c5:80:90:7a:1e:d1:d6:75:9c:
        01:4d:74:f9:15:d3:c9:f0:59:6e:42:e4:02:4d:7f:2f:61:f4:
        57:d4:fb:6a:2b:62:99:06:de:5b:aa:a0:3e:c1:f2:51:4f:a9:
        2a:c5:bc:03:48:b9:76:ea:23:52:be:98:43:2e:ff:53:7f:08:
        97:cb:c7:d4:97:5a:bc:4d:f9:3a:29:c5:db:65:dc:db:2a:80:
        95:8d:20:29:b3:43:f1:90:23:45:58:3f:7a:0a:17:da:a8:e8:
        4d:70:c6:cd:c0:21:15:2c:29:fe:b3:58:34:29:c3:3c:30:5f:
        79:66:20:be:88:08:38:b7:8e:cb:7f:04:79:62:c9:8b:b2:5e:
        3e:3b:a4:41:6f:0b:57:b7:5c:e0:d5:6b:22:18:c1:ca:d8:1d:
        15:85:5d:94:97:26:32:5d:46:cf:38:cc:11:70:64:e1:f1:8c:
        81:cb:ae:dd
-----BEGIN CERTIFICATE-----
MIID3jCCAsagAwIBAgIBLTANBgkqhkiG9w0BAQsFADB9MQswCQYDVQQGEwJVUzET
MBEGA1UECAwKQ2FsaWZvcm5pYTEUMBIGA1UEBwwLU2FudGEgQ2xhcmExDTALBgNV
BAoMBHBrZzUxDDAKBgNVBAsMA3RhODESMBAGA1UEAwwJbG9jYWxob3N0MRIwEAYJ
KoZIhvcNAQkBFgN0YTgwHhcNMjMxMDI0MjE0MzE2WhcNMjYwNzIwMjE0MzE2WjCB
hTELMAkGA1UEBhMCVVMxEzARBgNVBAgMCkNhbGlmb3JuaWExFDASBgNVBAcMC1Nh
bnRhIENsYXJhMQ0wCwYDVQQKDARwa2c1MRAwDgYDVQQLDAdjczFfdGE4MRIwEAYD
VQQDDAlsb2NhbGhvc3QxFjAUBgkqhkiG9w0BCQEWB2NzMV90YTgwggEiMA0GCSqG
SIb3DQEBAQUAA4IBDwAwggEKAoIBAQClAe6XPJBg7X4EGv3NPF52Q9t5BbVqP7iT
qkzXGLISbmmw7WFTd+6pO2E0R5YN93Bga0mtcqs73M9V7y9ookEY6L62zctny0SC
EH1lRA9EoJJusQt8LMIGUdU9z+H2WuoXAfrotFTsm2kO0DtTGH7J/z97nuOHSQoJ
oJlP+hoGMau3Gou0Aj6et+1T7RWz7NU2lBI77KSrr+SMB6RJdg4yRoT39V5+2QCF
te9/aGiem9TfHIySeVmEWzpnh5I1cm2wiNxGz9gW/Zz1x68mdNeo40ZJpsDuxuk+
7NCaObHJCymEYXY8ecJCkAoiKWk446ypl0JyBcdgFSVolIyqLL41AgMBAAGjYDBe
MAwGA1UdEwEB/wQCMAAwDgYDVR0PAQH/BAQDAgeAMB0GA1UdDgQWBBQRTKwrI2OY
5RzGEeyj8uzBxvEQ5zAfBgNVHSMEGDAWgBRIxhY9czqfjNSTg2VKlvnTwyPkzzAN
BgkqhkiG9w0BAQsFAAOCAQEAWvMRdDF35f9wuD+GNseOVYezn0fqBDWqg2JIdY+k
k/SXpioVWFAxwSs4ae7zun8uAunABUFFRuQ3c0vSEMnWDXBiRrIbjlZtLLR1JLKK
c0OIxYCQeh7R1nWcAU10+RXTyfBZbkLkAk1/L2H0V9T7aitimQbeW6qgPsHyUU+p
KsW8A0i5duojUr6YQy7/U38Il8vH1JdavE35OinF22Xc2yqAlY0gKbND8ZAjRVg/
egoX2qjoTXDGzcAhFSwp/rNYNCnDPDBfeWYgvogIOLeOy38EeWLJi7JePjukQW8L
V7dc4NVrIhjBytgdFYVdlJcmMl1GzzjMEXBk4fGMgcuu3Q==
-----END CERTIFICATE-----
