Certificate:
    Data:
        Version: 3 (0x2)
        Serial Number: 45 (0x2d)
    Signature Algorithm: sha256WithRSAEncryption
        Issuer: C=US, ST=California, L=Santa Clara, O=pkg5, OU=ta8, CN=localhost/emailAddress=ta8
        Validity
            Not Before: Mar 20 10:20:56 2018 GMT
            Not After : Dec 14 10:20:56 2020 GMT
        Subject: C=US, ST=California, L=Santa Clara, O=pkg5, OU=cs1_ta8, CN=localhost/emailAddress=cs1_ta8
        Subject Public Key Info:
            Public Key Algorithm: rsaEncryption
                Public-Key: (1024 bit)
                Modulus:
                    00:a5:64:67:81:d9:6d:67:15:f5:08:8d:2f:aa:3b:
                    23:0d:18:23:1e:8b:ca:78:65:76:4e:d0:4c:b0:f8:
                    33:0c:df:54:ed:98:1b:6d:fd:12:55:d2:78:81:eb:
                    65:f3:de:18:27:b0:c2:32:e6:09:a7:21:3f:3b:71:
                    df:af:01:fb:3c:3c:4d:91:fa:43:ed:f8:16:79:0f:
                    92:c3:da:da:45:1e:aa:b2:f9:83:db:d9:36:a8:a0:
                    4d:bd:8b:09:49:67:bf:bd:0d:34:1e:6f:2e:2c:70:
                    64:d4:82:ee:50:0b:4b:f5:54:ad:3d:29:c5:fd:7d:
                    a4:4d:fb:3f:16:a9:61:ea:9f
                Exponent: 65537 (0x10001)
        X509v3 extensions:
            X509v3 Basic Constraints: critical
                CA:FALSE
            X509v3 Key Usage: critical
                Digital Signature
    Signature Algorithm: sha256WithRSAEncryption
         03:aa:26:f6:35:d6:33:fe:22:b1:fa:9f:b9:4f:30:3b:3d:00:
         0d:cf:05:ee:e8:20:28:d4:42:5f:09:ea:ef:c0:71:06:08:ff:
         2e:01:21:d9:5d:63:15:f2:fb:09:6c:eb:95:95:2b:a2:3e:26:
         9d:5a:a1:ba:ec:e1:43:33:07:34:9d:a6:05:7e:e5:4e:fb:f4:
         dd:05:93:c0:86:87:1f:de:f0:93:c7:9a:b8:7a:32:a0:3f:37:
         e8:cb:30:13:77:e9:41:ba:9c:f8:a8:95:db:40:3e:74:3e:1b:
         92:69:dc:4c:8c:91:fc:ff:3f:b7:cb:fa:58:80:3b:f5:8c:2b:
         5d:b5:44:96:81:5f:10:04:69:a2:a4:aa:4e:32:28:ff:86:25:
         7b:98:8f:78:0e:fa:eb:e5:03:14:e9:67:91:18:ae:68:ba:7b:
         90:dd:cc:b4:81:ea:35:65:d0:8b:59:50:62:f5:f7:93:e8:b8:
         b5:d0:4f:6d:a9:74:95:ac:61:1c:31:dd:c1:52:f8:81:0d:73:
         52:7d:d0:e8:dc:75:59:4f:9b:1f:ae:84:d7:33:81:e3:e0:ce:
         91:6e:85:04:da:a2:9c:5d:20:bb:e1:f3:2f:29:40:a3:64:bc:
         f7:af:da:77:a5:3a:71:77:fe:1d:5d:64:2d:46:19:ea:3e:c7:
         26:af:1a:7f
-----BEGIN CERTIFICATE-----
MIIDGjCCAgKgAwIBAgIBLTANBgkqhkiG9w0BAQsFADB9MQswCQYDVQQGEwJVUzET
MBEGA1UECAwKQ2FsaWZvcm5pYTEUMBIGA1UEBwwLU2FudGEgQ2xhcmExDTALBgNV
BAoMBHBrZzUxDDAKBgNVBAsMA3RhODESMBAGA1UEAwwJbG9jYWxob3N0MRIwEAYJ
KoZIhvcNAQkBFgN0YTgwHhcNMTgwMzIwMTAyMDU2WhcNMjAxMjE0MTAyMDU2WjCB
hTELMAkGA1UEBhMCVVMxEzARBgNVBAgMCkNhbGlmb3JuaWExFDASBgNVBAcMC1Nh
bnRhIENsYXJhMQ0wCwYDVQQKDARwa2c1MRAwDgYDVQQLDAdjczFfdGE4MRIwEAYD
VQQDDAlsb2NhbGhvc3QxFjAUBgkqhkiG9w0BCQEWB2NzMV90YTgwgZ8wDQYJKoZI
hvcNAQEBBQADgY0AMIGJAoGBAKVkZ4HZbWcV9QiNL6o7Iw0YIx6Lynhldk7QTLD4
MwzfVO2YG239ElXSeIHrZfPeGCewwjLmCachPztx368B+zw8TZH6Q+34FnkPksPa
2kUeqrL5g9vZNqigTb2LCUlnv70NNB5vLixwZNSC7lALS/VUrT0pxf19pE37Pxap
YeqfAgMBAAGjIDAeMAwGA1UdEwEB/wQCMAAwDgYDVR0PAQH/BAQDAgeAMA0GCSqG
SIb3DQEBCwUAA4IBAQADqib2NdYz/iKx+p+5TzA7PQANzwXu6CAo1EJfCervwHEG
CP8uASHZXWMV8vsJbOuVlSuiPiadWqG67OFDMwc0naYFfuVO+/TdBZPAhocf3vCT
x5q4ejKgPzfoyzATd+lBupz4qJXbQD50PhuSadxMjJH8/z+3y/pYgDv1jCtdtUSW
gV8QBGmipKpOMij/hiV7mI94Dvrr5QMU6WeRGK5ounuQ3cy0geo1ZdCLWVBi9feT
6Li10E9tqXSVrGEcMd3BUviBDXNSfdDo3HVZT5sfroTXM4Hj4M6RboUE2qKcXSC7
4fMvKUCjZLz3r9p3pTpxd/4dXWQtRhnqPscmrxp/
-----END CERTIFICATE-----
