Certificate:
    Data:
        Version: 3 (0x2)
        Serial Number: 45 (0x2d)
        Signature Algorithm: sha256WithRSAEncryption
        Issuer: C=US, ST=California, L=Santa Clara, O=pkg5, OU=ta8, CN=localhost/emailAddress=ta8
        Validity
            Not Before: May 23 15:47:23 2024 GMT
            Not After : Feb 17 15:47:23 2027 GMT
        Subject: C=US, ST=California, L=Santa Clara, O=pkg5, OU=cs1_ta8, CN=localhost/emailAddress=cs1_ta8
        Subject Public Key Info:
            Public Key Algorithm: rsaEncryption
                Public-Key: (2048 bit)
                Modulus:
                    00:b9:1e:40:d8:88:8e:6c:8c:b8:61:1f:77:9a:b7:
                    92:1a:e9:fd:90:8a:78:87:ab:be:7b:2b:23:1e:4c:
                    e2:f1:92:70:8f:ca:8f:14:8b:fb:cf:e9:c1:cd:02:
                    52:e6:a8:b8:c0:d3:0b:a4:6b:37:67:94:2e:49:7f:
                    0b:03:03:a5:7f:c5:d0:90:4a:d4:14:7e:f0:88:29:
                    49:50:9d:38:a4:2e:f7:90:b7:dc:f5:0b:10:bb:42:
                    95:26:17:ee:49:db:bc:88:1c:08:aa:8d:ba:92:09:
                    80:a3:60:a0:fa:47:33:5e:b2:01:54:d1:f5:50:de:
                    87:cc:cd:e2:5a:40:3f:2b:93:91:34:3f:55:42:0c:
                    be:34:a5:a0:e6:a9:0e:6d:d9:b3:b1:16:78:1f:02:
                    11:84:a5:23:fb:f2:4d:68:54:c2:16:d3:80:54:ed:
                    74:bf:f8:f2:9e:ca:3e:bc:9f:fb:c7:9f:e0:70:d1:
                    6f:87:cc:01:3f:2e:0a:49:51:e0:70:3e:3b:44:26:
                    84:7f:b7:70:36:8b:51:fd:65:1c:97:21:31:a5:6a:
                    ce:79:47:74:4e:3d:b1:88:cc:28:2e:11:12:e1:db:
                    30:38:8c:9f:d1:32:08:42:93:4f:9b:03:ac:2a:4e:
                    1d:aa:4f:b9:5f:1a:fa:f4:ae:bf:03:b9:2b:20:c1:
                    b8:83
                Exponent: 65537 (0x10001)
        X509v3 extensions:
            X509v3 Basic Constraints: critical
                CA:FALSE
            X509v3 Key Usage: critical
                Digital Signature
            X509v3 Subject Key Identifier: 
                BB:5C:D6:08:09:69:B3:90:21:73:3C:9B:21:A1:F8:44:72:EC:E5:F9
            X509v3 Authority Key Identifier: 
                51:3B:59:7C:85:01:2C:11:FC:E8:DB:12:B3:C5:66:72:5E:E0:F6:4B
    Signature Algorithm: sha256WithRSAEncryption
    Signature Value:
        23:70:f3:0b:67:4d:d0:05:c3:fe:c3:ad:06:f3:b8:c5:51:2f:
        d9:1e:3b:0f:27:45:1b:43:2b:42:26:46:50:7f:c2:41:0f:ee:
        93:ea:86:3b:94:ec:ba:c0:85:60:d9:b1:a0:63:1e:e9:1b:ce:
        5c:d9:35:a8:bf:69:8f:20:8e:56:2b:54:e7:91:3b:48:5c:7b:
        73:02:b9:bb:d0:8a:a8:10:3b:4a:17:4f:17:b2:28:fc:52:80:
        42:ea:ea:ee:f3:a4:b6:4b:6f:40:a1:02:54:30:34:f1:fc:76:
        4e:05:a5:cf:0f:d8:78:c2:0e:65:1a:55:fa:77:dd:c3:49:0f:
        9d:b3:b1:a9:bf:11:3c:bd:e3:61:2c:ea:2a:63:3d:59:fc:f9:
        1f:1d:34:61:ce:48:47:79:e6:ee:7d:65:a6:da:b7:8a:47:da:
        4f:61:ed:b2:48:1b:7e:f8:6c:bf:34:6d:c7:2c:63:a0:24:a8:
        99:2f:6b:c6:16:c0:4e:ae:81:70:d6:a8:71:9c:7d:93:33:1d:
        02:69:80:e6:aa:3c:9e:86:d7:e6:f6:20:55:ab:b0:ec:ea:92:
        86:ad:95:10:a6:7f:6b:ea:2c:3b:bc:62:e1:4f:35:d2:fb:0e:
        6f:63:0b:62:a7:88:4c:ba:04:01:7b:6b:00:c4:42:c6:ad:9d:
        39:9d:db:3d
-----BEGIN CERTIFICATE-----
MIID3jCCAsagAwIBAgIBLTANBgkqhkiG9w0BAQsFADB9MQswCQYDVQQGEwJVUzET
MBEGA1UECAwKQ2FsaWZvcm5pYTEUMBIGA1UEBwwLU2FudGEgQ2xhcmExDTALBgNV
BAoMBHBrZzUxDDAKBgNVBAsMA3RhODESMBAGA1UEAwwJbG9jYWxob3N0MRIwEAYJ
KoZIhvcNAQkBFgN0YTgwHhcNMjQwNTIzMTU0NzIzWhcNMjcwMjE3MTU0NzIzWjCB
hTELMAkGA1UEBhMCVVMxEzARBgNVBAgMCkNhbGlmb3JuaWExFDASBgNVBAcMC1Nh
bnRhIENsYXJhMQ0wCwYDVQQKDARwa2c1MRAwDgYDVQQLDAdjczFfdGE4MRIwEAYD
VQQDDAlsb2NhbGhvc3QxFjAUBgkqhkiG9w0BCQEWB2NzMV90YTgwggEiMA0GCSqG
SIb3DQEBAQUAA4IBDwAwggEKAoIBAQC5HkDYiI5sjLhhH3eat5Ia6f2QiniHq757
KyMeTOLxknCPyo8Ui/vP6cHNAlLmqLjA0wukazdnlC5JfwsDA6V/xdCQStQUfvCI
KUlQnTikLveQt9z1CxC7QpUmF+5J27yIHAiqjbqSCYCjYKD6RzNesgFU0fVQ3ofM
zeJaQD8rk5E0P1VCDL40paDmqQ5t2bOxFngfAhGEpSP78k1oVMIW04BU7XS/+PKe
yj68n/vHn+Bw0W+HzAE/LgpJUeBwPjtEJoR/t3A2i1H9ZRyXITGlas55R3ROPbGI
zCguERLh2zA4jJ/RMghCk0+bA6wqTh2qT7lfGvr0rr8DuSsgwbiDAgMBAAGjYDBe
MAwGA1UdEwEB/wQCMAAwDgYDVR0PAQH/BAQDAgeAMB0GA1UdDgQWBBS7XNYICWmz
kCFzPJshofhEcuzl+TAfBgNVHSMEGDAWgBRRO1l8hQEsEfzo2xKzxWZyXuD2SzAN
BgkqhkiG9w0BAQsFAAOCAQEAI3DzC2dN0AXD/sOtBvO4xVEv2R47DydFG0MrQiZG
UH/CQQ/uk+qGO5TsusCFYNmxoGMe6RvOXNk1qL9pjyCOVitU55E7SFx7cwK5u9CK
qBA7ShdPF7Io/FKAQurq7vOktktvQKECVDA08fx2TgWlzw/YeMIOZRpV+nfdw0kP
nbOxqb8RPL3jYSzqKmM9Wfz5Hx00Yc5IR3nm7n1lptq3ikfaT2HtskgbfvhsvzRt
xyxjoCSomS9rxhbATq6BcNaocZx9kzMdAmmA5qo8nobX5vYgVauw7OqShq2VEKZ/
a+osO7xi4U810vsOb2MLYqeITLoEAXtrAMRCxq2dOZ3bPQ==
-----END CERTIFICATE-----
