Certificate:
    Data:
        Version: 3 (0x2)
        Serial Number: 46 (0x2e)
    Signature Algorithm: sha256WithRSAEncryption
        Issuer: C=US, ST=California, L=Santa Clara, O=pkg5, OU=ta9, CN=localhost/emailAddress=ta9
        Validity
            Not Before: Nov 16 10:58:52 2017 GMT
            Not After : Aug 12 10:58:52 2020 GMT
        Subject: C=US, ST=California, L=Santa Clara, O=pkg5, OU=cs1_ta9, CN=localhost/emailAddress=cs1_ta9
        Subject Public Key Info:
            Public Key Algorithm: rsaEncryption
                Public-Key: (1024 bit)
                Modulus:
                    00:d3:02:45:25:67:65:82:06:dc:42:d9:35:05:a1:
                    46:fa:c6:1d:0b:60:24:42:34:b6:55:19:24:99:2e:
                    c3:44:9a:8f:e7:57:9d:d4:36:7f:8f:7f:c7:1c:51:
                    fe:04:b9:25:b7:13:a4:5d:9c:40:17:d3:a8:fb:15:
                    2c:d9:8e:57:94:25:e4:0a:59:dc:52:b3:b3:2a:53:
                    37:86:b5:f2:a0:bd:82:93:8d:86:19:d7:c9:87:dd:
                    c1:ee:c0:dc:61:1b:ef:39:86:a3:98:24:7c:0e:b6:
                    43:8d:02:9e:5e:43:2e:7f:c9:e6:df:f7:34:53:5f:
                    5b:b2:be:f9:4e:c9:f0:0a:ab
                Exponent: 65537 (0x10001)
        X509v3 extensions:
            X509v3 Basic Constraints: critical
                CA:FALSE
            X509v3 Key Usage: critical
                Digital Signature
    Signature Algorithm: sha256WithRSAEncryption
         18:5e:35:8f:ff:1b:28:84:58:ba:1d:ab:cc:6a:84:e2:fc:01:
         ce:ce:37:60:a5:d2:d1:de:52:d3:86:6a:a1:91:1e:d2:d3:78:
         77:58:fb:b7:a6:8c:5f:c2:26:92:b1:9a:51:15:5c:33:1c:6a:
         79:13:03:e9:4b:45:32:18:b2:fb:84:30:06:82:e1:27:26:6a:
         3a:6f:40:c7:4a:51:43:ed:35:12:a3:22:be:b4:c6:38:4c:e2:
         a5:0a:7a:f4:62:c6:29:ad:12:af:82:52:77:2a:98:8e:65:1d:
         62:a4:17:5e:f2:6c:77:7e:55:a6:9e:09:d7:42:cd:ea:29:f5:
         5e:42:f9:c0:67:9c:88:a0:6e:db:36:2c:3c:3a:b9:ed:3c:9d:
         e0:6a:18:3a:c5:b5:70:e5:b4:56:f4:18:ee:89:d4:a8:9b:ac:
         7f:33:ba:a1:f0:1a:11:85:f0:7b:74:52:95:ff:1a:24:4d:c6:
         46:21:b6:d0:77:69:5f:41:82:53:57:e7:55:3a:4c:4b:71:e1:
         55:45:f1:a5:57:3f:ef:bf:e5:ab:ba:05:ef:b2:3f:db:77:5f:
         bc:1c:e7:63:e9:1f:47:0b:cc:eb:84:43:ec:c2:07:e2:dc:50:
         87:48:06:16:43:6e:53:66:7a:c6:00:da:5c:bb:79:65:84:12:
         e5:80:87:df
-----BEGIN CERTIFICATE-----
MIIDGjCCAgKgAwIBAgIBLjANBgkqhkiG9w0BAQsFADB9MQswCQYDVQQGEwJVUzET
MBEGA1UECAwKQ2FsaWZvcm5pYTEUMBIGA1UEBwwLU2FudGEgQ2xhcmExDTALBgNV
BAoMBHBrZzUxDDAKBgNVBAsMA3RhOTESMBAGA1UEAwwJbG9jYWxob3N0MRIwEAYJ
KoZIhvcNAQkBFgN0YTkwHhcNMTcxMTE2MTA1ODUyWhcNMjAwODEyMTA1ODUyWjCB
hTELMAkGA1UEBhMCVVMxEzARBgNVBAgMCkNhbGlmb3JuaWExFDASBgNVBAcMC1Nh
bnRhIENsYXJhMQ0wCwYDVQQKDARwa2c1MRAwDgYDVQQLDAdjczFfdGE5MRIwEAYD
VQQDDAlsb2NhbGhvc3QxFjAUBgkqhkiG9w0BCQEWB2NzMV90YTkwgZ8wDQYJKoZI
hvcNAQEBBQADgY0AMIGJAoGBANMCRSVnZYIG3ELZNQWhRvrGHQtgJEI0tlUZJJku
w0Saj+dXndQ2f49/xxxR/gS5JbcTpF2cQBfTqPsVLNmOV5Ql5ApZ3FKzsypTN4a1
8qC9gpONhhnXyYfdwe7A3GEb7zmGo5gkfA62Q40Cnl5DLn/J5t/3NFNfW7K++U7J
8AqrAgMBAAGjIDAeMAwGA1UdEwEB/wQCMAAwDgYDVR0PAQH/BAQDAgeAMA0GCSqG
SIb3DQEBCwUAA4IBAQAYXjWP/xsohFi6HavMaoTi/AHOzjdgpdLR3lLThmqhkR7S
03h3WPu3poxfwiaSsZpRFVwzHGp5EwPpS0UyGLL7hDAGguEnJmo6b0DHSlFD7TUS
oyK+tMY4TOKlCnr0YsYprRKvglJ3KpiOZR1ipBde8mx3flWmngnXQs3qKfVeQvnA
Z5yIoG7bNiw8OrntPJ3gahg6xbVw5bRW9BjuidSom6x/M7qh8BoRhfB7dFKV/xok
TcZGIbbQd2lfQYJTV+dVOkxLceFVRfGlVz/vv+WrugXvsj/bd1+8HOdj6R9HC8zr
hEPswgfi3FCHSAYWQ25TZnrGANpcu3llhBLlgIff
-----END CERTIFICATE-----
