Certificate:
    Data:
        Version: 3 (0x2)
        Serial Number: 46 (0x2e)
        Signature Algorithm: sha256WithRSAEncryption
        Issuer: C=US, ST=California, L=Santa Clara, O=pkg5, OU=ta9, CN=localhost/emailAddress=ta9
        Validity
            Not Before: Nov 14 14:26:59 2024 GMT
            Not After : Aug 11 14:26:59 2027 GMT
        Subject: C=US, ST=California, L=Santa Clara, O=pkg5, OU=cs1_ta9, CN=localhost/emailAddress=cs1_ta9
        Subject Public Key Info:
            Public Key Algorithm: rsaEncryption
                Public-Key: (2048 bit)
                Modulus:
                    00:cb:a1:78:ff:58:9a:60:b1:1c:49:03:9b:56:cd:
                    3b:ad:b2:2a:2a:97:9d:9d:8c:1b:12:93:3f:78:69:
                    eb:2c:52:6b:1d:1e:43:27:de:1e:78:b3:99:33:16:
                    8c:11:db:f1:be:48:10:a9:22:f6:1d:76:f8:16:50:
                    af:f4:18:1f:cf:2f:bd:5c:55:5a:ca:9e:21:8d:16:
                    02:a3:88:07:2c:58:23:a7:d4:34:f6:3a:65:b1:90:
                    73:30:86:12:40:5c:e7:cf:1e:1c:98:be:a3:ea:ed:
                    a0:a9:29:4d:9f:60:b9:7d:46:43:08:1b:44:f8:82:
                    86:d4:e2:04:1e:19:9e:d3:27:00:65:80:44:da:9f:
                    ad:e7:ce:e7:b6:4a:ff:bc:1d:3d:8c:72:af:50:66:
                    18:2f:6d:72:d4:f9:03:ae:07:76:68:63:54:3d:13:
                    42:50:3c:8d:4e:0f:8e:5a:f0:b3:29:db:a7:28:bd:
                    94:5c:6f:4c:68:71:3e:6d:43:e2:64:e3:0d:a5:b9:
                    0f:08:69:ab:a2:9b:b5:67:22:c2:91:9a:e3:5d:c3:
                    d2:5a:af:0b:ad:15:4a:ab:5b:9e:31:fa:fd:8e:ea:
                    8d:5d:97:50:34:5b:a4:c8:1b:cd:a7:a4:37:52:f6:
                    0f:ed:7e:91:ca:8a:72:1c:83:5f:a8:9e:66:28:1b:
                    e8:75
                Exponent: 65537 (0x10001)
        X509v3 extensions:
            X509v3 Basic Constraints: critical
                CA:FALSE
            X509v3 Key Usage: critical
                Digital Signature
            X509v3 Subject Key Identifier: 
                E4:A6:CE:F6:4F:2E:B2:28:F7:D8:8D:8D:AB:30:34:08:16:11:DB:A9
            X509v3 Authority Key Identifier: 
                3A:05:F9:04:EE:10:DA:84:B3:69:85:0E:67:45:8F:27:21:2D:AF:54
    Signature Algorithm: sha256WithRSAEncryption
    Signature Value:
        26:22:44:c8:0c:57:ba:b4:7e:81:66:de:8c:22:d9:3f:2c:ce:
        dc:9a:10:d3:be:a7:15:a9:07:ca:a0:be:46:0d:d7:b7:d4:cc:
        b1:eb:0e:5a:6c:da:ba:5b:76:d8:f9:f1:75:cc:ca:d7:8e:6c:
        1a:db:ee:5a:12:68:45:e7:fa:11:b2:3a:2b:aa:40:50:07:ed:
        ba:b8:f2:a0:e2:04:d5:22:6c:e6:bc:b9:06:8a:b8:f7:06:02:
        80:93:68:40:db:8e:ec:40:b8:2e:21:52:47:15:c3:d1:ad:7b:
        a1:01:27:3e:a8:4c:38:d9:b2:98:9e:c2:ef:81:98:8b:db:5a:
        df:24:8b:57:6c:4b:26:28:48:b7:b5:ad:55:ec:11:6f:0b:f3:
        c3:69:e3:59:60:59:c4:52:37:a7:ef:a5:1a:b5:9b:c6:43:85:
        70:c7:8e:74:a1:c2:41:91:d8:0b:89:68:00:e2:c8:c0:0d:fe:
        bb:4b:69:f1:04:4e:89:81:4f:94:17:b4:65:0b:e1:5a:69:33:
        03:7d:c9:6a:d0:4a:2a:9e:45:48:4b:ba:b5:f9:4f:5d:69:58:
        e8:37:5f:7a:48:8b:28:e9:1a:19:9c:7b:6a:bd:69:e4:45:50:
        93:cf:88:f9:d0:c8:74:66:14:08:c8:de:cc:82:ea:a0:a6:c3:
        85:14:82:c8
-----BEGIN CERTIFICATE-----
MIID3jCCAsagAwIBAgIBLjANBgkqhkiG9w0BAQsFADB9MQswCQYDVQQGEwJVUzET
MBEGA1UECAwKQ2FsaWZvcm5pYTEUMBIGA1UEBwwLU2FudGEgQ2xhcmExDTALBgNV
BAoMBHBrZzUxDDAKBgNVBAsMA3RhOTESMBAGA1UEAwwJbG9jYWxob3N0MRIwEAYJ
KoZIhvcNAQkBFgN0YTkwHhcNMjQxMTE0MTQyNjU5WhcNMjcwODExMTQyNjU5WjCB
hTELMAkGA1UEBhMCVVMxEzARBgNVBAgMCkNhbGlmb3JuaWExFDASBgNVBAcMC1Nh
bnRhIENsYXJhMQ0wCwYDVQQKDARwa2c1MRAwDgYDVQQLDAdjczFfdGE5MRIwEAYD
VQQDDAlsb2NhbGhvc3QxFjAUBgkqhkiG9w0BCQEWB2NzMV90YTkwggEiMA0GCSqG
SIb3DQEBAQUAA4IBDwAwggEKAoIBAQDLoXj/WJpgsRxJA5tWzTutsioql52djBsS
kz94aessUmsdHkMn3h54s5kzFowR2/G+SBCpIvYddvgWUK/0GB/PL71cVVrKniGN
FgKjiAcsWCOn1DT2OmWxkHMwhhJAXOfPHhyYvqPq7aCpKU2fYLl9RkMIG0T4gobU
4gQeGZ7TJwBlgETan63nzue2Sv+8HT2Mcq9QZhgvbXLU+QOuB3ZoY1Q9E0JQPI1O
D45a8LMp26covZRcb0xocT5tQ+Jk4w2luQ8Iaauim7VnIsKRmuNdw9JarwutFUqr
W54x+v2O6o1dl1A0W6TIG82npDdS9g/tfpHKinIcg1+onmYoG+h1AgMBAAGjYDBe
MAwGA1UdEwEB/wQCMAAwDgYDVR0PAQH/BAQDAgeAMB0GA1UdDgQWBBTkps72Ty6y
KPfYjY2rMDQIFhHbqTAfBgNVHSMEGDAWgBQ6BfkE7hDahLNphQ5nRY8nIS2vVDAN
BgkqhkiG9w0BAQsFAAOCAQEAJiJEyAxXurR+gWbejCLZPyzO3JoQ076nFakHyqC+
Rg3Xt9TMsesOWmzault22PnxdczK145sGtvuWhJoRef6EbI6K6pAUAfturjyoOIE
1SJs5ry5Boq49wYCgJNoQNuO7EC4LiFSRxXD0a17oQEnPqhMONmymJ7C74GYi9ta
3ySLV2xLJihIt7WtVewRbwvzw2njWWBZxFI3p++lGrWbxkOFcMeOdKHCQZHYC4lo
AOLIwA3+u0tp8QROiYFPlBe0ZQvhWmkzA33JatBKKp5FSEu6tflPXWlY6DdfekiL
KOkaGZx7ar1p5EVQk8+I+dDIdGYUCMjezILqoKbDhRSCyA==
-----END CERTIFICATE-----
