Certificate:
    Data:
        Version: 3 (0x2)
        Serial Number: 47 (0x2f)
        Signature Algorithm: sha256WithRSAEncryption
        Issuer: C=US, ST=California, L=Santa Clara, O=pkg5, OU=ta10, CN=localhost/emailAddress=ta10
        Validity
            Not Before: Oct 24 21:43:18 2023 GMT
            Not After : Jul 20 21:43:18 2026 GMT
        Subject: C=US, ST=California, L=Santa Clara, O=pkg5, OU=cs1_ta10, CN=localhost/emailAddress=cs1_ta10
        Subject Public Key Info:
            Public Key Algorithm: rsaEncryption
                Public-Key: (2048 bit)
                Modulus:
                    00:ab:fc:39:6e:cd:d2:27:25:8f:79:f7:f0:06:b7:
                    59:5c:a3:fd:20:2b:be:8b:6f:33:91:36:80:9a:07:
                    e7:58:44:23:5a:bb:f3:59:1b:0c:9b:1f:58:aa:98:
                    fc:93:53:0a:54:11:e9:6a:e2:46:80:29:eb:31:47:
                    cb:59:4d:8b:c2:95:97:17:2b:86:5b:1f:4d:57:50:
                    bc:3a:9d:65:c4:00:ec:33:fc:35:f3:d2:46:c1:a1:
                    94:df:59:53:82:97:78:14:23:bf:73:a7:73:21:31:
                    18:72:fc:b8:69:64:47:fc:11:b2:b2:65:cc:5a:63:
                    cf:87:37:14:df:6a:de:a0:30:5b:6d:8c:71:9e:00:
                    df:b8:c3:b6:66:37:02:53:09:1e:dd:c6:8b:b6:c8:
                    e3:70:05:e5:79:54:3c:7d:8d:0b:0e:92:39:39:5a:
                    41:4b:7f:29:70:c8:84:e9:6a:2a:7b:8b:fd:c2:0a:
                    62:bf:99:bd:98:42:89:4b:a9:eb:45:c0:c2:78:fd:
                    76:b1:64:fe:93:89:44:b2:46:29:d5:cf:03:69:f3:
                    25:56:e5:39:1f:28:2f:4a:73:b6:58:8c:65:cd:37:
                    f0:77:07:a6:4e:77:4a:4a:bb:f1:62:de:de:30:84:
                    f4:aa:8b:d7:0c:87:77:c4:4c:b0:21:0f:f9:ca:8b:
                    03:87
                Exponent: 65537 (0x10001)
        X509v3 extensions:
            X509v3 Basic Constraints: critical
                CA:FALSE
            X509v3 Key Usage: critical
                Digital Signature
            X509v3 Subject Key Identifier: 
                FB:C0:3D:2A:53:3D:CE:CB:A5:32:12:E6:91:2B:BE:39:67:D6:1D:BA
            X509v3 Authority Key Identifier: 
                20:47:0F:43:D3:3C:FF:A5:65:A2:36:C4:0B:C6:38:04:10:DE:0A:E9
    Signature Algorithm: sha256WithRSAEncryption
    Signature Value:
        72:b9:a0:9a:05:9b:ca:ee:c1:5a:7a:e9:03:8a:04:3b:a5:8d:
        ce:cd:a8:b7:e8:ab:c0:bf:10:6a:7b:8c:0d:c8:00:0d:57:ee:
        fa:31:2e:07:7c:8c:79:3e:83:39:c7:4f:eb:18:8a:6c:c6:a4:
        d0:38:4a:d0:05:10:be:5b:15:54:40:4b:66:b2:e6:fa:92:c1:
        8a:2d:f7:f1:84:33:c0:6f:bd:ab:47:1f:52:10:05:aa:2f:f1:
        57:9c:1b:16:73:20:81:db:3f:1d:24:68:7d:81:48:74:17:42:
        6e:08:df:6b:5a:1c:f1:49:d8:d3:01:58:ff:cd:fe:f2:2a:99:
        f4:31:89:01:1c:df:20:3e:c7:d5:27:b2:e2:87:1d:87:18:6c:
        db:55:41:8d:d5:af:77:ea:93:8c:e2:12:43:b9:e2:f9:08:24:
        48:4d:f3:4e:90:88:52:66:78:a8:ff:60:7e:09:a9:39:32:f0:
        2d:61:bb:0e:35:ad:2b:70:01:3e:96:f2:87:b8:3b:42:8f:e9:
        a5:42:c0:70:10:13:84:b3:b8:c1:32:86:72:85:39:d1:7e:bb:
        1c:c2:15:7c:c8:f3:97:ec:34:64:a5:86:c9:b4:0a:de:2a:48:
        23:c4:0c:00:f1:fa:7d:e7:6b:8d:0c:4d:d4:b0:80:d4:87:39:
        3b:de:a5:4f
-----BEGIN CERTIFICATE-----
MIID4jCCAsqgAwIBAgIBLzANBgkqhkiG9w0BAQsFADB/MQswCQYDVQQGEwJVUzET
MBEGA1UECAwKQ2FsaWZvcm5pYTEUMBIGA1UEBwwLU2FudGEgQ2xhcmExDTALBgNV
BAoMBHBrZzUxDTALBgNVBAsMBHRhMTAxEjAQBgNVBAMMCWxvY2FsaG9zdDETMBEG
CSqGSIb3DQEJARYEdGExMDAeFw0yMzEwMjQyMTQzMThaFw0yNjA3MjAyMTQzMTha
MIGHMQswCQYDVQQGEwJVUzETMBEGA1UECAwKQ2FsaWZvcm5pYTEUMBIGA1UEBwwL
U2FudGEgQ2xhcmExDTALBgNVBAoMBHBrZzUxETAPBgNVBAsMCGNzMV90YTEwMRIw
EAYDVQQDDAlsb2NhbGhvc3QxFzAVBgkqhkiG9w0BCQEWCGNzMV90YTEwMIIBIjAN
BgkqhkiG9w0BAQEFAAOCAQ8AMIIBCgKCAQEAq/w5bs3SJyWPeffwBrdZXKP9ICu+
i28zkTaAmgfnWEQjWrvzWRsMmx9Yqpj8k1MKVBHpauJGgCnrMUfLWU2LwpWXFyuG
Wx9NV1C8Op1lxADsM/w189JGwaGU31lTgpd4FCO/c6dzITEYcvy4aWRH/BGysmXM
WmPPhzcU32reoDBbbYxxngDfuMO2ZjcCUwke3caLtsjjcAXleVQ8fY0LDpI5OVpB
S38pcMiE6Woqe4v9wgpiv5m9mEKJS6nrRcDCeP12sWT+k4lEskYp1c8DafMlVuU5
HygvSnO2WIxlzTfwdwemTndKSrvxYt7eMIT0qovXDId3xEywIQ/5yosDhwIDAQAB
o2AwXjAMBgNVHRMBAf8EAjAAMA4GA1UdDwEB/wQEAwIHgDAdBgNVHQ4EFgQU+8A9
KlM9zsulMhLmkSu+OWfWHbowHwYDVR0jBBgwFoAUIEcPQ9M8/6VlojbEC8Y4BBDe
CukwDQYJKoZIhvcNAQELBQADggEBAHK5oJoFm8ruwVp66QOKBDuljc7NqLfoq8C/
EGp7jA3IAA1X7voxLgd8jHk+gznHT+sYimzGpNA4StAFEL5bFVRAS2ay5vqSwYot
9/GEM8BvvatHH1IQBaov8VecGxZzIIHbPx0kaH2BSHQXQm4I32taHPFJ2NMBWP/N
/vIqmfQxiQEc3yA+x9UnsuKHHYcYbNtVQY3Vr3fqk4ziEkO54vkIJEhN806QiFJm
eKj/YH4JqTky8C1huw41rStwAT6W8oe4O0KP6aVCwHAQE4SzuMEyhnKFOdF+uxzC
FXzI85fsNGSlhsm0Ct4qSCPEDADx+n3na40MTdSwgNSHOTvepU8=
-----END CERTIFICATE-----
