Certificate:
    Data:
        Version: 3 (0x2)
        Serial Number: 47 (0x2f)
    Signature Algorithm: sha256WithRSAEncryption
        Issuer: C=US, ST=California, L=Santa Clara, O=pkg5, OU=ta10, CN=localhost/emailAddress=ta10
        Validity
            Not Before: Mar 20 10:20:56 2018 GMT
            Not After : Dec 14 10:20:56 2020 GMT
        Subject: C=US, ST=California, L=Santa Clara, O=pkg5, OU=cs1_ta10, CN=localhost/emailAddress=cs1_ta10
        Subject Public Key Info:
            Public Key Algorithm: rsaEncryption
                Public-Key: (1024 bit)
                Modulus:
                    00:a3:93:01:7f:32:ed:df:4b:0c:31:ea:be:fd:fb:
                    17:3b:d9:02:1a:d8:fd:ca:8a:e0:d5:d0:a0:e9:23:
                    c6:d9:10:2a:04:5e:d9:46:78:c4:ed:0a:bd:78:8e:
                    b1:8c:4b:48:ef:70:b1:e9:2d:88:18:1e:82:38:fa:
                    b0:a7:ba:a6:3f:79:de:ba:d8:1b:51:ae:c6:54:10:
                    96:10:27:99:d7:62:89:51:5e:80:2c:eb:28:6f:01:
                    f9:30:ad:23:42:6e:a7:ec:a4:bb:c1:6a:07:4b:f4:
                    21:55:97:0e:74:cd:e0:72:68:5a:ed:5b:b0:78:51:
                    92:3f:a9:3b:08:f6:15:a2:4f
                Exponent: 65537 (0x10001)
        X509v3 extensions:
            X509v3 Basic Constraints: critical
                CA:FALSE
            X509v3 Key Usage: critical
                Digital Signature
    Signature Algorithm: sha256WithRSAEncryption
         60:27:21:b3:f1:5a:d3:a4:d5:fb:5b:d8:13:61:94:1a:81:41:
         91:7b:d4:20:2f:ca:65:ce:2c:3a:05:f0:fd:96:be:ff:5f:10:
         a3:36:e6:ee:13:d3:fe:11:26:2d:5f:1c:1d:e9:d0:ba:da:ec:
         84:9f:c2:58:90:b7:a4:41:17:b7:66:79:ef:a4:aa:9f:59:1e:
         31:c4:c5:90:b7:2f:ce:78:64:5f:2d:1f:ee:bf:05:fe:da:f2:
         1a:cd:b5:58:a6:69:7b:25:ca:61:f6:ec:f8:81:b9:5d:45:a7:
         87:da:ac:b2:40:c6:a4:e5:3c:59:e3:10:9c:5b:fb:0b:66:ac:
         cf:22:b2:ba:56:4a:d0:5a:c4:cd:6f:51:f3:32:a0:73:79:7b:
         e4:1e:00:19:f7:31:8f:d9:0e:f1:76:19:94:f5:53:ad:47:93:
         97:8f:0b:3f:16:68:0e:d9:1f:bf:aa:12:79:79:a5:04:5c:eb:
         af:94:e0:f7:a7:35:3b:fb:ed:4c:19:a0:ab:1a:bc:17:40:bf:
         cb:8e:23:2f:20:6e:34:63:9e:91:99:b0:91:0a:20:e2:44:0c:
         cf:7b:ff:f9:d6:70:e4:d6:2f:00:98:e0:bd:98:14:08:13:0d:
         bb:74:b7:f9:6a:92:16:19:a3:ab:28:22:de:49:64:96:e4:62:
         77:a2:c1:dd
-----BEGIN CERTIFICATE-----
MIIDHjCCAgagAwIBAgIBLzANBgkqhkiG9w0BAQsFADB/MQswCQYDVQQGEwJVUzET
MBEGA1UECAwKQ2FsaWZvcm5pYTEUMBIGA1UEBwwLU2FudGEgQ2xhcmExDTALBgNV
BAoMBHBrZzUxDTALBgNVBAsMBHRhMTAxEjAQBgNVBAMMCWxvY2FsaG9zdDETMBEG
CSqGSIb3DQEJARYEdGExMDAeFw0xODAzMjAxMDIwNTZaFw0yMDEyMTQxMDIwNTZa
MIGHMQswCQYDVQQGEwJVUzETMBEGA1UECAwKQ2FsaWZvcm5pYTEUMBIGA1UEBwwL
U2FudGEgQ2xhcmExDTALBgNVBAoMBHBrZzUxETAPBgNVBAsMCGNzMV90YTEwMRIw
EAYDVQQDDAlsb2NhbGhvc3QxFzAVBgkqhkiG9w0BCQEWCGNzMV90YTEwMIGfMA0G
CSqGSIb3DQEBAQUAA4GNADCBiQKBgQCjkwF/Mu3fSwwx6r79+xc72QIa2P3KiuDV
0KDpI8bZECoEXtlGeMTtCr14jrGMS0jvcLHpLYgYHoI4+rCnuqY/ed662BtRrsZU
EJYQJ5nXYolRXoAs6yhvAfkwrSNCbqfspLvBagdL9CFVlw50zeByaFrtW7B4UZI/
qTsI9hWiTwIDAQABoyAwHjAMBgNVHRMBAf8EAjAAMA4GA1UdDwEB/wQEAwIHgDAN
BgkqhkiG9w0BAQsFAAOCAQEAYCchs/Fa06TV+1vYE2GUGoFBkXvUIC/KZc4sOgXw
/Za+/18Qozbm7hPT/hEmLV8cHenQutrshJ/CWJC3pEEXt2Z576Sqn1keMcTFkLcv
znhkXy0f7r8F/tryGs21WKZpeyXKYfbs+IG5XUWnh9qsskDGpOU8WeMQnFv7C2as
zyKyulZK0FrEzW9R8zKgc3l75B4AGfcxj9kO8XYZlPVTrUeTl48LPxZoDtkfv6oS
eXmlBFzrr5Tg96c1O/vtTBmgqxq8F0C/y44jLyBuNGOekZmwkQog4kQMz3v/+dZw
5NYvAJjgvZgUCBMNu3S3+WqSFhmjqygi3klkluRid6LB3Q==
-----END CERTIFICATE-----
