Certificate:
    Data:
        Version: 3 (0x2)
        Serial Number: 47 (0x2f)
        Signature Algorithm: sha256WithRSAEncryption
        Issuer: C=US, ST=California, L=Santa Clara, O=pkg5, OU=ta10, CN=localhost/emailAddress=ta10
        Validity
            Not Before: Dec 15 15:37:34 2022 GMT
            Not After : Sep 10 15:37:34 2025 GMT
        Subject: C=US, ST=California, L=Santa Clara, O=pkg5, OU=cs1_ta10, CN=localhost/emailAddress=cs1_ta10
        Subject Public Key Info:
            Public Key Algorithm: rsaEncryption
                Public-Key: (2048 bit)
                Modulus:
                    00:cc:14:c0:ce:40:a6:76:8d:69:3d:fd:36:16:c6:
                    71:a4:9d:41:4e:9a:4a:bb:9d:37:ca:47:94:38:81:
                    76:ff:36:f5:52:24:fc:2b:f7:2d:b7:94:63:cc:80:
                    58:1e:1a:bb:85:19:3b:17:b7:eb:00:20:01:5d:cf:
                    64:38:8a:06:47:ae:db:c6:7e:94:bb:9c:19:0f:41:
                    4a:95:f6:a3:e4:07:5d:03:5c:81:b7:08:1e:42:7c:
                    1b:01:3a:c3:85:9a:20:c7:fa:f1:43:a0:e0:aa:67:
                    57:d1:fd:fe:68:a6:d6:68:82:e5:18:b7:e5:3c:de:
                    ad:9a:2e:21:4f:f3:2b:f7:d7:2a:c0:c0:72:af:2e:
                    9c:a6:7d:b1:18:5b:84:b6:9c:81:63:16:8e:70:be:
                    9c:57:57:11:fc:cb:bf:a5:f7:08:e5:5e:14:ef:a8:
                    85:ef:35:dd:07:d2:e1:84:18:59:cd:4c:50:41:26:
                    47:c1:a7:87:9e:8d:f9:e9:7e:c8:00:6a:5f:0d:82:
                    48:dc:30:ea:93:23:60:e6:0a:3a:87:69:d8:03:1d:
                    c8:8c:18:53:6a:88:f2:53:43:6b:17:da:fb:5f:8f:
                    32:25:08:19:3c:ed:af:9a:e5:24:4c:e6:77:fe:8d:
                    53:ac:0b:d1:d9:7e:4c:a6:75:c6:4e:3c:bf:c9:b3:
                    5f:23
                Exponent: 65537 (0x10001)
        X509v3 extensions:
            X509v3 Basic Constraints: critical
                CA:FALSE
            X509v3 Key Usage: critical
                Digital Signature
            X509v3 Subject Key Identifier: 
                D9:58:B2:89:20:E0:A9:5D:EE:95:DF:BF:E7:D2:F1:42:4D:A1:94:60
            X509v3 Authority Key Identifier: 
                E2:2F:42:6D:CB:8E:D4:7E:4F:28:20:2B:10:5C:3A:80:00:D8:B0:06
    Signature Algorithm: sha256WithRSAEncryption
    Signature Value:
        6a:8f:b3:bb:a1:af:85:29:93:0f:84:58:4f:bd:27:c9:28:75:
        07:c8:a5:bb:75:9e:6e:5a:74:86:c2:ed:35:1a:3d:bc:b0:3c:
        76:f8:12:65:1a:15:3b:fb:5b:0c:79:2f:1b:61:89:43:a9:6f:
        67:a7:83:84:ff:2a:04:26:d0:c9:cc:72:b1:e4:b6:37:08:01:
        b7:9b:a7:5a:31:2a:bc:e1:53:00:fc:85:ae:aa:7b:ab:1a:5f:
        57:33:44:d9:45:33:bc:28:4c:d7:ad:ec:09:40:dc:d3:ce:bd:
        e2:4e:b7:11:2b:11:c3:f3:07:0c:c6:bb:06:c6:74:6a:53:84:
        59:63:dc:b2:f7:c4:d3:49:b7:0d:d3:10:f2:93:56:20:bb:bd:
        1c:ce:4e:47:c8:28:2d:ba:0c:8d:8c:f6:cc:f6:c3:af:54:d1:
        f2:de:c9:7d:6a:89:db:49:44:9e:76:48:4e:1b:54:5f:a9:94:
        5b:cd:98:a3:42:9d:6d:28:0f:9f:dc:20:09:d4:3e:e2:4e:93:
        20:71:b7:c7:5c:26:6d:95:ce:59:40:ef:fb:0b:d4:a4:5d:ab:
        43:f0:26:c9:9f:97:cf:03:4c:41:76:ee:ba:07:fe:34:98:a6:
        71:18:ad:f4:11:82:64:cf:8b:48:47:d6:d9:09:32:c5:26:e2:
        32:d6:f8:8b
-----BEGIN CERTIFICATE-----
MIID4jCCAsqgAwIBAgIBLzANBgkqhkiG9w0BAQsFADB/MQswCQYDVQQGEwJVUzET
MBEGA1UECAwKQ2FsaWZvcm5pYTEUMBIGA1UEBwwLU2FudGEgQ2xhcmExDTALBgNV
BAoMBHBrZzUxDTALBgNVBAsMBHRhMTAxEjAQBgNVBAMMCWxvY2FsaG9zdDETMBEG
CSqGSIb3DQEJARYEdGExMDAeFw0yMjEyMTUxNTM3MzRaFw0yNTA5MTAxNTM3MzRa
MIGHMQswCQYDVQQGEwJVUzETMBEGA1UECAwKQ2FsaWZvcm5pYTEUMBIGA1UEBwwL
U2FudGEgQ2xhcmExDTALBgNVBAoMBHBrZzUxETAPBgNVBAsMCGNzMV90YTEwMRIw
EAYDVQQDDAlsb2NhbGhvc3QxFzAVBgkqhkiG9w0BCQEWCGNzMV90YTEwMIIBIjAN
BgkqhkiG9w0BAQEFAAOCAQ8AMIIBCgKCAQEAzBTAzkCmdo1pPf02FsZxpJ1BTppK
u503ykeUOIF2/zb1UiT8K/ctt5RjzIBYHhq7hRk7F7frACABXc9kOIoGR67bxn6U
u5wZD0FKlfaj5AddA1yBtwgeQnwbATrDhZogx/rxQ6DgqmdX0f3+aKbWaILlGLfl
PN6tmi4hT/Mr99cqwMByry6cpn2xGFuEtpyBYxaOcL6cV1cR/Mu/pfcI5V4U76iF
7zXdB9LhhBhZzUxQQSZHwaeHno356X7IAGpfDYJI3DDqkyNg5go6h2nYAx3IjBhT
aojyU0NrF9r7X48yJQgZPO2vmuUkTOZ3/o1TrAvR2X5MpnXGTjy/ybNfIwIDAQAB
o2AwXjAMBgNVHRMBAf8EAjAAMA4GA1UdDwEB/wQEAwIHgDAdBgNVHQ4EFgQU2Viy
iSDgqV3uld+/59LxQk2hlGAwHwYDVR0jBBgwFoAU4i9CbcuO1H5PKCArEFw6gADY
sAYwDQYJKoZIhvcNAQELBQADggEBAGqPs7uhr4Upkw+EWE+9J8kodQfIpbt1nm5a
dIbC7TUaPbywPHb4EmUaFTv7Wwx5LxthiUOpb2eng4T/KgQm0MnMcrHktjcIAbeb
p1oxKrzhUwD8ha6qe6saX1czRNlFM7woTNet7AlA3NPOveJOtxErEcPzBwzGuwbG
dGpThFlj3LL3xNNJtw3TEPKTViC7vRzOTkfIKC26DI2M9sz2w69U0fLeyX1qidtJ
RJ52SE4bVF+plFvNmKNCnW0oD5/cIAnUPuJOkyBxt8dcJm2VzllA7/sL1KRdq0Pw
Jsmfl88DTEF27roH/jSYpnEYrfQRgmTPi0hH1tkJMsUm4jLW+Is=
-----END CERTIFICATE-----
