Certificate:
    Data:
        Version: 3 (0x2)
        Serial Number: 47 (0x2f)
    Signature Algorithm: sha256WithRSAEncryption
        Issuer: C=US, ST=California, L=Santa Clara, O=pkg5, OU=ta10, CN=localhost/emailAddress=ta10
        Validity
            Not Before: Nov 16 10:58:52 2017 GMT
            Not After : Aug 12 10:58:52 2020 GMT
        Subject: C=US, ST=California, L=Santa Clara, O=pkg5, OU=cs1_ta10, CN=localhost/emailAddress=cs1_ta10
        Subject Public Key Info:
            Public Key Algorithm: rsaEncryption
                Public-Key: (1024 bit)
                Modulus:
                    00:e9:08:55:ce:b5:af:77:8d:93:bd:12:54:c0:80:
                    e2:9d:f6:b0:bb:09:b8:be:7a:83:86:5b:be:5f:6d:
                    4f:48:e1:3b:90:64:45:37:56:97:b9:27:25:a8:c9:
                    e4:58:9a:9d:40:2c:51:40:f1:ca:74:2e:e4:df:30:
                    f3:98:92:8e:24:5f:58:5f:bf:ff:85:2c:cb:b7:de:
                    43:b5:3c:9f:d3:fa:89:aa:60:26:9f:b0:d8:98:66:
                    0f:15:69:67:9c:69:70:fc:44:af:53:d4:10:61:8b:
                    10:fd:d1:0e:54:07:5d:fc:d5:4f:bc:4e:01:22:97:
                    06:83:e5:9f:23:18:ca:50:f5
                Exponent: 65537 (0x10001)
        X509v3 extensions:
            X509v3 Basic Constraints: critical
                CA:FALSE
            X509v3 Key Usage: critical
                Digital Signature
    Signature Algorithm: sha256WithRSAEncryption
         27:97:62:ea:7d:f7:d3:c2:60:c2:00:ae:ef:da:db:24:d1:d7:
         0d:43:b8:74:d5:21:51:9b:e9:58:84:e8:04:d8:ac:1d:ec:c5:
         8e:2d:31:ef:68:63:aa:47:d7:4b:43:aa:6a:af:8e:b2:82:10:
         15:b2:04:b6:4f:24:68:7e:28:cf:c7:86:85:01:cd:6a:9b:13:
         62:42:1f:38:d8:10:9c:af:01:4d:0b:db:ac:e4:27:29:8a:aa:
         88:8d:83:b6:45:07:df:f1:67:82:42:8a:2f:82:17:47:5a:e1:
         fb:a0:90:1c:53:a6:d1:9a:2f:2b:a3:d7:32:38:3a:ad:2e:6c:
         c6:9e:af:83:e1:ea:73:92:0c:69:3e:9b:d2:4f:b1:d1:7f:aa:
         e6:25:55:92:c9:9a:3c:19:e4:2a:f7:65:8c:50:90:12:88:66:
         75:ca:cd:e5:31:06:24:01:b5:df:02:c6:bc:c2:0e:76:64:59:
         c2:9c:f9:3d:dc:b6:77:86:e1:31:64:28:87:6a:52:d4:4b:37:
         d7:02:74:cb:07:d4:cf:69:b6:9b:b3:77:95:64:90:76:14:4a:
         63:62:04:f3:88:74:10:ec:e7:82:92:83:19:ef:2e:5b:4f:7b:
         51:7d:29:63:1e:00:08:7b:f4:18:83:93:4c:53:e1:1f:6b:9c:
         a8:36:e7:08
-----BEGIN CERTIFICATE-----
MIIDHjCCAgagAwIBAgIBLzANBgkqhkiG9w0BAQsFADB/MQswCQYDVQQGEwJVUzET
MBEGA1UECAwKQ2FsaWZvcm5pYTEUMBIGA1UEBwwLU2FudGEgQ2xhcmExDTALBgNV
BAoMBHBrZzUxDTALBgNVBAsMBHRhMTAxEjAQBgNVBAMMCWxvY2FsaG9zdDETMBEG
CSqGSIb3DQEJARYEdGExMDAeFw0xNzExMTYxMDU4NTJaFw0yMDA4MTIxMDU4NTJa
MIGHMQswCQYDVQQGEwJVUzETMBEGA1UECAwKQ2FsaWZvcm5pYTEUMBIGA1UEBwwL
U2FudGEgQ2xhcmExDTALBgNVBAoMBHBrZzUxETAPBgNVBAsMCGNzMV90YTEwMRIw
EAYDVQQDDAlsb2NhbGhvc3QxFzAVBgkqhkiG9w0BCQEWCGNzMV90YTEwMIGfMA0G
CSqGSIb3DQEBAQUAA4GNADCBiQKBgQDpCFXOta93jZO9ElTAgOKd9rC7Cbi+eoOG
W75fbU9I4TuQZEU3Vpe5JyWoyeRYmp1ALFFA8cp0LuTfMPOYko4kX1hfv/+FLMu3
3kO1PJ/T+omqYCafsNiYZg8VaWecaXD8RK9T1BBhixD90Q5UB1381U+8TgEilwaD
5Z8jGMpQ9QIDAQABoyAwHjAMBgNVHRMBAf8EAjAAMA4GA1UdDwEB/wQEAwIHgDAN
BgkqhkiG9w0BAQsFAAOCAQEAJ5di6n3308JgwgCu79rbJNHXDUO4dNUhUZvpWITo
BNisHezFji0x72hjqkfXS0Oqaq+OsoIQFbIEtk8kaH4oz8eGhQHNapsTYkIfONgQ
nK8BTQvbrOQnKYqqiI2DtkUH3/FngkKKL4IXR1rh+6CQHFOm0ZovK6PXMjg6rS5s
xp6vg+Hqc5IMaT6b0k+x0X+q5iVVksmaPBnkKvdljFCQEohmdcrN5TEGJAG13wLG
vMIOdmRZwpz5Pdy2d4bhMWQoh2pS1Es31wJ0ywfUz2m2m7N3lWSQdhRKY2IE84h0
EOzngpKDGe8uW097UX0pYx4ACHv0GIOTTFPhH2ucqDbnCA==
-----END CERTIFICATE-----
