Certificate:
    Data:
        Version: 3 (0x2)
        Serial Number: 48 (0x30)
        Signature Algorithm: sha256WithRSAEncryption
        Issuer: C=US, ST=California, L=Santa Clara, O=pkg5, OU=ta11, CN=localhost/emailAddress=ta11
        Validity
            Not Before: Oct 24 21:43:19 2023 GMT
            Not After : Jul 20 21:43:19 2026 GMT
        Subject: C=US, ST=California, L=Santa Clara, O=pkg5, OU=cs1_ta11, CN=localhost/emailAddress=cs1_ta11
        Subject Public Key Info:
            Public Key Algorithm: rsaEncryption
                Public-Key: (2048 bit)
                Modulus:
                    00:da:4b:c1:d2:58:13:98:3d:69:25:df:9a:1c:10:
                    7b:42:52:50:65:7c:10:a3:a5:f7:0a:68:c2:5a:9c:
                    0d:5e:01:7b:05:33:f9:9b:cd:ff:5d:b8:7f:67:9b:
                    e0:e6:c8:f7:a9:37:e1:cf:bb:65:bd:10:cd:56:62:
                    89:a2:40:7b:fe:87:56:a5:d2:53:d9:b2:63:08:09:
                    35:44:ad:60:e1:51:25:f8:06:dd:ea:4d:04:97:28:
                    12:cd:38:fb:f2:08:02:bd:6c:12:14:60:98:fe:22:
                    90:15:12:6b:cb:77:10:6c:9c:bc:25:d7:f6:30:da:
                    3f:f6:16:1c:99:df:e5:40:b7:6d:c4:d2:83:13:7a:
                    f5:d1:31:9e:12:a6:e4:c8:e8:6c:1a:37:a2:61:1c:
                    7e:e5:77:d1:87:f0:00:cd:bd:bd:c1:e1:fa:79:f4:
                    f3:b5:95:f6:0f:21:6e:26:13:7d:5d:59:79:fa:c1:
                    ca:40:02:47:ec:38:0c:de:fa:44:de:c4:af:85:be:
                    7c:e0:5b:fa:77:ad:57:e3:a4:1f:b5:f8:c3:32:7c:
                    17:5a:b6:e0:a1:73:88:a1:b0:82:8f:10:1f:f0:7f:
                    17:c8:15:1b:05:87:a2:70:f8:43:ea:b9:2d:b4:4d:
                    b6:b6:fb:38:5b:03:3a:61:c8:be:cd:6f:4a:a2:91:
                    94:db
                Exponent: 65537 (0x10001)
        X509v3 extensions:
            X509v3 Basic Constraints: critical
                CA:FALSE
            X509v3 Key Usage: critical
                Digital Signature
            X509v3 Subject Key Identifier: 
                0F:08:F6:78:86:BC:5A:29:67:CF:1C:5F:53:57:95:E0:C5:3E:24:4A
            X509v3 Authority Key Identifier: 
                9E:D6:A8:28:C3:04:5C:89:A2:36:5F:D4:85:22:C3:AB:4A:C4:DE:7E
    Signature Algorithm: sha256WithRSAEncryption
    Signature Value:
        a8:b3:51:ed:94:ee:5b:d4:a0:39:17:e3:ea:14:21:b1:70:40:
        49:de:b8:59:71:18:55:19:a3:49:f6:ee:a7:2d:03:78:fe:58:
        2b:89:ed:58:5d:6d:82:44:66:f1:93:c8:99:f4:bd:03:1c:a5:
        73:81:12:61:77:3a:04:be:1d:ad:be:27:c9:9f:33:18:11:9d:
        d2:a9:38:b8:12:f3:43:8e:e3:2d:ca:c1:79:b3:a2:b0:ec:23:
        7e:ae:9b:4d:33:66:cb:d2:d3:01:bc:fd:3a:88:68:8d:43:e9:
        ee:52:26:69:4c:40:a5:fe:dd:9f:a3:16:f4:99:3e:a0:52:80:
        79:bb:ff:3f:7b:6c:ee:2d:b6:7f:3e:c2:ff:60:87:de:0d:c1:
        e6:aa:53:db:55:cb:e8:90:e2:97:d0:69:1d:4d:ae:da:3e:8f:
        8a:c0:73:2c:f8:05:a9:e6:16:52:fe:23:9b:4d:87:31:94:ce:
        26:75:ad:83:34:ac:f7:d4:93:09:61:28:cf:b9:2d:ff:ea:23:
        bf:e8:b0:bc:b4:c0:ba:98:b7:c3:a2:40:27:a6:8d:e9:72:fc:
        8d:4b:8f:c1:d4:90:a2:cd:16:4c:7b:44:b6:04:ca:8a:36:18:
        9e:97:5e:2e:51:0d:37:43:2a:71:e7:62:71:01:85:db:bf:0a:
        a1:1d:fa:15
-----BEGIN CERTIFICATE-----
MIID4jCCAsqgAwIBAgIBMDANBgkqhkiG9w0BAQsFADB/MQswCQYDVQQGEwJVUzET
MBEGA1UECAwKQ2FsaWZvcm5pYTEUMBIGA1UEBwwLU2FudGEgQ2xhcmExDTALBgNV
BAoMBHBrZzUxDTALBgNVBAsMBHRhMTExEjAQBgNVBAMMCWxvY2FsaG9zdDETMBEG
CSqGSIb3DQEJARYEdGExMTAeFw0yMzEwMjQyMTQzMTlaFw0yNjA3MjAyMTQzMTla
MIGHMQswCQYDVQQGEwJVUzETMBEGA1UECAwKQ2FsaWZvcm5pYTEUMBIGA1UEBwwL
U2FudGEgQ2xhcmExDTALBgNVBAoMBHBrZzUxETAPBgNVBAsMCGNzMV90YTExMRIw
EAYDVQQDDAlsb2NhbGhvc3QxFzAVBgkqhkiG9w0BCQEWCGNzMV90YTExMIIBIjAN
BgkqhkiG9w0BAQEFAAOCAQ8AMIIBCgKCAQEA2kvB0lgTmD1pJd+aHBB7QlJQZXwQ
o6X3CmjCWpwNXgF7BTP5m83/Xbh/Z5vg5sj3qTfhz7tlvRDNVmKJokB7/odWpdJT
2bJjCAk1RK1g4VEl+Abd6k0ElygSzTj78ggCvWwSFGCY/iKQFRJry3cQbJy8Jdf2
MNo/9hYcmd/lQLdtxNKDE3r10TGeEqbkyOhsGjeiYRx+5XfRh/AAzb29weH6efTz
tZX2DyFuJhN9XVl5+sHKQAJH7DgM3vpE3sSvhb584Fv6d61X46QftfjDMnwXWrbg
oXOIobCCjxAf8H8XyBUbBYeicPhD6rkttE22tvs4WwM6Yci+zW9KopGU2wIDAQAB
o2AwXjAMBgNVHRMBAf8EAjAAMA4GA1UdDwEB/wQEAwIHgDAdBgNVHQ4EFgQUDwj2
eIa8WilnzxxfU1eV4MU+JEowHwYDVR0jBBgwFoAUntaoKMMEXImiNl/UhSLDq0rE
3n4wDQYJKoZIhvcNAQELBQADggEBAKizUe2U7lvUoDkX4+oUIbFwQEneuFlxGFUZ
o0n27qctA3j+WCuJ7VhdbYJEZvGTyJn0vQMcpXOBEmF3OgS+Ha2+J8mfMxgRndKp
OLgS80OO4y3KwXmzorDsI36um00zZsvS0wG8/TqIaI1D6e5SJmlMQKX+3Z+jFvSZ
PqBSgHm7/z97bO4ttn8+wv9gh94NweaqU9tVy+iQ4pfQaR1Nrto+j4rAcyz4Banm
FlL+I5tNhzGUziZ1rYM0rPfUkwlhKM+5Lf/qI7/osLy0wLqYt8OiQCemjely/I1L
j8HUkKLNFkx7RLYEyoo2GJ6XXi5RDTdDKnHnYnEBhdu/CqEd+hU=
-----END CERTIFICATE-----
