Certificate:
    Data:
        Version: 3 (0x2)
        Serial Number: 48 (0x30)
        Signature Algorithm: sha256WithRSAEncryption
        Issuer: C=US, ST=California, L=Santa Clara, O=pkg5, OU=ta11, CN=localhost/emailAddress=ta11
        Validity
            Not Before: Nov 17 23:01:35 2020 GMT
            Not After : Aug 14 23:01:35 2023 GMT
        Subject: C=US, ST=California, L=Santa Clara, O=pkg5, OU=cs1_ta11, CN=localhost/emailAddress=cs1_ta11
        Subject Public Key Info:
            Public Key Algorithm: rsaEncryption
                RSA Public-Key: (1024 bit)
                Modulus:
                    00:9f:26:49:35:51:2f:da:c1:3f:cd:6e:34:94:d9:
                    5b:82:65:68:c7:9f:97:7b:d0:e1:c4:ac:72:7f:ba:
                    6c:38:3a:65:e9:7c:36:69:2d:b9:24:ef:7e:70:2e:
                    54:c4:88:6c:c3:16:c4:68:d9:3e:1d:a5:67:af:d0:
                    c7:42:5d:e7:a0:1c:d5:5f:78:f5:20:f5:54:2f:ba:
                    06:a8:6d:33:4f:77:c8:13:d6:9f:ec:c1:39:ae:2c:
                    cd:af:3e:64:b7:d6:80:8e:01:b4:7c:00:93:32:00:
                    ee:25:57:c7:8e:4c:8c:72:9a:d6:e0:c8:3a:9d:3e:
                    2e:7b:11:0e:d3:71:2c:dd:01
                Exponent: 65537 (0x10001)
        X509v3 extensions:
            X509v3 Basic Constraints: critical
                CA:FALSE
            X509v3 Key Usage: critical
                Digital Signature
    Signature Algorithm: sha256WithRSAEncryption
         6c:f3:9a:57:f9:e3:ea:45:e7:10:39:54:a5:ca:91:04:38:40:
         ee:a3:f6:d1:00:93:61:e1:98:69:83:f8:cf:5f:6b:fa:ac:16:
         72:44:69:e1:6c:ee:0c:31:13:37:ab:63:de:9a:8a:3d:ea:41:
         38:b4:ea:87:3a:86:34:04:02:27:7a:a3:a0:f3:fa:aa:e1:56:
         30:13:24:45:ff:27:9c:ec:ae:5d:2b:4f:e7:74:58:43:a9:53:
         a6:f2:cb:fc:2a:98:80:33:8e:ba:54:b9:14:56:9b:00:18:38:
         64:68:a9:2e:30:a5:27:a7:d4:51:70:24:fd:bb:02:a7:93:de:
         84:c1:2b:76:63:63:54:e0:a8:75:95:49:3a:8f:22:dc:6a:07:
         c1:ed:cd:fa:b7:1e:f6:f6:17:4c:45:45:86:e7:b2:f4:50:46:
         45:86:5d:e7:ce:f0:8e:b2:af:ca:96:c4:cb:b4:ac:38:e2:e7:
         e6:e8:6a:a7:88:b8:87:22:c7:03:7d:99:52:3c:59:fa:eb:41:
         18:c7:9b:37:53:25:4f:ed:1f:ff:c6:25:13:1a:5a:57:14:37:
         05:0b:ac:f7:f6:b7:a8:a0:b6:61:02:b4:e1:c2:97:7c:ef:be:
         a4:45:f4:c5:a4:00:89:8f:89:54:1b:fb:ee:4c:63:ba:fe:3a:
         70:6c:5a:d5
-----BEGIN CERTIFICATE-----
MIIDHjCCAgagAwIBAgIBMDANBgkqhkiG9w0BAQsFADB/MQswCQYDVQQGEwJVUzET
MBEGA1UECAwKQ2FsaWZvcm5pYTEUMBIGA1UEBwwLU2FudGEgQ2xhcmExDTALBgNV
BAoMBHBrZzUxDTALBgNVBAsMBHRhMTExEjAQBgNVBAMMCWxvY2FsaG9zdDETMBEG
CSqGSIb3DQEJARYEdGExMTAeFw0yMDExMTcyMzAxMzVaFw0yMzA4MTQyMzAxMzVa
MIGHMQswCQYDVQQGEwJVUzETMBEGA1UECAwKQ2FsaWZvcm5pYTEUMBIGA1UEBwwL
U2FudGEgQ2xhcmExDTALBgNVBAoMBHBrZzUxETAPBgNVBAsMCGNzMV90YTExMRIw
EAYDVQQDDAlsb2NhbGhvc3QxFzAVBgkqhkiG9w0BCQEWCGNzMV90YTExMIGfMA0G
CSqGSIb3DQEBAQUAA4GNADCBiQKBgQCfJkk1US/awT/NbjSU2VuCZWjHn5d70OHE
rHJ/umw4OmXpfDZpLbkk735wLlTEiGzDFsRo2T4dpWev0MdCXeegHNVfePUg9VQv
ugaobTNPd8gT1p/swTmuLM2vPmS31oCOAbR8AJMyAO4lV8eOTIxymtbgyDqdPi57
EQ7TcSzdAQIDAQABoyAwHjAMBgNVHRMBAf8EAjAAMA4GA1UdDwEB/wQEAwIHgDAN
BgkqhkiG9w0BAQsFAAOCAQEAbPOaV/nj6kXnEDlUpcqRBDhA7qP20QCTYeGYaYP4
z19r+qwWckRp4WzuDDETN6tj3pqKPepBOLTqhzqGNAQCJ3qjoPP6quFWMBMkRf8n
nOyuXStP53RYQ6lTpvLL/CqYgDOOulS5FFabABg4ZGipLjClJ6fUUXAk/bsCp5Pe
hMErdmNjVOCodZVJOo8i3GoHwe3N+rce9vYXTEVFhuey9FBGRYZd587wjrKvypbE
y7SsOOLn5uhqp4i4hyLHA32ZUjxZ+utBGMebN1MlT+0f/8YlExpaVxQ3BQus9/a3
qKC2YQK04cKXfO++pEX0xaQAiY+JVBv77kxjuv46cGxa1Q==
-----END CERTIFICATE-----
