Certificate:
    Data:
        Version: 3 (0x2)
        Serial Number: 48 (0x30)
    Signature Algorithm: sha256WithRSAEncryption
        Issuer: C=US, ST=California, L=Santa Clara, O=pkg5, OU=ta11, CN=localhost/emailAddress=ta11
        Validity
            Not Before: Nov 16 10:58:52 2017 GMT
            Not After : Aug 12 10:58:52 2020 GMT
        Subject: C=US, ST=California, L=Santa Clara, O=pkg5, OU=cs1_ta11, CN=localhost/emailAddress=cs1_ta11
        Subject Public Key Info:
            Public Key Algorithm: rsaEncryption
                Public-Key: (1024 bit)
                Modulus:
                    00:bc:5e:52:96:ac:89:9b:eb:f1:94:e9:8a:00:8c:
                    f6:9f:54:4e:45:7b:a2:eb:22:ff:d9:f1:95:d0:0c:
                    44:80:36:4f:0f:d6:1a:21:db:10:74:b2:90:11:41:
                    46:84:75:21:eb:c3:f0:3c:cf:a5:2a:f3:7c:bb:ff:
                    db:b1:73:38:a9:78:32:ec:c1:9e:e6:0f:bd:e3:75:
                    01:a0:57:d7:0e:1d:df:f0:fe:90:e5:23:1f:1f:74:
                    4e:dc:a0:9b:2f:2d:75:2d:7b:65:92:3a:0c:e8:83:
                    7c:f4:6b:98:d7:a3:d9:a8:7b:95:ff:b0:a3:25:3c:
                    8a:8c:e4:dc:21:1e:d6:ad:93
                Exponent: 65537 (0x10001)
        X509v3 extensions:
            X509v3 Basic Constraints: critical
                CA:FALSE
            X509v3 Key Usage: critical
                Digital Signature
    Signature Algorithm: sha256WithRSAEncryption
         91:ad:a9:e4:2e:3f:c6:c4:f1:f7:47:2d:2f:18:ca:e6:2e:16:
         5d:47:21:e0:b0:b6:b3:7d:4f:44:1a:8f:5e:6d:d5:d3:8c:54:
         d3:3c:d6:a6:e0:0d:f3:27:d2:7e:ca:da:30:c3:eb:c0:44:f0:
         fc:cc:90:fb:96:50:a8:4e:fc:f8:43:8b:2f:c0:fd:39:0d:23:
         b0:db:9d:a9:06:0f:15:64:4c:8b:c7:22:4e:00:69:a3:e1:a3:
         e1:a5:ca:52:1c:92:3f:34:d0:37:c6:8c:df:e7:f2:8c:73:4c:
         09:c0:aa:92:2b:ea:65:53:2f:1e:73:40:70:0d:3d:bb:00:6f:
         88:01:22:22:c6:1a:88:98:9e:9a:50:89:03:ae:6b:5e:26:50:
         f3:94:2d:4f:37:83:51:2a:c6:a7:61:43:02:f1:73:e8:30:33:
         ca:a8:9b:aa:17:13:fc:9d:8c:06:ca:ed:45:3f:87:70:bd:1c:
         9b:27:f9:5c:32:15:2a:2b:03:d2:10:57:de:ff:06:f4:60:e1:
         56:cd:68:69:3b:12:35:2d:ce:85:e6:f5:4d:a0:36:5c:7c:b1:
         a9:d0:e0:e2:04:82:77:7d:55:58:7d:2a:8c:03:82:f1:fa:4f:
         ed:2b:86:5b:12:72:d2:e7:af:80:91:e1:40:02:fa:9e:1a:c4:
         91:b7:fb:53
-----BEGIN CERTIFICATE-----
MIIDHjCCAgagAwIBAgIBMDANBgkqhkiG9w0BAQsFADB/MQswCQYDVQQGEwJVUzET
MBEGA1UECAwKQ2FsaWZvcm5pYTEUMBIGA1UEBwwLU2FudGEgQ2xhcmExDTALBgNV
BAoMBHBrZzUxDTALBgNVBAsMBHRhMTExEjAQBgNVBAMMCWxvY2FsaG9zdDETMBEG
CSqGSIb3DQEJARYEdGExMTAeFw0xNzExMTYxMDU4NTJaFw0yMDA4MTIxMDU4NTJa
MIGHMQswCQYDVQQGEwJVUzETMBEGA1UECAwKQ2FsaWZvcm5pYTEUMBIGA1UEBwwL
U2FudGEgQ2xhcmExDTALBgNVBAoMBHBrZzUxETAPBgNVBAsMCGNzMV90YTExMRIw
EAYDVQQDDAlsb2NhbGhvc3QxFzAVBgkqhkiG9w0BCQEWCGNzMV90YTExMIGfMA0G
CSqGSIb3DQEBAQUAA4GNADCBiQKBgQC8XlKWrImb6/GU6YoAjPafVE5Fe6LrIv/Z
8ZXQDESANk8P1hoh2xB0spARQUaEdSHrw/A8z6Uq83y7/9uxczipeDLswZ7mD73j
dQGgV9cOHd/w/pDlIx8fdE7coJsvLXUte2WSOgzog3z0a5jXo9moe5X/sKMlPIqM
5NwhHtatkwIDAQABoyAwHjAMBgNVHRMBAf8EAjAAMA4GA1UdDwEB/wQEAwIHgDAN
BgkqhkiG9w0BAQsFAAOCAQEAka2p5C4/xsTx90ctLxjK5i4WXUch4LC2s31PRBqP
Xm3V04xU0zzWpuAN8yfSfsraMMPrwETw/MyQ+5ZQqE78+EOLL8D9OQ0jsNudqQYP
FWRMi8ciTgBpo+Gj4aXKUhySPzTQN8aM3+fyjHNMCcCqkivqZVMvHnNAcA09uwBv
iAEiIsYaiJiemlCJA65rXiZQ85QtTzeDUSrGp2FDAvFz6DAzyqibqhcT/J2MBsrt
RT+HcL0cmyf5XDIVKisD0hBX3v8G9GDhVs1oaTsSNS3Oheb1TaA2XHyxqdDg4gSC
d31VWH0qjAOC8fpP7SuGWxJy0uevgJHhQAL6nhrEkbf7Uw==
-----END CERTIFICATE-----
