Certificate:
    Data:
        Version: 3 (0x2)
        Serial Number: 48 (0x30)
        Signature Algorithm: sha256WithRSAEncryption
        Issuer: C=US, ST=California, L=Santa Clara, O=pkg5, OU=ta11, CN=localhost/emailAddress=ta11
        Validity
            Not Before: Nov 14 14:26:59 2024 GMT
            Not After : Aug 11 14:26:59 2027 GMT
        Subject: C=US, ST=California, L=Santa Clara, O=pkg5, OU=cs1_ta11, CN=localhost/emailAddress=cs1_ta11
        Subject Public Key Info:
            Public Key Algorithm: rsaEncryption
                Public-Key: (2048 bit)
                Modulus:
                    00:cc:19:25:81:9f:f3:5b:9d:6a:e9:6d:2b:a1:f6:
                    34:f9:56:4b:a7:fd:5a:92:73:55:22:43:00:0f:11:
                    7b:5f:1b:14:41:58:70:95:7d:66:85:cd:05:e0:94:
                    f1:54:1d:11:d9:95:11:e0:1c:dc:87:f2:3e:2c:13:
                    0d:b7:72:78:47:7b:ab:24:62:0b:fd:b9:d2:25:35:
                    28:1e:38:16:14:ad:00:71:71:a7:6a:27:5a:d8:a6:
                    98:1e:8e:46:6f:76:bf:d7:db:79:b4:4d:b2:12:dd:
                    fc:21:13:a0:65:ad:89:30:5a:1b:d7:6a:7a:c2:04:
                    f0:c2:0d:17:c3:3d:61:b7:78:d8:ca:b0:05:96:0f:
                    4e:c0:21:d1:a2:4a:ec:3f:4e:bf:80:67:ad:cf:a6:
                    07:22:3c:2a:74:99:48:e1:eb:56:76:f2:f1:03:c8:
                    e7:ab:fd:3c:d8:ec:a2:db:11:5b:5f:66:ec:1a:d0:
                    c4:26:15:4d:53:93:04:a8:e9:5f:d4:f6:20:af:6d:
                    00:af:c3:e8:27:f7:22:cd:b4:eb:f7:49:6c:1d:8f:
                    42:fc:7b:f9:39:c7:5f:56:02:89:03:7c:c9:05:18:
                    ea:37:e7:2f:ba:c5:43:cf:28:52:b8:43:9b:8e:0d:
                    39:cd:d4:03:b0:3e:01:45:a5:f4:22:35:59:c6:ee:
                    f5:5d
                Exponent: 65537 (0x10001)
        X509v3 extensions:
            X509v3 Basic Constraints: critical
                CA:FALSE
            X509v3 Key Usage: critical
                Digital Signature
            X509v3 Subject Key Identifier: 
                9A:5A:F0:17:60:7A:E7:0F:10:8B:E3:CD:48:A0:2F:BE:B5:5B:19:8C
            X509v3 Authority Key Identifier: 
                79:F2:26:F0:30:39:D6:D9:43:60:6F:CA:41:D8:06:FB:B8:5C:78:30
    Signature Algorithm: sha256WithRSAEncryption
    Signature Value:
        26:fe:2d:4b:b2:b3:ef:22:35:b7:a1:6d:b6:e7:29:da:f8:7c:
        c2:90:6c:2a:4b:15:bf:15:13:70:c6:e3:38:a3:cf:b7:8f:80:
        5e:0c:41:a2:e9:26:1d:71:b2:dc:30:4f:cd:41:f5:5f:2e:3b:
        ee:be:45:81:4b:32:40:61:82:02:8c:65:b8:75:12:06:cb:43:
        84:66:42:4f:9c:51:34:39:e7:31:4e:fc:12:74:a0:df:64:f9:
        20:2e:85:e3:93:13:88:17:02:ef:ad:82:b5:b9:b3:70:ca:fc:
        61:1a:48:a5:65:e3:cb:e2:34:95:89:1a:15:f9:e0:7b:95:c5:
        02:5e:ae:15:5b:fe:eb:f0:dc:2c:f3:61:46:29:3a:8b:d9:6f:
        a7:08:13:96:32:22:82:8f:56:df:ca:93:31:89:ce:ad:9b:12:
        18:3b:e5:c5:73:e0:11:4d:e2:01:a9:c9:56:fe:31:f4:83:fd:
        4c:98:5c:da:ab:5b:7c:eb:de:31:be:7b:03:d9:d1:f8:1d:5d:
        1d:df:69:11:f7:df:17:26:c6:0b:89:86:0a:b8:1b:c6:cc:9b:
        55:28:d0:1f:48:81:86:3b:8a:cc:5c:a9:41:79:ae:61:78:83:
        c1:dc:59:84:0d:b0:2e:83:67:8e:c0:13:77:df:12:c2:07:3a:
        c5:58:0d:7e
-----BEGIN CERTIFICATE-----
MIID4jCCAsqgAwIBAgIBMDANBgkqhkiG9w0BAQsFADB/MQswCQYDVQQGEwJVUzET
MBEGA1UECAwKQ2FsaWZvcm5pYTEUMBIGA1UEBwwLU2FudGEgQ2xhcmExDTALBgNV
BAoMBHBrZzUxDTALBgNVBAsMBHRhMTExEjAQBgNVBAMMCWxvY2FsaG9zdDETMBEG
CSqGSIb3DQEJARYEdGExMTAeFw0yNDExMTQxNDI2NTlaFw0yNzA4MTExNDI2NTla
MIGHMQswCQYDVQQGEwJVUzETMBEGA1UECAwKQ2FsaWZvcm5pYTEUMBIGA1UEBwwL
U2FudGEgQ2xhcmExDTALBgNVBAoMBHBrZzUxETAPBgNVBAsMCGNzMV90YTExMRIw
EAYDVQQDDAlsb2NhbGhvc3QxFzAVBgkqhkiG9w0BCQEWCGNzMV90YTExMIIBIjAN
BgkqhkiG9w0BAQEFAAOCAQ8AMIIBCgKCAQEAzBklgZ/zW51q6W0rofY0+VZLp/1a
knNVIkMADxF7XxsUQVhwlX1mhc0F4JTxVB0R2ZUR4Bzch/I+LBMNt3J4R3urJGIL
/bnSJTUoHjgWFK0AcXGnaida2KaYHo5Gb3a/19t5tE2yEt38IROgZa2JMFob12p6
wgTwwg0Xwz1ht3jYyrAFlg9OwCHRokrsP06/gGetz6YHIjwqdJlI4etWdvLxA8jn
q/082Oyi2xFbX2bsGtDEJhVNU5MEqOlf1PYgr20Ar8PoJ/cizbTr90lsHY9C/Hv5
OcdfVgKJA3zJBRjqN+cvusVDzyhSuEObjg05zdQDsD4BRaX0IjVZxu71XQIDAQAB
o2AwXjAMBgNVHRMBAf8EAjAAMA4GA1UdDwEB/wQEAwIHgDAdBgNVHQ4EFgQUmlrw
F2B65w8Qi+PNSKAvvrVbGYwwHwYDVR0jBBgwFoAUefIm8DA51tlDYG/KQdgG+7hc
eDAwDQYJKoZIhvcNAQELBQADggEBACb+LUuys+8iNbehbbbnKdr4fMKQbCpLFb8V
E3DG4zijz7ePgF4MQaLpJh1xstwwT81B9V8uO+6+RYFLMkBhggKMZbh1EgbLQ4Rm
Qk+cUTQ55zFO/BJ0oN9k+SAuheOTE4gXAu+tgrW5s3DK/GEaSKVl48viNJWJGhX5
4HuVxQJerhVb/uvw3CzzYUYpOovZb6cIE5YyIoKPVt/KkzGJzq2bEhg75cVz4BFN
4gGpyVb+MfSD/UyYXNqrW3zr3jG+ewPZ0fgdXR3faRH33xcmxguJhgq4G8bMm1Uo
0B9IgYY7isxcqUF5rmF4g8HcWYQNsC6DZ47AE3ffEsIHOsVYDX4=
-----END CERTIFICATE-----
