Certificate:
    Data:
        Version: 3 (0x2)
        Serial Number: 46 (0x2e)
        Signature Algorithm: sha256WithRSAEncryption
        Issuer: C=US, ST=California, L=Santa Clara, O=pkg5, OU=ta9, CN=localhost/emailAddress=ta9
        Validity
            Not Before: Oct 22 10:15:24 2021 GMT
            Not After : Jul 18 10:15:24 2024 GMT
        Subject: C=US, ST=California, L=Santa Clara, O=pkg5, OU=cs1_ta9, CN=localhost/emailAddress=cs1_ta9
        Subject Public Key Info:
            Public Key Algorithm: rsaEncryption
                Public-Key: (2048 bit)
                Modulus:
                    00:ad:94:31:e8:28:df:36:58:fa:23:36:20:1f:41:
                    1b:5b:18:98:a8:a7:e2:46:e7:b0:a1:a6:d4:55:b9:
                    3d:49:d8:e0:58:18:71:54:fc:5e:67:62:3f:fa:6d:
                    70:e8:f7:2d:77:72:8b:d0:c6:d0:cd:9e:da:82:c8:
                    ae:e7:d8:f8:c8:c4:cb:78:68:a2:f8:d0:e8:f6:f2:
                    90:19:26:c1:2b:cb:eb:cf:9a:3e:01:d4:0c:0d:08:
                    73:98:87:05:12:34:31:fc:a6:64:40:df:32:ff:1d:
                    44:37:9c:6b:76:71:a2:9a:34:c1:63:79:91:35:ba:
                    ca:b6:fd:62:dc:9c:60:c1:65:22:22:93:d0:dd:d1:
                    ef:a9:5e:a8:9e:28:89:98:e0:63:8b:8c:66:e7:4f:
                    ef:af:06:f2:63:25:bc:6e:41:13:36:11:a6:88:f9:
                    10:9e:bf:c8:0b:0e:25:c3:23:d1:e9:4a:f0:d7:0a:
                    60:18:bf:60:b8:22:a1:e5:18:bc:c3:31:70:77:7b:
                    35:74:e2:51:29:86:bc:da:49:4b:b1:47:64:41:83:
                    2a:c2:74:a8:a1:09:c0:60:4f:b2:46:2e:5c:af:2c:
                    69:8e:d9:d0:9e:7c:55:8d:ed:b0:3b:9d:17:a6:c0:
                    c5:06:05:60:f6:f4:fe:7b:14:5c:63:6d:ee:9a:ce:
                    07:31
                Exponent: 65537 (0x10001)
        X509v3 extensions:
            X509v3 Basic Constraints: critical
                CA:FALSE
            X509v3 Key Usage: critical
                Digital Signature
            X509v3 Subject Key Identifier: 
                8C:FB:41:44:E0:B2:66:AF:3B:D7:DB:A5:7D:38:D5:5C:11:48:C4:8C
            X509v3 Authority Key Identifier: 
                B8:25:F5:CC:61:C4:94:2B:4E:37:42:6E:F8:8B:73:06:38:2F:19:1C
    Signature Algorithm: sha256WithRSAEncryption
    Signature Value:
        0f:c9:04:ad:f4:90:4c:c4:a2:3e:59:32:5f:30:12:38:de:68:
        4e:14:1d:a4:31:8b:a9:b8:02:9a:e4:1e:83:89:fb:cf:e7:dd:
        17:cb:16:c5:30:c2:90:a2:8c:f3:f1:b8:44:54:7a:9b:80:27:
        ab:af:17:d3:11:fd:c5:e6:84:2b:3f:5f:c7:59:92:ab:82:dd:
        84:8d:81:64:21:bc:06:22:9b:9a:2f:71:90:3f:62:a9:1f:05:
        94:5a:ac:29:d4:3e:85:51:63:6b:1e:b7:19:71:8f:04:c3:fa:
        35:d7:3b:96:56:f0:d4:92:ab:e5:69:27:32:90:bb:c8:93:c8:
        22:18:1b:4f:5f:49:93:c5:a3:96:15:18:d4:55:2f:9b:af:41:
        50:63:15:a7:27:10:92:76:11:09:fd:7a:8c:b0:a2:7c:c9:97:
        bd:95:23:e2:fa:b6:59:9a:6e:f0:df:a1:6e:93:56:05:6e:9e:
        a4:45:af:d1:71:dd:e2:51:88:a6:34:2c:ba:2a:cf:a1:56:13:
        58:42:5a:0f:cb:33:5c:92:ad:4c:7d:9f:1a:2a:f0:71:e3:31:
        fa:90:e4:8e:9a:42:ba:10:1a:b4:8d:a4:45:c8:50:44:4f:d0:
        c9:d0:e1:11:7d:71:00:e0:e1:25:57:f2:77:58:81:25:0a:de:
        b0:1f:c5:1f
-----BEGIN CERTIFICATE-----
MIID3jCCAsagAwIBAgIBLjANBgkqhkiG9w0BAQsFADB9MQswCQYDVQQGEwJVUzET
MBEGA1UECAwKQ2FsaWZvcm5pYTEUMBIGA1UEBwwLU2FudGEgQ2xhcmExDTALBgNV
BAoMBHBrZzUxDDAKBgNVBAsMA3RhOTESMBAGA1UEAwwJbG9jYWxob3N0MRIwEAYJ
KoZIhvcNAQkBFgN0YTkwHhcNMjExMDIyMTAxNTI0WhcNMjQwNzE4MTAxNTI0WjCB
hTELMAkGA1UEBhMCVVMxEzARBgNVBAgMCkNhbGlmb3JuaWExFDASBgNVBAcMC1Nh
bnRhIENsYXJhMQ0wCwYDVQQKDARwa2c1MRAwDgYDVQQLDAdjczFfdGE5MRIwEAYD
VQQDDAlsb2NhbGhvc3QxFjAUBgkqhkiG9w0BCQEWB2NzMV90YTkwggEiMA0GCSqG
SIb3DQEBAQUAA4IBDwAwggEKAoIBAQCtlDHoKN82WPojNiAfQRtbGJiop+JG57Ch
ptRVuT1J2OBYGHFU/F5nYj/6bXDo9y13covQxtDNntqCyK7n2PjIxMt4aKL40Oj2
8pAZJsEry+vPmj4B1AwNCHOYhwUSNDH8pmRA3zL/HUQ3nGt2caKaNMFjeZE1usq2
/WLcnGDBZSIik9Dd0e+pXqieKImY4GOLjGbnT++vBvJjJbxuQRM2EaaI+RCev8gL
DiXDI9HpSvDXCmAYv2C4IqHlGLzDMXB3ezV04lEphrzaSUuxR2RBgyrCdKihCcBg
T7JGLlyvLGmO2dCefFWN7bA7nRemwMUGBWD29P57FFxjbe6azgcxAgMBAAGjYDBe
MAwGA1UdEwEB/wQCMAAwDgYDVR0PAQH/BAQDAgeAMB0GA1UdDgQWBBSM+0FE4LJm
rzvX26V9ONVcEUjEjDAfBgNVHSMEGDAWgBS4JfXMYcSUK043Qm74i3MGOC8ZHDAN
BgkqhkiG9w0BAQsFAAOCAQEAD8kErfSQTMSiPlkyXzASON5oThQdpDGLqbgCmuQe
g4n7z+fdF8sWxTDCkKKM8/G4RFR6m4Anq68X0xH9xeaEKz9fx1mSq4LdhI2BZCG8
BiKbmi9xkD9iqR8FlFqsKdQ+hVFjax63GXGPBMP6Ndc7llbw1JKr5WknMpC7yJPI
IhgbT19Jk8WjlhUY1FUvm69BUGMVpycQknYRCf16jLCifMmXvZUj4vq2WZpu8N+h
bpNWBW6epEWv0XHd4lGIpjQsuirPoVYTWEJaD8szXJKtTH2fGirwceMx+pDkjppC
uhAatI2kRchQRE/QydDhEX1xAODhJVfyd1iBJQresB/FHw==
-----END CERTIFICATE-----
