Certificate:
    Data:
        Version: 3 (0x2)
        Serial Number: 11 (0xb)
        Signature Algorithm: sha256WithRSAEncryption
        Issuer: C=US, ST=California, L=Santa Clara, O=pkg5, CN=ch5.2_ta1/emailAddress=ch5.2_ta1
        Validity
            Not Before: Nov 14 14:26:52 2024 GMT
            Not After : Aug 11 14:26:52 2027 GMT
        Subject: C=US, ST=California, L=Santa Clara, O=pkg5, CN=cs1_ch5.2_ta1/emailAddress=cs1_ch5.2_ta1
        Subject Public Key Info:
            Public Key Algorithm: rsaEncryption
                Public-Key: (2048 bit)
                Modulus:
                    00:ce:4e:1e:8f:3c:9d:c2:a8:66:b1:f7:19:6f:c6:
                    55:1c:eb:27:df:a1:26:d4:c4:c1:a3:7c:1e:91:21:
                    f2:67:03:d0:6f:3b:0a:28:78:93:5f:5a:2d:79:a3:
                    90:a8:71:bf:12:2c:f2:69:d5:e5:eb:23:66:09:3f:
                    ed:16:a5:9d:9c:b2:8e:00:4f:73:ee:59:68:00:ec:
                    55:d9:39:26:cc:b5:d2:05:7f:02:4b:7e:4a:f1:f2:
                    54:f2:da:72:b4:4e:ca:a7:38:ee:92:f8:d4:b7:7b:
                    80:82:8a:e8:a6:86:88:64:a8:e3:2c:9b:21:b9:9a:
                    f5:55:43:6b:b9:7f:ef:56:a5:7c:24:7d:c0:0c:6b:
                    5c:3b:69:b2:ce:e3:d8:94:5d:c5:97:a8:fb:48:ad:
                    aa:3c:28:c4:59:4d:b7:43:49:d8:4e:44:96:e1:fb:
                    74:a2:d9:ac:57:ea:00:0b:07:25:a8:c1:01:3f:03:
                    9f:c9:11:13:79:c5:ca:52:48:5b:78:23:58:18:5c:
                    da:52:5c:9e:30:5f:51:d4:20:75:66:bb:ce:fa:92:
                    20:b7:22:6d:8a:a3:60:c2:61:33:28:57:e5:06:44:
                    b5:f3:d4:21:6c:12:bb:90:d7:47:9b:c6:ff:a7:32:
                    2c:6b:2e:58:c6:64:27:e6:02:52:03:d4:f3:f0:95:
                    e0:71
                Exponent: 65537 (0x10001)
        X509v3 extensions:
            X509v3 Basic Constraints: critical
                CA:FALSE
            X509v3 Key Usage: critical
                Digital Signature
            X509v3 Subject Key Identifier: 
                B2:C2:43:3F:EC:09:22:3A:1C:93:42:23:7F:23:83:F3:E0:68:DC:B6
            X509v3 Authority Key Identifier: 
                F5:87:FE:84:C4:36:7E:BC:76:6D:7E:46:96:7F:32:15:46:4A:BB:1E
    Signature Algorithm: sha256WithRSAEncryption
    Signature Value:
        20:d3:b6:8c:c6:b4:42:46:88:07:fc:22:ce:4e:43:87:0a:94:
        73:8c:fc:fd:f5:85:7e:de:e1:c0:be:68:39:33:52:29:cd:b7:
        db:7e:83:2e:40:d7:28:76:77:ef:7a:05:06:9e:58:10:e2:34:
        0a:ba:fd:0c:d6:db:9a:b0:b4:38:ed:f7:f2:5d:23:fc:91:8e:
        c5:a8:97:31:ce:bf:18:50:0c:bf:39:97:b2:37:48:27:5e:f9:
        85:08:2c:24:9a:b9:16:40:5f:18:bd:69:55:e1:23:58:30:15:
        b0:28:47:4b:f7:f1:1a:dc:ef:46:f5:e5:4b:57:c1:fc:e2:cf:
        19:12:39:e3:66:51:8c:8c:38:7d:0e:30:92:62:3d:cf:6d:ca:
        8c:73:c3:e9:df:3a:d6:28:db:c9:d7:cd:2c:c2:08:df:02:e3:
        5f:dd:a9:7b:e4:7a:ec:c3:74:9f:87:50:5c:35:fd:20:30:6d:
        b1:01:7f:49:e6:a5:5f:d3:a1:b4:dd:a3:7e:7d:52:71:0d:87:
        93:0c:55:10:ad:30:12:47:16:bd:18:db:c5:13:a2:8d:54:1b:
        b2:3d:ee:55:99:71:a2:ff:d4:68:51:cd:d3:26:33:d7:cb:2b:
        65:a1:42:b0:30:73:e7:34:9a:ea:38:0c:6d:72:e5:e0:37:45:
        43:03:8d:ac
-----BEGIN CERTIFICATE-----
MIIDzTCCArWgAwIBAgIBCzANBgkqhkiG9w0BAQsFADB1MQswCQYDVQQGEwJVUzET
MBEGA1UECAwKQ2FsaWZvcm5pYTEUMBIGA1UEBwwLU2FudGEgQ2xhcmExDTALBgNV
BAoMBHBrZzUxEjAQBgNVBAMMCWNoNS4yX3RhMTEYMBYGCSqGSIb3DQEJARYJY2g1
LjJfdGExMB4XDTI0MTExNDE0MjY1MloXDTI3MDgxMTE0MjY1MlowfTELMAkGA1UE
BhMCVVMxEzARBgNVBAgMCkNhbGlmb3JuaWExFDASBgNVBAcMC1NhbnRhIENsYXJh
MQ0wCwYDVQQKDARwa2c1MRYwFAYDVQQDDA1jczFfY2g1LjJfdGExMRwwGgYJKoZI
hvcNAQkBFg1jczFfY2g1LjJfdGExMIIBIjANBgkqhkiG9w0BAQEFAAOCAQ8AMIIB
CgKCAQEAzk4ejzydwqhmsfcZb8ZVHOsn36Em1MTBo3wekSHyZwPQbzsKKHiTX1ot
eaOQqHG/EizyadXl6yNmCT/tFqWdnLKOAE9z7lloAOxV2TkmzLXSBX8CS35K8fJU
8tpytE7KpzjukvjUt3uAgoropoaIZKjjLJshuZr1VUNruX/vVqV8JH3ADGtcO2my
zuPYlF3Fl6j7SK2qPCjEWU23Q0nYTkSW4ft0otmsV+oACwclqMEBPwOfyRETecXK
UkhbeCNYGFzaUlyeMF9R1CB1ZrvO+pIgtyJtiqNgwmEzKFflBkS189QhbBK7kNdH
m8b/pzIsay5YxmQn5gJSA9Tz8JXgcQIDAQABo2AwXjAMBgNVHRMBAf8EAjAAMA4G
A1UdDwEB/wQEAwIHgDAdBgNVHQ4EFgQUssJDP+wJIjock0IjfyOD8+Bo3LYwHwYD
VR0jBBgwFoAU9Yf+hMQ2frx2bX5Gln8yFUZKux4wDQYJKoZIhvcNAQELBQADggEB
ACDTtozGtEJGiAf8Is5OQ4cKlHOM/P31hX7e4cC+aDkzUinNt9t+gy5A1yh2d+96
BQaeWBDiNAq6/QzW25qwtDjt9/JdI/yRjsWolzHOvxhQDL85l7I3SCde+YUILCSa
uRZAXxi9aVXhI1gwFbAoR0v38Rrc70b15UtXwfzizxkSOeNmUYyMOH0OMJJiPc9t
yoxzw+nfOtYo28nXzSzCCN8C41/dqXvkeuzDdJ+HUFw1/SAwbbEBf0nmpV/TobTd
o359UnENh5MMVRCtMBJHFr0Y28UToo1UG7I97lWZcaL/1GhRzdMmM9fLK2WhQrAw
c+c0muo4DG1y5eA3RUMDjaw=
-----END CERTIFICATE-----
