Certificate:
    Data:
        Version: 3 (0x2)
        Serial Number: 46 (0x2e)
        Signature Algorithm: sha256WithRSAEncryption
        Issuer: C=US, ST=California, L=Santa Clara, O=pkg5, OU=ta9, CN=localhost/emailAddress=ta9
        Validity
            Not Before: Dec 15 15:37:34 2022 GMT
            Not After : Sep 10 15:37:34 2025 GMT
        Subject: C=US, ST=California, L=Santa Clara, O=pkg5, OU=cs1_ta9, CN=localhost/emailAddress=cs1_ta9
        Subject Public Key Info:
            Public Key Algorithm: rsaEncryption
                Public-Key: (2048 bit)
                Modulus:
                    00:a1:60:77:6a:b8:52:d7:3b:c8:92:06:2f:57:87:
                    f9:8d:ee:39:a9:e5:c0:7a:a7:7a:6f:8a:f7:19:0d:
                    e9:48:72:89:1c:1e:91:bb:7c:f7:e3:68:d1:be:bd:
                    64:e9:ff:5a:37:14:8f:13:32:d8:f6:a6:57:b9:e3:
                    ce:d9:cb:e0:aa:a2:9b:47:d6:ce:81:97:2a:84:46:
                    68:5e:a2:85:54:8e:42:6c:98:5c:ec:ee:f7:a9:c7:
                    87:90:84:e2:42:3c:9a:c7:9a:b9:7b:1e:3a:cf:6a:
                    cb:5f:51:c7:7c:fa:4e:01:e8:36:9c:fc:7a:10:66:
                    29:b6:38:c5:dc:10:c4:e4:dc:c9:27:e8:9d:b1:40:
                    89:c3:81:8f:a9:8c:45:5e:10:90:40:ea:36:bb:85:
                    48:4d:7e:18:1a:f0:26:bb:37:97:1d:d5:61:b7:a0:
                    17:29:45:53:a1:cd:47:0c:be:1b:cc:07:dd:f8:4f:
                    6d:b5:aa:e0:4e:4a:1b:9f:f1:14:be:9a:e4:00:aa:
                    fc:03:c0:66:4c:41:b7:a3:fb:b0:dd:7f:ab:14:c7:
                    17:ef:7b:ff:b5:31:ad:db:96:8f:c8:c5:a2:b7:5a:
                    3c:79:84:9a:46:6e:c7:a0:06:1a:e5:d9:ba:d8:45:
                    1f:ea:73:b0:67:20:7c:57:ba:f1:f0:54:28:29:d2:
                    13:c5
                Exponent: 65537 (0x10001)
        X509v3 extensions:
            X509v3 Basic Constraints: critical
                CA:FALSE
            X509v3 Key Usage: critical
                Digital Signature
            X509v3 Subject Key Identifier: 
                D6:DC:21:53:52:4F:D5:33:A3:78:47:AE:02:42:08:31:89:F0:55:2B
            X509v3 Authority Key Identifier: 
                20:FB:3D:23:6B:EF:2B:08:AE:10:90:3B:A0:EF:B6:66:66:EE:F9:C4
    Signature Algorithm: sha256WithRSAEncryption
    Signature Value:
        75:0e:c0:e1:e6:82:ca:bd:12:fb:ee:27:0a:b2:e8:8d:82:95:
        96:0f:aa:14:66:d7:dd:80:90:bb:4e:af:e6:d5:47:21:3c:ea:
        d1:2b:a1:1d:cf:d7:93:25:c6:b5:e5:9e:9c:4e:25:6c:82:f5:
        0a:f7:f2:0c:2f:ec:16:dd:86:d6:0a:56:53:12:55:04:9f:73:
        65:35:db:ac:fc:83:aa:7b:4f:13:cb:99:23:2d:f0:73:8f:a9:
        0b:53:6c:83:cf:fc:2c:49:07:e5:47:45:2c:c7:ef:39:ad:eb:
        51:6b:ef:ab:d5:ee:59:cd:ab:8d:e8:52:e9:19:d6:f0:40:4c:
        4c:fb:df:eb:7a:15:71:65:d3:c0:fb:ce:61:6d:de:80:cb:f8:
        8b:06:b2:98:4a:8b:15:06:4c:23:e7:68:35:b0:5d:ca:0c:b4:
        e8:38:3c:e5:8e:60:d1:d3:d5:6b:3d:b0:fa:33:b6:f8:02:cc:
        86:38:11:7c:80:e2:f3:fb:55:eb:ec:10:dc:36:a1:78:45:84:
        99:c2:6a:72:ca:07:76:59:65:19:7c:a9:2f:00:9b:bd:ea:33:
        75:09:51:6a:9e:1c:56:40:ce:b8:7a:bf:55:f3:78:35:18:ab:
        85:a0:47:db:33:a4:9e:19:dd:cd:0f:37:43:7e:55:1a:64:50:
        28:af:7c:f1
-----BEGIN CERTIFICATE-----
MIID3jCCAsagAwIBAgIBLjANBgkqhkiG9w0BAQsFADB9MQswCQYDVQQGEwJVUzET
MBEGA1UECAwKQ2FsaWZvcm5pYTEUMBIGA1UEBwwLU2FudGEgQ2xhcmExDTALBgNV
BAoMBHBrZzUxDDAKBgNVBAsMA3RhOTESMBAGA1UEAwwJbG9jYWxob3N0MRIwEAYJ
KoZIhvcNAQkBFgN0YTkwHhcNMjIxMjE1MTUzNzM0WhcNMjUwOTEwMTUzNzM0WjCB
hTELMAkGA1UEBhMCVVMxEzARBgNVBAgMCkNhbGlmb3JuaWExFDASBgNVBAcMC1Nh
bnRhIENsYXJhMQ0wCwYDVQQKDARwa2c1MRAwDgYDVQQLDAdjczFfdGE5MRIwEAYD
VQQDDAlsb2NhbGhvc3QxFjAUBgkqhkiG9w0BCQEWB2NzMV90YTkwggEiMA0GCSqG
SIb3DQEBAQUAA4IBDwAwggEKAoIBAQChYHdquFLXO8iSBi9Xh/mN7jmp5cB6p3pv
ivcZDelIcokcHpG7fPfjaNG+vWTp/1o3FI8TMtj2ple5487Zy+CqoptH1s6BlyqE
RmheooVUjkJsmFzs7vepx4eQhOJCPJrHmrl7HjrPastfUcd8+k4B6Dac/HoQZim2
OMXcEMTk3Mkn6J2xQInDgY+pjEVeEJBA6ja7hUhNfhga8Ca7N5cd1WG3oBcpRVOh
zUcMvhvMB934T221quBOShuf8RS+muQAqvwDwGZMQbej+7Ddf6sUxxfve/+1Ma3b
lo/IxaK3Wjx5hJpGbsegBhrl2brYRR/qc7BnIHxXuvHwVCgp0hPFAgMBAAGjYDBe
MAwGA1UdEwEB/wQCMAAwDgYDVR0PAQH/BAQDAgeAMB0GA1UdDgQWBBTW3CFTUk/V
M6N4R64CQggxifBVKzAfBgNVHSMEGDAWgBQg+z0ja+8rCK4QkDug77ZmZu75xDAN
BgkqhkiG9w0BAQsFAAOCAQEAdQ7A4eaCyr0S++4nCrLojYKVlg+qFGbX3YCQu06v
5tVHITzq0SuhHc/XkyXGteWenE4lbIL1CvfyDC/sFt2G1gpWUxJVBJ9zZTXbrPyD
qntPE8uZIy3wc4+pC1Nsg8/8LEkH5UdFLMfvOa3rUWvvq9XuWc2rjehS6RnW8EBM
TPvf63oVcWXTwPvOYW3egMv4iwaymEqLFQZMI+doNbBdygy06Dg85Y5g0dPVaz2w
+jO2+ALMhjgRfIDi8/tV6+wQ3DaheEWEmcJqcsoHdlllGXypLwCbveozdQlRap4c
VkDOuHq/VfN4NRirhaBH2zOknhndzQ83Q35VGmRQKK988Q==
-----END CERTIFICATE-----
