Certificate:
    Data:
        Version: 3 (0x2)
        Serial Number: 42 (0x2a)
    Signature Algorithm: sha256WithRSAEncryption
        Issuer: C=US, ST=California, L=Santa Clara, O=pkg5, CN=ch1_ta5/emailAddress=ch1_ta5
        Validity
            Not Before: Nov 16 10:58:51 2017 GMT
            Not After : Aug 12 10:58:51 2020 GMT
        Subject: C=US, ST=California, L=Santa Clara, O=pkg5, CN=cs1_ch1_ta5/emailAddress=cs1_ch1_ta5
        Subject Public Key Info:
            Public Key Algorithm: rsaEncryption
                Public-Key: (1024 bit)
                Modulus:
                    00:c2:77:57:af:87:53:45:df:61:d5:f0:18:3e:14:
                    21:77:05:81:73:a0:f1:2c:69:1f:3d:00:87:42:6d:
                    fe:13:86:92:64:8a:00:b4:08:04:c1:33:67:f7:a5:
                    30:3d:c4:e9:c7:95:d7:4d:2e:84:26:2c:c6:31:ca:
                    2b:c1:05:9e:a1:8d:23:99:ba:84:0d:18:67:bf:3e:
                    6e:65:c6:a6:90:96:27:a1:5e:99:ab:a4:e4:ad:d7:
                    50:6c:16:35:78:b7:1c:0c:66:ed:c6:de:bf:da:a3:
                    a2:f8:d2:df:d1:ee:56:f4:31:7e:22:49:05:e9:b8:
                    91:3c:50:64:15:ff:be:7f:93
                Exponent: 65537 (0x10001)
        X509v3 extensions:
            X509v3 Basic Constraints: critical
                CA:FALSE
            X509v3 Key Usage: critical
                Digital Signature
    Signature Algorithm: sha256WithRSAEncryption
         72:ec:8e:87:c5:c0:6a:0e:8e:55:f8:77:17:dd:b3:38:45:be:
         ad:e9:f9:44:bb:8c:04:b3:69:59:e1:10:69:80:6d:69:83:95:
         ec:bd:35:38:cd:43:08:ce:b9:43:17:eb:b7:ea:01:2a:59:ab:
         95:60:d8:8c:0f:11:25:74:03:bd:f3:50:3e:08:88:94:15:ea:
         a9:ee:5a:08:a3:61:24:71:f3:c8:7f:8b:5d:3d:83:07:d6:78:
         d8:c3:4f:c2:16:e4:49:9c:98:fd:c2:20:30:64:63:9b:b7:1e:
         4e:af:6c:e0:4c:94:47:7f:b1:60:a0:72:40:24:f8:43:80:03:
         00:92:b2:95:df:92:60:8c:70:ef:73:3c:ed:fd:aa:d8:70:c6:
         f1:9d:4a:e8:08:a4:54:c3:c1:f7:54:20:e6:c2:ba:36:66:63:
         a1:51:2f:5e:92:9f:e5:95:b1:71:47:af:4e:d9:fb:8d:05:a2:
         25:f7:49:44:62:04:ac:0e:8b:0e:b0:17:db:18:82:f0:d3:30:
         12:9a:9e:54:e3:6f:7a:e2:a3:ce:e9:ea:ab:50:c9:d7:27:4d:
         c0:c3:d1:08:99:e8:02:ee:69:a3:5a:cb:80:22:dd:8e:f3:fc:
         2f:a6:de:92:3b:e2:af:d8:1b:49:7f:4d:4a:15:a3:04:c4:1b:
         19:29:28:67
-----BEGIN CERTIFICATE-----
MIIDATCCAemgAwIBAgIBKjANBgkqhkiG9w0BAQsFADBxMQswCQYDVQQGEwJVUzET
MBEGA1UECAwKQ2FsaWZvcm5pYTEUMBIGA1UEBwwLU2FudGEgQ2xhcmExDTALBgNV
BAoMBHBrZzUxEDAOBgNVBAMMB2NoMV90YTUxFjAUBgkqhkiG9w0BCQEWB2NoMV90
YTUwHhcNMTcxMTE2MTA1ODUxWhcNMjAwODEyMTA1ODUxWjB5MQswCQYDVQQGEwJV
UzETMBEGA1UECAwKQ2FsaWZvcm5pYTEUMBIGA1UEBwwLU2FudGEgQ2xhcmExDTAL
BgNVBAoMBHBrZzUxFDASBgNVBAMMC2NzMV9jaDFfdGE1MRowGAYJKoZIhvcNAQkB
FgtjczFfY2gxX3RhNTCBnzANBgkqhkiG9w0BAQEFAAOBjQAwgYkCgYEAwndXr4dT
Rd9h1fAYPhQhdwWBc6DxLGkfPQCHQm3+E4aSZIoAtAgEwTNn96UwPcTpx5XXTS6E
JizGMcorwQWeoY0jmbqEDRhnvz5uZcamkJYnoV6Zq6TkrddQbBY1eLccDGbtxt6/
2qOi+NLf0e5W9DF+IkkF6biRPFBkFf++f5MCAwEAAaMgMB4wDAYDVR0TAQH/BAIw
ADAOBgNVHQ8BAf8EBAMCB4AwDQYJKoZIhvcNAQELBQADggEBAHLsjofFwGoOjlX4
dxfdszhFvq3p+US7jASzaVnhEGmAbWmDley9NTjNQwjOuUMX67fqASpZq5Vg2IwP
ESV0A73zUD4IiJQV6qnuWgijYSRx88h/i109gwfWeNjDT8IW5EmcmP3CIDBkY5u3
Hk6vbOBMlEd/sWCgckAk+EOAAwCSspXfkmCMcO9zPO39qthwxvGdSugIpFTDwfdU
IObCujZmY6FRL16Sn+WVsXFHr07Z+40FoiX3SURiBKwOiw6wF9sYgvDTMBKanlTj
b3rio87p6qtQydcnTcDD0QiZ6ALuaaNay4Ai3Y7z/C+m3pI74q/YG0l/TUoVowTE
GxkpKGc=
-----END CERTIFICATE-----
