Certificate:
    Data:
        Version: 3 (0x2)
        Serial Number: 11 (0xb)
        Signature Algorithm: sha256WithRSAEncryption
        Issuer: C=US, ST=California, L=Santa Clara, O=pkg5, CN=ch5.2_ta1/emailAddress=ch5.2_ta1
        Validity
            Not Before: Dec 15 15:37:18 2022 GMT
            Not After : Sep 10 15:37:18 2025 GMT
        Subject: C=US, ST=California, L=Santa Clara, O=pkg5, CN=cs1_ch5.2_ta1/emailAddress=cs1_ch5.2_ta1
        Subject Public Key Info:
            Public Key Algorithm: rsaEncryption
                Public-Key: (2048 bit)
                Modulus:
                    00:b6:31:0b:44:f6:ac:14:f7:53:e8:d4:60:b4:08:
                    e6:a2:ff:38:44:f7:2f:91:4e:09:4f:d8:52:21:e3:
                    48:6f:96:31:c5:28:40:49:b3:2f:fa:d8:bf:d0:43:
                    60:c8:51:97:3b:7f:af:2e:b5:41:8d:18:e4:fb:dd:
                    d1:b9:de:70:7c:a3:a1:ed:27:3f:83:ed:3f:de:6e:
                    67:fe:00:8c:bc:a2:03:a7:78:df:1d:dc:bf:c9:ec:
                    00:6a:b2:96:65:8e:f4:cb:9a:9c:a8:f5:08:f4:72:
                    1c:51:d0:1f:49:16:3c:aa:ed:1c:0f:5a:3c:4e:4d:
                    33:90:7d:28:f1:f2:db:d0:b7:c6:d7:9a:de:a4:1d:
                    07:4b:6a:47:83:9e:0c:f4:a5:30:6f:c2:7a:44:7a:
                    4e:43:07:92:b2:3f:9f:f3:c7:2a:2b:2e:82:43:e1:
                    39:d5:00:0d:f7:a7:09:3d:37:8f:ae:35:dc:bb:e9:
                    f1:e3:b2:ec:c3:13:a0:49:0e:65:43:1e:2e:e2:12:
                    6b:70:87:ef:38:93:92:4d:3f:4c:ae:ba:66:d0:56:
                    46:12:98:49:e0:ab:3a:2d:15:99:68:69:92:6e:01:
                    ae:c0:8e:f2:da:6f:85:25:00:38:b0:87:33:13:3a:
                    9f:65:db:82:01:01:ed:b9:29:bf:06:94:d2:5f:51:
                    67:9f
                Exponent: 65537 (0x10001)
        X509v3 extensions:
            X509v3 Basic Constraints: critical
                CA:FALSE
            X509v3 Key Usage: critical
                Digital Signature
            X509v3 Subject Key Identifier: 
                0C:32:85:CC:FE:71:E0:9C:FB:19:C2:1A:ED:DA:ED:B1:4F:9A:E4:6B
            X509v3 Authority Key Identifier: 
                6B:BC:D7:00:86:9A:0F:E6:0B:AA:55:26:D2:E3:7C:A9:0F:B2:64:22
    Signature Algorithm: sha256WithRSAEncryption
    Signature Value:
        91:0f:7b:e1:99:d7:a1:32:94:b2:b7:5c:4a:b9:0b:12:80:4d:
        f1:58:c8:95:a3:c7:22:3b:08:ec:0e:cb:05:5d:54:49:ff:c6:
        9d:96:65:cb:a0:15:bc:46:de:72:1d:27:ab:8f:8b:92:79:a1:
        b0:b6:fe:ec:8f:35:b0:03:5a:4b:1a:2f:70:a5:6b:e7:1e:92:
        a6:d0:5f:7a:4d:80:8f:96:0d:dc:69:1d:91:6e:40:82:c7:ee:
        d9:ca:2c:24:3f:71:f8:2f:a3:24:ca:2d:2a:6d:6e:47:9d:32:
        a7:ed:63:cb:f4:9a:1f:ac:7d:73:79:5c:f1:e9:73:ae:35:8d:
        ec:9d:1b:1c:b6:3d:8b:b8:de:49:85:19:7d:65:f1:3f:00:75:
        82:85:d4:c6:aa:a3:1b:c7:58:7e:06:65:5c:36:d4:21:81:09:
        cb:5a:1c:eb:08:ac:df:bf:85:81:04:78:a7:db:9b:eb:6f:c5:
        3d:19:b2:54:27:f0:a9:28:a9:56:2a:1e:cc:ff:14:58:d2:64:
        da:e6:e0:7a:fc:6f:6a:4c:df:6f:01:bc:68:3f:83:3e:16:15:
        4f:b4:ab:3f:5f:07:d2:25:c2:ec:62:d9:ba:b2:03:33:2c:36:
        65:ae:08:70:2b:c4:9b:ae:06:43:0f:56:74:75:17:6d:db:ef:
        83:ec:af:e9
-----BEGIN CERTIFICATE-----
MIIDzTCCArWgAwIBAgIBCzANBgkqhkiG9w0BAQsFADB1MQswCQYDVQQGEwJVUzET
MBEGA1UECAwKQ2FsaWZvcm5pYTEUMBIGA1UEBwwLU2FudGEgQ2xhcmExDTALBgNV
BAoMBHBrZzUxEjAQBgNVBAMMCWNoNS4yX3RhMTEYMBYGCSqGSIb3DQEJARYJY2g1
LjJfdGExMB4XDTIyMTIxNTE1MzcxOFoXDTI1MDkxMDE1MzcxOFowfTELMAkGA1UE
BhMCVVMxEzARBgNVBAgMCkNhbGlmb3JuaWExFDASBgNVBAcMC1NhbnRhIENsYXJh
MQ0wCwYDVQQKDARwa2c1MRYwFAYDVQQDDA1jczFfY2g1LjJfdGExMRwwGgYJKoZI
hvcNAQkBFg1jczFfY2g1LjJfdGExMIIBIjANBgkqhkiG9w0BAQEFAAOCAQ8AMIIB
CgKCAQEAtjELRPasFPdT6NRgtAjmov84RPcvkU4JT9hSIeNIb5YxxShASbMv+ti/
0ENgyFGXO3+vLrVBjRjk+93Rud5wfKOh7Sc/g+0/3m5n/gCMvKIDp3jfHdy/yewA
arKWZY70y5qcqPUI9HIcUdAfSRY8qu0cD1o8Tk0zkH0o8fLb0LfG15repB0HS2pH
g54M9KUwb8J6RHpOQweSsj+f88cqKy6CQ+E51QAN96cJPTePrjXcu+nx47LswxOg
SQ5lQx4u4hJrcIfvOJOSTT9Mrrpm0FZGEphJ4Ks6LRWZaGmSbgGuwI7y2m+FJQA4
sIczEzqfZduCAQHtuSm/BpTSX1FnnwIDAQABo2AwXjAMBgNVHRMBAf8EAjAAMA4G
A1UdDwEB/wQEAwIHgDAdBgNVHQ4EFgQUDDKFzP5x4Jz7GcIa7drtsU+a5GswHwYD
VR0jBBgwFoAUa7zXAIaaD+YLqlUm0uN8qQ+yZCIwDQYJKoZIhvcNAQELBQADggEB
AJEPe+GZ16EylLK3XEq5CxKATfFYyJWjxyI7COwOywVdVEn/xp2WZcugFbxG3nId
J6uPi5J5obC2/uyPNbADWksaL3Cla+cekqbQX3pNgI+WDdxpHZFuQILH7tnKLCQ/
cfgvoyTKLSptbkedMqftY8v0mh+sfXN5XPHpc641jeydGxy2PYu43kmFGX1l8T8A
dYKF1MaqoxvHWH4GZVw21CGBCctaHOsIrN+/hYEEeKfbm+tvxT0ZslQn8KkoqVYq
Hsz/FFjSZNrm4Hr8b2pM328BvGg/gz4WFU+0qz9fB9Ilwuxi2bqyAzMsNmWuCHAr
xJuuBkMPVnR1F23b74Psr+k=
-----END CERTIFICATE-----
