Certificate:
    Data:
        Version: 3 (0x2)
        Serial Number: 17 (0x11)
    Signature Algorithm: sha256WithRSAEncryption
        Issuer: C=US, ST=California, L=Santa Clara, O=pkg5, CN=ch1_ta3/emailAddress=ch1_ta3
        Validity
            Not Before: Mar 20 10:20:53 2018 GMT
            Not After : Dec 14 10:20:53 2020 GMT
        Subject: C=US, ST=California, L=Santa Clara, O=pkg5, CN=cs1_ch1_ta3/emailAddress=cs1_ch1_ta3
        Subject Public Key Info:
            Public Key Algorithm: rsaEncryption
                Public-Key: (1024 bit)
                Modulus:
                    00:9c:b9:46:44:b4:11:ce:16:ab:dc:d8:33:bc:67:
                    f6:be:8c:b8:60:c9:c1:24:84:ea:53:b7:8a:15:45:
                    1a:f2:dd:2d:e3:9d:03:0a:89:c2:46:10:18:dd:79:
                    6a:fd:ca:e4:10:87:d0:eb:dc:fd:3c:72:d5:19:cf:
                    ae:80:90:b6:51:fb:99:e3:79:81:60:92:52:88:9f:
                    f4:21:a8:be:d3:26:f6:96:a1:59:c3:af:ac:52:ca:
                    4b:cf:a2:47:13:9e:37:5c:f3:6f:4b:3b:1e:fd:64:
                    9d:cb:c8:d7:75:dd:8c:8c:3e:89:1b:a9:f6:34:29:
                    af:c9:d5:e6:2e:f9:a6:ed:bf
                Exponent: 65537 (0x10001)
        X509v3 extensions:
            X509v3 Basic Constraints: critical
                CA:FALSE
            X509v3 Key Usage: critical
                Digital Signature
    Signature Algorithm: sha256WithRSAEncryption
         23:51:c3:57:9c:1c:ba:35:7f:f1:85:ed:3e:6d:b2:b4:46:00:
         de:88:a5:62:58:1b:d4:f3:ab:b2:d0:0f:3c:d1:3c:a5:b2:dd:
         f4:2c:a5:f5:be:56:79:7a:4b:3f:90:88:2e:bd:f3:9b:00:cc:
         a3:3e:da:0e:c1:bc:1d:ae:d1:43:f0:cc:e0:36:f7:9f:da:75:
         a1:f9:24:ba:7c:1a:54:46:1f:e8:09:15:ab:40:c1:11:e2:da:
         73:b7:e1:b8:b0:ac:d8:26:36:dc:de:01:d9:d8:78:4f:41:67:
         3e:c9:aa:8f:c0:3a:a2:9e:a9:51:c7:59:76:05:b8:e1:9d:08:
         8d:e3:d9:9e:d8:07:79:cf:d2:02:a6:9b:4b:0a:ab:3d:6c:49:
         ab:e5:1a:c3:58:ad:22:e8:30:bd:b5:50:aa:47:7f:06:c1:ac:
         af:6a:7e:37:5f:31:c8:61:8b:97:67:f5:92:5c:fa:5f:4a:11:
         b3:39:87:00:f0:0c:87:82:eb:e2:eb:52:85:95:ea:31:25:3e:
         07:e3:68:8a:f3:ca:6c:b8:20:f1:be:f1:ad:4c:cb:bb:18:23:
         bb:0b:7b:93:40:55:e0:b7:c1:f6:9b:d8:5f:f4:0c:a0:c1:88:
         80:a4:6e:2c:34:8e:1f:72:27:24:42:bb:42:5c:99:0b:bc:ca:
         1a:fb:08:02
-----BEGIN CERTIFICATE-----
MIIDATCCAemgAwIBAgIBETANBgkqhkiG9w0BAQsFADBxMQswCQYDVQQGEwJVUzET
MBEGA1UECAwKQ2FsaWZvcm5pYTEUMBIGA1UEBwwLU2FudGEgQ2xhcmExDTALBgNV
BAoMBHBrZzUxEDAOBgNVBAMMB2NoMV90YTMxFjAUBgkqhkiG9w0BCQEWB2NoMV90
YTMwHhcNMTgwMzIwMTAyMDUzWhcNMjAxMjE0MTAyMDUzWjB5MQswCQYDVQQGEwJV
UzETMBEGA1UECAwKQ2FsaWZvcm5pYTEUMBIGA1UEBwwLU2FudGEgQ2xhcmExDTAL
BgNVBAoMBHBrZzUxFDASBgNVBAMMC2NzMV9jaDFfdGEzMRowGAYJKoZIhvcNAQkB
FgtjczFfY2gxX3RhMzCBnzANBgkqhkiG9w0BAQEFAAOBjQAwgYkCgYEAnLlGRLQR
zhar3NgzvGf2voy4YMnBJITqU7eKFUUa8t0t450DConCRhAY3Xlq/crkEIfQ69z9
PHLVGc+ugJC2UfuZ43mBYJJSiJ/0Iai+0yb2lqFZw6+sUspLz6JHE543XPNvSzse
/WSdy8jXdd2MjD6JG6n2NCmvydXmLvmm7b8CAwEAAaMgMB4wDAYDVR0TAQH/BAIw
ADAOBgNVHQ8BAf8EBAMCB4AwDQYJKoZIhvcNAQELBQADggEBACNRw1ecHLo1f/GF
7T5tsrRGAN6IpWJYG9Tzq7LQDzzRPKWy3fQspfW+Vnl6Sz+QiC6985sAzKM+2g7B
vB2u0UPwzOA295/adaH5JLp8GlRGH+gJFatAwRHi2nO34biwrNgmNtzeAdnYeE9B
Zz7Jqo/AOqKeqVHHWXYFuOGdCI3j2Z7YB3nP0gKmm0sKqz1sSavlGsNYrSLoML21
UKpHfwbBrK9qfjdfMchhi5dn9ZJc+l9KEbM5hwDwDIeC6+LrUoWV6jElPgfjaIrz
ymy4IPG+8a1My7sYI7sLe5NAVeC3wfab2F/0DKDBiICkbiw0jh9yJyRCu0JcmQu8
yhr7CAI=
-----END CERTIFICATE-----
