Certificate:
    Data:
        Version: 3 (0x2)
        Serial Number: 40 (0x28)
        Signature Algorithm: sha256WithRSAEncryption
        Issuer: C=US, ST=California, L=Santa Clara, O=pkg5, CN=ch1.1_ta4/emailAddress=ch1.1_ta4
        Validity
            Not Before: Oct 22 10:15:20 2021 GMT
            Not After : Jul 18 10:15:20 2024 GMT
        Subject: C=US, ST=California, L=Santa Clara, O=pkg5, CN=cs1_ch1.1_ta4/emailAddress=cs1_ch1.1_ta4
        Subject Public Key Info:
            Public Key Algorithm: rsaEncryption
                Public-Key: (2048 bit)
                Modulus:
                    00:a4:a5:e8:82:b4:09:bf:14:57:39:8c:b0:c5:9f:
                    27:6f:a4:db:75:b1:52:b7:72:58:31:9c:89:a5:96:
                    44:7b:1e:87:2b:cd:0e:74:8a:2a:ac:fe:f5:72:d9:
                    b0:47:7e:65:ce:ca:af:c1:76:53:bc:85:18:7a:94:
                    5e:e4:68:fe:ae:a5:54:f2:d2:e1:1d:e1:9a:e7:79:
                    56:b1:5e:b4:b1:2c:0f:22:89:27:1b:e1:8b:df:e4:
                    5d:c4:07:6f:a8:f4:e4:58:85:71:b2:f7:a1:a4:b6:
                    20:f7:90:4c:13:13:b7:7e:65:b3:77:56:72:c0:fc:
                    e4:e4:33:ca:8a:2f:0b:a8:79:aa:15:73:65:78:3c:
                    c6:75:2a:f5:7a:cc:74:07:c5:10:65:bd:52:6d:c1:
                    76:d0:07:96:ec:6e:30:0e:d6:86:9b:60:60:89:b3:
                    53:f5:14:be:d5:df:33:ef:12:d2:b8:70:8b:a6:e4:
                    36:49:c7:49:df:bb:82:22:14:4f:15:f2:ab:b9:a1:
                    de:db:a7:2d:62:41:cb:3f:5c:79:28:93:19:06:d6:
                    fe:da:27:07:13:6d:ce:28:cf:93:74:83:ee:55:ff:
                    3b:32:38:aa:18:78:01:95:04:75:ab:2b:70:b3:f0:
                    6c:56:6f:11:a6:ce:93:4c:50:74:03:55:f0:79:ef:
                    9b:49
                Exponent: 65537 (0x10001)
        X509v3 extensions:
            X509v3 Basic Constraints: critical
                CA:FALSE
            X509v3 CRL Distribution Points: 
                Full Name:
                  URI:http://localhost:12001/file/0/ch1.1_ta4_crl.pem
            X509v3 Subject Key Identifier: 
                8B:CB:8D:52:82:9D:E2:87:45:00:D3:C8:BA:38:42:3D:CF:4E:9C:70
            X509v3 Authority Key Identifier: 
                E3:F4:F6:DE:AF:E0:6B:0C:07:AC:2A:94:8A:3D:3E:4B:F7:F6:E7:87
    Signature Algorithm: sha256WithRSAEncryption
    Signature Value:
        64:7b:6d:65:d6:44:45:0a:80:a7:41:35:62:b5:4a:cd:d6:9a:
        58:23:e4:c8:f6:fe:47:95:8a:37:c8:75:4d:e7:17:82:54:d0:
        79:eb:11:0a:8e:bd:95:5b:02:ac:68:7e:b8:d8:94:d2:cd:9d:
        45:b8:ba:b2:26:4d:e9:49:e3:02:3e:71:75:b4:42:4e:ef:4b:
        73:69:42:34:17:e7:47:79:b7:5a:4e:e5:e0:c4:b7:d5:fa:4b:
        ae:72:b1:96:38:82:84:54:c1:fa:2c:8a:79:f2:c7:d0:1a:0f:
        b5:d8:c6:67:4f:9d:e0:7c:12:7c:1b:04:ee:be:11:38:40:69:
        9c:0d:4e:41:40:11:83:c1:48:21:2c:ac:2f:ec:1d:d9:53:71:
        55:84:ce:6b:7b:35:9b:af:bd:c1:92:d4:f7:7f:9d:0b:47:ff:
        97:dd:43:9a:ff:78:99:6e:e2:09:3a:b6:cf:aa:62:da:0b:ed:
        0d:b9:10:7c:ed:3b:6c:a3:ab:b2:61:a3:d7:cf:b6:97:78:44:
        14:4b:e4:c0:73:da:fd:70:28:f0:3a:bd:fd:05:36:18:b3:29:
        be:b0:56:a1:c6:65:cb:12:15:bd:41:d6:43:ce:89:97:77:32:
        75:09:d3:30:da:92:fc:9a:d6:c3:ab:ab:4d:81:a5:cf:8c:28:
        84:fa:60:1f
-----BEGIN CERTIFICATE-----
MIIEATCCAumgAwIBAgIBKDANBgkqhkiG9w0BAQsFADB1MQswCQYDVQQGEwJVUzET
MBEGA1UECAwKQ2FsaWZvcm5pYTEUMBIGA1UEBwwLU2FudGEgQ2xhcmExDTALBgNV
BAoMBHBrZzUxEjAQBgNVBAMMCWNoMS4xX3RhNDEYMBYGCSqGSIb3DQEJARYJY2gx
LjFfdGE0MB4XDTIxMTAyMjEwMTUyMFoXDTI0MDcxODEwMTUyMFowfTELMAkGA1UE
BhMCVVMxEzARBgNVBAgMCkNhbGlmb3JuaWExFDASBgNVBAcMC1NhbnRhIENsYXJh
MQ0wCwYDVQQKDARwa2c1MRYwFAYDVQQDDA1jczFfY2gxLjFfdGE0MRwwGgYJKoZI
hvcNAQkBFg1jczFfY2gxLjFfdGE0MIIBIjANBgkqhkiG9w0BAQEFAAOCAQ8AMIIB
CgKCAQEApKXogrQJvxRXOYywxZ8nb6TbdbFSt3JYMZyJpZZEex6HK80OdIoqrP71
ctmwR35lzsqvwXZTvIUYepRe5Gj+rqVU8tLhHeGa53lWsV60sSwPIoknG+GL3+Rd
xAdvqPTkWIVxsvehpLYg95BMExO3fmWzd1ZywPzk5DPKii8LqHmqFXNleDzGdSr1
esx0B8UQZb1SbcF20AeW7G4wDtaGm2BgibNT9RS+1d8z7xLSuHCLpuQ2ScdJ37uC
IhRPFfKruaHe26ctYkHLP1x5KJMZBtb+2icHE23OKM+TdIPuVf87MjiqGHgBlQR1
qytws/BsVm8Rps6TTFB0A1Xwee+bSQIDAQABo4GTMIGQMAwGA1UdEwEB/wQCMAAw
QAYDVR0fBDkwNzA1oDOgMYYvaHR0cDovL2xvY2FsaG9zdDoxMjAwMS9maWxlLzAv
Y2gxLjFfdGE0X2NybC5wZW0wHQYDVR0OBBYEFIvLjVKCneKHRQDTyLo4Qj3PTpxw
MB8GA1UdIwQYMBaAFOP09t6v4GsMB6wqlIo9Pkv39ueHMA0GCSqGSIb3DQEBCwUA
A4IBAQBke21l1kRFCoCnQTVitUrN1ppYI+TI9v5HlYo3yHVN5xeCVNB56xEKjr2V
WwKsaH642JTSzZ1FuLqyJk3pSeMCPnF1tEJO70tzaUI0F+dHebdaTuXgxLfV+kuu
crGWOIKEVMH6LIp58sfQGg+12MZnT53gfBJ8GwTuvhE4QGmcDU5BQBGDwUghLKwv
7B3ZU3FVhM5rezWbr73BktT3f50LR/+X3UOa/3iZbuIJOrbPqmLaC+0NuRB87Tts
o6uyYaPXz7aXeEQUS+TAc9r9cCjwOr39BTYYsym+sFahxmXLEhW9QdZDzomXdzJ1
CdMw2pL8mtbDq6tNgaXPjCiE+mAf
-----END CERTIFICATE-----
