Certificate:
    Data:
        Version: 3 (0x2)
        Serial Number: 48 (0x30)
    Signature Algorithm: sha256WithRSAEncryption
        Issuer: C=US, ST=California, L=Santa Clara, O=pkg5, OU=ta11, CN=localhost/emailAddress=ta11
        Validity
            Not Before: Mar 20 10:20:57 2018 GMT
            Not After : Dec 14 10:20:57 2020 GMT
        Subject: C=US, ST=California, L=Santa Clara, O=pkg5, OU=cs1_ta11, CN=localhost/emailAddress=cs1_ta11
        Subject Public Key Info:
            Public Key Algorithm: rsaEncryption
                Public-Key: (1024 bit)
                Modulus:
                    00:b1:de:e4:c7:de:93:3c:b0:47:49:06:9e:c0:4e:
                    86:ab:dd:dc:d7:ba:ca:f2:89:5e:6e:fc:ea:b6:a3:
                    bb:ac:06:5c:c8:9c:87:ce:84:e0:04:b9:63:96:53:
                    30:58:4b:b7:e4:4d:cb:a9:98:64:2a:da:82:4d:0b:
                    04:bd:13:37:dd:c5:8e:73:7d:49:8d:3d:07:7d:f7:
                    a9:eb:f1:58:42:1f:e3:d4:f5:57:56:f9:5f:93:1a:
                    ba:2f:4e:97:e6:9f:ea:9a:f6:c6:95:13:6e:25:3e:
                    07:94:dc:ac:8e:6e:0b:b7:e0:1f:46:3a:19:b3:08:
                    cb:b3:f2:34:ca:d7:31:e8:87
                Exponent: 65537 (0x10001)
        X509v3 extensions:
            X509v3 Basic Constraints: critical
                CA:FALSE
            X509v3 Key Usage: critical
                Digital Signature
    Signature Algorithm: sha256WithRSAEncryption
         14:8d:01:b4:5e:6d:f4:73:dd:20:c2:90:89:65:0d:4c:c7:99:
         c3:5e:31:b5:4f:eb:7f:eb:03:df:3b:ca:34:ea:dc:fa:39:c8:
         d8:4c:50:54:2d:13:42:09:78:20:a4:bb:64:f8:04:ef:34:27:
         92:7c:ce:eb:78:28:ce:7d:79:f5:0d:5e:41:a9:71:58:55:0e:
         a7:cc:fa:2d:7a:e7:57:03:66:44:54:01:fa:9f:8d:4e:01:66:
         8c:f4:8e:8a:b7:c2:d3:9e:ec:27:94:6b:bb:81:09:05:6c:a4:
         28:e4:80:e6:39:f4:bb:1f:86:0f:dd:22:b4:ae:e6:56:75:38:
         87:58:f0:c7:ea:15:71:50:bb:78:04:4a:01:b2:0d:88:d6:69:
         fb:3d:63:68:6b:7b:b3:42:07:d2:da:3f:2f:df:f3:be:14:05:
         31:6b:cc:62:ab:95:e2:e2:53:28:4d:86:f0:59:4f:c1:d6:a0:
         fd:b3:48:9f:57:28:55:13:1d:d4:13:aa:59:b6:9d:c4:d4:7a:
         92:79:ad:fc:e7:df:7b:e6:2c:78:82:ab:6f:f9:ce:e4:b0:6b:
         79:0a:46:9c:64:6f:4f:d8:5a:65:20:80:8b:7d:d9:bd:3f:83:
         04:f2:10:e6:b2:b4:b0:ee:4f:e1:a5:ce:5c:ba:e2:e1:0b:35:
         4a:ce:cf:3b
-----BEGIN CERTIFICATE-----
MIIDHjCCAgagAwIBAgIBMDANBgkqhkiG9w0BAQsFADB/MQswCQYDVQQGEwJVUzET
MBEGA1UECAwKQ2FsaWZvcm5pYTEUMBIGA1UEBwwLU2FudGEgQ2xhcmExDTALBgNV
BAoMBHBrZzUxDTALBgNVBAsMBHRhMTExEjAQBgNVBAMMCWxvY2FsaG9zdDETMBEG
CSqGSIb3DQEJARYEdGExMTAeFw0xODAzMjAxMDIwNTdaFw0yMDEyMTQxMDIwNTda
MIGHMQswCQYDVQQGEwJVUzETMBEGA1UECAwKQ2FsaWZvcm5pYTEUMBIGA1UEBwwL
U2FudGEgQ2xhcmExDTALBgNVBAoMBHBrZzUxETAPBgNVBAsMCGNzMV90YTExMRIw
EAYDVQQDDAlsb2NhbGhvc3QxFzAVBgkqhkiG9w0BCQEWCGNzMV90YTExMIGfMA0G
CSqGSIb3DQEBAQUAA4GNADCBiQKBgQCx3uTH3pM8sEdJBp7AToar3dzXusryiV5u
/Oq2o7usBlzInIfOhOAEuWOWUzBYS7fkTcupmGQq2oJNCwS9EzfdxY5zfUmNPQd9
96nr8VhCH+PU9VdW+V+TGrovTpfmn+qa9saVE24lPgeU3KyObgu34B9GOhmzCMuz
8jTK1zHohwIDAQABoyAwHjAMBgNVHRMBAf8EAjAAMA4GA1UdDwEB/wQEAwIHgDAN
BgkqhkiG9w0BAQsFAAOCAQEAFI0BtF5t9HPdIMKQiWUNTMeZw14xtU/rf+sD3zvK
NOrc+jnI2ExQVC0TQgl4IKS7ZPgE7zQnknzO63gozn159Q1eQalxWFUOp8z6LXrn
VwNmRFQB+p+NTgFmjPSOirfC057sJ5Rru4EJBWykKOSA5jn0ux+GD90itK7mVnU4
h1jwx+oVcVC7eARKAbINiNZp+z1jaGt7s0IH0to/L9/zvhQFMWvMYquV4uJTKE2G
8FlPwdag/bNIn1coVRMd1BOqWbadxNR6knmt/Offe+YseIKrb/nO5LBreQpGnGRv
T9haZSCAi33ZvT+DBPIQ5rK0sO5P4aXOXLri4Qs1Ss7POw==
-----END CERTIFICATE-----
