Certificate:
    Data:
        Version: 3 (0x2)
        Serial Number: 36 (0x24)
    Signature Algorithm: sha256WithRSAEncryption
        Issuer: C=US, ST=California, L=Santa Clara, O=pkg5, CN=ch1_ta4/emailAddress=ch1_ta4
        Validity
            Not Before: Mar 20 10:20:55 2018 GMT
            Not After : Dec 14 10:20:55 2020 GMT
        Subject: C=US, ST=California, L=Santa Clara, O=pkg5, CN=cs1_ch1_ta4/emailAddress=cs1_ch1_ta4
        Subject Public Key Info:
            Public Key Algorithm: rsaEncryption
                Public-Key: (1024 bit)
                Modulus:
                    00:a0:a4:df:1d:ac:b7:97:b3:25:66:17:41:77:e8:
                    30:4d:06:1f:71:0c:e2:dc:26:14:2f:0b:8d:af:bf:
                    be:8e:3f:19:a3:b7:e7:7a:04:00:ee:13:b3:37:10:
                    61:fe:4b:d5:4a:ff:ba:f8:c3:50:13:11:d4:6c:29:
                    bb:ff:77:98:c3:8d:33:31:a5:eb:c3:6d:4d:45:85:
                    82:d9:6b:28:af:dd:95:9b:72:b6:6e:00:f7:e9:9a:
                    e9:64:fe:4e:05:29:5e:2c:05:98:bd:78:a2:06:28:
                    1b:64:c4:2d:c1:d1:3b:f8:68:ac:a0:67:91:3d:d3:
                    f4:af:32:80:33:9c:6d:69:b3
                Exponent: 65537 (0x10001)
        X509v3 extensions:
            X509v3 Basic Constraints: critical
                CA:FALSE
            X509v3 CRL Distribution Points: 

                Full Name:
                  URI:http://localhost:12001/file/0/ch1_ta4_crl.pem

    Signature Algorithm: sha256WithRSAEncryption
         96:05:37:78:c3:04:fa:bb:0d:76:32:8e:07:cd:b1:c8:a2:7d:
         05:44:31:dc:b4:a4:76:7e:04:a1:e4:b3:ff:43:91:51:67:8d:
         c7:99:75:43:7d:fa:af:f2:fa:e0:f8:5e:db:a1:3f:38:03:fa:
         0a:59:51:f3:ef:6a:75:3e:9c:ab:07:da:b3:8b:7c:d1:07:5c:
         cf:68:63:85:4d:61:cb:fc:e3:05:eb:d6:f6:52:8d:79:e3:5c:
         e6:94:c7:1b:60:b6:94:7d:54:9b:d5:a6:95:79:84:a6:b7:c0:
         13:03:b2:1b:ea:3f:0e:5f:e2:c2:ec:4c:2d:c9:7a:98:a6:60:
         80:57:fb:4c:d5:92:de:eb:1d:02:d2:7a:8f:85:64:04:c9:23:
         ec:08:ef:07:bd:74:fe:21:8b:b4:af:ee:de:4f:72:d5:d9:f4:
         62:8b:ce:2f:8a:6e:50:b9:1d:90:c8:96:ea:9e:47:82:3b:f8:
         70:60:e6:84:69:e3:0b:ad:1a:74:9f:b9:4c:c7:cd:09:34:3b:
         ef:95:de:f3:c4:f3:18:7a:7e:53:dd:0b:85:54:53:06:78:c0:
         04:ca:6a:33:b2:5d:b9:79:c0:12:bf:6d:c9:65:57:75:e9:f0:
         b6:e0:9d:3d:a2:bc:46:bf:dc:4e:29:77:90:de:be:41:e4:15:
         8c:48:d8:96
-----BEGIN CERTIFICATE-----
MIIDMTCCAhmgAwIBAgIBJDANBgkqhkiG9w0BAQsFADBxMQswCQYDVQQGEwJVUzET
MBEGA1UECAwKQ2FsaWZvcm5pYTEUMBIGA1UEBwwLU2FudGEgQ2xhcmExDTALBgNV
BAoMBHBrZzUxEDAOBgNVBAMMB2NoMV90YTQxFjAUBgkqhkiG9w0BCQEWB2NoMV90
YTQwHhcNMTgwMzIwMTAyMDU1WhcNMjAxMjE0MTAyMDU1WjB5MQswCQYDVQQGEwJV
UzETMBEGA1UECAwKQ2FsaWZvcm5pYTEUMBIGA1UEBwwLU2FudGEgQ2xhcmExDTAL
BgNVBAoMBHBrZzUxFDASBgNVBAMMC2NzMV9jaDFfdGE0MRowGAYJKoZIhvcNAQkB
FgtjczFfY2gxX3RhNDCBnzANBgkqhkiG9w0BAQEFAAOBjQAwgYkCgYEAoKTfHay3
l7MlZhdBd+gwTQYfcQzi3CYULwuNr7++jj8Zo7fnegQA7hOzNxBh/kvVSv+6+MNQ
ExHUbCm7/3eYw40zMaXrw21NRYWC2Wsor92Vm3K2bgD36ZrpZP5OBSleLAWYvXii
BigbZMQtwdE7+GisoGeRPdP0rzKAM5xtabMCAwEAAaNQME4wDAYDVR0TAQH/BAIw
ADA+BgNVHR8ENzA1MDOgMaAvhi1odHRwOi8vbG9jYWxob3N0OjEyMDAxL2ZpbGUv
MC9jaDFfdGE0X2NybC5wZW0wDQYJKoZIhvcNAQELBQADggEBAJYFN3jDBPq7DXYy
jgfNsciifQVEMdy0pHZ+BKHks/9DkVFnjceZdUN9+q/y+uD4XtuhPzgD+gpZUfPv
anU+nKsH2rOLfNEHXM9oY4VNYcv84wXr1vZSjXnjXOaUxxtgtpR9VJvVppV5hKa3
wBMDshvqPw5f4sLsTC3JepimYIBX+0zVkt7rHQLSeo+FZATJI+wI7we9dP4hi7Sv
7t5PctXZ9GKLzi+KblC5HZDIluqeR4I7+HBg5oRp4wutGnSfuUzHzQk0O++V3vPE
8xh6flPdC4VUUwZ4wATKajOyXbl5wBK/bcllV3Xp8LbgnT2ivEa/3E4pd5DevkHk
FYxI2JY=
-----END CERTIFICATE-----
