Certificate:
    Data:
        Version: 3 (0x2)
        Serial Number: 15 (0xf)
        Signature Algorithm: sha256WithRSAEncryption
        Issuer: C=US, ST=California, L=Santa Clara, O=pkg5, CN=ta2/emailAddress=ta2
        Validity
            Not Before: Nov 17 23:01:29 2020 GMT
            Not After : Aug 14 23:01:29 2023 GMT
        Subject: C=US, ST=California, L=Santa Clara, O=pkg5, CN=cs1_ta2/emailAddress=cs1_ta2
        Subject Public Key Info:
            Public Key Algorithm: rsaEncryption
                RSA Public-Key: (1024 bit)
                Modulus:
                    00:e0:30:c5:4a:59:65:d6:18:88:50:c9:92:8c:41:
                    c6:6d:2f:6d:59:6f:bf:fa:08:5d:f7:ef:c8:a2:62:
                    4b:ba:d5:f7:4c:38:d0:a7:20:29:ee:cf:30:3e:ba:
                    7a:13:23:ae:54:b7:ed:1d:af:7e:cd:9a:3c:38:4f:
                    3c:f1:39:76:91:61:b5:f3:4c:43:15:9e:c2:12:61:
                    4b:32:d2:cb:34:52:48:28:88:71:2d:1b:d7:1a:5b:
                    0f:f5:21:16:b3:bf:2d:91:e6:36:a6:5f:81:72:88:
                    67:3d:b3:2f:a0:47:c0:b7:01:53:4b:9c:d2:bc:67:
                    5f:91:d4:78:60:dd:ed:2c:2b
                Exponent: 65537 (0x10001)
        X509v3 extensions:
            X509v3 Basic Constraints: critical
                CA:FALSE
            X509v3 Key Usage: critical
                Digital Signature
    Signature Algorithm: sha256WithRSAEncryption
         5b:9b:a3:da:75:0f:8a:93:22:bc:61:b4:e0:d5:d4:e7:39:03:
         43:bc:93:6b:6c:52:ad:14:c1:f1:f3:15:07:06:18:80:40:a8:
         ad:55:ac:39:d0:4c:be:49:21:ad:c7:85:cd:34:c2:a7:87:ad:
         9f:7b:82:23:35:da:82:a3:67:38:83:a4:61:ad:4b:11:7a:d0:
         1d:ff:33:f0:c0:50:b9:d2:3e:7c:63:aa:35:3f:6a:65:87:39:
         aa:7b:b5:e4:c4:3e:c6:9a:f3:ca:56:23:98:be:ee:46:7a:70:
         f7:2f:3a:76:ca:05:4a:eb:1b:9e:09:6e:ed:2f:8d:1f:39:ad:
         5a:59:92:00:a7:6b:f3:a5:14:a4:c1:9b:58:69:80:5d:57:6c:
         09:4e:ca:29:1a:e2:c7:68:5b:ea:dd:d8:bd:28:37:b6:1e:0c:
         4c:a5:5c:a8:06:8d:0c:04:70:10:00:b3:43:18:29:66:f0:6c:
         42:1b:3c:8c:b0:43:13:3f:23:13:29:65:69:fc:1c:3b:56:a8:
         38:67:e4:4e:69:c3:61:96:68:02:81:fb:e5:a3:88:ec:12:18:
         de:0a:32:3d:25:b8:59:4e:03:89:48:46:fe:5a:a6:70:f1:e0:
         50:bd:35:d9:66:f5:5e:5d:3a:09:1a:2d:9b:89:86:f5:f8:0e:
         f9:e1:c1:6e
-----BEGIN CERTIFICATE-----
MIIC8TCCAdmgAwIBAgIBDzANBgkqhkiG9w0BAQsFADBpMQswCQYDVQQGEwJVUzET
MBEGA1UECAwKQ2FsaWZvcm5pYTEUMBIGA1UEBwwLU2FudGEgQ2xhcmExDTALBgNV
BAoMBHBrZzUxDDAKBgNVBAMMA3RhMjESMBAGCSqGSIb3DQEJARYDdGEyMB4XDTIw
MTExNzIzMDEyOVoXDTIzMDgxNDIzMDEyOVowcTELMAkGA1UEBhMCVVMxEzARBgNV
BAgMCkNhbGlmb3JuaWExFDASBgNVBAcMC1NhbnRhIENsYXJhMQ0wCwYDVQQKDARw
a2c1MRAwDgYDVQQDDAdjczFfdGEyMRYwFAYJKoZIhvcNAQkBFgdjczFfdGEyMIGf
MA0GCSqGSIb3DQEBAQUAA4GNADCBiQKBgQDgMMVKWWXWGIhQyZKMQcZtL21Zb7/6
CF3378iiYku61fdMONCnICnuzzA+unoTI65Ut+0dr37Nmjw4TzzxOXaRYbXzTEMV
nsISYUsy0ss0UkgoiHEtG9caWw/1IRazvy2R5jamX4FyiGc9sy+gR8C3AVNLnNK8
Z1+R1Hhg3e0sKwIDAQABoyAwHjAMBgNVHRMBAf8EAjAAMA4GA1UdDwEB/wQEAwIH
gDANBgkqhkiG9w0BAQsFAAOCAQEAW5uj2nUPipMivGG04NXU5zkDQ7yTa2xSrRTB
8fMVBwYYgECorVWsOdBMvkkhrceFzTTCp4etn3uCIzXagqNnOIOkYa1LEXrQHf8z
8MBQudI+fGOqNT9qZYc5qnu15MQ+xprzylYjmL7uRnpw9y86dsoFSusbnglu7S+N
HzmtWlmSAKdr86UUpMGbWGmAXVdsCU7KKRrix2hb6t3YvSg3th4MTKVcqAaNDARw
EACzQxgpZvBsQhs8jLBDEz8jEyllafwcO1aoOGfkTmnDYZZoAoH75aOI7BIY3goy
PSW4WU4DiUhG/lqmcPHgUL012Wb1Xl06CRotm4mG9fgO+eHBbg==
-----END CERTIFICATE-----
