Certificate:
    Data:
        Version: 3 (0x2)
        Serial Number: 34 (0x22)
        Signature Algorithm: sha256WithRSAEncryption
        Issuer: C=US, ST=California, L=Santa Clara, O=pkg5, CN=ch1.4_ta3/emailAddress=ch1.4_ta3
        Validity
            Not Before: Nov 17 23:01:32 2020 GMT
            Not After : Aug 14 23:01:32 2023 GMT
        Subject: C=US, ST=California, L=Santa Clara, O=pkg5, CN=cs1_ch1.4_ta3/emailAddress=cs1_ch1.4_ta3
        Subject Public Key Info:
            Public Key Algorithm: rsaEncryption
                RSA Public-Key: (1024 bit)
                Modulus:
                    00:c8:76:a9:f4:0f:38:77:91:f8:17:35:71:60:e2:
                    be:16:f7:8d:4e:8d:7e:56:f8:4f:27:06:fe:7f:e9:
                    ef:fe:e1:d9:39:e6:f3:cc:2f:aa:2b:dd:71:15:99:
                    43:e9:10:6b:a4:e6:99:25:34:1b:90:f1:37:c8:42:
                    bc:32:ea:7b:9f:3b:2f:33:54:b3:db:cf:5c:f6:d0:
                    a1:60:0b:79:e8:0a:d2:bd:65:f4:55:ec:f9:07:22:
                    bf:67:a9:03:8b:2c:80:52:84:91:46:29:6d:6d:66:
                    98:86:bb:fe:82:30:08:af:db:77:c7:8c:98:66:7d:
                    47:5b:06:c2:63:cc:11:95:fb
                Exponent: 65537 (0x10001)
        X509v3 extensions:
            X509v3 Basic Constraints: critical
                CA:FALSE
            X509v3 Key Usage: critical
                Digital Signature
    Signature Algorithm: sha256WithRSAEncryption
         23:33:21:a4:ff:99:57:a1:bd:e8:f1:73:a2:0a:fa:50:46:aa:
         9a:60:10:4e:68:a2:71:b3:a7:78:1f:f8:c7:3a:50:4f:e4:a6:
         82:28:44:83:b6:d5:7b:4e:ae:19:47:53:b5:3f:0c:c2:66:cd:
         41:22:e6:0d:ab:a9:65:26:f6:9c:75:f7:97:f1:db:08:0c:75:
         57:0c:9e:be:ae:48:e3:e9:d4:4e:17:cd:f4:7a:dc:b8:29:10:
         96:c7:a9:37:8c:57:18:d7:0b:73:29:86:69:8e:b0:97:9f:fe:
         ce:8d:43:7e:fd:ea:e2:10:f8:0b:1f:46:53:62:0d:13:b8:71:
         5e:ba:a9:ef:73:ba:f6:2c:d8:18:c7:bc:5f:17:91:fe:41:18:
         82:7c:23:a3:8f:db:30:7e:29:ce:8b:f6:23:18:08:ab:a4:be:
         0a:8b:c2:5d:f8:45:c4:06:f7:59:83:6e:51:91:f3:82:25:e5:
         01:78:bb:21:dd:ff:21:0f:92:8e:9c:ed:d2:86:f7:10:a8:25:
         bd:a1:e3:40:73:f0:02:88:65:5f:6a:dc:35:bb:03:a5:a1:0b:
         63:d2:d3:0a:9b:da:cd:a6:cb:7e:aa:21:97:46:5b:bf:4b:6d:
         47:71:4a:09:8a:e6:fe:2f:91:a5:64:fa:81:18:69:07:3e:c0:
         bc:b0:80:6b
-----BEGIN CERTIFICATE-----
MIIDCTCCAfGgAwIBAgIBIjANBgkqhkiG9w0BAQsFADB1MQswCQYDVQQGEwJVUzET
MBEGA1UECAwKQ2FsaWZvcm5pYTEUMBIGA1UEBwwLU2FudGEgQ2xhcmExDTALBgNV
BAoMBHBrZzUxEjAQBgNVBAMMCWNoMS40X3RhMzEYMBYGCSqGSIb3DQEJARYJY2gx
LjRfdGEzMB4XDTIwMTExNzIzMDEzMloXDTIzMDgxNDIzMDEzMlowfTELMAkGA1UE
BhMCVVMxEzARBgNVBAgMCkNhbGlmb3JuaWExFDASBgNVBAcMC1NhbnRhIENsYXJh
MQ0wCwYDVQQKDARwa2c1MRYwFAYDVQQDDA1jczFfY2gxLjRfdGEzMRwwGgYJKoZI
hvcNAQkBFg1jczFfY2gxLjRfdGEzMIGfMA0GCSqGSIb3DQEBAQUAA4GNADCBiQKB
gQDIdqn0Dzh3kfgXNXFg4r4W941OjX5W+E8nBv5/6e/+4dk55vPML6or3XEVmUPp
EGuk5pklNBuQ8TfIQrwy6nufOy8zVLPbz1z20KFgC3noCtK9ZfRV7PkHIr9nqQOL
LIBShJFGKW1tZpiGu/6CMAiv23fHjJhmfUdbBsJjzBGV+wIDAQABoyAwHjAMBgNV
HRMBAf8EAjAAMA4GA1UdDwEB/wQEAwIHgDANBgkqhkiG9w0BAQsFAAOCAQEAIzMh
pP+ZV6G96PFzogr6UEaqmmAQTmiicbOneB/4xzpQT+SmgihEg7bVe06uGUdTtT8M
wmbNQSLmDaupZSb2nHX3l/HbCAx1Vwyevq5I4+nUThfN9HrcuCkQlsepN4xXGNcL
cymGaY6wl5/+zo1Dfv3q4hD4Cx9GU2INE7hxXrqp73O69izYGMe8XxeR/kEYgnwj
o4/bMH4pzov2IxgIq6S+CovCXfhFxAb3WYNuUZHzgiXlAXi7Id3/IQ+Sjpzt0ob3
EKglvaHjQHPwAohlX2rcNbsDpaELY9LTCpvazabLfqohl0Zbv0ttR3FKCYrm/i+R
pWT6gRhpBz7AvLCAaw==
-----END CERTIFICATE-----
