Certificate:
    Data:
        Version: 3 (0x2)
        Serial Number: 14 (0xe)
        Signature Algorithm: sha256WithRSAEncryption
        Issuer: C=US, ST=California, L=Santa Clara, O=pkg5, CN=ch5.3_ta1/emailAddress=ch5.3_ta1
        Validity
            Not Before: Nov 17 23:01:29 2020 GMT
            Not After : Aug 14 23:01:29 2023 GMT
        Subject: C=US, ST=California, L=Santa Clara, O=pkg5, CN=cs1_ch5.3_ta1/emailAddress=cs1_ch5.3_ta1
        Subject Public Key Info:
            Public Key Algorithm: rsaEncryption
                RSA Public-Key: (1024 bit)
                Modulus:
                    00:97:62:92:93:d0:12:87:22:0c:1e:01:6b:b8:b2:
                    b6:39:4c:56:94:10:5c:36:68:8a:d2:d3:10:f6:65:
                    47:e9:f5:70:fa:38:e7:ac:e5:cf:d6:69:19:0d:43:
                    15:3e:f7:24:5f:b0:e7:c5:43:35:2a:58:e9:7f:38:
                    dd:ce:06:21:f7:43:59:d0:94:93:16:e4:8a:b0:7e:
                    25:54:05:84:4f:c6:18:9e:ab:a3:29:bb:d1:d8:06:
                    10:de:07:cd:c7:5f:9a:3c:5f:60:7b:8a:de:95:5b:
                    71:2b:2e:a0:a0:ba:ae:df:83:53:74:f0:30:bd:b4:
                    45:e9:bd:78:d7:49:58:af:3d
                Exponent: 65537 (0x10001)
        X509v3 extensions:
            X509v3 Basic Constraints: critical
                CA:FALSE
            X509v3 Key Usage: critical
                Digital Signature
    Signature Algorithm: sha256WithRSAEncryption
         73:d8:b4:7a:bc:a5:62:e7:da:cf:09:ce:ba:c9:bd:cc:c9:63:
         c9:47:ef:99:fe:b9:70:72:4b:b6:52:b6:27:60:b2:02:d5:b5:
         bb:92:cd:85:54:4e:06:f0:f5:39:76:31:2e:e4:06:10:01:30:
         37:45:5a:56:39:c8:1b:09:eb:90:7e:75:08:da:15:2d:a9:20:
         dc:f3:60:34:0e:fd:87:66:7f:66:4b:84:39:59:cc:fa:05:0e:
         1e:de:16:20:5e:21:b7:f5:fd:dd:0e:81:71:29:26:06:2d:06:
         e8:98:3f:73:b8:36:02:35:19:72:74:52:26:0c:aa:ed:12:7f:
         79:78:80:b4:f5:a3:6e:7b:0d:e8:ea:a5:d7:10:34:30:b2:c7:
         25:91:66:e7:5a:8d:67:fd:60:0e:c7:5f:0d:44:78:aa:0e:91:
         33:70:13:14:cb:8d:8e:93:49:67:39:5c:48:67:03:ee:dd:f1:
         59:cf:68:65:77:a7:5d:3f:b4:02:0a:68:c1:41:d6:7f:f1:10:
         c7:84:6e:58:1f:d5:51:32:ef:ce:1d:97:55:30:ec:22:5f:07:
         ca:fb:be:7c:b1:4a:fc:38:33:f0:93:da:d5:03:06:3a:f2:53:
         53:2b:c6:b7:89:3f:16:b2:7b:fb:a2:33:c5:69:b5:d9:10:b1:
         4a:d7:40:0b
-----BEGIN CERTIFICATE-----
MIIDCTCCAfGgAwIBAgIBDjANBgkqhkiG9w0BAQsFADB1MQswCQYDVQQGEwJVUzET
MBEGA1UECAwKQ2FsaWZvcm5pYTEUMBIGA1UEBwwLU2FudGEgQ2xhcmExDTALBgNV
BAoMBHBrZzUxEjAQBgNVBAMMCWNoNS4zX3RhMTEYMBYGCSqGSIb3DQEJARYJY2g1
LjNfdGExMB4XDTIwMTExNzIzMDEyOVoXDTIzMDgxNDIzMDEyOVowfTELMAkGA1UE
BhMCVVMxEzARBgNVBAgMCkNhbGlmb3JuaWExFDASBgNVBAcMC1NhbnRhIENsYXJh
MQ0wCwYDVQQKDARwa2c1MRYwFAYDVQQDDA1jczFfY2g1LjNfdGExMRwwGgYJKoZI
hvcNAQkBFg1jczFfY2g1LjNfdGExMIGfMA0GCSqGSIb3DQEBAQUAA4GNADCBiQKB
gQCXYpKT0BKHIgweAWu4srY5TFaUEFw2aIrS0xD2ZUfp9XD6OOes5c/WaRkNQxU+
9yRfsOfFQzUqWOl/ON3OBiH3Q1nQlJMW5IqwfiVUBYRPxhieq6Mpu9HYBhDeB83H
X5o8X2B7it6VW3ErLqCguq7fg1N08DC9tEXpvXjXSVivPQIDAQABoyAwHjAMBgNV
HRMBAf8EAjAAMA4GA1UdDwEB/wQEAwIHgDANBgkqhkiG9w0BAQsFAAOCAQEAc9i0
erylYufazwnOusm9zMljyUfvmf65cHJLtlK2J2CyAtW1u5LNhVROBvD1OXYxLuQG
EAEwN0VaVjnIGwnrkH51CNoVLakg3PNgNA79h2Z/ZkuEOVnM+gUOHt4WIF4ht/X9
3Q6BcSkmBi0G6Jg/c7g2AjUZcnRSJgyq7RJ/eXiAtPWjbnsN6Oql1xA0MLLHJZFm
51qNZ/1gDsdfDUR4qg6RM3ATFMuNjpNJZzlcSGcD7t3xWc9oZXenXT+0AgpowUHW
f/EQx4RuWB/VUTLvzh2XVTDsIl8Hyvu+fLFK/Dgz8JPa1QMGOvJTUyvGt4k/FrJ7
+6IzxWm12RCxStdACw==
-----END CERTIFICATE-----
