Certificate:
    Data:
        Version: 3 (0x2)
        Serial Number: 14 (0xe)
        Signature Algorithm: sha256WithRSAEncryption
        Issuer: C=US, ST=California, L=Santa Clara, O=pkg5, CN=ch5.3_ta1/emailAddress=ch5.3_ta1
        Validity
            Not Before: Oct 22 10:15:09 2021 GMT
            Not After : Jul 18 10:15:09 2024 GMT
        Subject: C=US, ST=California, L=Santa Clara, O=pkg5, CN=cs1_ch5.3_ta1/emailAddress=cs1_ch5.3_ta1
        Subject Public Key Info:
            Public Key Algorithm: rsaEncryption
                Public-Key: (2048 bit)
                Modulus:
                    00:ce:5a:f2:d2:e8:7a:a6:52:f1:2a:7c:ed:d6:df:
                    eb:67:b4:e4:2d:b0:7b:57:ab:05:6f:97:1f:d2:9e:
                    93:45:c3:e0:b7:91:e7:57:e8:c5:b3:74:ed:84:99:
                    2a:e5:55:b2:13:09:ff:18:1e:c2:68:ac:05:44:c3:
                    2e:f6:6a:7d:5e:53:9d:f0:12:91:35:5a:67:08:b6:
                    6f:74:ee:a0:a3:56:f8:45:4f:22:e3:06:b2:d6:1f:
                    4a:a9:23:1b:d1:15:93:f1:41:8a:29:31:18:a8:70:
                    24:96:80:66:1b:a0:5c:e5:6c:44:14:57:7b:a6:9f:
                    42:2c:9c:21:02:52:0b:7c:95:db:7b:7f:47:59:e9:
                    2d:5a:44:73:67:3f:42:7f:27:a4:12:c5:4c:20:e9:
                    41:f3:18:23:26:a1:b5:53:86:2a:1e:a5:7a:52:f2:
                    c6:31:3d:bc:13:65:c2:ab:99:0f:a1:05:cd:06:be:
                    0a:5d:5d:08:33:b4:2c:ec:f1:1e:8f:1c:c5:a4:5a:
                    3e:10:5e:3c:f2:d4:a7:5f:93:fa:77:56:68:33:db:
                    f0:d2:e9:f8:7e:89:af:dc:86:ce:48:5c:86:40:fa:
                    00:df:a8:04:7f:70:29:92:db:e5:dc:5c:ee:b6:7e:
                    53:a4:bb:b3:cf:86:b7:b5:93:4a:ac:f5:cf:a3:2c:
                    b3:99
                Exponent: 65537 (0x10001)
        X509v3 extensions:
            X509v3 Basic Constraints: critical
                CA:FALSE
            X509v3 Key Usage: critical
                Digital Signature
            X509v3 Subject Key Identifier: 
                1D:AF:CE:35:8D:C0:90:8C:69:44:99:04:AA:46:C0:85:DE:9A:7B:A6
            X509v3 Authority Key Identifier: 
                14:63:DE:43:62:5C:2B:95:21:55:08:CE:D2:B0:BF:2D:B9:ED:C0:34
    Signature Algorithm: sha256WithRSAEncryption
    Signature Value:
        7d:a1:c3:52:b9:ce:98:ab:6c:11:ad:bb:39:93:0d:92:a7:a4:
        63:65:58:cd:5a:ef:79:c7:57:ed:78:0a:fe:9e:8c:00:96:a3:
        e9:f7:b0:8a:1c:6a:ea:e8:ba:6f:af:a7:8c:22:42:97:54:e3:
        5e:dd:36:3b:3a:b3:56:87:50:06:a8:63:5b:d5:ae:1c:57:10:
        14:b2:d0:1d:d1:da:b8:78:b2:7c:26:8c:40:f9:4a:40:dc:95:
        e0:33:77:7b:09:ed:95:bd:e1:87:9e:5a:ae:fb:93:d1:fa:16:
        a3:b3:d1:3a:57:55:41:54:73:a2:79:2f:11:b6:92:e4:bf:2e:
        45:d6:33:d2:3e:ac:be:dd:ed:0f:58:90:c6:95:69:17:12:6c:
        50:06:5c:8f:db:cc:e7:a5:8d:0d:69:ad:91:3b:e3:17:06:68:
        26:32:0e:f5:fe:59:5a:c8:5c:8a:ec:54:f3:d0:6b:3e:b5:df:
        1a:86:0e:ea:1f:48:c3:73:74:d8:fc:ce:c9:08:3a:f6:a7:db:
        7f:e0:24:e5:ad:01:70:f9:b7:06:c5:a0:a3:62:bb:b5:7e:5d:
        07:19:23:59:45:1a:3a:ce:e0:7c:84:6e:ce:29:e6:01:ca:13:
        b7:bd:a6:b7:db:01:e4:5d:2c:5e:85:c5:3a:71:aa:97:0c:7c:
        1d:12:b4:b1
-----BEGIN CERTIFICATE-----
MIIDzTCCArWgAwIBAgIBDjANBgkqhkiG9w0BAQsFADB1MQswCQYDVQQGEwJVUzET
MBEGA1UECAwKQ2FsaWZvcm5pYTEUMBIGA1UEBwwLU2FudGEgQ2xhcmExDTALBgNV
BAoMBHBrZzUxEjAQBgNVBAMMCWNoNS4zX3RhMTEYMBYGCSqGSIb3DQEJARYJY2g1
LjNfdGExMB4XDTIxMTAyMjEwMTUwOVoXDTI0MDcxODEwMTUwOVowfTELMAkGA1UE
BhMCVVMxEzARBgNVBAgMCkNhbGlmb3JuaWExFDASBgNVBAcMC1NhbnRhIENsYXJh
MQ0wCwYDVQQKDARwa2c1MRYwFAYDVQQDDA1jczFfY2g1LjNfdGExMRwwGgYJKoZI
hvcNAQkBFg1jczFfY2g1LjNfdGExMIIBIjANBgkqhkiG9w0BAQEFAAOCAQ8AMIIB
CgKCAQEAzlry0uh6plLxKnzt1t/rZ7TkLbB7V6sFb5cf0p6TRcPgt5HnV+jFs3Tt
hJkq5VWyEwn/GB7CaKwFRMMu9mp9XlOd8BKRNVpnCLZvdO6go1b4RU8i4way1h9K
qSMb0RWT8UGKKTEYqHAkloBmG6Bc5WxEFFd7pp9CLJwhAlILfJXbe39HWektWkRz
Zz9CfyekEsVMIOlB8xgjJqG1U4YqHqV6UvLGMT28E2XCq5kPoQXNBr4KXV0IM7Qs
7PEejxzFpFo+EF488tSnX5P6d1ZoM9vw0un4fomv3IbOSFyGQPoA36gEf3Apktvl
3Fzutn5TpLuzz4a3tZNKrPXPoyyzmQIDAQABo2AwXjAMBgNVHRMBAf8EAjAAMA4G
A1UdDwEB/wQEAwIHgDAdBgNVHQ4EFgQUHa/ONY3AkIxpRJkEqkbAhd6ae6YwHwYD
VR0jBBgwFoAUFGPeQ2JcK5UhVQjO0rC/LbntwDQwDQYJKoZIhvcNAQELBQADggEB
AH2hw1K5zpirbBGtuzmTDZKnpGNlWM1a73nHV+14Cv6ejACWo+n3sIocauroum+v
p4wiQpdU417dNjs6s1aHUAaoY1vVrhxXEBSy0B3R2rh4snwmjED5SkDcleAzd3sJ
7ZW94YeeWq77k9H6FqOz0TpXVUFUc6J5LxG2kuS/LkXWM9I+rL7d7Q9YkMaVaRcS
bFAGXI/bzOeljQ1prZE74xcGaCYyDvX+WVrIXIrsVPPQaz613xqGDuofSMNzdNj8
zskIOvan23/gJOWtAXD5twbFoKNiu7V+XQcZI1lFGjrO4HyEbs4p5gHKE7e9prfb
AeRdLF6FxTpxqpcMfB0StLE=
-----END CERTIFICATE-----
