Certificate:
    Data:
        Version: 3 (0x2)
        Serial Number: 17 (0x11)
    Signature Algorithm: sha256WithRSAEncryption
        Issuer: C=US, ST=California, L=Santa Clara, O=pkg5, CN=ch1_ta3/emailAddress=ch1_ta3
        Validity
            Not Before: Nov 16 10:58:48 2017 GMT
            Not After : Aug 12 10:58:48 2020 GMT
        Subject: C=US, ST=California, L=Santa Clara, O=pkg5, CN=cs1_ch1_ta3/emailAddress=cs1_ch1_ta3
        Subject Public Key Info:
            Public Key Algorithm: rsaEncryption
                Public-Key: (1024 bit)
                Modulus:
                    00:ce:53:11:02:d2:bb:d8:f3:58:f2:9b:21:b3:33:
                    2a:32:64:75:8e:78:3d:41:03:9b:17:2f:30:15:c5:
                    73:2e:76:94:82:6d:89:1d:e4:cc:e1:6c:41:ef:b2:
                    8a:a8:72:b7:10:9f:88:e2:49:b7:db:63:84:c7:f9:
                    53:69:08:06:58:0e:7a:19:38:31:7b:9c:77:fa:5b:
                    49:09:ea:c3:2c:7d:e5:14:f5:d2:e7:3d:18:fe:af:
                    5b:7b:13:ca:04:78:38:3e:6a:26:c0:34:5d:55:3f:
                    ef:17:60:ac:65:e2:e2:6f:43:35:c1:bd:7c:88:b7:
                    79:15:4c:23:24:24:1b:0f:31
                Exponent: 65537 (0x10001)
        X509v3 extensions:
            X509v3 Basic Constraints: critical
                CA:FALSE
            X509v3 Key Usage: critical
                Digital Signature
    Signature Algorithm: sha256WithRSAEncryption
         cb:d7:80:21:ea:2c:b1:e1:12:51:be:dd:e9:14:97:89:fb:55:
         ff:57:c9:07:14:dd:c8:80:53:af:23:e0:a8:d9:7a:f8:c5:22:
         15:59:55:22:8f:85:19:f3:3b:6f:db:54:00:92:c5:b2:04:bf:
         b1:4b:f6:f9:29:fd:55:04:25:10:a0:7d:ef:8e:3b:51:5f:5e:
         6d:d1:89:86:26:d0:1b:a9:0e:d9:30:8d:71:83:d3:5a:90:a9:
         c1:68:2c:0d:bc:15:fc:88:a1:2b:2a:14:14:27:59:99:27:13:
         24:ed:65:16:4e:fe:85:cd:eb:5d:a5:21:4d:fe:f8:4b:fb:71:
         3b:c4:95:a0:98:9e:8a:a6:25:d3:4d:84:b4:7d:da:85:2c:2e:
         dd:4e:de:63:4a:ba:84:ae:92:21:7d:cf:03:ae:0d:1d:d7:90:
         de:da:3a:9c:19:66:7d:1b:02:c7:57:ca:19:21:9e:15:82:18:
         37:8d:bf:a2:0a:51:2a:a6:46:f2:fe:d8:47:97:89:9b:9f:db:
         4e:5a:c6:57:fb:3d:36:4e:58:59:e8:b3:d1:c1:de:c5:df:7f:
         83:2c:82:c8:1c:2e:54:55:7c:2c:24:3a:19:3b:66:60:09:91:
         17:70:12:6b:6e:9f:8d:a6:3d:71:8e:0b:19:c3:4b:0b:2f:19:
         dd:f7:ce:83
-----BEGIN CERTIFICATE-----
MIIDATCCAemgAwIBAgIBETANBgkqhkiG9w0BAQsFADBxMQswCQYDVQQGEwJVUzET
MBEGA1UECAwKQ2FsaWZvcm5pYTEUMBIGA1UEBwwLU2FudGEgQ2xhcmExDTALBgNV
BAoMBHBrZzUxEDAOBgNVBAMMB2NoMV90YTMxFjAUBgkqhkiG9w0BCQEWB2NoMV90
YTMwHhcNMTcxMTE2MTA1ODQ4WhcNMjAwODEyMTA1ODQ4WjB5MQswCQYDVQQGEwJV
UzETMBEGA1UECAwKQ2FsaWZvcm5pYTEUMBIGA1UEBwwLU2FudGEgQ2xhcmExDTAL
BgNVBAoMBHBrZzUxFDASBgNVBAMMC2NzMV9jaDFfdGEzMRowGAYJKoZIhvcNAQkB
FgtjczFfY2gxX3RhMzCBnzANBgkqhkiG9w0BAQEFAAOBjQAwgYkCgYEAzlMRAtK7
2PNY8pshszMqMmR1jng9QQObFy8wFcVzLnaUgm2JHeTM4WxB77KKqHK3EJ+I4km3
22OEx/lTaQgGWA56GTgxe5x3+ltJCerDLH3lFPXS5z0Y/q9bexPKBHg4PmomwDRd
VT/vF2CsZeLib0M1wb18iLd5FUwjJCQbDzECAwEAAaMgMB4wDAYDVR0TAQH/BAIw
ADAOBgNVHQ8BAf8EBAMCB4AwDQYJKoZIhvcNAQELBQADggEBAMvXgCHqLLHhElG+
3ekUl4n7Vf9XyQcU3ciAU68j4KjZevjFIhVZVSKPhRnzO2/bVACSxbIEv7FL9vkp
/VUEJRCgfe+OO1FfXm3RiYYm0BupDtkwjXGD01qQqcFoLA28FfyIoSsqFBQnWZkn
EyTtZRZO/oXN612lIU3++Ev7cTvElaCYnoqmJdNNhLR92oUsLt1O3mNKuoSukiF9
zwOuDR3XkN7aOpwZZn0bAsdXyhkhnhWCGDeNv6IKUSqmRvL+2EeXiZuf205axlf7
PTZOWFnos9HB3sXff4MsgsgcLlRVfCwkOhk7ZmAJkRdwEmtun42mPXGOCxnDSwsv
Gd33zoM=
-----END CERTIFICATE-----
