Certificate:
    Data:
        Version: 3 (0x2)
        Serial Number: 39 (0x27)
    Signature Algorithm: sha256WithRSAEncryption
        Issuer: C=US, ST=California, L=Santa Clara, O=pkg5, CN=ch1.1_ta4/emailAddress=ch1.1_ta4
        Validity
            Not Before: Nov 28 22:50:58 2016 GMT
            Not After : Aug 25 22:50:58 2019 GMT
        Subject: C=US, ST=California, L=Santa Clara, O=pkg5, CN=cs1_ch1.1_ta4/emailAddress=cs1_ch1.1_ta4
        Subject Public Key Info:
            Public Key Algorithm: rsaEncryption
                Public-Key: (1024 bit)
                Modulus:
                    00:b4:11:99:d9:2b:c0:ce:41:8c:ff:8e:de:ce:6f:
                    97:9a:5a:0c:52:d8:54:8a:d8:5f:c1:75:f2:b5:c8:
                    4d:c1:8b:40:ee:d2:f5:ff:b8:be:31:3d:c1:da:c0:
                    da:9f:46:b1:e9:b0:98:51:ee:48:a9:af:ee:31:36:
                    fe:76:fc:25:b7:75:c6:17:b6:fa:68:2b:57:b0:c1:
                    d3:a0:af:62:c5:da:c3:35:8a:62:87:33:d3:ab:a1:
                    da:2d:7c:6f:e4:73:7f:b8:cb:55:61:77:bb:f3:af:
                    40:8d:07:85:ee:1d:fe:a1:f0:3d:74:3e:32:9f:bf:
                    d1:44:f7:11:4a:bb:fa:66:8f
                Exponent: 65537 (0x10001)
        X509v3 extensions:
            X509v3 Basic Constraints: critical
                CA:FALSE
            X509v3 CRL Distribution Points: 

                Full Name:
                  URI:http://localhost:12001/file/0/ch1.1_ta4_crl.pem

    Signature Algorithm: sha256WithRSAEncryption
         98:d2:ef:5c:2b:46:17:15:6a:75:f5:be:20:64:df:0c:4d:96:
         64:cf:e8:26:d1:51:50:f5:cc:05:03:b6:01:5b:c7:9f:27:54:
         84:40:06:46:1b:b8:ba:fe:2d:c2:3a:1a:08:f4:e4:d9:20:7a:
         25:62:30:21:d8:d9:a3:3b:98:a6:fb:2b:cc:a4:3c:50:a7:9f:
         7b:97:fa:61:8d:7b:6a:7d:1a:8c:df:cc:95:4e:62:73:77:1c:
         dd:b1:36:09:68:b4:82:e8:aa:33:dc:40:5e:6a:ae:b4:13:0a:
         7b:02:48:f1:d9:05:b8:49:46:0b:ba:e9:a8:81:17:9d:54:f2:
         94:47:25:2f:bf:44:a5:1b:35:30:a5:8b:78:84:c2:f2:f7:b6:
         bc:d3:d6:91:cd:ab:78:04:f9:98:ad:5d:f9:c2:f0:1b:5d:64:
         2e:49:9b:5c:c6:68:3a:75:6f:57:a2:7a:86:8b:c0:92:46:04:
         f1:7e:3f:ba:de:04:14:5c:87:69:2d:9b:5e:fe:24:7d:4d:7f:
         73:64:f7:3f:d5:7f:46:11:95:a3:d7:fe:68:f9:91:3a:e2:a0:
         aa:4b:9e:a8:af:ba:f2:60:72:6d:85:ea:40:38:80:ec:fb:b7:
         28:92:09:c7:26:4e:5f:06:98:3e:25:15:b7:45:e6:fa:e9:ec:
         d9:eb:b6:47
-----BEGIN CERTIFICATE-----
MIIDOzCCAiOgAwIBAgIBJzANBgkqhkiG9w0BAQsFADB1MQswCQYDVQQGEwJVUzET
MBEGA1UECAwKQ2FsaWZvcm5pYTEUMBIGA1UEBwwLU2FudGEgQ2xhcmExDTALBgNV
BAoMBHBrZzUxEjAQBgNVBAMMCWNoMS4xX3RhNDEYMBYGCSqGSIb3DQEJARYJY2gx
LjFfdGE0MB4XDTE2MTEyODIyNTA1OFoXDTE5MDgyNTIyNTA1OFowfTELMAkGA1UE
BhMCVVMxEzARBgNVBAgMCkNhbGlmb3JuaWExFDASBgNVBAcMC1NhbnRhIENsYXJh
MQ0wCwYDVQQKDARwa2c1MRYwFAYDVQQDDA1jczFfY2gxLjFfdGE0MRwwGgYJKoZI
hvcNAQkBFg1jczFfY2gxLjFfdGE0MIGfMA0GCSqGSIb3DQEBAQUAA4GNADCBiQKB
gQC0EZnZK8DOQYz/jt7Ob5eaWgxS2FSK2F/BdfK1yE3Bi0Du0vX/uL4xPcHawNqf
RrHpsJhR7kipr+4xNv52/CW3dcYXtvpoK1ewwdOgr2LF2sM1imKHM9OrodotfG/k
c3+4y1Vhd7vzr0CNB4XuHf6h8D10PjKfv9FE9xFKu/pmjwIDAQABo1IwUDAMBgNV
HRMBAf8EAjAAMEAGA1UdHwQ5MDcwNaAzoDGGL2h0dHA6Ly9sb2NhbGhvc3Q6MTIw
MDEvZmlsZS8wL2NoMS4xX3RhNF9jcmwucGVtMA0GCSqGSIb3DQEBCwUAA4IBAQCY
0u9cK0YXFWp19b4gZN8MTZZkz+gm0VFQ9cwFA7YBW8efJ1SEQAZGG7i6/i3COhoI
9OTZIHolYjAh2NmjO5im+yvMpDxQp597l/phjXtqfRqM38yVTmJzdxzdsTYJaLSC
6Koz3EBeaq60Ewp7Akjx2QW4SUYLuumogRedVPKURyUvv0SlGzUwpYt4hMLy97a8
09aRzat4BPmYrV35wvAbXWQuSZtcxmg6dW9XonqGi8CSRgTxfj+63gQUXIdpLZte
/iR9TX9zZPc/1X9GEZWj1/5o+ZE64qCqS56or7ryYHJthepAOIDs+7cokgnHJk5f
Bpg+JRW3Reb66ezZ67ZH
-----END CERTIFICATE-----
