Certificate:
    Data:
        Version: 3 (0x2)
        Serial Number: 25 (0x19)
        Signature Algorithm: sha256WithRSAEncryption
        Issuer: C=US, ST=California, L=Santa Clara, O=pkg5, CN=cs8_ch1_ta3/emailAddress=cs8_ch1_ta3
        Validity
            Not Before: Nov 17 23:01:31 2020 GMT
            Not After : Aug 14 23:01:31 2023 GMT
        Subject: C=US, ST=California, L=Santa Clara, O=pkg5, CN=cs1_cs8_ch1_ta3/emailAddress=cs1_cs8_ch1_ta3
        Subject Public Key Info:
            Public Key Algorithm: rsaEncryption
                RSA Public-Key: (1024 bit)
                Modulus:
                    00:b4:06:19:16:94:de:b3:02:16:8f:89:9d:53:55:
                    b8:d4:d3:86:6c:48:af:44:85:60:e7:89:11:cf:86:
                    ab:2d:e8:3b:06:53:4c:ae:dd:52:59:fb:97:8e:68:
                    db:9e:95:f5:cc:04:cc:54:b1:ff:c4:93:66:19:16:
                    d8:64:a1:9f:4f:67:82:28:7c:67:2f:9e:4e:88:19:
                    8f:b2:36:df:8c:b1:f4:1b:c3:70:6c:75:bb:5c:55:
                    c2:bc:1f:3f:03:cc:f0:f6:8f:c3:46:0d:08:05:2f:
                    74:3c:51:5d:e6:70:40:65:56:b5:5d:60:56:29:12:
                    db:a4:da:8d:cf:e7:cf:31:07
                Exponent: 65537 (0x10001)
        X509v3 extensions:
            X509v3 Basic Constraints: critical
                CA:FALSE
            X509v3 Key Usage: critical
                Digital Signature
    Signature Algorithm: sha256WithRSAEncryption
         48:a5:de:86:b0:c0:c8:1b:7f:ca:c8:05:6b:e8:f7:50:b7:30:
         88:d3:22:c0:34:83:bb:a6:c5:05:7b:0c:83:65:a8:5e:f4:d3:
         ce:26:26:4e:43:ea:96:92:fe:79:02:d3:be:78:9a:b3:aa:c5:
         05:bc:15:f7:09:b1:4f:45:aa:0b:69:fb:a8:ed:90:6f:7a:45:
         2e:b1:42:68:11:ee:41:e4:f0:05:c7:34:e3:9e:25:77:a3:e1:
         fb:26:df:11:85:72:ab:a9:22:3e:66:b7:ad:33:aa:3f:cb:21:
         14:9d:76:89:19:79:2f:33:01:90:e6:4d:94:5e:ed:97:56:4b:
         37:24
-----BEGIN CERTIFICATE-----
MIICkTCCAfqgAwIBAgIBGTANBgkqhkiG9w0BAQsFADB5MQswCQYDVQQGEwJVUzET
MBEGA1UECAwKQ2FsaWZvcm5pYTEUMBIGA1UEBwwLU2FudGEgQ2xhcmExDTALBgNV
BAoMBHBrZzUxFDASBgNVBAMMC2NzOF9jaDFfdGEzMRowGAYJKoZIhvcNAQkBFgtj
czhfY2gxX3RhMzAeFw0yMDExMTcyMzAxMzFaFw0yMzA4MTQyMzAxMzFaMIGBMQsw
CQYDVQQGEwJVUzETMBEGA1UECAwKQ2FsaWZvcm5pYTEUMBIGA1UEBwwLU2FudGEg
Q2xhcmExDTALBgNVBAoMBHBrZzUxGDAWBgNVBAMMD2NzMV9jczhfY2gxX3RhMzEe
MBwGCSqGSIb3DQEJARYPY3MxX2NzOF9jaDFfdGEzMIGfMA0GCSqGSIb3DQEBAQUA
A4GNADCBiQKBgQC0BhkWlN6zAhaPiZ1TVbjU04ZsSK9EhWDniRHPhqst6DsGU0yu
3VJZ+5eOaNuelfXMBMxUsf/Ek2YZFthkoZ9PZ4IofGcvnk6IGY+yNt+MsfQbw3Bs
dbtcVcK8Hz8DzPD2j8NGDQgFL3Q8UV3mcEBlVrVdYFYpEtuk2o3P588xBwIDAQAB
oyAwHjAMBgNVHRMBAf8EAjAAMA4GA1UdDwEB/wQEAwIHgDANBgkqhkiG9w0BAQsF
AAOBgQBIpd6GsMDIG3/KyAVr6PdQtzCI0yLANIO7psUFewyDZahe9NPOJiZOQ+qW
kv55AtO+eJqzqsUFvBX3CbFPRaoLafuo7ZBvekUusUJoEe5B5PAFxzTjniV3o+H7
Jt8RhXKrqSI+ZretM6o/yyEUnXaJGXkvMwGQ5k2UXu2XVks3JA==
-----END CERTIFICATE-----
