Certificate:
    Data:
        Version: 3 (0x2)
        Serial Number: 46 (0x2e)
        Signature Algorithm: sha256WithRSAEncryption
        Issuer: C=US, ST=California, L=Santa Clara, O=pkg5, OU=ta9, CN=localhost/emailAddress=ta9
        Validity
            Not Before: Nov 17 23:01:34 2020 GMT
            Not After : Aug 14 23:01:34 2023 GMT
        Subject: C=US, ST=California, L=Santa Clara, O=pkg5, OU=cs1_ta9, CN=localhost/emailAddress=cs1_ta9
        Subject Public Key Info:
            Public Key Algorithm: rsaEncryption
                RSA Public-Key: (1024 bit)
                Modulus:
                    00:cb:a9:9b:63:94:b2:29:18:4b:59:a1:13:32:8c:
                    b6:d9:cb:6e:63:c6:08:85:89:53:7e:bf:27:d3:2a:
                    92:12:19:48:59:73:96:92:ef:bb:cd:8f:73:65:91:
                    56:f9:dc:00:7b:73:38:fb:21:14:0a:38:8b:20:56:
                    25:d3:9a:79:22:30:a0:d5:26:39:ef:8c:5e:03:92:
                    8f:49:84:3b:1b:71:58:c0:bb:91:5a:67:ab:1e:5d:
                    df:e5:b8:f2:28:1e:5d:30:00:ff:00:3a:83:0a:ce:
                    75:a9:06:86:1b:0c:a7:f2:e5:e3:b0:dd:81:77:45:
                    f8:bc:ae:fd:04:8a:c1:54:95
                Exponent: 65537 (0x10001)
        X509v3 extensions:
            X509v3 Basic Constraints: critical
                CA:FALSE
            X509v3 Key Usage: critical
                Digital Signature
    Signature Algorithm: sha256WithRSAEncryption
         24:79:fd:a8:be:dd:8a:bb:62:b8:e6:40:74:d0:37:7c:b0:df:
         43:3a:8b:c3:c7:31:43:16:78:7d:8e:ae:90:20:5c:9c:d8:b3:
         9a:e3:69:8f:50:c8:2a:0a:0f:bd:c9:01:b5:4c:39:3a:fc:b2:
         81:2d:74:05:e1:9a:60:1d:65:2e:e3:54:ee:71:66:80:1a:19:
         92:f9:1c:52:30:be:29:62:06:26:dd:8c:25:43:0b:e5:07:97:
         bd:6e:4d:ef:05:af:45:07:e4:aa:64:cc:32:94:bc:94:25:49:
         57:76:b1:16:83:3a:6a:26:25:9c:e3:e3:57:82:fc:fe:d6:9f:
         43:e4:eb:38:2c:f0:59:e0:e5:4f:00:05:b1:6e:54:0d:73:61:
         2a:47:d3:d5:de:0e:fd:ad:aa:19:2d:45:78:97:69:c0:f5:0e:
         a7:7f:99:3c:6e:9e:71:da:6f:66:f0:86:cb:04:e1:e3:52:83:
         81:ed:46:27:af:26:a7:66:df:b4:e0:ff:ec:98:76:fb:17:7f:
         e3:6a:88:36:76:fd:a7:c3:0e:ef:af:08:e7:ef:63:85:5e:01:
         da:9b:59:48:52:fe:bd:04:d9:42:bd:45:c7:99:56:fa:fe:61:
         34:67:98:99:82:3e:aa:e3:9e:2a:9a:ab:bb:f3:24:82:89:17:
         ba:3a:a3:a5
-----BEGIN CERTIFICATE-----
MIIDGjCCAgKgAwIBAgIBLjANBgkqhkiG9w0BAQsFADB9MQswCQYDVQQGEwJVUzET
MBEGA1UECAwKQ2FsaWZvcm5pYTEUMBIGA1UEBwwLU2FudGEgQ2xhcmExDTALBgNV
BAoMBHBrZzUxDDAKBgNVBAsMA3RhOTESMBAGA1UEAwwJbG9jYWxob3N0MRIwEAYJ
KoZIhvcNAQkBFgN0YTkwHhcNMjAxMTE3MjMwMTM0WhcNMjMwODE0MjMwMTM0WjCB
hTELMAkGA1UEBhMCVVMxEzARBgNVBAgMCkNhbGlmb3JuaWExFDASBgNVBAcMC1Nh
bnRhIENsYXJhMQ0wCwYDVQQKDARwa2c1MRAwDgYDVQQLDAdjczFfdGE5MRIwEAYD
VQQDDAlsb2NhbGhvc3QxFjAUBgkqhkiG9w0BCQEWB2NzMV90YTkwgZ8wDQYJKoZI
hvcNAQEBBQADgY0AMIGJAoGBAMupm2OUsikYS1mhEzKMttnLbmPGCIWJU36/J9Mq
khIZSFlzlpLvu82Pc2WRVvncAHtzOPshFAo4iyBWJdOaeSIwoNUmOe+MXgOSj0mE
OxtxWMC7kVpnqx5d3+W48igeXTAA/wA6gwrOdakGhhsMp/Ll47DdgXdF+Lyu/QSK
wVSVAgMBAAGjIDAeMAwGA1UdEwEB/wQCMAAwDgYDVR0PAQH/BAQDAgeAMA0GCSqG
SIb3DQEBCwUAA4IBAQAkef2ovt2Ku2K45kB00Dd8sN9DOovDxzFDFnh9jq6QIFyc
2LOa42mPUMgqCg+9yQG1TDk6/LKBLXQF4ZpgHWUu41TucWaAGhmS+RxSML4pYgYm
3YwlQwvlB5e9bk3vBa9FB+SqZMwylLyUJUlXdrEWgzpqJiWc4+NXgvz+1p9D5Os4
LPBZ4OVPAAWxblQNc2EqR9PV3g79raoZLUV4l2nA9Q6nf5k8bp5x2m9m8IbLBOHj
UoOB7UYnryanZt+04P/smHb7F3/jaog2dv2nww7vrwjn72OFXgHam1lIUv69BNlC
vUXHmVb6/mE0Z5iZgj6q454qmqu78ySCiRe6OqOl
-----END CERTIFICATE-----
