Certificate:
    Data:
        Version: 3 (0x2)
        Serial Number: 45 (0x2d)
    Signature Algorithm: sha256WithRSAEncryption
        Issuer: C=US, ST=California, L=Santa Clara, O=pkg5, OU=ta9, CN=localhost/emailAddress=ta9
        Validity
            Not Before: Nov 28 22:50:59 2016 GMT
            Not After : Aug 25 22:50:59 2019 GMT
        Subject: C=US, ST=California, L=Santa Clara, O=pkg5, OU=cs1_ta9, CN=localhost/emailAddress=cs1_ta9
        Subject Public Key Info:
            Public Key Algorithm: rsaEncryption
                Public-Key: (1024 bit)
                Modulus:
                    00:cc:98:45:f0:f2:5d:01:b1:87:92:45:b7:c4:4d:
                    05:54:17:30:13:f6:77:8a:0c:96:10:cd:15:fe:a1:
                    eb:ce:8f:1b:f6:5c:0d:75:1d:1c:dd:86:30:a0:c3:
                    b3:a2:45:5a:70:93:20:09:d3:40:69:ab:57:b7:0f:
                    a6:02:7e:c3:ed:8e:91:fa:55:f3:97:60:5d:dc:eb:
                    cb:27:51:86:27:82:8d:bb:3e:9c:e2:6f:28:17:13:
                    f7:a3:99:95:d4:23:36:11:a3:de:e6:ab:e5:6b:d0:
                    55:0a:85:92:c8:77:72:41:25:b7:c2:f9:52:27:33:
                    2b:f3:96:49:f4:22:97:52:e3
                Exponent: 65537 (0x10001)
        X509v3 extensions:
            X509v3 Basic Constraints: critical
                CA:FALSE
            X509v3 Key Usage: critical
                Digital Signature
    Signature Algorithm: sha256WithRSAEncryption
         b8:e3:61:47:7b:83:47:21:77:89:35:7e:56:c9:a8:1f:74:77:
         4e:d4:d8:e7:9d:76:f3:eb:b9:2e:bf:c0:0e:9d:b0:8e:e4:b9:
         51:e4:2e:7a:26:5f:d9:f2:b0:6f:c1:90:a3:27:6d:ad:3e:17:
         d8:20:68:3a:d9:a9:43:41:8e:8c:76:f2:63:86:43:4e:46:02:
         3f:27:8e:75:5b:02:40:18:03:56:e5:b4:fe:b8:19:ef:de:92:
         1f:88:4b:18:ab:2b:b2:ff:55:99:39:81:5e:4d:84:f3:28:23:
         17:55:cc:9e:ef:70:df:cc:0e:79:97:c7:15:18:8e:73:ae:8d:
         a1:68:c1:94:a7:3a:3d:99:c5:3e:71:c5:ac:95:75:c0:8d:ef:
         58:5f:2e:e3:7e:cd:dc:37:68:53:85:60:63:17:35:14:c7:b8:
         fd:bb:b4:8c:48:15:79:94:fd:d4:be:04:db:52:99:c9:35:69:
         22:45:8f:26:5f:34:bb:ec:a2:3b:d2:8d:bd:0d:a1:d0:bb:a9:
         af:04:c4:34:05:ea:65:f7:1e:5f:bf:bf:bb:43:c6:b4:e2:ad:
         67:e4:81:8f:4f:04:b3:44:30:88:cb:1f:23:4b:e2:ee:a4:77:
         27:2b:b7:30:86:b2:d3:dd:54:9f:91:c8:4f:a2:23:47:64:5b:
         d9:72:4d:65
-----BEGIN CERTIFICATE-----
MIIDGjCCAgKgAwIBAgIBLTANBgkqhkiG9w0BAQsFADB9MQswCQYDVQQGEwJVUzET
MBEGA1UECAwKQ2FsaWZvcm5pYTEUMBIGA1UEBwwLU2FudGEgQ2xhcmExDTALBgNV
BAoMBHBrZzUxDDAKBgNVBAsMA3RhOTESMBAGA1UEAwwJbG9jYWxob3N0MRIwEAYJ
KoZIhvcNAQkBFgN0YTkwHhcNMTYxMTI4MjI1MDU5WhcNMTkwODI1MjI1MDU5WjCB
hTELMAkGA1UEBhMCVVMxEzARBgNVBAgMCkNhbGlmb3JuaWExFDASBgNVBAcMC1Nh
bnRhIENsYXJhMQ0wCwYDVQQKDARwa2c1MRAwDgYDVQQLDAdjczFfdGE5MRIwEAYD
VQQDDAlsb2NhbGhvc3QxFjAUBgkqhkiG9w0BCQEWB2NzMV90YTkwgZ8wDQYJKoZI
hvcNAQEBBQADgY0AMIGJAoGBAMyYRfDyXQGxh5JFt8RNBVQXMBP2d4oMlhDNFf6h
686PG/ZcDXUdHN2GMKDDs6JFWnCTIAnTQGmrV7cPpgJ+w+2OkfpV85dgXdzryydR
hieCjbs+nOJvKBcT96OZldQjNhGj3uar5WvQVQqFksh3ckElt8L5UiczK/OWSfQi
l1LjAgMBAAGjIDAeMAwGA1UdEwEB/wQCMAAwDgYDVR0PAQH/BAQDAgeAMA0GCSqG
SIb3DQEBCwUAA4IBAQC442FHe4NHIXeJNX5WyagfdHdO1NjnnXbz67kuv8AOnbCO
5LlR5C56Jl/Z8rBvwZCjJ22tPhfYIGg62alDQY6MdvJjhkNORgI/J451WwJAGANW
5bT+uBnv3pIfiEsYqyuy/1WZOYFeTYTzKCMXVcye73DfzA55l8cVGI5zro2haMGU
pzo9mcU+ccWslXXAje9YXy7jfs3cN2hThWBjFzUUx7j9u7SMSBV5lP3UvgTbUpnJ
NWkiRY8mXzS77KI70o29DaHQu6mvBMQ0Bepl9x5fv7+7Q8a04q1n5IGPTwSzRDCI
yx8jS+LupHcnK7cwhrLT3VSfkchPoiNHZFvZck1l
-----END CERTIFICATE-----
