Certificate:
    Data:
        Version: 3 (0x2)
        Serial Number: 36 (0x24)
    Signature Algorithm: sha256WithRSAEncryption
        Issuer: C=US, ST=California, L=Santa Clara, O=pkg5, CN=ch1_ta4/emailAddress=ch1_ta4
        Validity
            Not Before: Nov 16 10:58:50 2017 GMT
            Not After : Aug 12 10:58:50 2020 GMT
        Subject: C=US, ST=California, L=Santa Clara, O=pkg5, CN=cs1_ch1_ta4/emailAddress=cs1_ch1_ta4
        Subject Public Key Info:
            Public Key Algorithm: rsaEncryption
                Public-Key: (1024 bit)
                Modulus:
                    00:b8:f3:bc:2a:97:c2:7d:75:f9:45:e4:c2:27:57:
                    a8:03:fc:83:00:9d:3e:26:08:b8:0a:cd:e3:ef:38:
                    4d:b8:96:66:b6:5d:9c:d2:cc:d7:20:bd:6d:86:14:
                    45:ac:a7:ea:19:46:ca:1a:fe:33:f7:8a:ef:68:a3:
                    90:33:7e:d0:b9:31:3c:ef:da:02:13:ca:10:0a:78:
                    83:51:d5:a8:cf:a9:1b:90:28:e5:83:5e:38:90:93:
                    64:14:18:d0:9b:1a:ef:c0:1e:61:e8:d9:6c:a5:b3:
                    1e:4f:8e:4b:79:2d:e5:a2:5f:dc:20:f1:ee:0a:1a:
                    da:8f:7d:a9:35:b7:06:46:ab
                Exponent: 65537 (0x10001)
        X509v3 extensions:
            X509v3 Basic Constraints: critical
                CA:FALSE
            X509v3 CRL Distribution Points: 

                Full Name:
                  URI:http://localhost:12001/file/0/ch1_ta4_crl.pem

    Signature Algorithm: sha256WithRSAEncryption
         be:66:8a:e7:39:fb:af:95:eb:b7:f6:0a:bb:30:2a:c9:19:ea:
         6d:a6:d1:b7:04:75:46:44:9c:94:8a:75:d1:5d:13:28:a6:37:
         9e:6d:43:af:66:6e:f1:96:d1:f7:1c:02:38:24:ca:d0:6b:59:
         b8:cb:30:06:8a:43:aa:45:5d:e4:60:f1:50:1c:21:8d:90:65:
         6d:67:30:ed:51:fb:94:11:b9:77:3e:01:31:5d:41:f5:1d:48:
         3b:69:74:c5:a7:61:2a:a5:32:29:79:fd:bc:b5:33:3a:6f:bb:
         2e:9e:40:ca:da:b4:87:24:c8:0d:7d:3a:11:77:ad:cb:fc:b6:
         01:43:5e:a4:1a:be:94:ab:20:aa:1a:a5:4d:35:cd:15:a1:d9:
         6c:73:f2:87:16:3a:7c:55:b8:16:ec:b0:9f:d2:15:c2:24:21:
         ac:d0:73:8c:45:35:44:44:62:e0:1d:07:7e:0c:80:e7:ce:24:
         8a:f0:4b:08:c4:7c:c8:43:7b:8c:d3:87:a5:37:bb:b9:50:2c:
         4a:54:56:14:ac:e7:e1:19:20:3b:ac:da:23:2d:26:b8:c5:14:
         52:9e:58:a0:48:c9:68:63:a3:97:67:cc:d5:e0:d0:a2:25:bd:
         d6:12:47:67:b4:3c:21:34:f0:11:f5:32:4a:2a:9e:b8:3c:95:
         cf:f7:86:d2
-----BEGIN CERTIFICATE-----
MIIDMTCCAhmgAwIBAgIBJDANBgkqhkiG9w0BAQsFADBxMQswCQYDVQQGEwJVUzET
MBEGA1UECAwKQ2FsaWZvcm5pYTEUMBIGA1UEBwwLU2FudGEgQ2xhcmExDTALBgNV
BAoMBHBrZzUxEDAOBgNVBAMMB2NoMV90YTQxFjAUBgkqhkiG9w0BCQEWB2NoMV90
YTQwHhcNMTcxMTE2MTA1ODUwWhcNMjAwODEyMTA1ODUwWjB5MQswCQYDVQQGEwJV
UzETMBEGA1UECAwKQ2FsaWZvcm5pYTEUMBIGA1UEBwwLU2FudGEgQ2xhcmExDTAL
BgNVBAoMBHBrZzUxFDASBgNVBAMMC2NzMV9jaDFfdGE0MRowGAYJKoZIhvcNAQkB
FgtjczFfY2gxX3RhNDCBnzANBgkqhkiG9w0BAQEFAAOBjQAwgYkCgYEAuPO8KpfC
fXX5ReTCJ1eoA/yDAJ0+Jgi4Cs3j7zhNuJZmtl2c0szXIL1thhRFrKfqGUbKGv4z
94rvaKOQM37QuTE879oCE8oQCniDUdWoz6kbkCjlg144kJNkFBjQmxrvwB5h6Nls
pbMeT45LeS3lol/cIPHuChraj32pNbcGRqsCAwEAAaNQME4wDAYDVR0TAQH/BAIw
ADA+BgNVHR8ENzA1MDOgMaAvhi1odHRwOi8vbG9jYWxob3N0OjEyMDAxL2ZpbGUv
MC9jaDFfdGE0X2NybC5wZW0wDQYJKoZIhvcNAQELBQADggEBAL5miuc5+6+V67f2
CrswKskZ6m2m0bcEdUZEnJSKddFdEyimN55tQ69mbvGW0fccAjgkytBrWbjLMAaK
Q6pFXeRg8VAcIY2QZW1nMO1R+5QRuXc+ATFdQfUdSDtpdMWnYSqlMil5/by1Mzpv
uy6eQMratIckyA19OhF3rcv8tgFDXqQavpSrIKoapU01zRWh2Wxz8ocWOnxVuBbs
sJ/SFcIkIazQc4xFNUREYuAdB34MgOfOJIrwSwjEfMhDe4zTh6U3u7lQLEpUVhSs
5+EZIDus2iMtJrjFFFKeWKBIyWhjo5dnzNXg0KIlvdYSR2e0PCE08BH1Mkoqnrg8
lc/3htI=
-----END CERTIFICATE-----
