Certificate:
    Data:
        Version: 3 (0x2)
        Serial Number: 40 (0x28)
        Signature Algorithm: sha256WithRSAEncryption
        Issuer: C=US, ST=California, L=Santa Clara, O=pkg5, CN=ch1.1_ta4/emailAddress=ch1.1_ta4
        Validity
            Not Before: Dec 15 15:37:30 2022 GMT
            Not After : Sep 10 15:37:30 2025 GMT
        Subject: C=US, ST=California, L=Santa Clara, O=pkg5, CN=cs1_ch1.1_ta4/emailAddress=cs1_ch1.1_ta4
        Subject Public Key Info:
            Public Key Algorithm: rsaEncryption
                Public-Key: (2048 bit)
                Modulus:
                    00:cb:f9:bf:c0:de:0b:23:a0:36:ba:32:77:a4:19:
                    c5:ab:59:4f:58:dc:82:50:35:95:01:92:52:3c:c2:
                    76:b3:e1:2e:06:8c:a4:78:c2:ad:3e:0e:a9:d5:83:
                    2f:dc:00:ea:e2:a1:9b:7e:1a:48:5c:49:ec:0a:16:
                    68:31:40:ae:01:b2:54:22:d2:ed:90:80:32:48:91:
                    38:3b:ee:c7:35:7c:a7:c3:10:ef:6c:ba:4f:9b:51:
                    8b:92:4e:c4:f6:9d:3c:40:c6:5f:ac:64:aa:c0:76:
                    2f:8e:1c:3e:17:17:af:26:3f:02:65:75:c3:dd:71:
                    02:df:55:99:0a:6f:e9:1c:a0:32:18:0f:22:95:7e:
                    9f:11:b3:34:4f:9f:15:09:b5:4b:6e:2a:c8:7a:74:
                    cc:16:20:10:90:dc:f1:a5:0b:1b:6a:85:21:2c:fa:
                    d1:b1:45:5e:c4:70:5e:67:a8:91:d2:9e:f0:55:49:
                    de:41:be:0b:ad:84:1c:43:87:98:c7:fd:11:29:73:
                    6a:0e:af:e3:19:4d:5a:84:7b:5c:04:de:b1:b3:0a:
                    8d:ea:3c:2a:7b:99:fc:79:6a:37:6d:5a:27:6a:03:
                    a6:e3:a6:07:0f:56:84:b4:0a:28:f5:60:cb:0f:e1:
                    6d:35:76:5d:09:03:53:b9:a1:27:53:31:d2:fe:b8:
                    e1:ed
                Exponent: 65537 (0x10001)
        X509v3 extensions:
            X509v3 Basic Constraints: critical
                CA:FALSE
            X509v3 CRL Distribution Points: 
                Full Name:
                  URI:http://localhost:12001/file/0/ch1.1_ta4_crl.pem
            X509v3 Subject Key Identifier: 
                64:62:60:EC:AA:B2:A5:04:E4:6C:1D:F6:E9:7E:17:9F:B4:60:95:D6
            X509v3 Authority Key Identifier: 
                C4:70:47:CE:4A:1D:A6:BF:EA:C4:07:6A:7A:C3:89:A4:F6:10:DD:23
    Signature Algorithm: sha256WithRSAEncryption
    Signature Value:
        55:bc:99:86:9f:b3:ab:c5:68:83:d9:f1:78:db:dc:05:ef:9a:
        c3:62:a8:a7:30:18:5d:38:d8:bb:cd:85:38:75:de:88:df:a5:
        9c:20:7c:70:9a:13:c6:21:9a:38:73:7a:dd:ed:ea:37:7f:7b:
        3c:c1:05:3d:b0:92:f2:dd:fe:70:f9:c3:e3:68:66:b7:a7:03:
        eb:02:f6:e5:f9:26:f4:26:53:b6:a6:6e:36:1b:70:0f:d7:13:
        80:7b:80:f8:4d:40:7e:fa:a3:84:46:be:14:31:97:1a:9d:90:
        d5:d2:b8:3b:0f:91:3a:59:83:61:29:99:68:70:cc:32:31:ab:
        92:5c:db:e5:a2:b4:f6:af:90:03:f2:8d:7e:e3:e9:09:89:aa:
        42:65:09:ed:e5:8f:b6:47:e0:69:9b:f8:14:c0:16:78:f2:f2:
        e3:29:30:10:0a:a7:62:f5:35:5d:24:4f:1a:42:41:0f:d6:da:
        80:f8:74:37:9c:8b:67:b3:eb:d5:d5:a3:49:23:de:0a:86:c8:
        bd:74:8a:b6:55:e0:68:1b:9f:9f:51:61:96:45:bd:8a:34:c6:
        b0:64:76:f8:c5:e5:8f:8e:21:b5:c4:34:a5:57:90:3f:6c:06:
        86:10:44:c7:0d:4d:8f:a9:40:5c:a2:74:83:0c:6f:63:4d:70:
        b6:e5:4a:d2
-----BEGIN CERTIFICATE-----
MIIEATCCAumgAwIBAgIBKDANBgkqhkiG9w0BAQsFADB1MQswCQYDVQQGEwJVUzET
MBEGA1UECAwKQ2FsaWZvcm5pYTEUMBIGA1UEBwwLU2FudGEgQ2xhcmExDTALBgNV
BAoMBHBrZzUxEjAQBgNVBAMMCWNoMS4xX3RhNDEYMBYGCSqGSIb3DQEJARYJY2gx
LjFfdGE0MB4XDTIyMTIxNTE1MzczMFoXDTI1MDkxMDE1MzczMFowfTELMAkGA1UE
BhMCVVMxEzARBgNVBAgMCkNhbGlmb3JuaWExFDASBgNVBAcMC1NhbnRhIENsYXJh
MQ0wCwYDVQQKDARwa2c1MRYwFAYDVQQDDA1jczFfY2gxLjFfdGE0MRwwGgYJKoZI
hvcNAQkBFg1jczFfY2gxLjFfdGE0MIIBIjANBgkqhkiG9w0BAQEFAAOCAQ8AMIIB
CgKCAQEAy/m/wN4LI6A2ujJ3pBnFq1lPWNyCUDWVAZJSPMJ2s+EuBoykeMKtPg6p
1YMv3ADq4qGbfhpIXEnsChZoMUCuAbJUItLtkIAySJE4O+7HNXynwxDvbLpPm1GL
kk7E9p08QMZfrGSqwHYvjhw+FxevJj8CZXXD3XEC31WZCm/pHKAyGA8ilX6fEbM0
T58VCbVLbirIenTMFiAQkNzxpQsbaoUhLPrRsUVexHBeZ6iR0p7wVUneQb4LrYQc
Q4eYx/0RKXNqDq/jGU1ahHtcBN6xswqN6jwqe5n8eWo3bVonagOm46YHD1aEtAoo
9WDLD+FtNXZdCQNTuaEnUzHS/rjh7QIDAQABo4GTMIGQMAwGA1UdEwEB/wQCMAAw
QAYDVR0fBDkwNzA1oDOgMYYvaHR0cDovL2xvY2FsaG9zdDoxMjAwMS9maWxlLzAv
Y2gxLjFfdGE0X2NybC5wZW0wHQYDVR0OBBYEFGRiYOyqsqUE5Gwd9ul+F5+0YJXW
MB8GA1UdIwQYMBaAFMRwR85KHaa/6sQHanrDiaT2EN0jMA0GCSqGSIb3DQEBCwUA
A4IBAQBVvJmGn7OrxWiD2fF429wF75rDYqinMBhdONi7zYU4dd6I36WcIHxwmhPG
IZo4c3rd7eo3f3s8wQU9sJLy3f5w+cPjaGa3pwPrAvbl+Sb0JlO2pm42G3AP1xOA
e4D4TUB++qOERr4UMZcanZDV0rg7D5E6WYNhKZlocMwyMauSXNvlorT2r5AD8o1+
4+kJiapCZQnt5Y+2R+Bpm/gUwBZ48vLjKTAQCqdi9TVdJE8aQkEP1tqA+HQ3nItn
s+vV1aNJI94Khsi9dIq2VeBoG5+fUWGWRb2KNMawZHb4xeWPjiG1xDSlV5A/bAaG
EETHDU2PqUBconSDDG9jTXC25UrS
-----END CERTIFICATE-----
