Certificate:
    Data:
        Version: 3 (0x2)
        Serial Number: 17 (0x11)
        Signature Algorithm: sha256WithRSAEncryption
        Issuer: C=US, ST=California, L=Santa Clara, O=pkg5, CN=ch1_ta3/emailAddress=ch1_ta3
        Validity
            Not Before: Nov 17 23:01:30 2020 GMT
            Not After : Aug 14 23:01:30 2023 GMT
        Subject: C=US, ST=California, L=Santa Clara, O=pkg5, CN=cs1_ch1_ta3/emailAddress=cs1_ch1_ta3
        Subject Public Key Info:
            Public Key Algorithm: rsaEncryption
                RSA Public-Key: (1024 bit)
                Modulus:
                    00:e4:49:b9:c6:01:69:81:90:63:fa:8b:c2:fc:d7:
                    f3:67:af:e6:7d:2a:35:48:f2:c4:67:ba:9f:a4:5f:
                    1b:b3:ef:66:8d:c3:b3:05:c8:48:f3:50:ec:ff:ac:
                    f9:3c:ad:61:2f:f8:e8:60:59:47:98:fb:69:70:d9:
                    1f:71:ca:f3:4c:04:c6:8c:8f:15:9d:82:da:4d:d8:
                    f1:5f:df:02:3f:ee:ec:d7:11:94:40:4a:3e:df:bd:
                    36:60:32:58:1a:66:ef:1f:bf:71:3f:b4:52:c6:f9:
                    bf:e8:b5:a4:94:06:e7:6c:d5:66:7c:00:47:65:ac:
                    f2:e4:10:43:32:37:bc:13:ed
                Exponent: 65537 (0x10001)
        X509v3 extensions:
            X509v3 Basic Constraints: critical
                CA:FALSE
            X509v3 Key Usage: critical
                Digital Signature
    Signature Algorithm: sha256WithRSAEncryption
         5e:50:c4:a3:4b:d9:5e:5a:0b:ba:bd:ba:74:ae:36:39:e4:f0:
         31:9d:3d:90:64:ef:a4:2b:b4:b5:fe:e9:2c:e0:cd:d3:3c:4e:
         67:38:a2:96:32:1f:40:bf:cd:77:16:04:a3:f4:89:a6:ec:28:
         b4:a7:80:72:53:e1:38:77:ad:00:53:b5:91:0f:68:26:7b:7a:
         3b:87:23:b3:e2:38:98:55:4e:89:6a:9f:c6:1e:5f:4a:f1:c2:
         4e:9e:d6:7d:6b:4e:b1:ac:6d:cf:6d:cc:dd:5f:9a:b4:ab:01:
         b6:f7:26:8b:e9:29:55:08:c6:fe:77:3c:8a:8a:30:53:ba:37:
         09:cb:58:bb:24:44:46:3d:08:1e:02:57:55:83:29:8d:a7:d3:
         e4:8e:de:35:c1:20:6c:b7:7c:30:a0:3e:71:da:17:b8:75:96:
         90:92:c3:6f:c7:3a:67:0e:93:0b:25:19:32:16:02:0f:7d:e0:
         65:8d:8a:65:b7:3b:57:1d:82:7f:bc:aa:d0:9e:48:c5:be:2a:
         21:bd:51:85:d4:6c:46:a8:9c:87:9e:42:41:41:b2:48:fa:41:
         58:6e:79:72:37:ef:58:2e:52:72:cc:c0:0e:1a:c5:47:01:8a:
         fb:b6:eb:3d:47:63:26:f8:2c:1e:03:d9:46:13:26:13:2d:45:
         47:b4:1d:71
-----BEGIN CERTIFICATE-----
MIIDATCCAemgAwIBAgIBETANBgkqhkiG9w0BAQsFADBxMQswCQYDVQQGEwJVUzET
MBEGA1UECAwKQ2FsaWZvcm5pYTEUMBIGA1UEBwwLU2FudGEgQ2xhcmExDTALBgNV
BAoMBHBrZzUxEDAOBgNVBAMMB2NoMV90YTMxFjAUBgkqhkiG9w0BCQEWB2NoMV90
YTMwHhcNMjAxMTE3MjMwMTMwWhcNMjMwODE0MjMwMTMwWjB5MQswCQYDVQQGEwJV
UzETMBEGA1UECAwKQ2FsaWZvcm5pYTEUMBIGA1UEBwwLU2FudGEgQ2xhcmExDTAL
BgNVBAoMBHBrZzUxFDASBgNVBAMMC2NzMV9jaDFfdGEzMRowGAYJKoZIhvcNAQkB
FgtjczFfY2gxX3RhMzCBnzANBgkqhkiG9w0BAQEFAAOBjQAwgYkCgYEA5Em5xgFp
gZBj+ovC/NfzZ6/mfSo1SPLEZ7qfpF8bs+9mjcOzBchI81Ds/6z5PK1hL/joYFlH
mPtpcNkfccrzTATGjI8VnYLaTdjxX98CP+7s1xGUQEo+3702YDJYGmbvH79xP7RS
xvm/6LWklAbnbNVmfABHZazy5BBDMje8E+0CAwEAAaMgMB4wDAYDVR0TAQH/BAIw
ADAOBgNVHQ8BAf8EBAMCB4AwDQYJKoZIhvcNAQELBQADggEBAF5QxKNL2V5aC7q9
unSuNjnk8DGdPZBk76QrtLX+6SzgzdM8Tmc4opYyH0C/zXcWBKP0iabsKLSngHJT
4Th3rQBTtZEPaCZ7ejuHI7PiOJhVTolqn8YeX0rxwk6e1n1rTrGsbc9tzN1fmrSr
Abb3JovpKVUIxv53PIqKMFO6NwnLWLskREY9CB4CV1WDKY2n0+SO3jXBIGy3fDCg
PnHaF7h1lpCSw2/HOmcOkwslGTIWAg994GWNimW3O1cdgn+8qtCeSMW+KiG9UYXU
bEaonIeeQkFBskj6QVhueXI371guUnLMwA4axUcBivu26z1HYyb4LB4D2UYTJhMt
RUe0HXE=
-----END CERTIFICATE-----
