Certificate:
    Data:
        Version: 3 (0x2)
        Serial Number: 27 (0x1b)
    Signature Algorithm: sha256WithRSAEncryption
        Issuer: C=US, ST=California, L=Santa Clara, O=pkg5, CN=ch1.1_ta3/emailAddress=ch1.1_ta3
        Validity
            Not Before: Nov 28 22:50:56 2016 GMT
            Not After : Aug 25 22:50:56 2019 GMT
        Subject: C=US, ST=California, L=Santa Clara, O=pkg5, CN=cs1_ch1.1_ta3/emailAddress=cs1_ch1.1_ta3
        Subject Public Key Info:
            Public Key Algorithm: rsaEncryption
                Public-Key: (1024 bit)
                Modulus:
                    00:d8:7f:7d:14:7f:b2:03:d5:28:e3:ab:f4:78:f7:
                    61:6d:8d:92:19:92:92:e4:08:43:52:d8:c3:18:0f:
                    0f:32:13:cb:fc:41:37:8d:f5:b5:be:83:0d:20:7e:
                    d8:e7:f7:cf:6b:1a:35:e9:25:e6:a7:f9:13:09:62:
                    f4:3e:b8:71:fb:37:66:e6:8f:bd:79:b8:a2:27:09:
                    96:f1:ce:c4:da:3f:2a:e6:61:56:9a:8e:e7:f9:ea:
                    19:7d:f8:93:03:0a:56:11:e8:55:d1:ec:66:c4:9e:
                    64:d6:4a:ea:b6:44:40:c6:4f:e1:eb:95:0e:44:30:
                    b2:eb:15:13:c7:ae:cd:a2:29
                Exponent: 65537 (0x10001)
        X509v3 extensions:
            X509v3 Basic Constraints: critical
                CA:FALSE
            X509v3 Key Usage: critical
                Digital Signature
    Signature Algorithm: sha256WithRSAEncryption
         74:89:35:19:9a:80:eb:74:f3:b1:e2:10:c4:cf:70:21:9c:24:
         0f:4b:34:82:f5:0e:12:59:fa:d7:79:bf:63:a3:ae:66:50:9a:
         94:dd:5b:26:85:e0:68:1f:5b:f6:02:87:40:70:7a:9d:52:33:
         74:62:b4:1a:cd:62:23:5a:71:06:c2:b0:21:71:2a:a7:6b:fa:
         15:62:67:f5:26:4b:7d:22:c8:e1:9e:b9:41:17:a1:d7:8e:12:
         48:27:f7:71:a7:a9:85:71:66:f5:e0:e1:c3:06:c2:ac:27:b4:
         82:d6:1b:58:12:27:e8:01:73:9f:2a:6a:db:99:71:ae:31:5b:
         c8:af:fd:41:b5:87:7b:43:89:37:9c:b7:a3:00:e8:d7:6c:cb:
         58:8b:fa:1d:df:d5:0a:8c:15:e1:71:5c:58:a1:52:5d:e4:05:
         35:77:a4:95:09:75:e9:41:ef:9e:52:5f:db:9d:44:f4:42:b6:
         bf:55:fe:da:cc:f2:2f:56:c3:bd:9d:89:4b:7f:47:b7:b0:70:
         fc:f5:dc:19:c6:bb:5c:60:23:50:0c:35:2e:23:78:08:da:6d:
         e8:bd:a9:eb:7e:8f:8c:bc:ec:4a:69:c2:48:6d:90:dd:fb:6d:
         33:0e:cc:1e:ea:c9:81:2a:c8:9a:39:6c:6e:0c:cb:58:8a:e7:
         2f:9f:3c:c0
-----BEGIN CERTIFICATE-----
MIIDCTCCAfGgAwIBAgIBGzANBgkqhkiG9w0BAQsFADB1MQswCQYDVQQGEwJVUzET
MBEGA1UECAwKQ2FsaWZvcm5pYTEUMBIGA1UEBwwLU2FudGEgQ2xhcmExDTALBgNV
BAoMBHBrZzUxEjAQBgNVBAMMCWNoMS4xX3RhMzEYMBYGCSqGSIb3DQEJARYJY2gx
LjFfdGEzMB4XDTE2MTEyODIyNTA1NloXDTE5MDgyNTIyNTA1NlowfTELMAkGA1UE
BhMCVVMxEzARBgNVBAgMCkNhbGlmb3JuaWExFDASBgNVBAcMC1NhbnRhIENsYXJh
MQ0wCwYDVQQKDARwa2c1MRYwFAYDVQQDDA1jczFfY2gxLjFfdGEzMRwwGgYJKoZI
hvcNAQkBFg1jczFfY2gxLjFfdGEzMIGfMA0GCSqGSIb3DQEBAQUAA4GNADCBiQKB
gQDYf30Uf7ID1Sjjq/R492FtjZIZkpLkCENS2MMYDw8yE8v8QTeN9bW+gw0gftjn
989rGjXpJean+RMJYvQ+uHH7N2bmj715uKInCZbxzsTaPyrmYVaajuf56hl9+JMD
ClYR6FXR7GbEnmTWSuq2REDGT+HrlQ5EMLLrFRPHrs2iKQIDAQABoyAwHjAMBgNV
HRMBAf8EAjAAMA4GA1UdDwEB/wQEAwIHgDANBgkqhkiG9w0BAQsFAAOCAQEAdIk1
GZqA63TzseIQxM9wIZwkD0s0gvUOEln613m/Y6OuZlCalN1bJoXgaB9b9gKHQHB6
nVIzdGK0Gs1iI1pxBsKwIXEqp2v6FWJn9SZLfSLI4Z65QReh144SSCf3caephXFm
9eDhwwbCrCe0gtYbWBIn6AFznypq25lxrjFbyK/9QbWHe0OJN5y3owDo12zLWIv6
Hd/VCowV4XFcWKFSXeQFNXeklQl16UHvnlJf251E9EK2v1X+2szyL1bDvZ2JS39H
t7Bw/PXcGca7XGAjUAw1LiN4CNpt6L2p636PjLzsSmnCSG2Q3fttMw7MHurJgSrI
mjlsbgzLWIrnL588wA==
-----END CERTIFICATE-----
