Certificate:
    Data:
        Version: 3 (0x2)
        Serial Number: 43 (0x2b)
    Signature Algorithm: sha256WithRSAEncryption
        Issuer: C=US, ST=California, L=Santa Clara, O=pkg5, OU=ta6, CN=localhost/emailAddress=ta6
        Validity
            Not Before: Mar 20 10:20:56 2018 GMT
            Not After : Dec 14 10:20:56 2020 GMT
        Subject: C=US, ST=California, L=Santa Clara, O=pkg5, OU=cs1_ta6, CN=localhost/emailAddress=cs1_ta6
        Subject Public Key Info:
            Public Key Algorithm: rsaEncryption
                Public-Key: (1024 bit)
                Modulus:
                    00:9b:d2:16:7e:9a:6f:71:7d:db:2e:1b:f1:37:71:
                    d1:ae:77:dc:df:dc:30:3d:e4:d5:d5:75:df:e9:92:
                    2b:31:ab:ee:77:bd:c3:0b:b0:71:f7:92:ce:63:28:
                    0e:1d:05:1a:78:84:2e:57:e7:42:fc:9c:9e:a5:fc:
                    47:d9:f0:e7:d9:79:53:e2:a5:74:16:47:7f:5d:00:
                    64:2f:39:4a:98:27:48:c8:3e:19:dc:1b:7b:00:1c:
                    28:2a:2e:bb:68:d0:77:50:7b:18:6d:75:de:1d:b5:
                    09:04:a6:17:23:a1:08:be:96:11:f8:5d:10:e8:a2:
                    14:bb:38:65:4f:fe:4b:9c:e5
                Exponent: 65537 (0x10001)
        X509v3 extensions:
            X509v3 Basic Constraints: critical
                CA:FALSE
            X509v3 Key Usage: critical
                Digital Signature
    Signature Algorithm: sha256WithRSAEncryption
         35:4b:3a:d2:cc:a1:d2:01:95:8a:f0:88:b0:60:01:66:3a:b5:
         a7:41:46:ab:b8:e4:c8:9b:6a:ca:ce:13:91:09:67:f9:4b:9d:
         73:3e:d8:2d:62:ff:ac:21:b9:65:1d:e2:58:8a:b8:e2:10:e4:
         86:ef:86:46:6d:b7:02:1d:b3:de:da:63:6d:2a:89:0a:08:b1:
         36:6a:c2:82:e8:ea:6a:13:90:a2:2d:e3:9f:25:3e:96:84:9b:
         c8:1e:b3:17:34:c7:73:f7:78:93:3d:16:c6:02:81:2d:3c:30:
         c4:6b:2b:87:f5:58:41:23:ef:b8:86:85:32:f6:e6:bb:f5:6b:
         94:c8:f9:63:16:70:58:ef:74:f4:5e:0e:37:fd:2e:b4:c3:ba:
         dd:94:ec:22:4f:65:84:d1:d7:57:8d:b6:96:43:90:ea:85:18:
         a2:f4:2a:4f:fd:99:ce:a5:f4:f3:99:ee:d1:9b:8c:e1:76:24:
         ae:84:87:6c:b2:4d:97:aa:d6:d1:d6:61:b3:44:94:bc:08:5f:
         6a:9a:9f:e3:44:4a:ab:ab:4d:16:cd:5b:6b:53:7f:36:ef:e2:
         f4:76:7b:7d:b8:59:aa:ee:61:42:e5:2d:4a:10:34:fe:4c:47:
         af:ab:93:e5:f3:a2:9d:1e:87:d8:ae:6a:4f:65:0e:39:92:5e:
         e5:95:1e:f1
-----BEGIN CERTIFICATE-----
MIIDGjCCAgKgAwIBAgIBKzANBgkqhkiG9w0BAQsFADB9MQswCQYDVQQGEwJVUzET
MBEGA1UECAwKQ2FsaWZvcm5pYTEUMBIGA1UEBwwLU2FudGEgQ2xhcmExDTALBgNV
BAoMBHBrZzUxDDAKBgNVBAsMA3RhNjESMBAGA1UEAwwJbG9jYWxob3N0MRIwEAYJ
KoZIhvcNAQkBFgN0YTYwHhcNMTgwMzIwMTAyMDU2WhcNMjAxMjE0MTAyMDU2WjCB
hTELMAkGA1UEBhMCVVMxEzARBgNVBAgMCkNhbGlmb3JuaWExFDASBgNVBAcMC1Nh
bnRhIENsYXJhMQ0wCwYDVQQKDARwa2c1MRAwDgYDVQQLDAdjczFfdGE2MRIwEAYD
VQQDDAlsb2NhbGhvc3QxFjAUBgkqhkiG9w0BCQEWB2NzMV90YTYwgZ8wDQYJKoZI
hvcNAQEBBQADgY0AMIGJAoGBAJvSFn6ab3F92y4b8Tdx0a533N/cMD3k1dV13+mS
KzGr7ne9wwuwcfeSzmMoDh0FGniELlfnQvycnqX8R9nw59l5U+KldBZHf10AZC85
SpgnSMg+GdwbewAcKCouu2jQd1B7GG113h21CQSmFyOhCL6WEfhdEOiiFLs4ZU/+
S5zlAgMBAAGjIDAeMAwGA1UdEwEB/wQCMAAwDgYDVR0PAQH/BAQDAgeAMA0GCSqG
SIb3DQEBCwUAA4IBAQA1SzrSzKHSAZWK8IiwYAFmOrWnQUaruOTIm2rKzhORCWf5
S51zPtgtYv+sIbllHeJYirjiEOSG74ZGbbcCHbPe2mNtKokKCLE2asKC6OpqE5Ci
LeOfJT6WhJvIHrMXNMdz93iTPRbGAoEtPDDEayuH9VhBI++4hoUy9ua79WuUyPlj
FnBY73T0Xg43/S60w7rdlOwiT2WE0ddXjbaWQ5DqhRii9CpP/ZnOpfTzme7Rm4zh
diSuhIdssk2XqtbR1mGzRJS8CF9qmp/jREqrq00WzVtrU3827+L0dnt9uFmq7mFC
5S1KEDT+TEevq5Pl86KdHofYrmpPZQ45kl7llR7x
-----END CERTIFICATE-----
