Certificate:
    Data:
        Version: 3 (0x2)
        Serial Number: 14 (0xe)
    Signature Algorithm: sha256WithRSAEncryption
        Issuer: C=US, ST=California, L=Santa Clara, O=pkg5, CN=ch5.3_ta1/emailAddress=ch5.3_ta1
        Validity
            Not Before: Mar 20 10:20:53 2018 GMT
            Not After : Dec 14 10:20:53 2020 GMT
        Subject: C=US, ST=California, L=Santa Clara, O=pkg5, CN=cs1_ch5.3_ta1/emailAddress=cs1_ch5.3_ta1
        Subject Public Key Info:
            Public Key Algorithm: rsaEncryption
                Public-Key: (1024 bit)
                Modulus:
                    00:f0:45:73:d0:e5:75:09:47:9b:7a:67:ae:ac:29:
                    3e:b3:6a:18:52:be:a3:bd:26:41:6b:f0:52:f3:14:
                    aa:6a:ca:b9:a5:04:55:8f:d8:dd:bd:90:3b:a6:45:
                    8e:cd:5e:5f:28:be:ae:cd:a6:e4:75:cd:71:55:c0:
                    57:93:7c:57:3c:f9:8d:8a:1f:7d:a5:38:b3:6a:22:
                    0c:bc:31:55:ec:9c:46:69:8d:69:d8:6a:b6:6c:c1:
                    62:f0:b9:f0:a2:43:cb:a9:a7:84:d9:ac:7d:7b:a7:
                    7a:e4:f1:06:89:20:79:a1:9b:7c:a2:81:b0:f2:3a:
                    4b:ce:85:15:30:a6:6b:3a:43
                Exponent: 65537 (0x10001)
        X509v3 extensions:
            X509v3 Basic Constraints: critical
                CA:FALSE
            X509v3 Key Usage: critical
                Digital Signature
    Signature Algorithm: sha256WithRSAEncryption
         06:af:04:e9:0d:ea:2e:95:73:e1:11:25:56:87:53:4f:ca:f0:
         a2:53:0f:14:5f:3b:30:8a:ff:51:f7:02:33:2e:37:2a:39:ac:
         1b:d6:30:1d:20:96:e9:3e:b9:9d:78:f6:ef:50:b1:6f:4a:ae:
         2f:b8:83:53:c5:76:a6:f5:19:79:f8:75:93:12:9a:b0:2a:e8:
         31:d4:b2:a6:55:4c:47:e9:95:20:11:34:30:eb:16:cb:44:c3:
         39:90:15:1a:fb:89:d8:02:42:3b:da:c1:c5:d9:fe:a8:04:f3:
         85:d7:68:49:a8:27:99:b0:e1:7c:96:35:e0:ab:ec:83:2a:ec:
         1e:79:82:56:28:3f:59:84:68:08:43:47:05:0e:7a:b2:b1:ba:
         eb:4b:f8:82:bc:1a:b6:72:5e:b0:9a:6c:ff:fe:8d:97:ef:b8:
         c3:90:c0:76:99:6c:be:d0:a8:9a:d5:b8:7f:39:99:cd:86:66:
         b0:ec:87:5d:90:84:54:0c:3f:eb:4b:f7:11:6b:6f:d3:48:43:
         f1:fe:b1:82:9f:a0:d9:c2:0a:0d:f0:83:fa:07:69:a7:c3:9a:
         82:b9:48:3a:cb:be:12:5c:58:5e:22:34:74:1e:30:ea:6c:dc:
         1c:ae:fd:d1:5b:84:64:c7:4e:85:9b:92:c6:83:70:11:3c:ce:
         30:79:4e:69
-----BEGIN CERTIFICATE-----
MIIDCTCCAfGgAwIBAgIBDjANBgkqhkiG9w0BAQsFADB1MQswCQYDVQQGEwJVUzET
MBEGA1UECAwKQ2FsaWZvcm5pYTEUMBIGA1UEBwwLU2FudGEgQ2xhcmExDTALBgNV
BAoMBHBrZzUxEjAQBgNVBAMMCWNoNS4zX3RhMTEYMBYGCSqGSIb3DQEJARYJY2g1
LjNfdGExMB4XDTE4MDMyMDEwMjA1M1oXDTIwMTIxNDEwMjA1M1owfTELMAkGA1UE
BhMCVVMxEzARBgNVBAgMCkNhbGlmb3JuaWExFDASBgNVBAcMC1NhbnRhIENsYXJh
MQ0wCwYDVQQKDARwa2c1MRYwFAYDVQQDDA1jczFfY2g1LjNfdGExMRwwGgYJKoZI
hvcNAQkBFg1jczFfY2g1LjNfdGExMIGfMA0GCSqGSIb3DQEBAQUAA4GNADCBiQKB
gQDwRXPQ5XUJR5t6Z66sKT6zahhSvqO9JkFr8FLzFKpqyrmlBFWP2N29kDumRY7N
Xl8ovq7NpuR1zXFVwFeTfFc8+Y2KH32lOLNqIgy8MVXsnEZpjWnYarZswWLwufCi
Q8upp4TZrH17p3rk8QaJIHmhm3yigbDyOkvOhRUwpms6QwIDAQABoyAwHjAMBgNV
HRMBAf8EAjAAMA4GA1UdDwEB/wQEAwIHgDANBgkqhkiG9w0BAQsFAAOCAQEABq8E
6Q3qLpVz4RElVodTT8rwolMPFF87MIr/UfcCMy43KjmsG9YwHSCW6T65nXj271Cx
b0quL7iDU8V2pvUZefh1kxKasCroMdSyplVMR+mVIBE0MOsWy0TDOZAVGvuJ2AJC
O9rBxdn+qATzhddoSagnmbDhfJY14KvsgyrsHnmCVig/WYRoCENHBQ56srG660v4
grwatnJesJps//6Nl++4w5DAdplsvtComtW4fzmZzYZmsOyHXZCEVAw/60v3EWtv
00hD8f6xgp+g2cIKDfCD+gdpp8OagrlIOsu+ElxYXiI0dB4w6mzcHK790VuEZMdO
hZuSxoNwETzOMHlOaQ==
-----END CERTIFICATE-----
