Certificate:
    Data:
        Version: 3 (0x2)
        Serial Number: 9 (0x9)
    Signature Algorithm: sha256WithRSAEncryption
        Issuer: C=US, ST=California, L=Santa Clara, O=pkg5, CN=ch5.1_ta1/emailAddress=ch5.1_ta1
        Validity
            Not Before: Mar 20 10:20:52 2018 GMT
            Not After : Dec 14 10:20:52 2020 GMT
        Subject: C=US, ST=California, L=Santa Clara, O=pkg5, CN=cs1_ch5.1_ta1/emailAddress=cs1_ch5.1_ta1
        Subject Public Key Info:
            Public Key Algorithm: rsaEncryption
                Public-Key: (1024 bit)
                Modulus:
                    00:a2:c0:79:ad:45:ac:74:b4:bf:85:42:44:18:4c:
                    ff:46:db:1b:16:df:41:49:3f:39:2d:09:99:7c:f4:
                    b3:15:e6:8f:27:c0:17:1e:5f:a5:2e:1f:a7:c1:df:
                    0a:6c:08:1a:c9:17:15:27:99:16:75:71:15:11:48:
                    3d:17:fe:ee:98:a6:bc:45:98:01:87:ab:7b:db:14:
                    b4:24:ca:b8:77:f3:ec:64:61:37:70:67:5a:d3:36:
                    44:6a:ab:7a:0e:1f:d5:d8:10:3d:37:b6:59:de:99:
                    ca:dc:70:21:fc:f6:35:25:58:a8:fb:e9:75:56:bb:
                    cf:41:7f:1a:41:81:26:52:63
                Exponent: 65537 (0x10001)
        X509v3 extensions:
            X509v3 Basic Constraints: critical
                CA:FALSE
            X509v3 Key Usage: critical
                Digital Signature
    Signature Algorithm: sha256WithRSAEncryption
         3d:5e:bd:47:ac:0e:1f:80:a9:03:65:e4:a7:16:a7:a1:a6:f1:
         69:b2:fd:0f:a1:26:19:07:30:fa:c4:2c:5a:7a:d3:b0:7e:c0:
         50:7f:ff:fe:04:e7:ff:b4:15:75:60:2d:58:f2:37:0e:43:9c:
         ce:80:53:b1:e8:44:dd:6d:c7:d6:e7:d2:68:5b:09:74:57:f2:
         1e:c7:ac:93:5d:31:5b:51:1b:07:97:e8:89:d3:c3:25:e4:e9:
         70:3b:1a:06:34:a0:0c:35:f5:e6:7b:5e:65:05:c2:46:67:34:
         48:79:e6:80:2a:0e:ba:64:e9:d8:b3:f7:78:64:c5:94:4d:dd:
         ef:d7:80:1c:c6:4e:38:3e:83:aa:cb:97:ad:ad:da:e9:b4:15:
         fd:5a:e6:0f:cd:77:b7:6b:87:e1:21:32:39:ae:c0:a8:db:f4:
         3c:bb:34:24:c6:17:1d:85:50:19:77:ab:40:60:03:d8:6b:08:
         61:a2:70:01:11:4a:c8:b8:0d:f1:cf:49:5e:44:a8:63:14:dc:
         2f:35:93:44:a6:25:52:95:54:a9:9c:0b:7f:8b:70:8d:24:22:
         2b:d2:60:dc:52:1c:89:e8:e9:9e:a0:c5:74:61:01:af:6e:b1:
         0f:81:19:53:30:d0:63:38:9b:7f:a2:08:92:b8:dd:b9:01:83:
         8d:ea:c8:55
-----BEGIN CERTIFICATE-----
MIIDCTCCAfGgAwIBAgIBCTANBgkqhkiG9w0BAQsFADB1MQswCQYDVQQGEwJVUzET
MBEGA1UECAwKQ2FsaWZvcm5pYTEUMBIGA1UEBwwLU2FudGEgQ2xhcmExDTALBgNV
BAoMBHBrZzUxEjAQBgNVBAMMCWNoNS4xX3RhMTEYMBYGCSqGSIb3DQEJARYJY2g1
LjFfdGExMB4XDTE4MDMyMDEwMjA1MloXDTIwMTIxNDEwMjA1MlowfTELMAkGA1UE
BhMCVVMxEzARBgNVBAgMCkNhbGlmb3JuaWExFDASBgNVBAcMC1NhbnRhIENsYXJh
MQ0wCwYDVQQKDARwa2c1MRYwFAYDVQQDDA1jczFfY2g1LjFfdGExMRwwGgYJKoZI
hvcNAQkBFg1jczFfY2g1LjFfdGExMIGfMA0GCSqGSIb3DQEBAQUAA4GNADCBiQKB
gQCiwHmtRax0tL+FQkQYTP9G2xsW30FJPzktCZl89LMV5o8nwBceX6UuH6fB3wps
CBrJFxUnmRZ1cRURSD0X/u6YprxFmAGHq3vbFLQkyrh38+xkYTdwZ1rTNkRqq3oO
H9XYED03tlnemcrccCH89jUlWKj76XVWu89BfxpBgSZSYwIDAQABoyAwHjAMBgNV
HRMBAf8EAjAAMA4GA1UdDwEB/wQEAwIHgDANBgkqhkiG9w0BAQsFAAOCAQEAPV69
R6wOH4CpA2XkpxanoabxabL9D6EmGQcw+sQsWnrTsH7AUH///gTn/7QVdWAtWPI3
DkOczoBTsehE3W3H1ufSaFsJdFfyHsesk10xW1EbB5foidPDJeTpcDsaBjSgDDX1
5nteZQXCRmc0SHnmgCoOumTp2LP3eGTFlE3d79eAHMZOOD6DqsuXra3a6bQV/Vrm
D813t2uH4SEyOa7AqNv0PLs0JMYXHYVQGXerQGAD2GsIYaJwARFKyLgN8c9JXkSo
YxTcLzWTRKYlUpVUqZwLf4twjSQiK9Jg3FIciejpnqDFdGEBr26xD4EZUzDQYzib
f6IIkrjduQGDjerIVQ==
-----END CERTIFICATE-----
