Certificate:
    Data:
        Version: 3 (0x2)
        Serial Number: 17 (0x11)
    Signature Algorithm: sha256WithRSAEncryption
        Issuer: C=US, ST=California, L=Santa Clara, O=pkg5, CN=ch1_ta3/emailAddress=ch1_ta3
        Validity
            Not Before: Nov 28 22:50:56 2016 GMT
            Not After : Aug 25 22:50:56 2019 GMT
        Subject: C=US, ST=California, L=Santa Clara, O=pkg5, CN=cs1_ch1_ta3/emailAddress=cs1_ch1_ta3
        Subject Public Key Info:
            Public Key Algorithm: rsaEncryption
                Public-Key: (1024 bit)
                Modulus:
                    00:cc:61:82:9c:bc:46:af:6c:c0:1b:19:68:4d:5e:
                    46:1d:74:02:eb:d1:66:6b:7d:df:9a:62:f5:db:da:
                    92:a3:6e:f3:f6:f8:67:4a:e2:b1:15:a8:22:c4:f0:
                    7b:31:3d:bd:4b:01:72:fe:e0:7b:37:5e:2a:29:7d:
                    6b:d0:2c:74:f6:06:b1:87:cf:55:b3:00:8a:fc:7e:
                    e8:43:12:f7:a2:47:31:dd:00:a2:1d:ef:6f:04:83:
                    20:80:8f:fa:31:86:18:dc:ba:6e:ab:9e:5c:59:97:
                    2c:ef:ba:2e:f3:e0:1d:5d:ef:57:02:95:1f:b5:33:
                    76:f6:5e:c5:58:03:c5:c3:07
                Exponent: 65537 (0x10001)
        X509v3 extensions:
            X509v3 Basic Constraints: critical
                CA:FALSE
            X509v3 Key Usage: critical
                Digital Signature
    Signature Algorithm: sha256WithRSAEncryption
         c5:6e:ff:4e:cf:74:0e:a7:a2:08:16:27:55:fd:80:a8:a3:c0:
         2b:c4:73:71:1b:20:5a:c2:2a:dd:bd:a8:c1:cd:db:94:27:3f:
         0e:4a:cf:be:da:c4:16:63:d3:40:7e:56:fe:1f:e5:22:e5:a6:
         80:63:24:93:e2:05:c8:31:85:40:db:0d:58:5f:bb:26:70:f5:
         84:32:96:55:9f:54:ae:9d:d5:f3:68:c8:07:13:96:17:6e:20:
         60:dc:ec:66:43:6c:48:05:2a:4f:06:0f:72:d2:3c:2c:71:8c:
         6e:e9:e8:7a:0e:1b:5d:b3:49:2f:f8:18:c1:93:5d:5e:ae:b0:
         6a:21:82:4a:78:eb:b9:78:2e:07:26:0e:05:12:38:ab:b6:66:
         b2:5e:1a:d8:e5:19:08:ae:7c:35:93:bb:c7:6b:4a:8b:8f:17:
         96:db:de:1f:5a:bc:fa:6b:0c:f2:23:95:1d:58:d8:25:e9:b3:
         aa:75:50:f0:26:00:85:c3:39:9c:61:a3:7e:c9:36:aa:f8:f7:
         34:f2:7f:fe:2e:dc:21:7e:20:cf:69:ff:9e:ec:a2:ef:99:38:
         e5:37:c7:14:3a:e7:4b:d1:9e:7c:d5:66:98:66:c7:af:d0:71:
         1e:19:98:78:3b:77:5f:a4:8c:45:72:b2:6e:72:a2:9c:34:ee:
         d3:a9:6a:e3
-----BEGIN CERTIFICATE-----
MIIDATCCAemgAwIBAgIBETANBgkqhkiG9w0BAQsFADBxMQswCQYDVQQGEwJVUzET
MBEGA1UECAwKQ2FsaWZvcm5pYTEUMBIGA1UEBwwLU2FudGEgQ2xhcmExDTALBgNV
BAoMBHBrZzUxEDAOBgNVBAMMB2NoMV90YTMxFjAUBgkqhkiG9w0BCQEWB2NoMV90
YTMwHhcNMTYxMTI4MjI1MDU2WhcNMTkwODI1MjI1MDU2WjB5MQswCQYDVQQGEwJV
UzETMBEGA1UECAwKQ2FsaWZvcm5pYTEUMBIGA1UEBwwLU2FudGEgQ2xhcmExDTAL
BgNVBAoMBHBrZzUxFDASBgNVBAMMC2NzMV9jaDFfdGEzMRowGAYJKoZIhvcNAQkB
FgtjczFfY2gxX3RhMzCBnzANBgkqhkiG9w0BAQEFAAOBjQAwgYkCgYEAzGGCnLxG
r2zAGxloTV5GHXQC69Fma33fmmL129qSo27z9vhnSuKxFagixPB7MT29SwFy/uB7
N14qKX1r0Cx09gaxh89VswCK/H7oQxL3okcx3QCiHe9vBIMggI/6MYYY3Lpuq55c
WZcs77ou8+AdXe9XApUftTN29l7FWAPFwwcCAwEAAaMgMB4wDAYDVR0TAQH/BAIw
ADAOBgNVHQ8BAf8EBAMCB4AwDQYJKoZIhvcNAQELBQADggEBAMVu/07PdA6noggW
J1X9gKijwCvEc3EbIFrCKt29qMHN25QnPw5Kz77axBZj00B+Vv4f5SLlpoBjJJPi
BcgxhUDbDVhfuyZw9YQyllWfVK6d1fNoyAcTlhduIGDc7GZDbEgFKk8GD3LSPCxx
jG7p6HoOG12zSS/4GMGTXV6usGohgkp467l4LgcmDgUSOKu2ZrJeGtjlGQiufDWT
u8drSouPF5bb3h9avPprDPIjlR1Y2CXps6p1UPAmAIXDOZxho37JNqr49zTyf/4u
3CF+IM9p/57sou+ZOOU3xxQ650vRnnzVZphmx6/QcR4ZmHg7d1+kjEVysm5yopw0
7tOpauM=
-----END CERTIFICATE-----
