Certificate:
    Data:
        Version: 3 (0x2)
        Serial Number: 46 (0x2e)
    Signature Algorithm: sha256WithRSAEncryption
        Issuer: C=US, ST=California, L=Santa Clara, O=pkg5, OU=ta9, CN=localhost/emailAddress=ta9
        Validity
            Not Before: Mar 20 10:20:56 2018 GMT
            Not After : Dec 14 10:20:56 2020 GMT
        Subject: C=US, ST=California, L=Santa Clara, O=pkg5, OU=cs1_ta9, CN=localhost/emailAddress=cs1_ta9
        Subject Public Key Info:
            Public Key Algorithm: rsaEncryption
                Public-Key: (1024 bit)
                Modulus:
                    00:da:c6:b0:8b:fa:08:8b:1a:d6:e7:72:88:e8:d3:
                    a6:f6:10:a3:21:1e:34:5b:fd:ab:dd:88:4f:f8:69:
                    6f:a0:16:b0:5a:9c:23:a9:58:e8:1e:6d:02:a0:3b:
                    7f:26:e9:70:1c:ef:16:05:27:3d:55:32:ba:80:75:
                    e3:9f:d9:2c:cd:4f:2b:5a:49:ee:59:d5:03:67:45:
                    c9:62:e0:f9:b4:1d:80:89:ec:01:a6:4e:58:5d:15:
                    ad:a8:1b:9f:7d:a7:4c:8c:36:8f:2e:5e:7c:da:04:
                    6b:4b:03:5c:28:ca:07:c8:7b:62:fe:c5:f1:75:a1:
                    51:df:29:fa:f4:c8:98:34:e7
                Exponent: 65537 (0x10001)
        X509v3 extensions:
            X509v3 Basic Constraints: critical
                CA:FALSE
            X509v3 Key Usage: critical
                Digital Signature
    Signature Algorithm: sha256WithRSAEncryption
         0b:4f:c4:36:b6:c3:e0:19:23:2f:13:f1:02:19:f5:be:5f:4e:
         18:59:a8:b6:64:77:4a:be:b8:b8:cd:d2:bd:bc:56:b6:64:b1:
         ee:c4:6a:12:d4:25:d2:7e:48:c0:a2:32:3f:3a:9a:20:a5:14:
         02:d0:e4:85:b5:06:b1:8a:3c:e6:1c:3e:24:fd:b6:51:c9:c1:
         df:77:57:3d:6a:6d:04:d3:01:53:04:c3:7d:dc:5b:23:36:8b:
         24:87:b0:4c:7f:51:de:2b:49:19:6e:4e:c3:74:02:2e:0c:0a:
         6f:53:f0:26:7c:e8:74:ba:7e:b7:ed:80:1e:e0:e5:79:5f:bb:
         4c:de:16:f0:62:0b:20:59:02:b3:50:31:0b:79:36:a3:23:1b:
         9e:bc:3f:25:e9:ee:55:1b:01:95:57:f5:b5:8f:f7:b6:bb:07:
         ba:0f:e7:76:00:44:f6:d4:18:7c:7b:44:13:c7:b9:fc:f7:8b:
         0d:1b:01:e2:60:e2:dc:75:04:fe:db:a9:54:1a:bd:d4:f3:cd:
         ee:1c:ab:eb:cd:5d:0e:96:3e:7c:93:3e:18:6e:a5:df:56:8f:
         99:48:e9:c8:1f:90:9b:09:e3:70:61:48:fe:30:57:d7:2b:e6:
         74:40:1b:f5:c5:b9:31:d1:b6:13:7a:55:c1:5e:da:49:3e:09:
         79:4c:fe:3a
-----BEGIN CERTIFICATE-----
MIIDGjCCAgKgAwIBAgIBLjANBgkqhkiG9w0BAQsFADB9MQswCQYDVQQGEwJVUzET
MBEGA1UECAwKQ2FsaWZvcm5pYTEUMBIGA1UEBwwLU2FudGEgQ2xhcmExDTALBgNV
BAoMBHBrZzUxDDAKBgNVBAsMA3RhOTESMBAGA1UEAwwJbG9jYWxob3N0MRIwEAYJ
KoZIhvcNAQkBFgN0YTkwHhcNMTgwMzIwMTAyMDU2WhcNMjAxMjE0MTAyMDU2WjCB
hTELMAkGA1UEBhMCVVMxEzARBgNVBAgMCkNhbGlmb3JuaWExFDASBgNVBAcMC1Nh
bnRhIENsYXJhMQ0wCwYDVQQKDARwa2c1MRAwDgYDVQQLDAdjczFfdGE5MRIwEAYD
VQQDDAlsb2NhbGhvc3QxFjAUBgkqhkiG9w0BCQEWB2NzMV90YTkwgZ8wDQYJKoZI
hvcNAQEBBQADgY0AMIGJAoGBANrGsIv6CIsa1udyiOjTpvYQoyEeNFv9q92IT/hp
b6AWsFqcI6lY6B5tAqA7fybpcBzvFgUnPVUyuoB145/ZLM1PK1pJ7lnVA2dFyWLg
+bQdgInsAaZOWF0Vragbn32nTIw2jy5efNoEa0sDXCjKB8h7Yv7F8XWhUd8p+vTI
mDTnAgMBAAGjIDAeMAwGA1UdEwEB/wQCMAAwDgYDVR0PAQH/BAQDAgeAMA0GCSqG
SIb3DQEBCwUAA4IBAQALT8Q2tsPgGSMvE/ECGfW+X04YWai2ZHdKvri4zdK9vFa2
ZLHuxGoS1CXSfkjAojI/OpogpRQC0OSFtQaxijzmHD4k/bZRycHfd1c9am0E0wFT
BMN93FsjNoskh7BMf1HeK0kZbk7DdAIuDApvU/AmfOh0un637YAe4OV5X7tM3hbw
YgsgWQKzUDELeTajIxuevD8l6e5VGwGVV/W1j/e2uwe6D+d2AET21Bh8e0QTx7n8
94sNGwHiYOLcdQT+26lUGr3U883uHKvrzV0Olj58kz4YbqXfVo+ZSOnIH5CbCeNw
YUj+MFfXK+Z0QBv1xbkx0bYTelXBXtpJPgl5TP46
-----END CERTIFICATE-----
