Certificate:
    Data:
        Version: 3 (0x2)
        Serial Number: 44 (0x2c)
        Signature Algorithm: sha256WithRSAEncryption
        Issuer: C=US, ST=California, L=Santa Clara, O=pkg5, OU=ta7, CN=localhost/emailAddress=ta7
        Validity
            Not Before: Nov 17 23:01:34 2020 GMT
            Not After : Aug 14 23:01:34 2023 GMT
        Subject: C=US, ST=California, L=Santa Clara, O=pkg5, OU=cs1_ta7, CN=localhost/emailAddress=cs1_ta7
        Subject Public Key Info:
            Public Key Algorithm: rsaEncryption
                RSA Public-Key: (1024 bit)
                Modulus:
                    00:c7:40:30:86:00:a6:90:88:34:6d:09:af:39:2d:
                    b6:12:51:74:bc:b5:cc:75:4e:55:7d:8a:0f:ee:ba:
                    11:a7:15:78:0a:05:5a:56:cc:c3:0e:cd:61:d2:b7:
                    2c:9e:27:7a:6e:16:bc:0c:3e:84:35:d7:75:d1:34:
                    a6:4a:ae:8b:77:85:a6:4e:52:27:da:0e:15:68:1c:
                    3d:ae:18:cf:15:c3:c7:84:0a:1a:62:31:02:01:43:
                    e1:77:7e:77:57:0b:7f:2f:b9:6f:e5:a9:48:81:73:
                    94:0f:f0:ee:64:3b:aa:eb:29:6d:8b:c5:d9:67:bc:
                    9e:5e:2f:9c:05:7b:55:8f:05
                Exponent: 65537 (0x10001)
        X509v3 extensions:
            X509v3 Basic Constraints: critical
                CA:FALSE
            X509v3 Key Usage: critical
                Digital Signature
    Signature Algorithm: sha256WithRSAEncryption
         99:76:e6:46:43:c1:c4:7a:f8:ce:7e:fa:46:db:86:df:eb:a5:
         36:82:d1:1d:21:3d:2e:ac:13:af:da:c9:af:63:c7:33:7a:ab:
         8c:9d:99:18:a9:72:92:af:b7:11:2a:2c:9d:00:9a:fe:1e:5e:
         e1:f6:40:fc:36:16:37:5c:50:89:3c:c4:08:90:e5:52:a7:44:
         d4:aa:d8:fc:76:8b:25:79:dd:75:7b:7f:ef:20:53:a5:ab:10:
         16:3b:7d:a6:d9:ef:b9:7d:2d:3d:d8:36:14:41:dc:3e:9c:51:
         93:e1:88:fb:95:7f:b0:59:59:a2:8b:d0:f2:47:83:d6:9b:f6:
         78:d2:3e:f8:86:ed:20:dd:26:05:df:47:1e:8e:8f:89:97:16:
         06:ee:6a:80:9c:f5:54:8e:ea:61:c6:59:d2:c3:83:8c:78:45:
         cc:c6:b7:7c:49:df:88:63:cd:67:91:17:c2:61:67:aa:0d:89:
         b7:2d:62:d4:f2:6e:10:f8:d8:c9:36:6a:3a:b1:c8:1b:93:57:
         e7:4a:9d:53:cd:ea:e6:63:b8:13:91:67:cf:20:eb:9c:1d:e9:
         ac:02:b9:d5:2e:40:96:6c:75:2c:c0:41:88:1d:30:3d:b1:75:
         f0:c5:a5:29:f9:82:87:80:51:71:a2:f4:fa:bd:ae:b5:cc:55:
         dc:41:f9:cc
-----BEGIN CERTIFICATE-----
MIIDGjCCAgKgAwIBAgIBLDANBgkqhkiG9w0BAQsFADB9MQswCQYDVQQGEwJVUzET
MBEGA1UECAwKQ2FsaWZvcm5pYTEUMBIGA1UEBwwLU2FudGEgQ2xhcmExDTALBgNV
BAoMBHBrZzUxDDAKBgNVBAsMA3RhNzESMBAGA1UEAwwJbG9jYWxob3N0MRIwEAYJ
KoZIhvcNAQkBFgN0YTcwHhcNMjAxMTE3MjMwMTM0WhcNMjMwODE0MjMwMTM0WjCB
hTELMAkGA1UEBhMCVVMxEzARBgNVBAgMCkNhbGlmb3JuaWExFDASBgNVBAcMC1Nh
bnRhIENsYXJhMQ0wCwYDVQQKDARwa2c1MRAwDgYDVQQLDAdjczFfdGE3MRIwEAYD
VQQDDAlsb2NhbGhvc3QxFjAUBgkqhkiG9w0BCQEWB2NzMV90YTcwgZ8wDQYJKoZI
hvcNAQEBBQADgY0AMIGJAoGBAMdAMIYAppCING0JrzktthJRdLy1zHVOVX2KD+66
EacVeAoFWlbMww7NYdK3LJ4nem4WvAw+hDXXddE0pkqui3eFpk5SJ9oOFWgcPa4Y
zxXDx4QKGmIxAgFD4Xd+d1cLfy+5b+WpSIFzlA/w7mQ7quspbYvF2We8nl4vnAV7
VY8FAgMBAAGjIDAeMAwGA1UdEwEB/wQCMAAwDgYDVR0PAQH/BAQDAgeAMA0GCSqG
SIb3DQEBCwUAA4IBAQCZduZGQ8HEevjOfvpG24bf66U2gtEdIT0urBOv2smvY8cz
equMnZkYqXKSr7cRKiydAJr+Hl7h9kD8NhY3XFCJPMQIkOVSp0TUqtj8dosled11
e3/vIFOlqxAWO32m2e+5fS092DYUQdw+nFGT4Yj7lX+wWVmii9DyR4PWm/Z40j74
hu0g3SYF30cejo+JlxYG7mqAnPVUjuphxlnSw4OMeEXMxrd8Sd+IY81nkRfCYWeq
DYm3LWLU8m4Q+NjJNmo6scgbk1fnSp1TzermY7gTkWfPIOucHemsArnVLkCWbHUs
wEGIHTA9sXXwxaUp+YKHgFFxovT6va61zFXcQfnM
-----END CERTIFICATE-----
