Certificate:
    Data:
        Version: 3 (0x2)
        Serial Number: 6 (0x6)
    Signature Algorithm: sha256WithRSAEncryption
        Issuer: C=US, ST=California, L=Santa Clara, O=pkg5, CN=ch5_ta1/emailAddress=ch5_ta1
        Validity
            Not Before: Mar 20 10:20:52 2018 GMT
            Not After : Dec 14 10:20:52 2020 GMT
        Subject: C=US, ST=California, L=Santa Clara, O=pkg5, CN=cs1_ch5_ta1/emailAddress=cs1_ch5_ta1
        Subject Public Key Info:
            Public Key Algorithm: rsaEncryption
                Public-Key: (1024 bit)
                Modulus:
                    00:ea:27:e3:76:ec:42:bc:02:0f:80:60:3d:26:14:
                    24:85:eb:b0:f9:fe:28:ec:cc:1c:8f:4a:32:7e:7d:
                    9f:b3:c2:dc:de:14:02:24:35:f3:77:3d:ba:c3:d7:
                    c8:f2:1e:fd:fe:53:e7:fd:28:d3:0b:af:05:b5:55:
                    33:30:9a:99:fa:8d:c0:ef:8f:12:cb:d2:ee:66:93:
                    86:e3:67:e2:33:c8:13:06:ea:11:ef:1a:71:38:de:
                    87:0c:2d:0c:8e:6a:c6:d1:8d:cc:d9:52:41:a6:06:
                    aa:1c:4b:4f:a1:85:d4:db:6a:df:c1:a0:62:97:b4:
                    be:50:4a:b0:dc:e8:16:70:b1
                Exponent: 65537 (0x10001)
        X509v3 extensions:
            X509v3 Basic Constraints: critical
                CA:FALSE
            X509v3 Key Usage: critical
                Digital Signature
    Signature Algorithm: sha256WithRSAEncryption
         b1:71:5b:8e:88:dc:0a:58:18:d0:5c:97:54:85:79:b9:7e:06:
         84:ee:65:51:a0:d2:5f:19:85:56:e8:ab:74:10:46:90:19:42:
         7a:74:7c:cf:f9:f3:8c:65:e3:7a:fa:04:e1:99:5e:f2:95:54:
         66:fe:96:39:96:fb:07:63:58:8e:21:4f:ad:f6:77:07:51:49:
         2e:e0:21:4d:ac:1d:19:e7:dd:49:c3:09:2a:ac:f4:f6:13:92:
         53:6d:68:12:46:b3:bc:eb:41:89:e4:c6:6f:44:81:b7:5d:0b:
         fa:f8:06:aa:4b:b7:06:4a:04:b5:42:33:3b:39:ac:44:c4:9a:
         ea:2a:01:31:4f:53:17:ab:9f:09:12:ef:ee:46:b7:f8:d3:ae:
         67:e3:4d:3d:24:7b:cf:55:2a:a1:9e:ec:23:45:c6:a3:24:97:
         40:58:b7:f2:3c:38:61:5f:f8:29:a4:6a:be:74:af:04:81:5d:
         71:8a:85:20:45:1e:b7:f9:a4:e9:98:48:a2:df:e6:03:0d:70:
         78:e8:58:bf:4a:07:96:cd:a0:2a:52:88:b9:e3:5d:3c:d9:41:
         b3:7c:07:d8:33:6a:22:a0:a9:f9:0a:11:7c:25:d7:42:34:cc:
         bd:be:fc:a5:2d:65:a2:82:18:39:74:eb:ba:cd:91:f9:04:35:
         36:cc:bd:56
-----BEGIN CERTIFICATE-----
MIIDATCCAemgAwIBAgIBBjANBgkqhkiG9w0BAQsFADBxMQswCQYDVQQGEwJVUzET
MBEGA1UECAwKQ2FsaWZvcm5pYTEUMBIGA1UEBwwLU2FudGEgQ2xhcmExDTALBgNV
BAoMBHBrZzUxEDAOBgNVBAMMB2NoNV90YTExFjAUBgkqhkiG9w0BCQEWB2NoNV90
YTEwHhcNMTgwMzIwMTAyMDUyWhcNMjAxMjE0MTAyMDUyWjB5MQswCQYDVQQGEwJV
UzETMBEGA1UECAwKQ2FsaWZvcm5pYTEUMBIGA1UEBwwLU2FudGEgQ2xhcmExDTAL
BgNVBAoMBHBrZzUxFDASBgNVBAMMC2NzMV9jaDVfdGExMRowGAYJKoZIhvcNAQkB
FgtjczFfY2g1X3RhMTCBnzANBgkqhkiG9w0BAQEFAAOBjQAwgYkCgYEA6ifjduxC
vAIPgGA9JhQkheuw+f4o7Mwcj0oyfn2fs8Lc3hQCJDXzdz26w9fI8h79/lPn/SjT
C68FtVUzMJqZ+o3A748Sy9LuZpOG42fiM8gTBuoR7xpxON6HDC0MjmrG0Y3M2VJB
pgaqHEtPoYXU22rfwaBil7S+UEqw3OgWcLECAwEAAaMgMB4wDAYDVR0TAQH/BAIw
ADAOBgNVHQ8BAf8EBAMCB4AwDQYJKoZIhvcNAQELBQADggEBALFxW46I3ApYGNBc
l1SFebl+BoTuZVGg0l8ZhVboq3QQRpAZQnp0fM/584xl43r6BOGZXvKVVGb+ljmW
+wdjWI4hT632dwdRSS7gIU2sHRnn3UnDCSqs9PYTklNtaBJGs7zrQYnkxm9Egbdd
C/r4BqpLtwZKBLVCMzs5rETEmuoqATFPUxernwkS7+5Gt/jTrmfjTT0ke89VKqGe
7CNFxqMkl0BYt/I8OGFf+Cmkar50rwSBXXGKhSBFHrf5pOmYSKLf5gMNcHjoWL9K
B5bNoCpSiLnjXTzZQbN8B9gzaiKgqfkKEXwl10I0zL2+/KUtZaKCGDl067rNkfkE
NTbMvVY=
-----END CERTIFICATE-----
