Certificate:
    Data:
        Version: 3 (0x2)
        Serial Number: 47 (0x2f)
        Signature Algorithm: sha256WithRSAEncryption
        Issuer: C=US, ST=California, L=Santa Clara, O=pkg5, OU=ta10, CN=localhost/emailAddress=ta10
        Validity
            Not Before: May 23 15:47:23 2024 GMT
            Not After : Feb 17 15:47:23 2027 GMT
        Subject: C=US, ST=California, L=Santa Clara, O=pkg5, OU=cs1_ta10, CN=localhost/emailAddress=cs1_ta10
        Subject Public Key Info:
            Public Key Algorithm: rsaEncryption
                Public-Key: (2048 bit)
                Modulus:
                    00:bf:10:c7:7e:99:79:cf:f7:d0:e3:b5:55:14:54:
                    7a:61:04:3f:a8:1a:e4:47:a6:80:57:c2:17:05:82:
                    e0:83:31:b6:d4:4c:d6:2d:97:43:47:d0:08:99:f1:
                    47:27:a8:bf:fd:b4:0d:ec:02:c3:6e:f5:79:39:a4:
                    75:8b:ce:82:d3:bb:3a:23:7a:66:11:b9:82:72:01:
                    d1:4d:81:bb:4b:f1:f6:3c:75:a8:56:05:d4:3e:a5:
                    e1:1b:50:1d:57:01:2f:a3:19:75:a8:43:92:00:a5:
                    ab:ea:34:bd:86:1a:05:18:81:02:b7:86:7b:5b:66:
                    62:46:e6:fe:70:2f:7f:5f:91:b9:1b:25:99:9f:ab:
                    35:28:e8:31:40:6a:d4:01:15:4d:00:10:5f:23:b0:
                    57:43:35:b9:d1:b2:9b:08:be:13:60:cd:09:c3:36:
                    f7:37:d2:eb:64:b7:ba:a5:f2:d9:c5:18:5f:15:48:
                    1b:37:29:16:dc:aa:b6:02:80:d0:d1:c7:00:40:b7:
                    64:a1:e0:46:d0:68:f4:2e:0d:04:6a:72:b5:81:99:
                    18:69:a1:f4:18:3f:e2:fe:23:72:ce:b5:2e:4f:ac:
                    be:ed:55:5b:d0:d9:92:ca:2f:d5:a5:ab:d5:f8:43:
                    01:c2:d4:18:29:b6:e8:9a:56:84:15:90:bc:7f:87:
                    09:23
                Exponent: 65537 (0x10001)
        X509v3 extensions:
            X509v3 Basic Constraints: critical
                CA:FALSE
            X509v3 Key Usage: critical
                Digital Signature
            X509v3 Subject Key Identifier: 
                F9:08:9F:90:2D:C2:9D:DB:E8:81:76:30:24:D4:B5:D3:0B:A1:56:23
            X509v3 Authority Key Identifier: 
                5E:B5:A3:53:50:1E:13:DE:54:37:87:A6:51:B2:A8:EF:0B:CE:30:C7
    Signature Algorithm: sha256WithRSAEncryption
    Signature Value:
        0d:c1:cc:93:a3:24:90:48:19:57:4c:dd:2f:58:ea:c7:32:f2:
        93:81:27:b6:d3:0f:20:82:08:93:2e:ff:cc:af:cc:03:4c:cc:
        d7:bc:62:f9:02:a8:0e:fd:bf:25:ed:d4:e8:b7:e1:96:3f:6d:
        67:a3:68:26:73:4a:2b:ae:b0:99:be:7c:9b:97:32:dd:cd:92:
        6a:8c:87:ef:6f:c7:0e:33:0e:96:52:f3:ff:69:83:49:1e:68:
        de:01:e1:d0:bb:e8:72:d8:ad:3b:c1:c6:24:82:0f:9f:2a:e3:
        7f:2a:61:d0:bf:fd:bc:9c:40:6e:29:2d:1d:d0:19:e7:d4:32:
        c7:f7:ce:1e:3d:da:37:01:d1:57:93:18:c5:48:03:97:6b:0e:
        86:d4:14:5e:fd:7f:93:80:2f:06:51:cc:f6:f7:69:b2:05:aa:
        e3:72:1f:fd:3a:b0:ef:f6:93:db:f3:5a:08:63:fc:2e:9e:f2:
        91:29:4a:f4:1a:f5:e9:a8:b0:12:a2:6f:15:bc:bd:4e:3f:cd:
        70:66:13:07:06:4f:5d:81:fa:97:7c:00:33:a9:12:c8:ae:78:
        c4:1a:b2:80:c6:0f:12:b1:5d:14:66:de:fe:33:34:6b:c2:ac:
        73:b4:95:26:d2:41:21:c7:2f:33:ea:ed:fb:68:a7:01:5f:46:
        05:13:f5:cb
-----BEGIN CERTIFICATE-----
MIID4jCCAsqgAwIBAgIBLzANBgkqhkiG9w0BAQsFADB/MQswCQYDVQQGEwJVUzET
MBEGA1UECAwKQ2FsaWZvcm5pYTEUMBIGA1UEBwwLU2FudGEgQ2xhcmExDTALBgNV
BAoMBHBrZzUxDTALBgNVBAsMBHRhMTAxEjAQBgNVBAMMCWxvY2FsaG9zdDETMBEG
CSqGSIb3DQEJARYEdGExMDAeFw0yNDA1MjMxNTQ3MjNaFw0yNzAyMTcxNTQ3MjNa
MIGHMQswCQYDVQQGEwJVUzETMBEGA1UECAwKQ2FsaWZvcm5pYTEUMBIGA1UEBwwL
U2FudGEgQ2xhcmExDTALBgNVBAoMBHBrZzUxETAPBgNVBAsMCGNzMV90YTEwMRIw
EAYDVQQDDAlsb2NhbGhvc3QxFzAVBgkqhkiG9w0BCQEWCGNzMV90YTEwMIIBIjAN
BgkqhkiG9w0BAQEFAAOCAQ8AMIIBCgKCAQEAvxDHfpl5z/fQ47VVFFR6YQQ/qBrk
R6aAV8IXBYLggzG21EzWLZdDR9AImfFHJ6i//bQN7ALDbvV5OaR1i86C07s6I3pm
EbmCcgHRTYG7S/H2PHWoVgXUPqXhG1AdVwEvoxl1qEOSAKWr6jS9hhoFGIECt4Z7
W2ZiRub+cC9/X5G5GyWZn6s1KOgxQGrUARVNABBfI7BXQzW50bKbCL4TYM0Jwzb3
N9LrZLe6pfLZxRhfFUgbNykW3Kq2AoDQ0ccAQLdkoeBG0Gj0Lg0EanK1gZkYaaH0
GD/i/iNyzrUuT6y+7VVb0NmSyi/VpavV+EMBwtQYKbbomlaEFZC8f4cJIwIDAQAB
o2AwXjAMBgNVHRMBAf8EAjAAMA4GA1UdDwEB/wQEAwIHgDAdBgNVHQ4EFgQU+Qif
kC3CndvogXYwJNS10wuhViMwHwYDVR0jBBgwFoAUXrWjU1AeE95UN4emUbKo7wvO
MMcwDQYJKoZIhvcNAQELBQADggEBAA3BzJOjJJBIGVdM3S9Y6scy8pOBJ7bTDyCC
CJMu/8yvzANMzNe8YvkCqA79vyXt1Oi34ZY/bWejaCZzSiuusJm+fJuXMt3NkmqM
h+9vxw4zDpZS8/9pg0keaN4B4dC76HLYrTvBxiSCD58q438qYdC//bycQG4pLR3Q
GefUMsf3zh492jcB0VeTGMVIA5drDobUFF79f5OALwZRzPb3abIFquNyH/06sO/2
k9vzWghj/C6e8pEpSvQa9emosBKibxW8vU4/zXBmEwcGT12B+pd8ADOpEsiueMQa
soDGDxKxXRRm3v4zNGvCrHO0lSbSQSHHLzPq7ftopwFfRgUT9cs=
-----END CERTIFICATE-----
