Certificate:
    Data:
        Version: 3 (0x2)
        Serial Number: 30 (0x1e)
        Signature Algorithm: sha256WithRSAEncryption
        Issuer: C=US, ST=California, L=Santa Clara, O=pkg5, CN=ch1.2_ta3/emailAddress=ch1.2_ta3
        Validity
            Not Before: Oct 22 10:15:16 2021 GMT
            Not After : Jul 18 10:15:16 2024 GMT
        Subject: C=US, ST=California, L=Santa Clara, O=pkg5, CN=cs1_ch1.2_ta3/emailAddress=cs1_ch1.2_ta3
        Subject Public Key Info:
            Public Key Algorithm: rsaEncryption
                Public-Key: (2048 bit)
                Modulus:
                    00:da:d4:39:c9:95:d5:d4:0b:cc:11:b6:e1:1a:0a:
                    92:b2:a3:b6:b2:2c:2d:e0:74:8a:fd:cc:14:fb:6e:
                    85:e2:fd:9b:76:b0:53:3a:7e:57:90:a0:5b:95:61:
                    2f:88:2a:fa:f4:9f:d8:9a:00:99:56:f0:81:66:a2:
                    91:90:b2:ad:cf:8d:78:6d:61:21:cd:bc:1b:12:ca:
                    23:ad:0f:5f:2e:fa:50:08:11:7a:b8:ef:b7:44:1c:
                    4e:fd:7d:72:c7:d4:b3:67:ef:c7:2f:f7:a7:cf:96:
                    0e:3e:cd:82:7a:07:ee:60:35:bf:4f:48:3c:ff:e6:
                    6c:4f:0d:02:a5:cc:b7:be:b9:cb:89:67:a3:7f:f7:
                    71:22:39:52:b4:32:10:99:ed:80:dc:8a:e0:f0:df:
                    d8:3f:e2:d5:86:a1:84:45:6f:e1:92:d8:1d:51:99:
                    d7:99:a2:47:cd:b2:ad:7d:7a:74:70:99:53:e2:bb:
                    c5:19:28:1d:3e:95:76:06:31:8f:3b:0f:72:8b:d8:
                    17:93:16:79:5b:0c:13:dc:97:94:70:5d:8f:96:8e:
                    4f:f8:58:09:c6:c5:a9:99:17:8e:db:b4:af:83:ac:
                    ff:40:56:73:8d:88:9a:a3:02:a5:df:52:ca:ae:a5:
                    ef:c5:10:d7:40:60:64:83:ea:98:96:3a:6d:ea:5a:
                    c8:d5
                Exponent: 65537 (0x10001)
        X509v3 extensions:
            X509v3 Basic Constraints: critical
                CA:FALSE
            X509v3 Key Usage: critical
                Digital Signature
            X509v3 Subject Key Identifier: 
                F3:BF:94:7D:0D:67:FC:3A:60:24:46:24:87:EA:80:EB:23:66:95:83
            X509v3 Authority Key Identifier: 
                11:C3:11:2F:8D:B0:12:6C:DA:B7:96:F8:B9:10:78:F7:39:82:FF:86
    Signature Algorithm: sha256WithRSAEncryption
    Signature Value:
        60:f5:a2:18:d0:30:b9:5c:3e:c4:1a:5d:4a:8a:30:f2:c5:f3:
        bb:90:84:44:bb:5b:6b:e2:c0:8f:24:d9:de:13:dc:98:4b:4b:
        cf:9a:b3:cf:d7:29:d9:f8:a9:1a:37:f2:ef:ca:ac:cf:c4:fb:
        21:60:3b:d7:1c:ed:f1:f6:3b:55:8f:90:65:d1:e0:01:eb:94:
        f5:f3:9e:6f:6e:3d:b2:12:81:69:77:fa:8d:9f:b6:fc:df:19:
        a3:d6:36:16:6d:9d:66:f7:b7:13:bb:ba:d6:88:18:12:d6:22:
        9b:9e:c7:23:6f:3d:ff:6a:71:2f:b2:3f:1d:92:c6:e6:c7:f5:
        e2:3d:1e:1e:d4:5e:0d:55:70:92:ce:01:e3:bb:38:3a:d2:03:
        44:0c:e2:c4:ed:c6:18:68:e7:44:dd:df:2d:f3:b2:7d:38:c8:
        6a:61:3c:55:20:44:ca:90:50:fa:ca:57:f6:8c:0c:f7:04:83:
        5a:7f:a5:86:b3:2b:d3:6b:7a:1a:fd:27:f6:6c:6d:7b:e0:0b:
        03:40:b4:3f:ef:a9:6a:f3:55:d1:a3:4d:ea:85:55:4d:2b:d7:
        b3:64:6a:79:27:a5:5a:10:b9:f0:5e:39:d3:f5:2d:89:de:91:
        ac:fd:fa:47:f9:b7:ef:25:7d:b5:f9:24:46:52:b4:e3:61:ed:
        eb:d5:98:6a
-----BEGIN CERTIFICATE-----
MIIDzTCCArWgAwIBAgIBHjANBgkqhkiG9w0BAQsFADB1MQswCQYDVQQGEwJVUzET
MBEGA1UECAwKQ2FsaWZvcm5pYTEUMBIGA1UEBwwLU2FudGEgQ2xhcmExDTALBgNV
BAoMBHBrZzUxEjAQBgNVBAMMCWNoMS4yX3RhMzEYMBYGCSqGSIb3DQEJARYJY2gx
LjJfdGEzMB4XDTIxMTAyMjEwMTUxNloXDTI0MDcxODEwMTUxNlowfTELMAkGA1UE
BhMCVVMxEzARBgNVBAgMCkNhbGlmb3JuaWExFDASBgNVBAcMC1NhbnRhIENsYXJh
MQ0wCwYDVQQKDARwa2c1MRYwFAYDVQQDDA1jczFfY2gxLjJfdGEzMRwwGgYJKoZI
hvcNAQkBFg1jczFfY2gxLjJfdGEzMIIBIjANBgkqhkiG9w0BAQEFAAOCAQ8AMIIB
CgKCAQEA2tQ5yZXV1AvMEbbhGgqSsqO2siwt4HSK/cwU+26F4v2bdrBTOn5XkKBb
lWEviCr69J/YmgCZVvCBZqKRkLKtz414bWEhzbwbEsojrQ9fLvpQCBF6uO+3RBxO
/X1yx9SzZ+/HL/enz5YOPs2CegfuYDW/T0g8/+ZsTw0Cpcy3vrnLiWejf/dxIjlS
tDIQme2A3Irg8N/YP+LVhqGERW/hktgdUZnXmaJHzbKtfXp0cJlT4rvFGSgdPpV2
BjGPOw9yi9gXkxZ5WwwT3JeUcF2Plo5P+FgJxsWpmReO27Svg6z/QFZzjYiaowKl
31LKrqXvxRDXQGBkg+qYljpt6lrI1QIDAQABo2AwXjAMBgNVHRMBAf8EAjAAMA4G
A1UdDwEB/wQEAwIHgDAdBgNVHQ4EFgQU87+UfQ1n/DpgJEYkh+qA6yNmlYMwHwYD
VR0jBBgwFoAUEcMRL42wEmzat5b4uRB49zmC/4YwDQYJKoZIhvcNAQELBQADggEB
AGD1ohjQMLlcPsQaXUqKMPLF87uQhES7W2viwI8k2d4T3JhLS8+as8/XKdn4qRo3
8u/KrM/E+yFgO9cc7fH2O1WPkGXR4AHrlPXznm9uPbISgWl3+o2ftvzfGaPWNhZt
nWb3txO7utaIGBLWIpuexyNvPf9qcS+yPx2SxubH9eI9Hh7UXg1VcJLOAeO7ODrS
A0QM4sTtxhho50Td3y3zsn04yGphPFUgRMqQUPrKV/aMDPcEg1p/pYazK9Nrehr9
J/ZsbXvgCwNAtD/vqWrzVdGjTeqFVU0r17NkanknpVoQufBeOdP1LYnekaz9+kf5
t+8lfbX5JEZStONh7evVmGo=
-----END CERTIFICATE-----
