Certificate:
    Data:
        Version: 3 (0x2)
        Serial Number: 28 (0x1c)
    Signature Algorithm: sha256WithRSAEncryption
        Issuer: C=US, ST=California, L=Santa Clara, O=pkg5, CN=ch1.1_ta3/emailAddress=ch1.1_ta3
        Validity
            Not Before: Mar 20 10:20:54 2018 GMT
            Not After : Dec 14 10:20:54 2020 GMT
        Subject: C=US, ST=California, L=Santa Clara, O=pkg5, CN=cs1_ch1.1_ta3/emailAddress=cs1_ch1.1_ta3
        Subject Public Key Info:
            Public Key Algorithm: rsaEncryption
                Public-Key: (1024 bit)
                Modulus:
                    00:95:75:30:a5:44:bb:a3:92:b3:39:e9:3e:3a:65:
                    22:00:d0:ad:59:bd:b4:c4:d7:37:e2:0c:3c:6e:98:
                    6a:56:56:ff:95:7d:97:f9:36:54:06:32:8d:e1:d8:
                    f7:14:11:84:07:1b:87:77:13:8d:04:5c:d1:d3:ee:
                    35:12:9e:5e:03:dd:37:3d:49:7d:d2:6b:4b:39:6d:
                    bf:dc:2e:ec:1a:7a:28:4b:9e:25:11:e9:17:d3:20:
                    2e:a9:f0:12:aa:ce:18:41:57:1b:85:f5:87:4a:2c:
                    bc:f0:30:69:c2:37:32:22:56:5b:5a:d3:a0:68:03:
                    46:03:31:ec:93:3c:a9:b3:a9
                Exponent: 65537 (0x10001)
        X509v3 extensions:
            X509v3 Basic Constraints: critical
                CA:FALSE
            X509v3 Key Usage: critical
                Digital Signature
    Signature Algorithm: sha256WithRSAEncryption
         36:1e:7d:4f:c1:9f:cc:aa:8c:f7:1c:7e:bf:0a:b2:0a:cb:e3:
         58:a5:f3:f0:1f:e5:0a:20:18:33:86:52:76:93:fc:4c:e6:f1:
         5e:e2:f4:3a:a9:3a:97:a3:c2:e8:9e:a6:1d:e3:f1:b3:0c:5c:
         00:49:af:38:09:30:cd:94:ef:08:68:6e:d9:0f:90:ff:48:96:
         82:4c:da:0f:06:59:e8:82:58:64:39:5f:3d:51:40:bb:9c:7e:
         0d:0a:75:ba:32:3a:33:ae:6c:34:78:ca:37:f8:ae:14:c8:cc:
         78:d2:31:d5:c6:ee:f3:0a:59:e3:70:7b:08:4c:80:ca:52:56:
         51:ff:55:34:f9:4a:ff:0b:bc:99:55:66:3b:b5:0a:79:81:17:
         70:2d:20:1e:06:12:b7:9e:0e:a1:87:2e:b8:e3:53:1e:78:34:
         55:c2:b9:82:19:b6:80:ec:1f:57:6a:ff:c6:48:0a:f7:c7:8a:
         94:74:ae:31:72:c1:14:8d:e4:62:d7:f0:e1:39:69:b7:ca:a7:
         b7:f7:9a:92:64:6f:17:64:8a:cc:34:a8:29:dc:61:1e:06:6f:
         92:ed:2a:61:bf:f5:08:dd:41:4e:ca:ee:fc:f0:0b:18:c3:03:
         fb:b8:47:6b:0b:8e:43:11:59:79:3b:13:34:9b:d2:1f:c5:aa:
         34:cb:a7:40
-----BEGIN CERTIFICATE-----
MIIDCTCCAfGgAwIBAgIBHDANBgkqhkiG9w0BAQsFADB1MQswCQYDVQQGEwJVUzET
MBEGA1UECAwKQ2FsaWZvcm5pYTEUMBIGA1UEBwwLU2FudGEgQ2xhcmExDTALBgNV
BAoMBHBrZzUxEjAQBgNVBAMMCWNoMS4xX3RhMzEYMBYGCSqGSIb3DQEJARYJY2gx
LjFfdGEzMB4XDTE4MDMyMDEwMjA1NFoXDTIwMTIxNDEwMjA1NFowfTELMAkGA1UE
BhMCVVMxEzARBgNVBAgMCkNhbGlmb3JuaWExFDASBgNVBAcMC1NhbnRhIENsYXJh
MQ0wCwYDVQQKDARwa2c1MRYwFAYDVQQDDA1jczFfY2gxLjFfdGEzMRwwGgYJKoZI
hvcNAQkBFg1jczFfY2gxLjFfdGEzMIGfMA0GCSqGSIb3DQEBAQUAA4GNADCBiQKB
gQCVdTClRLujkrM56T46ZSIA0K1ZvbTE1zfiDDxumGpWVv+VfZf5NlQGMo3h2PcU
EYQHG4d3E40EXNHT7jUSnl4D3Tc9SX3Sa0s5bb/cLuwaeihLniUR6RfTIC6p8BKq
zhhBVxuF9YdKLLzwMGnCNzIiVlta06BoA0YDMeyTPKmzqQIDAQABoyAwHjAMBgNV
HRMBAf8EAjAAMA4GA1UdDwEB/wQEAwIHgDANBgkqhkiG9w0BAQsFAAOCAQEANh59
T8GfzKqM9xx+vwqyCsvjWKXz8B/lCiAYM4ZSdpP8TObxXuL0Oqk6l6PC6J6mHePx
swxcAEmvOAkwzZTvCGhu2Q+Q/0iWgkzaDwZZ6IJYZDlfPVFAu5x+DQp1ujI6M65s
NHjKN/iuFMjMeNIx1cbu8wpZ43B7CEyAylJWUf9VNPlK/wu8mVVmO7UKeYEXcC0g
HgYSt54OoYcuuONTHng0VcK5ghm2gOwfV2r/xkgK98eKlHSuMXLBFI3kYtfw4Tlp
t8qnt/eakmRvF2SKzDSoKdxhHgZvku0qYb/1CN1BTsru/PALGMMD+7hHawuOQxFZ
eTsTNJvSH8WqNMunQA==
-----END CERTIFICATE-----
