Certificate:
    Data:
        Version: 3 (0x2)
        Serial Number: 30 (0x1e)
        Signature Algorithm: sha256WithRSAEncryption
        Issuer: C=US, ST=California, L=Santa Clara, O=pkg5, CN=ch1.2_ta3/emailAddress=ch1.2_ta3
        Validity
            Not Before: Dec 15 15:37:26 2022 GMT
            Not After : Sep 10 15:37:26 2025 GMT
        Subject: C=US, ST=California, L=Santa Clara, O=pkg5, CN=cs1_ch1.2_ta3/emailAddress=cs1_ch1.2_ta3
        Subject Public Key Info:
            Public Key Algorithm: rsaEncryption
                Public-Key: (2048 bit)
                Modulus:
                    00:a6:ae:05:e1:6e:1e:31:03:67:e2:61:48:08:46:
                    f4:84:76:4c:00:b8:83:f7:31:6c:15:b7:2c:14:73:
                    c6:5b:84:50:8c:0b:94:7b:4a:1e:32:fc:91:40:1b:
                    d1:39:94:4f:0b:99:93:88:84:e3:22:f3:7d:e0:45:
                    37:79:95:eb:17:71:42:9d:f1:79:25:f2:c9:68:e3:
                    66:af:26:3c:c1:e2:b6:4d:9e:af:06:b0:22:ed:92:
                    d7:d6:dd:62:96:15:ca:ef:e6:ac:93:d3:eb:59:da:
                    4d:8f:6d:2b:76:4a:9d:3b:6d:00:66:17:2b:ce:ac:
                    7d:41:c5:49:cc:64:d7:5b:f1:76:67:0f:fa:db:61:
                    37:2d:57:cc:36:de:d0:94:34:90:2f:da:39:e7:87:
                    f1:c4:b1:3d:c5:15:d6:ae:f7:aa:be:34:fe:dd:01:
                    ca:d5:82:f9:ee:29:6e:4a:2b:3d:fc:8f:c5:17:f8:
                    a5:60:6d:a9:14:2f:1f:33:91:fc:c6:39:fb:19:e3:
                    ac:c1:0d:ea:e5:cc:68:ad:92:75:33:5f:1d:b6:c7:
                    b0:d9:0d:3a:c0:93:70:17:e8:45:ba:c6:6d:41:72:
                    5e:a2:68:b5:f1:21:66:fa:e9:72:8b:d7:93:96:07:
                    23:74:7f:72:6a:8f:01:7f:fc:5f:68:75:81:1e:3b:
                    2f:d7
                Exponent: 65537 (0x10001)
        X509v3 extensions:
            X509v3 Basic Constraints: critical
                CA:FALSE
            X509v3 Key Usage: critical
                Digital Signature
            X509v3 Subject Key Identifier: 
                6B:DD:6D:CB:8E:F0:9D:32:D8:25:F6:52:CE:E4:FB:2F:92:FD:48:35
            X509v3 Authority Key Identifier: 
                D8:B4:08:C9:10:32:12:54:FB:77:BC:4E:08:15:10:AF:30:8E:61:3F
    Signature Algorithm: sha256WithRSAEncryption
    Signature Value:
        87:c2:87:db:a3:5c:94:84:de:54:91:84:1e:a9:36:a5:37:20:
        45:9c:06:82:e2:91:a4:4d:d9:b9:7a:0b:98:62:69:11:89:cc:
        ba:64:e8:66:2d:10:10:fa:3e:83:2a:6d:40:da:5d:b8:3d:1b:
        0a:9c:f3:1d:a5:ff:dc:df:1f:6c:74:28:3b:84:e4:4d:9e:bc:
        7a:ae:2a:7a:46:e5:53:c6:b1:35:3c:72:64:03:a9:ec:ed:42:
        bf:ea:15:bb:b7:a8:51:9c:1b:d8:7a:a9:d3:bd:6f:39:64:ca:
        19:9b:01:5c:bf:69:0e:e7:79:71:48:71:04:28:69:93:f9:e7:
        88:5d:e7:63:d8:cb:bd:e2:c8:92:e6:72:ac:3d:0c:a2:5e:ec:
        c8:43:aa:1c:68:0e:7d:d7:c3:7b:0b:36:34:93:af:dd:46:3e:
        7a:e2:ee:ac:d5:3b:d9:da:f1:b4:af:9f:98:4e:59:6b:b9:d6:
        77:ad:c7:0f:f8:6e:45:d2:43:a8:4b:3a:bc:13:b8:bd:08:1e:
        1f:fa:07:c0:09:13:24:27:93:55:63:81:f0:78:a1:dd:66:d7:
        7c:75:b9:4f:7d:2e:97:96:2e:48:36:4e:b0:0d:9a:9a:0a:e9:
        97:04:5f:b9:b9:e8:dd:4c:5e:63:5f:6a:b5:2d:46:20:94:3e:
        a7:78:f0:2c
-----BEGIN CERTIFICATE-----
MIIDzTCCArWgAwIBAgIBHjANBgkqhkiG9w0BAQsFADB1MQswCQYDVQQGEwJVUzET
MBEGA1UECAwKQ2FsaWZvcm5pYTEUMBIGA1UEBwwLU2FudGEgQ2xhcmExDTALBgNV
BAoMBHBrZzUxEjAQBgNVBAMMCWNoMS4yX3RhMzEYMBYGCSqGSIb3DQEJARYJY2gx
LjJfdGEzMB4XDTIyMTIxNTE1MzcyNloXDTI1MDkxMDE1MzcyNlowfTELMAkGA1UE
BhMCVVMxEzARBgNVBAgMCkNhbGlmb3JuaWExFDASBgNVBAcMC1NhbnRhIENsYXJh
MQ0wCwYDVQQKDARwa2c1MRYwFAYDVQQDDA1jczFfY2gxLjJfdGEzMRwwGgYJKoZI
hvcNAQkBFg1jczFfY2gxLjJfdGEzMIIBIjANBgkqhkiG9w0BAQEFAAOCAQ8AMIIB
CgKCAQEApq4F4W4eMQNn4mFICEb0hHZMALiD9zFsFbcsFHPGW4RQjAuUe0oeMvyR
QBvROZRPC5mTiITjIvN94EU3eZXrF3FCnfF5JfLJaONmryY8weK2TZ6vBrAi7ZLX
1t1ilhXK7+ask9PrWdpNj20rdkqdO20AZhcrzqx9QcVJzGTXW/F2Zw/622E3LVfM
Nt7QlDSQL9o554fxxLE9xRXWrveqvjT+3QHK1YL57iluSis9/I/FF/ilYG2pFC8f
M5H8xjn7GeOswQ3q5cxorZJ1M18dtsew2Q06wJNwF+hFusZtQXJeomi18SFm+uly
i9eTlgcjdH9yao8Bf/xfaHWBHjsv1wIDAQABo2AwXjAMBgNVHRMBAf8EAjAAMA4G
A1UdDwEB/wQEAwIHgDAdBgNVHQ4EFgQUa91ty47wnTLYJfZSzuT7L5L9SDUwHwYD
VR0jBBgwFoAU2LQIyRAyElT7d7xOCBUQrzCOYT8wDQYJKoZIhvcNAQELBQADggEB
AIfCh9ujXJSE3lSRhB6pNqU3IEWcBoLikaRN2bl6C5hiaRGJzLpk6GYtEBD6PoMq
bUDaXbg9Gwqc8x2l/9zfH2x0KDuE5E2evHquKnpG5VPGsTU8cmQDqeztQr/qFbu3
qFGcG9h6qdO9bzlkyhmbAVy/aQ7neXFIcQQoaZP554hd52PYy73iyJLmcqw9DKJe
7MhDqhxoDn3Xw3sLNjSTr91GPnri7qzVO9na8bSvn5hOWWu51netxw/4bkXSQ6hL
OrwTuL0IHh/6B8AJEyQnk1VjgfB4od1m13x1uU99LpeWLkg2TrANmpoK6ZcEX7m5
6N1MXmNfarUtRiCUPqd48Cw=
-----END CERTIFICATE-----
