Certificate:
    Data:
        Version: 3 (0x2)
        Serial Number: 14 (0xe)
        Signature Algorithm: sha256WithRSAEncryption
        Issuer: C=US, ST=California, L=Santa Clara, O=pkg5, CN=ch5.3_ta1/emailAddress=ch5.3_ta1
        Validity
            Not Before: Nov 14 14:26:53 2024 GMT
            Not After : Aug 11 14:26:53 2027 GMT
        Subject: C=US, ST=California, L=Santa Clara, O=pkg5, CN=cs1_ch5.3_ta1/emailAddress=cs1_ch5.3_ta1
        Subject Public Key Info:
            Public Key Algorithm: rsaEncryption
                Public-Key: (2048 bit)
                Modulus:
                    00:c4:c0:dc:04:b3:e4:90:19:52:43:17:9e:b3:e8:
                    e3:26:d0:50:56:58:0f:0f:a5:f6:49:a2:14:4a:71:
                    ac:34:01:c0:31:34:b2:67:34:7e:b3:ed:f8:6e:49:
                    10:b9:b8:95:b9:0c:88:8b:c1:ab:71:e3:92:9c:30:
                    2e:59:46:77:64:80:a9:97:81:32:86:c1:c6:3f:3f:
                    51:f9:87:63:09:40:3b:9a:b8:af:d4:4c:87:26:2d:
                    23:07:6c:71:97:7e:19:4e:96:ce:41:f6:a3:d3:cb:
                    00:33:55:81:57:9a:db:2e:e1:1b:6e:39:7b:79:01:
                    8d:c1:1a:a7:04:1b:47:5a:47:ec:36:49:d2:9b:c9:
                    f2:41:52:77:e7:fc:de:65:0c:42:ea:18:fe:16:5b:
                    52:07:fe:3f:7f:5d:a8:63:b8:74:81:fa:15:51:30:
                    d9:86:f6:3f:27:79:a0:7e:bf:24:d6:54:d3:f7:a4:
                    be:0f:7b:51:13:5b:ad:07:31:57:4e:70:67:00:b6:
                    f4:2c:cd:e1:f3:bc:21:ac:f2:49:79:a2:17:95:c8:
                    11:b1:ab:2d:d7:36:b7:8c:ce:bc:33:4f:19:91:89:
                    23:d0:20:8d:bf:e2:3b:0c:ba:2e:a4:37:6d:d6:83:
                    20:c6:09:d2:9a:8c:6f:a8:03:5f:83:95:6d:c8:f8:
                    78:c5
                Exponent: 65537 (0x10001)
        X509v3 extensions:
            X509v3 Basic Constraints: critical
                CA:FALSE
            X509v3 Key Usage: critical
                Digital Signature
            X509v3 Subject Key Identifier: 
                63:47:36:36:06:FF:AD:66:8B:FD:CF:F8:87:77:5D:84:A3:53:D1:0A
            X509v3 Authority Key Identifier: 
                70:82:0E:78:8C:1B:41:C5:51:57:F3:C3:A6:BF:46:18:D3:E6:3E:10
    Signature Algorithm: sha256WithRSAEncryption
    Signature Value:
        5e:38:67:51:04:07:86:2e:2e:bc:cc:13:5d:89:75:37:23:3d:
        b3:8d:00:43:40:95:c2:47:b2:6f:0a:58:9a:e8:ba:f6:0c:02:
        b8:b2:e0:e3:64:be:1e:de:d1:66:0b:2a:ea:f5:3f:fb:f5:19:
        cc:5b:8c:bc:81:f6:46:d1:47:6e:66:d6:b5:fd:18:24:11:32:
        0d:f0:00:63:16:6c:ca:69:47:73:74:50:39:29:f5:ec:e9:58:
        37:e5:13:f8:23:44:7b:97:28:d8:08:ac:6b:6d:ac:a9:73:2a:
        17:ae:cd:bc:44:c1:a1:e9:12:80:43:32:04:9d:1d:a0:87:25:
        45:ad:09:b1:50:09:22:2e:0e:0b:57:82:b5:22:6f:84:ed:6b:
        07:1d:d3:19:6a:8e:5c:83:40:c5:a6:2c:48:91:95:ce:58:7f:
        e8:10:37:8f:84:7d:0d:7e:4d:ff:c5:e4:5d:e7:b3:39:84:e8:
        15:0f:a5:5b:04:6a:70:ef:97:04:65:e5:06:8c:72:d8:69:60:
        fe:07:37:fd:84:2e:0e:9d:70:5d:9c:02:35:b9:02:78:a7:5c:
        ca:4b:7a:5d:f3:54:cb:b5:80:7e:cf:c7:c3:fb:2c:1d:8c:e2:
        5d:4a:2d:97:2d:b5:a0:2e:fd:a1:b8:c9:f7:91:d0:7e:19:2d:
        34:4b:0d:7c
-----BEGIN CERTIFICATE-----
MIIDzTCCArWgAwIBAgIBDjANBgkqhkiG9w0BAQsFADB1MQswCQYDVQQGEwJVUzET
MBEGA1UECAwKQ2FsaWZvcm5pYTEUMBIGA1UEBwwLU2FudGEgQ2xhcmExDTALBgNV
BAoMBHBrZzUxEjAQBgNVBAMMCWNoNS4zX3RhMTEYMBYGCSqGSIb3DQEJARYJY2g1
LjNfdGExMB4XDTI0MTExNDE0MjY1M1oXDTI3MDgxMTE0MjY1M1owfTELMAkGA1UE
BhMCVVMxEzARBgNVBAgMCkNhbGlmb3JuaWExFDASBgNVBAcMC1NhbnRhIENsYXJh
MQ0wCwYDVQQKDARwa2c1MRYwFAYDVQQDDA1jczFfY2g1LjNfdGExMRwwGgYJKoZI
hvcNAQkBFg1jczFfY2g1LjNfdGExMIIBIjANBgkqhkiG9w0BAQEFAAOCAQ8AMIIB
CgKCAQEAxMDcBLPkkBlSQxees+jjJtBQVlgPD6X2SaIUSnGsNAHAMTSyZzR+s+34
bkkQubiVuQyIi8GrceOSnDAuWUZ3ZICpl4EyhsHGPz9R+YdjCUA7mriv1EyHJi0j
B2xxl34ZTpbOQfaj08sAM1WBV5rbLuEbbjl7eQGNwRqnBBtHWkfsNknSm8nyQVJ3
5/zeZQxC6hj+FltSB/4/f12oY7h0gfoVUTDZhvY/J3mgfr8k1lTT96S+D3tRE1ut
BzFXTnBnALb0LM3h87whrPJJeaIXlcgRsast1za3jM68M08ZkYkj0CCNv+I7DLou
pDdt1oMgxgnSmoxvqANfg5VtyPh4xQIDAQABo2AwXjAMBgNVHRMBAf8EAjAAMA4G
A1UdDwEB/wQEAwIHgDAdBgNVHQ4EFgQUY0c2Ngb/rWaL/c/4h3ddhKNT0QowHwYD
VR0jBBgwFoAUcIIOeIwbQcVRV/PDpr9GGNPmPhAwDQYJKoZIhvcNAQELBQADggEB
AF44Z1EEB4YuLrzME12JdTcjPbONAENAlcJHsm8KWJrouvYMAriy4ONkvh7e0WYL
Kur1P/v1GcxbjLyB9kbRR25m1rX9GCQRMg3wAGMWbMppR3N0UDkp9ezpWDflE/gj
RHuXKNgIrGttrKlzKheuzbxEwaHpEoBDMgSdHaCHJUWtCbFQCSIuDgtXgrUib4Tt
awcd0xlqjlyDQMWmLEiRlc5Yf+gQN4+EfQ1+Tf/F5F3nszmE6BUPpVsEanDvlwRl
5QaMcthpYP4HN/2ELg6dcF2cAjW5AninXMpLel3zVMu1gH7Px8P7LB2M4l1KLZct
taAu/aG4yfeR0H4ZLTRLDXw=
-----END CERTIFICATE-----
