Certificate:
    Data:
        Version: 3 (0x2)
        Serial Number: 28 (0x1c)
        Signature Algorithm: sha256WithRSAEncryption
        Issuer: C=US, ST=California, L=Santa Clara, O=pkg5, CN=ch1.1_ta3/emailAddress=ch1.1_ta3
        Validity
            Not Before: Oct 24 21:43:08 2023 GMT
            Not After : Jul 20 21:43:08 2026 GMT
        Subject: C=US, ST=California, L=Santa Clara, O=pkg5, CN=cs1_ch1.1_ta3/emailAddress=cs1_ch1.1_ta3
        Subject Public Key Info:
            Public Key Algorithm: rsaEncryption
                Public-Key: (2048 bit)
                Modulus:
                    00:a6:d9:b1:85:8d:15:1f:b0:f1:ad:05:62:4a:40:
                    d2:94:ab:af:86:55:6f:88:df:b3:88:ec:dc:ed:46:
                    95:9d:a0:2b:c9:ee:87:20:e5:96:8e:c7:45:ec:f4:
                    a7:34:05:9c:5c:0b:c6:67:3a:47:54:77:1f:60:80:
                    e7:aa:78:5f:4a:bd:06:bc:5b:de:29:07:d2:1d:b6:
                    77:9a:a4:74:94:04:0a:da:2a:2b:bc:fb:7b:7d:ea:
                    28:76:59:24:9d:a9:2d:a6:30:b6:48:f1:a8:ce:b1:
                    84:38:bb:41:72:40:a3:82:9c:89:5b:49:84:bd:80:
                    bf:01:8a:f3:0c:2f:d6:b8:92:c1:be:37:17:a8:e5:
                    5a:db:76:6d:07:8d:2f:10:9f:16:0f:28:79:1d:60:
                    e4:98:74:50:d1:39:51:53:6b:67:d8:10:09:7a:ea:
                    57:f8:5e:cc:8e:f7:17:6b:83:79:d2:32:d7:9c:f6:
                    5b:0c:b7:76:55:27:aa:40:ac:5d:a3:99:f3:18:63:
                    d1:06:c2:62:2d:7a:f1:b3:53:ab:b7:8f:12:37:15:
                    44:31:2a:73:1e:00:3c:c0:65:d9:23:f6:5f:48:66:
                    e3:56:a8:68:9e:27:ed:de:4a:49:42:6f:6c:26:71:
                    43:81:32:69:8d:41:c7:17:15:9b:fe:7d:10:c5:35:
                    96:b1
                Exponent: 65537 (0x10001)
        X509v3 extensions:
            X509v3 Basic Constraints: critical
                CA:FALSE
            X509v3 Key Usage: critical
                Digital Signature
            X509v3 Subject Key Identifier: 
                32:59:0D:80:02:D4:0E:F6:CF:E5:9F:DC:8E:6F:CE:61:4C:90:B6:28
            X509v3 Authority Key Identifier: 
                06:33:22:4B:03:FF:39:B0:4F:E9:3B:66:D6:E5:55:67:EF:E6:39:C0
    Signature Algorithm: sha256WithRSAEncryption
    Signature Value:
        62:11:b1:6d:3c:c3:8d:34:83:c2:54:44:08:f4:88:aa:6e:4d:
        7c:56:4c:b7:e5:c0:17:c6:62:02:6c:b4:55:7d:57:f8:e5:91:
        64:3c:de:76:d5:ca:c8:ef:55:d8:51:f6:85:d9:a0:c8:90:f1:
        85:20:00:32:40:50:3f:ce:58:64:67:ab:ff:aa:c3:76:e6:a0:
        55:c4:98:05:e2:02:66:2e:fb:ca:ac:04:04:6b:6d:67:ed:09:
        80:28:18:c6:44:f0:0f:d5:d4:91:4e:53:36:78:ed:d5:15:8c:
        39:c8:63:5e:af:90:3c:dc:e0:e2:d2:f6:1a:5b:0d:5c:11:39:
        c2:b1:9b:c7:32:32:85:29:34:b1:da:83:9d:c3:15:a9:f3:a1:
        19:44:4d:81:41:65:74:b6:01:3f:db:c4:16:98:56:91:eb:46:
        8f:9f:3e:5e:df:1c:a2:d6:fb:7f:b1:01:b3:43:fd:14:47:a9:
        97:3d:4e:2b:92:63:68:9c:db:1f:ba:1c:31:46:70:b0:60:16:
        d1:89:34:4d:d5:1d:b0:4b:a2:46:b8:03:56:bf:f6:72:83:74:
        e7:94:ce:5b:97:aa:1c:74:11:70:c8:dc:10:09:fa:81:8b:69:
        b5:28:68:73:f2:bc:e6:ac:31:1b:32:bd:12:e9:d0:f8:4f:34:
        36:cc:65:5e
-----BEGIN CERTIFICATE-----
MIIDzTCCArWgAwIBAgIBHDANBgkqhkiG9w0BAQsFADB1MQswCQYDVQQGEwJVUzET
MBEGA1UECAwKQ2FsaWZvcm5pYTEUMBIGA1UEBwwLU2FudGEgQ2xhcmExDTALBgNV
BAoMBHBrZzUxEjAQBgNVBAMMCWNoMS4xX3RhMzEYMBYGCSqGSIb3DQEJARYJY2gx
LjFfdGEzMB4XDTIzMTAyNDIxNDMwOFoXDTI2MDcyMDIxNDMwOFowfTELMAkGA1UE
BhMCVVMxEzARBgNVBAgMCkNhbGlmb3JuaWExFDASBgNVBAcMC1NhbnRhIENsYXJh
MQ0wCwYDVQQKDARwa2c1MRYwFAYDVQQDDA1jczFfY2gxLjFfdGEzMRwwGgYJKoZI
hvcNAQkBFg1jczFfY2gxLjFfdGEzMIIBIjANBgkqhkiG9w0BAQEFAAOCAQ8AMIIB
CgKCAQEAptmxhY0VH7DxrQViSkDSlKuvhlVviN+ziOzc7UaVnaArye6HIOWWjsdF
7PSnNAWcXAvGZzpHVHcfYIDnqnhfSr0GvFveKQfSHbZ3mqR0lAQK2iorvPt7feoo
dlkknaktpjC2SPGozrGEOLtBckCjgpyJW0mEvYC/AYrzDC/WuJLBvjcXqOVa23Zt
B40vEJ8WDyh5HWDkmHRQ0TlRU2tn2BAJeupX+F7MjvcXa4N50jLXnPZbDLd2VSeq
QKxdo5nzGGPRBsJiLXrxs1Ort48SNxVEMSpzHgA8wGXZI/ZfSGbjVqhonift3kpJ
Qm9sJnFDgTJpjUHHFxWb/n0QxTWWsQIDAQABo2AwXjAMBgNVHRMBAf8EAjAAMA4G
A1UdDwEB/wQEAwIHgDAdBgNVHQ4EFgQUMlkNgALUDvbP5Z/cjm/OYUyQtigwHwYD
VR0jBBgwFoAUBjMiSwP/ObBP6Ttm1uVVZ+/mOcAwDQYJKoZIhvcNAQELBQADggEB
AGIRsW08w400g8JURAj0iKpuTXxWTLflwBfGYgJstFV9V/jlkWQ83nbVysjvVdhR
9oXZoMiQ8YUgADJAUD/OWGRnq/+qw3bmoFXEmAXiAmYu+8qsBARrbWftCYAoGMZE
8A/V1JFOUzZ47dUVjDnIY16vkDzc4OLS9hpbDVwROcKxm8cyMoUpNLHag53DFanz
oRlETYFBZXS2AT/bxBaYVpHrRo+fPl7fHKLW+3+xAbND/RRHqZc9TiuSY2ic2x+6
HDFGcLBgFtGJNE3VHbBLoka4A1a/9nKDdOeUzluXqhx0EXDI3BAJ+oGLabUoaHPy
vOasMRsyvRLp0PhPNDbMZV4=
-----END CERTIFICATE-----
