Certificate:
    Data:
        Version: 3 (0x2)
        Serial Number: 44 (0x2c)
        Signature Algorithm: sha256WithRSAEncryption
        Issuer: C=US, ST=California, L=Santa Clara, O=pkg5, OU=ta7, CN=localhost/emailAddress=ta7
        Validity
            Not Before: Nov 14 14:26:58 2024 GMT
            Not After : Aug 11 14:26:58 2027 GMT
        Subject: C=US, ST=California, L=Santa Clara, O=pkg5, OU=cs1_ta7, CN=localhost/emailAddress=cs1_ta7
        Subject Public Key Info:
            Public Key Algorithm: rsaEncryption
                Public-Key: (2048 bit)
                Modulus:
                    00:b4:74:0c:57:86:74:72:55:bc:e6:34:63:e1:ea:
                    17:c0:59:27:6d:a2:fe:a3:dc:c9:5b:64:72:fb:05:
                    7b:d7:78:c1:a0:04:0d:f2:f1:09:de:72:68:cd:02:
                    aa:0d:1b:bb:b8:3b:52:c9:f2:da:bb:49:5e:ed:93:
                    78:b6:5a:89:6b:68:bd:85:54:93:c3:ed:a7:85:c2:
                    0c:95:17:cb:59:d4:eb:58:84:16:12:9a:a9:76:02:
                    60:1a:5b:36:23:04:b9:93:5c:6f:fe:fe:47:67:f0:
                    66:4c:bc:5d:0b:73:d6:a2:55:a4:23:60:91:0d:b0:
                    c4:a0:bb:89:71:e2:d7:c1:a3:db:25:34:9f:7a:29:
                    1a:8d:94:26:37:9a:f6:57:31:03:ad:ef:3e:2b:aa:
                    f8:f1:70:f6:36:c7:b8:09:b4:84:2c:06:84:1d:2e:
                    de:6c:1f:08:05:67:b4:33:e8:f8:1d:61:44:4b:ac:
                    5c:53:71:22:00:79:21:03:5c:95:a6:3a:75:61:1d:
                    ea:8c:9d:ef:c2:56:b9:b5:aa:fa:78:4d:66:7f:a4:
                    01:3e:18:06:ac:13:db:86:f2:61:ed:90:fc:2c:4a:
                    ac:d7:f4:5e:c6:84:00:15:db:1e:73:f7:e7:6f:b4:
                    ee:43:8e:15:5d:cd:2b:4b:5b:7e:4a:35:86:a5:76:
                    69:57
                Exponent: 65537 (0x10001)
        X509v3 extensions:
            X509v3 Basic Constraints: critical
                CA:FALSE
            X509v3 Key Usage: critical
                Digital Signature
            X509v3 Subject Key Identifier: 
                FA:F7:B5:73:BA:4B:58:E3:5C:88:11:21:DD:8D:FC:02:49:90:EC:99
            X509v3 Authority Key Identifier: 
                39:33:DE:C2:5D:60:BC:EE:C1:E3:43:BC:D7:32:46:07:4F:B7:1C:40
    Signature Algorithm: sha256WithRSAEncryption
    Signature Value:
        43:49:93:6f:55:cc:19:35:08:3f:a2:fd:c5:13:23:e4:60:3a:
        7f:28:67:c8:2d:cd:4f:59:3a:b2:66:77:7b:60:4e:24:70:01:
        86:c2:0f:c2:21:bd:6f:92:ad:49:bd:5f:50:8f:e4:04:97:18:
        4f:b5:9d:e4:00:fa:3c:37:35:47:3e:c5:01:3d:04:73:f3:ca:
        61:33:62:9b:c3:ea:a6:9f:47:93:88:36:e7:0e:52:28:5c:5f:
        57:68:0c:54:90:81:37:61:a8:e2:92:a9:96:73:53:39:18:a1:
        76:b4:16:43:5b:14:a0:cf:9c:df:f8:99:95:64:66:a7:41:c3:
        16:f9:7c:47:73:38:70:d4:69:0f:88:b6:1f:50:2e:8b:c5:57:
        1a:92:0d:93:7f:94:7f:a1:c5:a1:6a:c4:0f:08:5f:e4:68:74:
        68:72:a6:8c:9e:6f:1f:63:65:af:94:8e:27:6c:97:9a:69:23:
        d3:73:61:0a:0a:b0:e9:de:ec:23:fc:dd:d8:6f:48:19:74:00:
        2a:3d:af:54:87:7a:c1:af:39:45:e8:c8:b7:7f:7b:f7:51:8d:
        65:5e:0d:10:fc:49:08:97:0f:91:7e:58:22:69:e2:16:a2:2d:
        53:e3:ed:74:5c:64:78:6a:85:82:8b:16:68:d8:f0:11:91:a2:
        ad:1d:70:9e
-----BEGIN CERTIFICATE-----
MIID3jCCAsagAwIBAgIBLDANBgkqhkiG9w0BAQsFADB9MQswCQYDVQQGEwJVUzET
MBEGA1UECAwKQ2FsaWZvcm5pYTEUMBIGA1UEBwwLU2FudGEgQ2xhcmExDTALBgNV
BAoMBHBrZzUxDDAKBgNVBAsMA3RhNzESMBAGA1UEAwwJbG9jYWxob3N0MRIwEAYJ
KoZIhvcNAQkBFgN0YTcwHhcNMjQxMTE0MTQyNjU4WhcNMjcwODExMTQyNjU4WjCB
hTELMAkGA1UEBhMCVVMxEzARBgNVBAgMCkNhbGlmb3JuaWExFDASBgNVBAcMC1Nh
bnRhIENsYXJhMQ0wCwYDVQQKDARwa2c1MRAwDgYDVQQLDAdjczFfdGE3MRIwEAYD
VQQDDAlsb2NhbGhvc3QxFjAUBgkqhkiG9w0BCQEWB2NzMV90YTcwggEiMA0GCSqG
SIb3DQEBAQUAA4IBDwAwggEKAoIBAQC0dAxXhnRyVbzmNGPh6hfAWSdtov6j3Mlb
ZHL7BXvXeMGgBA3y8QnecmjNAqoNG7u4O1LJ8tq7SV7tk3i2WolraL2FVJPD7aeF
wgyVF8tZ1OtYhBYSmql2AmAaWzYjBLmTXG/+/kdn8GZMvF0Lc9aiVaQjYJENsMSg
u4lx4tfBo9slNJ96KRqNlCY3mvZXMQOt7z4rqvjxcPY2x7gJtIQsBoQdLt5sHwgF
Z7Qz6PgdYURLrFxTcSIAeSEDXJWmOnVhHeqMne/CVrm1qvp4TWZ/pAE+GAasE9uG
8mHtkPwsSqzX9F7GhAAV2x5z9+dvtO5DjhVdzStLW35KNYaldmlXAgMBAAGjYDBe
MAwGA1UdEwEB/wQCMAAwDgYDVR0PAQH/BAQDAgeAMB0GA1UdDgQWBBT697VzuktY
41yIESHdjfwCSZDsmTAfBgNVHSMEGDAWgBQ5M97CXWC87sHjQ7zXMkYHT7ccQDAN
BgkqhkiG9w0BAQsFAAOCAQEAQ0mTb1XMGTUIP6L9xRMj5GA6fyhnyC3NT1k6smZ3
e2BOJHABhsIPwiG9b5KtSb1fUI/kBJcYT7Wd5AD6PDc1Rz7FAT0Ec/PKYTNim8Pq
pp9Hk4g25w5SKFxfV2gMVJCBN2Go4pKplnNTORihdrQWQ1sUoM+c3/iZlWRmp0HD
Fvl8R3M4cNRpD4i2H1Aui8VXGpINk3+Uf6HFoWrEDwhf5Gh0aHKmjJ5vH2Nlr5SO
J2yXmmkj03NhCgqw6d7sI/zd2G9IGXQAKj2vVId6wa85RejIt39791GNZV4NEPxJ
CJcPkX5YImniFqItU+PtdFxkeGqFgosWaNjwEZGirR1wng==
-----END CERTIFICATE-----
