Certificate:
    Data:
        Version: 3 (0x2)
        Serial Number: 14 (0xe)
    Signature Algorithm: sha256WithRSAEncryption
        Issuer: C=US, ST=California, L=Santa Clara, O=pkg5, CN=ch5.3_ta1/emailAddress=ch5.3_ta1
        Validity
            Not Before: Dec  6 03:06:42 2014 GMT
            Not After : Sep  1 03:06:42 2017 GMT
        Subject: C=US, ST=California, L=Santa Clara, O=pkg5, CN=cs1_ch5.3_ta1/emailAddress=cs1_ch5.3_ta1
        Subject Public Key Info:
            Public Key Algorithm: rsaEncryption
                Public-Key: (1024 bit)
                Modulus:
                    00:c7:13:5c:05:8f:1a:86:3b:b4:29:3c:a7:25:7f:
                    82:dc:49:fe:66:1e:49:c5:af:f2:07:20:ca:73:e7:
                    9b:6d:1c:9e:7f:06:6c:ca:bf:e2:da:4d:9d:f3:a4:
                    76:f7:9e:cd:76:a7:9e:5a:39:ab:f6:55:53:68:6f:
                    41:01:18:cf:aa:b1:d7:d4:db:1e:05:8e:54:61:c2:
                    5b:cd:2b:5d:df:7b:a0:8c:46:57:3b:1e:a9:65:9a:
                    cf:17:e4:c8:e7:db:d5:7e:b5:c5:88:2e:5f:b8:b3:
                    b2:ec:5c:95:c5:41:dc:15:22:f4:80:9e:4c:b3:13:
                    83:b1:9e:b0:f0:0d:67:23:eb
                Exponent: 65537 (0x10001)
        X509v3 extensions:
            X509v3 Basic Constraints: critical
                CA:FALSE
            X509v3 Key Usage: critical
                Digital Signature
    Signature Algorithm: sha256WithRSAEncryption
         63:6f:2e:12:11:c8:c8:2b:d5:6b:14:99:15:da:96:cf:bc:bc:
         27:74:a8:09:af:97:dc:6e:3d:ae:71:c2:8c:72:88:48:c5:b2:
         d5:7a:0e:5c:4c:65:53:6e:11:7b:eb:44:2f:0e:3c:b5:3c:68:
         a3:a5:87:a4:26:d7:0f:43:fd:b7:15:c0:e7:62:0f:87:35:60:
         f5:c0:3a:46:a7:ee:58:92:28:97:c9:2e:cf:51:0f:64:c6:0b:
         46:00:4e:d7:ed:e3:80:8b:d2:bf:54:56:63:9a:1f:e2:74:34:
         cf:4a:83:56:87:70:0a:8d:70:61:00:ce:2d:25:3c:34:6d:60:
         94:f5
-----BEGIN CERTIFICATE-----
MIICiDCCAfGgAwIBAgIBDjANBgkqhkiG9w0BAQsFADB1MQswCQYDVQQGEwJVUzET
MBEGA1UECAwKQ2FsaWZvcm5pYTEUMBIGA1UEBwwLU2FudGEgQ2xhcmExDTALBgNV
BAoMBHBrZzUxEjAQBgNVBAMMCWNoNS4zX3RhMTEYMBYGCSqGSIb3DQEJARYJY2g1
LjNfdGExMB4XDTE0MTIwNjAzMDY0MloXDTE3MDkwMTAzMDY0MlowfTELMAkGA1UE
BhMCVVMxEzARBgNVBAgMCkNhbGlmb3JuaWExFDASBgNVBAcMC1NhbnRhIENsYXJh
MQ0wCwYDVQQKDARwa2c1MRYwFAYDVQQDDA1jczFfY2g1LjNfdGExMRwwGgYJKoZI
hvcNAQkBFg1jczFfY2g1LjNfdGExMIGfMA0GCSqGSIb3DQEBAQUAA4GNADCBiQKB
gQDHE1wFjxqGO7QpPKclf4LcSf5mHknFr/IHIMpz55ttHJ5/BmzKv+LaTZ3zpHb3
ns12p55aOav2VVNob0EBGM+qsdfU2x4FjlRhwlvNK13fe6CMRlc7Hqllms8X5Mjn
29V+tcWILl+4s7LsXJXFQdwVIvSAnkyzE4OxnrDwDWcj6wIDAQABoyAwHjAMBgNV
HRMBAf8EAjAAMA4GA1UdDwEB/wQEAwIHgDANBgkqhkiG9w0BAQsFAAOBgQBjby4S
EcjIK9VrFJkV2pbPvLwndKgJr5fcbj2uccKMcohIxbLVeg5cTGVTbhF760QvDjy1
PGijpYekJtcPQ/23FcDnYg+HNWD1wDpGp+5YkiiXyS7PUQ9kxgtGAE7X7eOAi9K/
VFZjmh/idDTPSoNWh3AKjXBhAM4tJTw0bWCU9Q==
-----END CERTIFICATE-----
