Certificate:
    Data:
        Version: 3 (0x2)
        Serial Number: 32 (0x20)
        Signature Algorithm: sha256WithRSAEncryption
        Issuer: C=US, ST=California, L=Santa Clara, O=pkg5, CN=ch1.3_ta3/emailAddress=ch1.3_ta3
        Validity
            Not Before: Oct 22 10:15:17 2021 GMT
            Not After : Jul 18 10:15:17 2024 GMT
        Subject: C=US, ST=California, L=Santa Clara, O=pkg5, CN=cs1_ch1.3_ta3/emailAddress=cs1_ch1.3_ta3
        Subject Public Key Info:
            Public Key Algorithm: rsaEncryption
                Public-Key: (2048 bit)
                Modulus:
                    00:8f:08:f0:53:9c:4b:06:32:d0:ba:99:30:11:19:
                    9b:63:2e:46:5f:c3:31:0a:57:ad:75:96:92:01:ef:
                    10:0b:3c:53:61:67:c1:fa:2b:80:aa:d1:5f:ae:10:
                    2d:6f:d1:cb:a2:23:86:cb:57:69:33:db:57:cc:d6:
                    80:4f:f3:68:2c:09:44:9b:42:01:c6:b1:1c:f3:09:
                    af:cc:d2:40:bf:12:1a:21:6a:6d:f5:9b:1f:ce:9a:
                    57:13:7e:44:bb:68:60:b7:57:ad:9c:7a:e1:92:14:
                    bb:78:d3:c8:11:49:ef:49:ae:75:42:a0:20:2d:41:
                    ce:22:e7:01:e5:53:23:d5:f9:76:1c:81:c1:c9:0c:
                    cd:e2:7b:04:b3:d2:8e:88:bc:20:f1:1c:6b:3a:02:
                    72:ad:35:02:c3:d5:f9:39:95:4d:c3:7f:2b:fb:2d:
                    e3:9c:08:a3:da:53:35:df:b4:8e:5c:70:3d:bf:6c:
                    c5:a9:c3:b3:41:6e:48:46:05:42:c0:5e:df:12:55:
                    2c:9a:62:0d:9a:cc:8c:0a:9b:b8:bc:d0:fa:c7:d6:
                    23:30:c9:f4:54:1a:c1:fc:20:54:6e:1c:5c:c6:94:
                    c0:67:1c:b9:b6:64:85:bc:fc:c8:7f:67:69:b9:b4:
                    e7:db:c9:a6:85:5a:16:66:fb:43:7c:f3:ef:14:ef:
                    87:e5
                Exponent: 65537 (0x10001)
        X509v3 extensions:
            X509v3 Basic Constraints: critical
                CA:FALSE
            X509v3 Key Usage: critical
                Digital Signature
            X509v3 Subject Key Identifier: 
                C3:65:DF:FD:65:60:BB:81:2E:01:E9:7F:2C:F7:90:20:D7:B9:3E:65
            X509v3 Authority Key Identifier: 
                52:EF:82:32:AC:6B:1A:30:51:32:A5:96:F8:E3:55:19:55:82:75:17
    Signature Algorithm: sha256WithRSAEncryption
    Signature Value:
        29:e4:2e:54:65:0f:ac:e3:5c:ab:35:81:50:13:4d:b7:72:82:
        27:18:6b:14:57:01:a2:16:7e:af:a2:f8:76:fa:eb:16:53:bb:
        6e:40:36:b4:06:45:21:2c:0e:eb:95:43:d4:65:52:99:f5:ca:
        cd:9c:d8:44:68:59:fa:0e:5a:75:e5:da:1d:9a:67:a2:52:eb:
        7c:d8:88:fc:0e:72:51:97:8d:d2:ad:04:7e:4c:52:19:f6:27:
        4b:84:e5:60:bd:e5:a2:92:68:43:e4:a2:94:d4:89:ff:95:08:
        17:67:6c:99:60:07:88:4d:23:4a:7c:4e:4c:f2:4e:ca:41:4e:
        60:27:83:b8:19:9f:27:f9:2d:6b:ae:16:30:f1:64:df:86:09:
        77:d2:9b:a7:da:7f:b7:26:1c:b6:13:24:5b:7d:e0:32:56:80:
        78:84:91:ce:c4:90:2b:93:a9:91:37:56:38:2b:c6:ac:c9:a1:
        da:a7:7e:eb:c8:53:f4:3a:08:bc:32:0a:70:40:36:6c:dc:e4:
        d6:37:07:d8:d0:0a:a4:ff:94:1a:4a:f3:10:79:f4:e5:55:7a:
        85:3d:b4:05:33:71:a4:b6:7e:4a:66:c3:fe:8b:28:59:ce:ad:
        ff:7b:50:64:56:6a:1c:4d:dd:b4:fa:cb:1b:5b:cd:39:64:6a:
        88:07:12:c1
-----BEGIN CERTIFICATE-----
MIIDzTCCArWgAwIBAgIBIDANBgkqhkiG9w0BAQsFADB1MQswCQYDVQQGEwJVUzET
MBEGA1UECAwKQ2FsaWZvcm5pYTEUMBIGA1UEBwwLU2FudGEgQ2xhcmExDTALBgNV
BAoMBHBrZzUxEjAQBgNVBAMMCWNoMS4zX3RhMzEYMBYGCSqGSIb3DQEJARYJY2gx
LjNfdGEzMB4XDTIxMTAyMjEwMTUxN1oXDTI0MDcxODEwMTUxN1owfTELMAkGA1UE
BhMCVVMxEzARBgNVBAgMCkNhbGlmb3JuaWExFDASBgNVBAcMC1NhbnRhIENsYXJh
MQ0wCwYDVQQKDARwa2c1MRYwFAYDVQQDDA1jczFfY2gxLjNfdGEzMRwwGgYJKoZI
hvcNAQkBFg1jczFfY2gxLjNfdGEzMIIBIjANBgkqhkiG9w0BAQEFAAOCAQ8AMIIB
CgKCAQEAjwjwU5xLBjLQupkwERmbYy5GX8MxCletdZaSAe8QCzxTYWfB+iuAqtFf
rhAtb9HLoiOGy1dpM9tXzNaAT/NoLAlEm0IBxrEc8wmvzNJAvxIaIWpt9ZsfzppX
E35Eu2hgt1etnHrhkhS7eNPIEUnvSa51QqAgLUHOIucB5VMj1fl2HIHByQzN4nsE
s9KOiLwg8RxrOgJyrTUCw9X5OZVNw38r+y3jnAij2lM137SOXHA9v2zFqcOzQW5I
RgVCwF7fElUsmmINmsyMCpu4vND6x9YjMMn0VBrB/CBUbhxcxpTAZxy5tmSFvPzI
f2dpubTn28mmhVoWZvtDfPPvFO+H5QIDAQABo2AwXjAMBgNVHRMBAf8EAjAAMA4G
A1UdDwEB/wQEAwIHgDAdBgNVHQ4EFgQUw2Xf/WVgu4EuAel/LPeQINe5PmUwHwYD
VR0jBBgwFoAUUu+CMqxrGjBRMqWW+ONVGVWCdRcwDQYJKoZIhvcNAQELBQADggEB
ACnkLlRlD6zjXKs1gVATTbdygicYaxRXAaIWfq+i+Hb66xZTu25ANrQGRSEsDuuV
Q9RlUpn1ys2c2ERoWfoOWnXl2h2aZ6JS63zYiPwOclGXjdKtBH5MUhn2J0uE5WC9
5aKSaEPkopTUif+VCBdnbJlgB4hNI0p8TkzyTspBTmAng7gZnyf5LWuuFjDxZN+G
CXfSm6faf7cmHLYTJFt94DJWgHiEkc7EkCuTqZE3VjgrxqzJodqnfuvIU/Q6CLwy
CnBANmzc5NY3B9jQCqT/lBpK8xB59OVVeoU9tAUzcaS2fkpmw/6LKFnOrf97UGRW
ahxN3bT6yxtbzTlkaogHEsE=
-----END CERTIFICATE-----
