Certificate:
    Data:
        Version: 3 (0x2)
        Serial Number: 47 (0x2f)
    Signature Algorithm: sha256WithRSAEncryption
        Issuer: C=US, ST=California, L=Santa Clara, O=pkg5, OU=ta11, CN=localhost/emailAddress=ta11
        Validity
            Not Before: Nov 28 22:50:59 2016 GMT
            Not After : Aug 25 22:50:59 2019 GMT
        Subject: C=US, ST=California, L=Santa Clara, O=pkg5, OU=cs1_ta11, CN=localhost/emailAddress=cs1_ta11
        Subject Public Key Info:
            Public Key Algorithm: rsaEncryption
                Public-Key: (1024 bit)
                Modulus:
                    00:de:cc:4d:92:0e:69:dd:81:4b:9c:1a:0e:ab:be:
                    ad:28:50:29:6d:a5:4a:b9:43:ef:bb:68:a5:30:ca:
                    ee:2f:f0:2f:59:4b:4c:d4:4d:51:fe:20:6d:61:8c:
                    a9:5e:b3:76:84:ae:e6:19:b5:3a:5c:63:0b:8b:6a:
                    fa:20:8c:43:2b:08:f0:8f:3b:a0:62:2a:f8:7e:7f:
                    52:f0:78:ff:e0:a9:1f:bc:25:53:18:b4:e3:26:a2:
                    0c:a7:79:35:d7:e6:3b:ff:8f:c0:07:57:8b:48:4f:
                    e4:dd:1c:3a:b7:2f:86:65:1c:11:09:9e:06:12:21:
                    b7:1c:19:4d:da:8a:d2:40:b7
                Exponent: 65537 (0x10001)
        X509v3 extensions:
            X509v3 Basic Constraints: critical
                CA:FALSE
            X509v3 Key Usage: critical
                Digital Signature
    Signature Algorithm: sha256WithRSAEncryption
         8d:f9:50:a1:2b:7f:43:83:d9:33:d9:05:3b:4e:ce:58:a6:6a:
         8d:73:eb:54:2e:df:d5:ec:4d:a9:5f:b9:72:4e:d3:f2:c6:e5:
         da:fa:0f:cf:82:60:72:91:d7:82:a9:e1:43:4a:54:0d:d0:05:
         99:11:9b:3d:50:97:a4:73:67:60:a4:74:5a:d3:98:fe:09:cc:
         7d:8b:2b:f6:85:f6:99:74:09:d9:85:7b:f9:ee:c2:37:ad:42:
         83:8e:0e:98:24:de:9b:7d:d8:39:08:b2:c9:d3:72:a7:0a:0d:
         f4:7d:b3:7a:0d:7a:ab:1c:22:ac:8f:a4:4b:4a:9a:b0:a1:43:
         41:b0:74:07:55:1b:94:6c:b8:59:41:ed:7a:af:1a:6b:f2:22:
         0b:8e:73:0a:c6:0c:bd:5c:81:a3:81:91:56:14:2f:7d:18:d6:
         d9:97:35:f7:e5:22:cc:66:70:c9:e8:ea:c8:9e:b3:29:19:dc:
         d2:44:fc:61:c7:97:b8:f9:99:9a:17:63:55:ea:db:10:ea:8f:
         84:ce:4d:b9:74:38:00:23:eb:73:bf:16:45:ab:65:11:99:08:
         51:7b:97:b0:1f:1f:9a:40:96:91:0e:b2:48:75:8a:07:5e:ac:
         59:fe:89:33:fb:d5:d5:86:8f:12:0f:3a:9b:b3:0d:c0:c9:d3:
         ac:92:b3:61
-----BEGIN CERTIFICATE-----
MIIDHjCCAgagAwIBAgIBLzANBgkqhkiG9w0BAQsFADB/MQswCQYDVQQGEwJVUzET
MBEGA1UECAwKQ2FsaWZvcm5pYTEUMBIGA1UEBwwLU2FudGEgQ2xhcmExDTALBgNV
BAoMBHBrZzUxDTALBgNVBAsMBHRhMTExEjAQBgNVBAMMCWxvY2FsaG9zdDETMBEG
CSqGSIb3DQEJARYEdGExMTAeFw0xNjExMjgyMjUwNTlaFw0xOTA4MjUyMjUwNTla
MIGHMQswCQYDVQQGEwJVUzETMBEGA1UECAwKQ2FsaWZvcm5pYTEUMBIGA1UEBwwL
U2FudGEgQ2xhcmExDTALBgNVBAoMBHBrZzUxETAPBgNVBAsMCGNzMV90YTExMRIw
EAYDVQQDDAlsb2NhbGhvc3QxFzAVBgkqhkiG9w0BCQEWCGNzMV90YTExMIGfMA0G
CSqGSIb3DQEBAQUAA4GNADCBiQKBgQDezE2SDmndgUucGg6rvq0oUCltpUq5Q++7
aKUwyu4v8C9ZS0zUTVH+IG1hjKles3aEruYZtTpcYwuLavogjEMrCPCPO6BiKvh+
f1LweP/gqR+8JVMYtOMmogyneTXX5jv/j8AHV4tIT+TdHDq3L4ZlHBEJngYSIbcc
GU3aitJAtwIDAQABoyAwHjAMBgNVHRMBAf8EAjAAMA4GA1UdDwEB/wQEAwIHgDAN
BgkqhkiG9w0BAQsFAAOCAQEAjflQoSt/Q4PZM9kFO07OWKZqjXPrVC7f1exNqV+5
ck7T8sbl2voPz4JgcpHXgqnhQ0pUDdAFmRGbPVCXpHNnYKR0WtOY/gnMfYsr9oX2
mXQJ2YV7+e7CN61Cg44OmCTem33YOQiyydNypwoN9H2zeg16qxwirI+kS0qasKFD
QbB0B1UblGy4WUHteq8aa/IiC45zCsYMvVyBo4GRVhQvfRjW2Zc19+UizGZwyejq
yJ6zKRnc0kT8YceXuPmZmhdjVerbEOqPhM5NuXQ4ACPrc78WRatlEZkIUXuXsB8f
mkCWkQ6ySHWKB16sWf6JM/vV1YaPEg86m7MNwMnTrJKzYQ==
-----END CERTIFICATE-----
