Certificate:
    Data:
        Version: 3 (0x2)
        Serial Number: 44 (0x2c)
    Signature Algorithm: sha256WithRSAEncryption
        Issuer: C=US, ST=California, L=Santa Clara, O=pkg5, OU=ta8, CN=localhost/emailAddress=ta8
        Validity
            Not Before: Dec  6 03:06:44 2014 GMT
            Not After : Sep  1 03:06:44 2017 GMT
        Subject: C=US, ST=California, L=Santa Clara, O=pkg5, OU=cs1_ta8, CN=localhost/emailAddress=cs1_ta8
        Subject Public Key Info:
            Public Key Algorithm: rsaEncryption
                Public-Key: (1024 bit)
                Modulus:
                    00:ca:13:8a:08:b6:0e:d1:4c:d3:5a:05:0d:c7:e6:
                    54:e1:5d:9c:a3:38:e7:89:e1:a6:a7:4f:27:e4:ac:
                    88:2b:ab:44:af:03:4f:66:b2:81:d3:29:06:0c:ea:
                    f0:3b:84:a9:af:0a:1a:71:cd:e2:a6:52:3a:a2:c4:
                    8f:f5:45:3d:20:71:78:2e:2e:05:64:c8:d1:c9:6a:
                    87:e5:9a:d7:a3:29:fe:c3:ea:a0:31:a5:44:3f:42:
                    96:0f:3d:c7:3d:7c:9a:3b:d4:30:a3:89:6f:6c:42:
                    0d:ec:36:14:d0:ac:43:31:78:1f:48:59:3b:98:c1:
                    00:49:d7:39:90:4c:65:77:3b
                Exponent: 65537 (0x10001)
        X509v3 extensions:
            X509v3 Basic Constraints: critical
                CA:FALSE
            X509v3 Key Usage: critical
                Digital Signature
    Signature Algorithm: sha256WithRSAEncryption
         4d:97:e5:12:f8:e2:0c:02:01:5b:87:31:cf:29:60:60:ac:61:
         7b:1c:2e:14:21:5d:2c:be:0a:76:b4:b0:c2:b8:ed:a7:ef:a9:
         df:79:a5:6e:0f:ee:08:cf:ad:f7:4e:16:04:0e:5c:f1:c1:ed:
         5d:03:dd:78:d2:b3:8c:c3:04:b1:c7:32:32:ad:dc:1e:42:96:
         77:9c:2d:17:20:7e:17:40:e1:1f:31:ee:04:55:27:57:6e:b8:
         3d:e3:4b:15:ce:9b:e9:c5:45:31:b5:3b:1b:a9:a2:69:c0:da:
         80:30:ce:d5:a0:4e:63:4b:ef:45:e9:bd:69:54:be:39:e1:a4:
         86:56
-----BEGIN CERTIFICATE-----
MIICmTCCAgKgAwIBAgIBLDANBgkqhkiG9w0BAQsFADB9MQswCQYDVQQGEwJVUzET
MBEGA1UECAwKQ2FsaWZvcm5pYTEUMBIGA1UEBwwLU2FudGEgQ2xhcmExDTALBgNV
BAoMBHBrZzUxDDAKBgNVBAsMA3RhODESMBAGA1UEAwwJbG9jYWxob3N0MRIwEAYJ
KoZIhvcNAQkBFgN0YTgwHhcNMTQxMjA2MDMwNjQ0WhcNMTcwOTAxMDMwNjQ0WjCB
hTELMAkGA1UEBhMCVVMxEzARBgNVBAgMCkNhbGlmb3JuaWExFDASBgNVBAcMC1Nh
bnRhIENsYXJhMQ0wCwYDVQQKDARwa2c1MRAwDgYDVQQLDAdjczFfdGE4MRIwEAYD
VQQDDAlsb2NhbGhvc3QxFjAUBgkqhkiG9w0BCQEWB2NzMV90YTgwgZ8wDQYJKoZI
hvcNAQEBBQADgY0AMIGJAoGBAMoTigi2DtFM01oFDcfmVOFdnKM454nhpqdPJ+Ss
iCurRK8DT2aygdMpBgzq8DuEqa8KGnHN4qZSOqLEj/VFPSBxeC4uBWTI0clqh+Wa
16Mp/sPqoDGlRD9Clg89xz18mjvUMKOJb2xCDew2FNCsQzF4H0hZO5jBAEnXOZBM
ZXc7AgMBAAGjIDAeMAwGA1UdEwEB/wQCMAAwDgYDVR0PAQH/BAQDAgeAMA0GCSqG
SIb3DQEBCwUAA4GBAE2X5RL44gwCAVuHMc8pYGCsYXscLhQhXSy+Cna0sMK47afv
qd95pW4P7gjPrfdOFgQOXPHB7V0D3XjSs4zDBLHHMjKt3B5ClnecLRcgfhdA4R8x
7gRVJ1duuD3jSxXOm+nFRTG1OxupomnA2oAwztWgTmNL70XpvWlUvjnhpIZW
-----END CERTIFICATE-----
