Certificate:
    Data:
        Version: 3 (0x2)
        Serial Number: 32 (0x20)
        Signature Algorithm: sha256WithRSAEncryption
        Issuer: C=US, ST=California, L=Santa Clara, O=pkg5, CN=ch1.3_ta3/emailAddress=ch1.3_ta3
        Validity
            Not Before: Dec 15 15:37:27 2022 GMT
            Not After : Sep 10 15:37:27 2025 GMT
        Subject: C=US, ST=California, L=Santa Clara, O=pkg5, CN=cs1_ch1.3_ta3/emailAddress=cs1_ch1.3_ta3
        Subject Public Key Info:
            Public Key Algorithm: rsaEncryption
                Public-Key: (2048 bit)
                Modulus:
                    00:d7:65:2b:a1:44:9b:68:de:0b:4d:c4:a7:bb:d3:
                    b9:b8:60:eb:24:7a:63:c6:7f:40:a0:a0:67:93:79:
                    2f:db:eb:92:bc:5e:37:a4:44:37:1e:83:8b:b2:03:
                    0c:8d:07:26:71:ac:01:ef:a4:88:f5:b2:df:87:02:
                    9e:5d:09:ae:92:ea:54:c5:27:7c:94:03:b8:e2:72:
                    64:87:fe:7c:00:ea:c6:ea:a4:7e:a1:1b:66:76:19:
                    a4:f1:84:d6:99:6e:9f:ba:40:ae:be:4f:23:d2:7e:
                    22:01:67:39:46:16:5d:fd:b1:84:8e:a9:5f:aa:07:
                    d9:b6:c3:8d:56:a7:9a:57:64:7b:b6:73:fd:d9:1f:
                    8c:0c:0e:be:04:a3:22:14:95:9c:2e:58:0c:8c:51:
                    b8:a5:d8:1c:09:b6:36:24:3d:4e:4d:72:f1:70:05:
                    47:f1:f9:27:3c:14:d1:b8:e2:bf:82:34:40:15:b3:
                    b4:ff:bd:bf:79:0f:a5:bf:5c:e7:1a:7f:15:cb:7a:
                    86:b5:51:b1:b5:06:4c:e2:2e:c7:b2:5e:94:87:36:
                    4c:d3:4c:07:7a:61:a0:10:12:a1:fd:1f:16:29:1f:
                    bf:03:e8:d4:a4:90:48:ad:fc:30:1c:78:a0:d7:5c:
                    7a:07:ae:c2:a0:9b:30:43:58:bb:0b:50:eb:9e:21:
                    bb:c9
                Exponent: 65537 (0x10001)
        X509v3 extensions:
            X509v3 Basic Constraints: critical
                CA:FALSE
            X509v3 Key Usage: critical
                Digital Signature
            X509v3 Subject Key Identifier: 
                1B:83:85:34:ED:9B:10:1F:23:A1:E5:00:04:A2:36:5F:3B:A4:78:D8
            X509v3 Authority Key Identifier: 
                49:F3:82:FB:48:1D:2A:E1:FF:E0:A4:B8:CA:9D:57:1E:77:E1:2A:C2
    Signature Algorithm: sha256WithRSAEncryption
    Signature Value:
        09:6d:23:67:9d:af:ab:31:8b:27:49:5f:87:84:ba:68:5e:d1:
        53:25:64:b4:f9:04:c0:87:95:97:a0:10:3b:af:8c:86:fa:94:
        38:e5:25:0b:31:a7:9e:d8:70:1f:01:6c:7b:22:fd:b9:11:e3:
        cf:78:c6:e4:0f:65:20:d9:3d:45:21:2a:8e:2f:67:4b:07:0e:
        9b:d7:55:72:2c:79:b6:83:1f:81:15:12:de:7a:a8:22:0f:3e:
        f8:26:da:8f:48:3b:1b:1f:d6:86:f9:f1:9d:2b:99:67:ba:08:
        7a:6b:91:a7:38:68:3b:2a:70:2b:90:8e:72:13:c2:20:f7:52:
        37:f9:15:c2:7a:a5:d7:5a:2a:b4:88:63:48:2e:04:4e:ca:1f:
        21:6b:73:c5:95:bf:31:be:ba:57:4f:ef:41:f7:3d:8c:e3:74:
        62:0b:49:64:25:73:3e:29:49:b8:8f:ef:b8:1e:d3:dd:a1:61:
        0c:1e:6d:dc:a0:8e:00:c5:92:0f:97:75:72:81:df:e4:7e:fb:
        c2:9e:96:df:7c:80:97:6e:94:7c:7c:23:f8:56:b4:aa:f1:93:
        1f:78:92:b3:f7:7d:8e:df:29:67:d3:80:6f:29:7e:f7:5c:81:
        cc:3f:da:19:e3:d4:33:b1:b1:03:7d:96:f6:57:16:53:bd:b5:
        dc:00:71:58
-----BEGIN CERTIFICATE-----
MIIDzTCCArWgAwIBAgIBIDANBgkqhkiG9w0BAQsFADB1MQswCQYDVQQGEwJVUzET
MBEGA1UECAwKQ2FsaWZvcm5pYTEUMBIGA1UEBwwLU2FudGEgQ2xhcmExDTALBgNV
BAoMBHBrZzUxEjAQBgNVBAMMCWNoMS4zX3RhMzEYMBYGCSqGSIb3DQEJARYJY2gx
LjNfdGEzMB4XDTIyMTIxNTE1MzcyN1oXDTI1MDkxMDE1MzcyN1owfTELMAkGA1UE
BhMCVVMxEzARBgNVBAgMCkNhbGlmb3JuaWExFDASBgNVBAcMC1NhbnRhIENsYXJh
MQ0wCwYDVQQKDARwa2c1MRYwFAYDVQQDDA1jczFfY2gxLjNfdGEzMRwwGgYJKoZI
hvcNAQkBFg1jczFfY2gxLjNfdGEzMIIBIjANBgkqhkiG9w0BAQEFAAOCAQ8AMIIB
CgKCAQEA12UroUSbaN4LTcSnu9O5uGDrJHpjxn9AoKBnk3kv2+uSvF43pEQ3HoOL
sgMMjQcmcawB76SI9bLfhwKeXQmukupUxSd8lAO44nJkh/58AOrG6qR+oRtmdhmk
8YTWmW6fukCuvk8j0n4iAWc5RhZd/bGEjqlfqgfZtsONVqeaV2R7tnP92R+MDA6+
BKMiFJWcLlgMjFG4pdgcCbY2JD1OTXLxcAVH8fknPBTRuOK/gjRAFbO0/72/eQ+l
v1znGn8Vy3qGtVGxtQZM4i7Hsl6UhzZM00wHemGgEBKh/R8WKR+/A+jUpJBIrfww
HHig11x6B67CoJswQ1i7C1DrniG7yQIDAQABo2AwXjAMBgNVHRMBAf8EAjAAMA4G
A1UdDwEB/wQEAwIHgDAdBgNVHQ4EFgQUG4OFNO2bEB8joeUABKI2XzukeNgwHwYD
VR0jBBgwFoAUSfOC+0gdKuH/4KS4yp1XHnfhKsIwDQYJKoZIhvcNAQELBQADggEB
AAltI2edr6sxiydJX4eEumhe0VMlZLT5BMCHlZegEDuvjIb6lDjlJQsxp57YcB8B
bHsi/bkR4894xuQPZSDZPUUhKo4vZ0sHDpvXVXIsebaDH4EVEt56qCIPPvgm2o9I
Oxsf1ob58Z0rmWe6CHprkac4aDsqcCuQjnITwiD3Ujf5FcJ6pddaKrSIY0guBE7K
HyFrc8WVvzG+uldP70H3PYzjdGILSWQlcz4pSbiP77ge092hYQwebdygjgDFkg+X
dXKB3+R++8Kelt98gJdulHx8I/hWtKrxkx94krP3fY7fKWfTgG8pfvdcgcw/2hnj
1DOxsQN9lvZXFlO9tdwAcVg=
-----END CERTIFICATE-----
