Certificate:
    Data:
        Version: 3 (0x2)
        Serial Number: 14 (0xe)
        Signature Algorithm: sha256WithRSAEncryption
        Issuer: C=US, ST=California, L=Santa Clara, O=pkg5, CN=ch5.3_ta1/emailAddress=ch5.3_ta1
        Validity
            Not Before: Dec 15 15:37:19 2022 GMT
            Not After : Sep 10 15:37:19 2025 GMT
        Subject: C=US, ST=California, L=Santa Clara, O=pkg5, CN=cs1_ch5.3_ta1/emailAddress=cs1_ch5.3_ta1
        Subject Public Key Info:
            Public Key Algorithm: rsaEncryption
                Public-Key: (2048 bit)
                Modulus:
                    00:a4:60:a7:6e:de:80:01:3f:cd:3b:c8:04:bf:a7:
                    36:f8:a9:ae:10:84:d5:3e:ca:e6:ea:08:a4:35:91:
                    28:a4:72:2b:fc:d9:f2:9a:d8:69:de:79:35:67:3a:
                    ca:c4:a9:e8:47:bd:9f:7e:1a:59:48:82:99:26:4c:
                    b0:3b:62:e8:7c:b7:10:2f:b9:c9:6d:36:68:aa:50:
                    e4:5d:7c:2c:cf:97:c0:f2:da:5e:25:52:a8:48:21:
                    03:e0:c7:81:3b:59:9c:2a:4c:aa:66:d0:f9:68:7e:
                    49:37:4c:54:69:6f:61:a9:69:81:da:45:39:d9:35:
                    c6:cb:16:47:3e:e3:2e:35:b1:7c:6c:ba:15:6f:ef:
                    d7:80:13:13:ab:7c:b5:6f:ce:28:06:6c:df:81:f3:
                    7f:19:ac:58:b9:56:74:cf:79:b6:0e:8c:43:5d:60:
                    41:0e:bf:b8:8a:09:fb:5d:4b:fb:41:3a:fe:4d:ea:
                    a6:65:8b:e1:75:00:21:50:7b:9d:9b:00:3f:75:f1:
                    c3:21:29:0c:49:7a:1c:7e:51:c1:7f:9f:52:67:fd:
                    8e:75:a0:2c:1b:b6:f7:03:fa:45:d2:71:e4:03:20:
                    43:65:a7:93:92:bd:0d:9f:9e:b9:d2:5d:99:6d:c8:
                    7a:01:ac:3f:05:10:93:f6:e1:28:2c:55:fa:c7:e2:
                    d3:5d
                Exponent: 65537 (0x10001)
        X509v3 extensions:
            X509v3 Basic Constraints: critical
                CA:FALSE
            X509v3 Key Usage: critical
                Digital Signature
            X509v3 Subject Key Identifier: 
                8B:7E:F9:74:3E:A7:DF:1E:D4:41:A9:E4:1B:9D:F5:4E:0E:ED:1B:A1
            X509v3 Authority Key Identifier: 
                80:7F:8E:11:E5:73:9E:B2:0D:9F:B8:71:76:68:DE:CB:EB:72:40:5F
    Signature Algorithm: sha256WithRSAEncryption
    Signature Value:
        33:71:d9:35:20:61:26:7b:47:f1:0e:40:ac:b7:77:98:ed:0d:
        77:58:cd:f5:07:fa:a7:2d:ca:d7:20:61:f2:f5:aa:c7:cf:8c:
        e1:41:35:4a:e1:e7:ea:47:54:8f:6a:d0:80:1d:31:52:f6:f9:
        84:e1:53:16:03:b4:31:ed:ed:64:cb:91:8b:90:20:9e:3a:95:
        1d:f3:ba:51:9b:00:dc:96:0c:a2:03:77:4f:76:71:df:57:71:
        52:1e:2e:39:24:31:38:66:19:78:ff:1c:15:b1:2e:cb:53:3e:
        24:a2:53:eb:3e:97:b5:af:d7:ce:91:ad:b3:fd:26:15:f3:ea:
        67:f6:14:10:5b:ad:06:ba:ab:74:1c:6a:8c:c7:7e:02:c9:af:
        4c:7c:58:91:84:e2:a4:cc:e3:f8:db:09:7c:46:6a:af:19:b0:
        48:62:a8:43:9f:06:1d:39:41:b7:76:5b:62:15:26:81:ae:fa:
        9a:c1:81:df:c8:54:4f:68:d9:b7:15:02:7e:61:b1:0c:1a:ca:
        26:37:d2:a1:3d:5b:0c:eb:05:f1:13:91:50:90:4a:36:42:ba:
        4f:f9:9f:eb:5c:dd:35:05:17:18:86:be:7f:96:96:8c:b4:cd:
        6a:cb:67:ae:65:32:93:a1:03:60:fc:d7:a1:8b:54:7f:b4:63:
        b9:95:a2:91
-----BEGIN CERTIFICATE-----
MIIDzTCCArWgAwIBAgIBDjANBgkqhkiG9w0BAQsFADB1MQswCQYDVQQGEwJVUzET
MBEGA1UECAwKQ2FsaWZvcm5pYTEUMBIGA1UEBwwLU2FudGEgQ2xhcmExDTALBgNV
BAoMBHBrZzUxEjAQBgNVBAMMCWNoNS4zX3RhMTEYMBYGCSqGSIb3DQEJARYJY2g1
LjNfdGExMB4XDTIyMTIxNTE1MzcxOVoXDTI1MDkxMDE1MzcxOVowfTELMAkGA1UE
BhMCVVMxEzARBgNVBAgMCkNhbGlmb3JuaWExFDASBgNVBAcMC1NhbnRhIENsYXJh
MQ0wCwYDVQQKDARwa2c1MRYwFAYDVQQDDA1jczFfY2g1LjNfdGExMRwwGgYJKoZI
hvcNAQkBFg1jczFfY2g1LjNfdGExMIIBIjANBgkqhkiG9w0BAQEFAAOCAQ8AMIIB
CgKCAQEApGCnbt6AAT/NO8gEv6c2+KmuEITVPsrm6gikNZEopHIr/Nnymthp3nk1
ZzrKxKnoR72ffhpZSIKZJkywO2LofLcQL7nJbTZoqlDkXXwsz5fA8tpeJVKoSCED
4MeBO1mcKkyqZtD5aH5JN0xUaW9hqWmB2kU52TXGyxZHPuMuNbF8bLoVb+/XgBMT
q3y1b84oBmzfgfN/GaxYuVZ0z3m2DoxDXWBBDr+4ign7XUv7QTr+TeqmZYvhdQAh
UHudmwA/dfHDISkMSXocflHBf59SZ/2OdaAsG7b3A/pF0nHkAyBDZaeTkr0Nn565
0l2Zbch6Aaw/BRCT9uEoLFX6x+LTXQIDAQABo2AwXjAMBgNVHRMBAf8EAjAAMA4G
A1UdDwEB/wQEAwIHgDAdBgNVHQ4EFgQUi375dD6n3x7UQankG531Tg7tG6EwHwYD
VR0jBBgwFoAUgH+OEeVznrINn7hxdmjey+tyQF8wDQYJKoZIhvcNAQELBQADggEB
ADNx2TUgYSZ7R/EOQKy3d5jtDXdYzfUH+qctytcgYfL1qsfPjOFBNUrh5+pHVI9q
0IAdMVL2+YThUxYDtDHt7WTLkYuQIJ46lR3zulGbANyWDKIDd092cd9XcVIeLjkk
MThmGXj/HBWxLstTPiSiU+s+l7Wv186RrbP9JhXz6mf2FBBbrQa6q3QcaozHfgLJ
r0x8WJGE4qTM4/jbCXxGaq8ZsEhiqEOfBh05Qbd2W2IVJoGu+prBgd/IVE9o2bcV
An5hsQwayiY30qE9WwzrBfETkVCQSjZCuk/5n+tc3TUFFxiGvn+Wloy0zWrLZ65l
MpOhA2D816GLVH+0Y7mVopE=
-----END CERTIFICATE-----
