Certificate:
    Data:
        Version: 3 (0x2)
        Serial Number: 45 (0x2d)
        Signature Algorithm: sha256WithRSAEncryption
        Issuer: C=US, ST=California, L=Santa Clara, O=pkg5, OU=ta8, CN=localhost/emailAddress=ta8
        Validity
            Not Before: Dec 15 15:37:33 2022 GMT
            Not After : Sep 10 15:37:33 2025 GMT
        Subject: C=US, ST=California, L=Santa Clara, O=pkg5, OU=cs1_ta8, CN=localhost/emailAddress=cs1_ta8
        Subject Public Key Info:
            Public Key Algorithm: rsaEncryption
                Public-Key: (2048 bit)
                Modulus:
                    00:c6:32:19:d6:1a:17:86:ff:32:87:2f:c6:96:5b:
                    2e:96:b9:e8:47:6e:f0:8b:65:d4:fa:5c:70:55:6b:
                    49:58:a4:1e:06:1c:44:f7:13:b1:e2:56:19:4e:97:
                    83:64:74:87:8c:51:ce:34:41:bb:0a:05:9d:aa:b6:
                    73:a1:e8:6f:92:a8:ad:40:53:24:46:3e:f7:b6:a8:
                    97:30:c2:e2:5b:a0:75:54:99:09:fe:b9:f0:1a:de:
                    fc:4f:27:b3:f4:b9:04:7d:c6:1c:d7:b5:5e:ba:7e:
                    e0:98:21:63:85:74:85:02:53:f7:2a:0a:dd:75:e6:
                    90:96:19:91:14:3f:30:f0:a8:a2:f2:ef:c5:df:6a:
                    06:a5:b4:46:b3:a3:b0:fe:3e:a6:38:9a:86:ad:43:
                    be:26:fb:3c:d5:bb:92:6e:de:d4:f3:8e:52:1a:6b:
                    cf:7c:0c:9f:2c:56:fa:1b:76:d5:6e:f0:19:e3:09:
                    48:80:6b:05:90:25:fc:d2:80:20:dd:b1:37:52:2a:
                    3f:ee:b1:a5:f3:fb:15:02:fe:60:95:a2:80:a8:43:
                    0a:8d:a5:c9:6a:ba:ab:6a:ce:72:82:03:11:f3:b7:
                    b9:6c:e6:d0:ad:1b:ce:54:ba:72:3e:98:6a:42:ea:
                    26:18:2d:e8:a1:92:bf:0a:aa:b7:9a:35:ad:37:f0:
                    e5:71
                Exponent: 65537 (0x10001)
        X509v3 extensions:
            X509v3 Basic Constraints: critical
                CA:FALSE
            X509v3 Key Usage: critical
                Digital Signature
            X509v3 Subject Key Identifier: 
                63:62:F3:0A:CA:F5:9A:9B:AF:00:ED:77:E6:74:05:93:28:31:AC:34
            X509v3 Authority Key Identifier: 
                33:3E:95:FE:F8:ED:7D:9A:E9:08:93:B0:C7:9D:30:6C:A4:A3:AC:7D
    Signature Algorithm: sha256WithRSAEncryption
    Signature Value:
        26:1b:0e:5a:7d:65:a7:6d:db:31:fc:60:d5:b7:14:43:59:9b:
        3f:7d:89:a4:c7:ff:3e:4e:fa:e4:5b:9b:ec:3f:93:8c:31:0e:
        b2:23:f0:a0:84:2c:16:40:59:49:22:6e:bb:be:a8:9c:ea:d1:
        87:40:e1:9f:ee:45:14:b9:97:e8:d1:b1:ca:48:bc:8e:04:41:
        c4:cb:8c:01:10:45:a4:e6:74:f7:13:2d:20:a4:eb:b7:5a:92:
        21:bc:90:04:4c:c7:05:31:fe:ea:f7:ea:fd:ff:d5:47:31:ca:
        b1:d6:ca:ee:b5:1c:bb:2d:b8:b4:58:7f:f8:6c:d1:fc:17:02:
        7a:da:3b:c0:02:37:63:95:17:c2:15:49:a0:a6:6f:62:67:08:
        8a:93:64:35:77:54:75:30:a1:b1:9a:47:22:60:38:50:3d:c3:
        42:c9:fb:a4:a9:47:36:db:eb:7c:8d:23:3c:1d:6a:ba:3e:03:
        04:15:ba:ef:6d:56:be:23:43:9a:fe:aa:9a:10:b8:75:0a:24:
        2f:35:88:d7:8d:0b:e5:8e:fa:2a:7e:71:fe:23:e6:29:43:4a:
        0a:d9:2e:b8:89:06:8a:24:d9:2b:99:12:2d:97:c1:c6:8a:ca:
        e9:5b:90:b7:eb:c3:11:29:3f:e7:e6:68:1b:76:3e:85:c1:f0:
        0f:91:a4:2a
-----BEGIN CERTIFICATE-----
MIID3jCCAsagAwIBAgIBLTANBgkqhkiG9w0BAQsFADB9MQswCQYDVQQGEwJVUzET
MBEGA1UECAwKQ2FsaWZvcm5pYTEUMBIGA1UEBwwLU2FudGEgQ2xhcmExDTALBgNV
BAoMBHBrZzUxDDAKBgNVBAsMA3RhODESMBAGA1UEAwwJbG9jYWxob3N0MRIwEAYJ
KoZIhvcNAQkBFgN0YTgwHhcNMjIxMjE1MTUzNzMzWhcNMjUwOTEwMTUzNzMzWjCB
hTELMAkGA1UEBhMCVVMxEzARBgNVBAgMCkNhbGlmb3JuaWExFDASBgNVBAcMC1Nh
bnRhIENsYXJhMQ0wCwYDVQQKDARwa2c1MRAwDgYDVQQLDAdjczFfdGE4MRIwEAYD
VQQDDAlsb2NhbGhvc3QxFjAUBgkqhkiG9w0BCQEWB2NzMV90YTgwggEiMA0GCSqG
SIb3DQEBAQUAA4IBDwAwggEKAoIBAQDGMhnWGheG/zKHL8aWWy6WuehHbvCLZdT6
XHBVa0lYpB4GHET3E7HiVhlOl4NkdIeMUc40QbsKBZ2qtnOh6G+SqK1AUyRGPve2
qJcwwuJboHVUmQn+ufAa3vxPJ7P0uQR9xhzXtV66fuCYIWOFdIUCU/cqCt115pCW
GZEUPzDwqKLy78XfagaltEazo7D+PqY4moatQ74m+zzVu5Ju3tTzjlIaa898DJ8s
VvobdtVu8BnjCUiAawWQJfzSgCDdsTdSKj/usaXz+xUC/mCVooCoQwqNpclquqtq
znKCAxHzt7ls5tCtG85UunI+mGpC6iYYLeihkr8KqreaNa038OVxAgMBAAGjYDBe
MAwGA1UdEwEB/wQCMAAwDgYDVR0PAQH/BAQDAgeAMB0GA1UdDgQWBBRjYvMKyvWa
m68A7XfmdAWTKDGsNDAfBgNVHSMEGDAWgBQzPpX++O19mukIk7DHnTBspKOsfTAN
BgkqhkiG9w0BAQsFAAOCAQEAJhsOWn1lp23bMfxg1bcUQ1mbP32JpMf/Pk765Fub
7D+TjDEOsiPwoIQsFkBZSSJuu76onOrRh0Dhn+5FFLmX6NGxyki8jgRBxMuMARBF
pOZ09xMtIKTrt1qSIbyQBEzHBTH+6vfq/f/VRzHKsdbK7rUcuy24tFh/+GzR/BcC
eto7wAI3Y5UXwhVJoKZvYmcIipNkNXdUdTChsZpHImA4UD3DQsn7pKlHNtvrfI0j
PB1quj4DBBW6721WviNDmv6qmhC4dQokLzWI140L5Y76Kn5x/iPmKUNKCtkuuIkG
iiTZK5kSLZfBxorK6VuQt+vDESk/5+ZoG3Y+hcHwD5GkKg==
-----END CERTIFICATE-----
