Certificate:
    Data:
        Version: 3 (0x2)
        Serial Number: 17 (0x11)
        Signature Algorithm: sha256WithRSAEncryption
        Issuer: C=US, ST=California, L=Santa Clara, O=pkg5, CN=ch1_ta3/emailAddress=ch1_ta3
        Validity
            Not Before: Nov 14 14:26:54 2024 GMT
            Not After : Aug 11 14:26:54 2027 GMT
        Subject: C=US, ST=California, L=Santa Clara, O=pkg5, CN=cs1_ch1_ta3/emailAddress=cs1_ch1_ta3
        Subject Public Key Info:
            Public Key Algorithm: rsaEncryption
                Public-Key: (2048 bit)
                Modulus:
                    00:d8:72:73:8a:52:5c:4d:d6:02:15:ed:e9:d4:17:
                    95:0d:6b:81:f3:7b:16:99:e6:9f:0d:fa:1c:26:b1:
                    2d:bb:11:aa:bf:1a:d2:e8:ff:29:8b:63:eb:55:4c:
                    52:1e:23:80:bb:08:25:ec:55:f9:45:4b:f6:ff:f6:
                    de:0f:f0:91:07:3c:f1:77:af:f3:10:4e:3d:23:a6:
                    b0:ed:c8:3e:f5:13:11:7a:80:ab:7c:92:e3:bb:55:
                    75:8a:a1:ab:b0:03:62:5f:d5:26:a8:24:9c:fd:b3:
                    63:4c:60:3e:b1:e1:5c:f3:1f:5e:5d:2e:32:f3:42:
                    51:85:f7:b8:9a:4f:14:fb:49:3c:e3:83:34:1c:e4:
                    3d:88:94:84:3b:a8:86:89:ec:78:57:ab:f6:7e:f3:
                    19:de:46:d6:ed:9e:33:19:19:b9:eb:d2:a2:79:1c:
                    91:04:93:d4:e1:c1:a5:5b:18:fa:6e:72:ce:3f:51:
                    ea:24:0c:b4:d4:4b:28:98:8e:fa:e7:5d:b1:07:c1:
                    96:30:9c:19:8d:fe:97:82:74:21:c5:32:18:0e:1d:
                    20:07:bf:b5:c2:6b:da:b4:8d:93:1f:91:fe:82:1d:
                    16:56:da:de:3c:f6:f9:15:a5:21:7a:ab:ad:0f:f1:
                    f1:b9:34:08:18:98:f4:53:8d:31:46:21:63:1c:13:
                    0b:db
                Exponent: 65537 (0x10001)
        X509v3 extensions:
            X509v3 Basic Constraints: critical
                CA:FALSE
            X509v3 Key Usage: critical
                Digital Signature
            X509v3 Subject Key Identifier: 
                60:D5:61:5E:3D:3D:58:39:0F:0D:51:06:42:5D:B7:1A:DB:3F:F4:E3
            X509v3 Authority Key Identifier: 
                AD:BE:5E:36:0D:CA:1F:58:96:99:52:1F:30:4B:F4:16:7A:8D:9E:7F
    Signature Algorithm: sha256WithRSAEncryption
    Signature Value:
        51:20:70:c2:3f:b3:3c:b9:d0:49:c1:3d:d7:04:55:47:30:31:
        a2:f4:05:a8:d6:79:c7:0e:72:e3:80:2d:7a:5f:c0:f5:c4:f2:
        56:8c:56:4b:ad:57:ef:18:3a:b5:94:3e:b0:52:6e:21:cf:e8:
        41:b8:48:89:ef:33:dc:df:87:dd:d2:91:ce:25:b0:c9:28:fa:
        1d:c8:b4:81:47:cb:07:ab:0f:87:68:b5:1e:be:46:dd:98:09:
        31:d5:4f:b9:d2:fa:b3:ec:b9:78:73:be:9d:f8:d3:b0:1f:6b:
        f7:b1:dd:b1:3c:d7:a9:0a:af:ed:f3:63:68:84:da:a8:b7:cf:
        53:dd:92:08:3e:b2:2d:88:ab:68:0c:a2:77:fe:fa:9c:eb:13:
        f4:9e:39:17:5d:85:d8:32:da:f0:16:08:44:41:94:cd:a4:0d:
        b4:d6:e5:ab:e2:7e:27:fc:11:ae:e1:75:d2:c7:1b:5b:58:01:
        58:c5:34:91:5d:8f:08:ec:63:9a:83:99:53:3a:e6:ec:9b:5a:
        f6:75:b5:b6:8f:1d:56:5c:de:19:33:b2:59:7d:df:dd:f4:4f:
        ef:e9:73:4b:5c:f5:40:f6:c5:e3:17:98:19:ae:21:76:82:56:
        5d:bc:97:35:c5:28:a5:79:e1:dd:51:2a:70:2c:97:67:74:1a:
        a6:db:88:fc
-----BEGIN CERTIFICATE-----
MIIDxTCCAq2gAwIBAgIBETANBgkqhkiG9w0BAQsFADBxMQswCQYDVQQGEwJVUzET
MBEGA1UECAwKQ2FsaWZvcm5pYTEUMBIGA1UEBwwLU2FudGEgQ2xhcmExDTALBgNV
BAoMBHBrZzUxEDAOBgNVBAMMB2NoMV90YTMxFjAUBgkqhkiG9w0BCQEWB2NoMV90
YTMwHhcNMjQxMTE0MTQyNjU0WhcNMjcwODExMTQyNjU0WjB5MQswCQYDVQQGEwJV
UzETMBEGA1UECAwKQ2FsaWZvcm5pYTEUMBIGA1UEBwwLU2FudGEgQ2xhcmExDTAL
BgNVBAoMBHBrZzUxFDASBgNVBAMMC2NzMV9jaDFfdGEzMRowGAYJKoZIhvcNAQkB
FgtjczFfY2gxX3RhMzCCASIwDQYJKoZIhvcNAQEBBQADggEPADCCAQoCggEBANhy
c4pSXE3WAhXt6dQXlQ1rgfN7Fpnmnw36HCaxLbsRqr8a0uj/KYtj61VMUh4jgLsI
JexV+UVL9v/23g/wkQc88Xev8xBOPSOmsO3IPvUTEXqAq3yS47tVdYqhq7ADYl/V
JqgknP2zY0xgPrHhXPMfXl0uMvNCUYX3uJpPFPtJPOODNBzkPYiUhDuohonseFer
9n7zGd5G1u2eMxkZuevSonkckQST1OHBpVsY+m5yzj9R6iQMtNRLKJiO+uddsQfB
ljCcGY3+l4J0IcUyGA4dIAe/tcJr2rSNkx+R/oIdFlba3jz2+RWlIXqrrQ/x8bk0
CBiY9FONMUYhYxwTC9sCAwEAAaNgMF4wDAYDVR0TAQH/BAIwADAOBgNVHQ8BAf8E
BAMCB4AwHQYDVR0OBBYEFGDVYV49PVg5Dw1RBkJdtxrbP/TjMB8GA1UdIwQYMBaA
FK2+XjYNyh9YlplSHzBL9BZ6jZ5/MA0GCSqGSIb3DQEBCwUAA4IBAQBRIHDCP7M8
udBJwT3XBFVHMDGi9AWo1nnHDnLjgC16X8D1xPJWjFZLrVfvGDq1lD6wUm4hz+hB
uEiJ7zPc34fd0pHOJbDJKPodyLSBR8sHqw+HaLUevkbdmAkx1U+50vqz7Ll4c76d
+NOwH2v3sd2xPNepCq/t82NohNqot89T3ZIIPrItiKtoDKJ3/vqc6xP0njkXXYXY
MtrwFghEQZTNpA201uWr4n4n/BGu4XXSxxtbWAFYxTSRXY8I7GOag5lTOubsm1r2
dbW2jx1WXN4ZM7JZfd/d9E/v6XNLXPVA9sXjF5gZriF2glZdvJc1xSileeHdUSpw
LJdndBqm24j8
-----END CERTIFICATE-----
