Certificate:
    Data:
        Version: 3 (0x2)
        Serial Number: 11 (0xb)
        Signature Algorithm: sha256WithRSAEncryption
        Issuer: C=US, ST=California, L=Santa Clara, O=pkg5, CN=ch5.2_ta1/emailAddress=ch5.2_ta1
        Validity
            Not Before: Oct 22 10:15:08 2021 GMT
            Not After : Jul 18 10:15:08 2024 GMT
        Subject: C=US, ST=California, L=Santa Clara, O=pkg5, CN=cs1_ch5.2_ta1/emailAddress=cs1_ch5.2_ta1
        Subject Public Key Info:
            Public Key Algorithm: rsaEncryption
                Public-Key: (2048 bit)
                Modulus:
                    00:e1:60:fd:85:56:50:82:1c:f4:a3:14:ce:07:4b:
                    ad:db:2f:63:5b:e5:fc:36:74:ac:dd:65:7f:c4:94:
                    dd:7c:f7:02:23:49:0b:25:db:d3:30:88:67:d5:95:
                    c0:73:bb:d6:fc:02:24:5d:1c:b8:75:03:d0:6f:11:
                    6f:e5:b5:7a:eb:a4:79:ef:64:e8:5b:da:64:b7:80:
                    06:97:23:f9:ba:1e:60:23:ce:de:5a:76:57:28:7e:
                    9b:cc:5d:d4:80:63:dc:8e:d5:74:26:41:7f:a9:19:
                    93:45:f6:b1:b6:cb:4d:ef:41:5b:33:23:dd:e8:cc:
                    c1:d3:73:e9:63:14:e9:7c:f2:e4:2a:9a:61:20:bc:
                    e3:29:4d:d2:07:b9:5d:e7:65:91:01:52:66:7e:a8:
                    13:eb:8d:31:78:40:c1:c8:fa:ec:67:3f:53:da:55:
                    7f:40:d6:df:b2:4a:09:02:84:36:81:fb:d5:9b:17:
                    be:d5:62:e8:c5:5d:3b:80:e0:b5:9d:9d:e0:6e:77:
                    30:c1:cf:0e:58:8c:36:59:ba:65:f5:07:2a:de:f7:
                    16:88:d8:d5:05:a4:41:3d:49:05:cd:4f:40:5a:de:
                    b3:79:6e:d1:a4:81:ad:ab:b7:c4:a2:7c:95:1c:3c:
                    dd:e3:a8:a9:cf:5b:8b:97:70:a3:e6:05:6d:05:90:
                    78:05
                Exponent: 65537 (0x10001)
        X509v3 extensions:
            X509v3 Basic Constraints: critical
                CA:FALSE
            X509v3 Key Usage: critical
                Digital Signature
            X509v3 Subject Key Identifier: 
                B0:01:39:2A:46:58:F3:0B:E0:EB:0D:B6:72:09:E4:88:92:B1:29:D3
            X509v3 Authority Key Identifier: 
                CD:95:CF:A2:DD:23:53:71:FC:24:CA:1E:F0:D1:9D:C1:D3:41:53:F7
    Signature Algorithm: sha256WithRSAEncryption
    Signature Value:
        09:d9:04:b6:52:5e:f1:cc:ab:63:63:fc:f5:1b:1a:7b:65:a5:
        a6:37:bc:1c:fc:ac:b0:b2:a1:3a:f9:c7:2d:3d:05:ac:5f:b6:
        dc:e4:58:49:9a:8e:e6:57:c7:2b:1f:13:9b:54:5e:7b:71:99:
        3d:25:bc:22:bc:f0:e6:43:4b:da:b5:0f:9d:7b:bf:ff:e6:82:
        72:38:93:8e:de:81:cf:0b:d7:8f:0f:35:5c:51:97:0d:6e:a0:
        4e:e3:be:73:d1:19:d9:23:b4:25:fd:ec:ba:d4:67:48:74:39:
        ea:0b:1c:c9:4e:2f:1e:81:58:16:e6:8e:a9:9b:52:49:99:01:
        90:a5:ca:13:e5:2f:fa:83:8a:b1:a3:98:fa:74:c9:87:60:44:
        8b:0e:4c:c0:b1:8f:9e:17:d4:37:f5:40:3e:c3:39:fc:54:8a:
        81:67:b3:b7:fb:1f:41:c5:30:94:b3:e5:a3:dd:dd:10:6e:e1:
        4e:e7:96:1e:d5:a6:ca:e0:23:1d:1e:84:bf:15:97:6d:78:14:
        54:e4:40:5c:c5:c0:79:b1:eb:39:e5:5e:c8:ef:28:8e:e1:dc:
        25:95:0f:63:38:b8:bc:42:d5:3d:99:2a:b1:1d:ef:6e:46:75:
        ab:6a:8d:9b:d9:8d:d9:dc:e4:76:d1:54:7a:5b:c3:78:c3:aa:
        03:9d:6b:ae
-----BEGIN CERTIFICATE-----
MIIDzTCCArWgAwIBAgIBCzANBgkqhkiG9w0BAQsFADB1MQswCQYDVQQGEwJVUzET
MBEGA1UECAwKQ2FsaWZvcm5pYTEUMBIGA1UEBwwLU2FudGEgQ2xhcmExDTALBgNV
BAoMBHBrZzUxEjAQBgNVBAMMCWNoNS4yX3RhMTEYMBYGCSqGSIb3DQEJARYJY2g1
LjJfdGExMB4XDTIxMTAyMjEwMTUwOFoXDTI0MDcxODEwMTUwOFowfTELMAkGA1UE
BhMCVVMxEzARBgNVBAgMCkNhbGlmb3JuaWExFDASBgNVBAcMC1NhbnRhIENsYXJh
MQ0wCwYDVQQKDARwa2c1MRYwFAYDVQQDDA1jczFfY2g1LjJfdGExMRwwGgYJKoZI
hvcNAQkBFg1jczFfY2g1LjJfdGExMIIBIjANBgkqhkiG9w0BAQEFAAOCAQ8AMIIB
CgKCAQEA4WD9hVZQghz0oxTOB0ut2y9jW+X8NnSs3WV/xJTdfPcCI0kLJdvTMIhn
1ZXAc7vW/AIkXRy4dQPQbxFv5bV666R572ToW9pkt4AGlyP5uh5gI87eWnZXKH6b
zF3UgGPcjtV0JkF/qRmTRfaxtstN70FbMyPd6MzB03PpYxTpfPLkKpphILzjKU3S
B7ld52WRAVJmfqgT640xeEDByPrsZz9T2lV/QNbfskoJAoQ2gfvVmxe+1WLoxV07
gOC1nZ3gbncwwc8OWIw2Wbpl9Qcq3vcWiNjVBaRBPUkFzU9AWt6zeW7RpIGtq7fE
onyVHDzd46ipz1uLl3Cj5gVtBZB4BQIDAQABo2AwXjAMBgNVHRMBAf8EAjAAMA4G
A1UdDwEB/wQEAwIHgDAdBgNVHQ4EFgQUsAE5KkZY8wvg6w22cgnkiJKxKdMwHwYD
VR0jBBgwFoAUzZXPot0jU3H8JMoe8NGdwdNBU/cwDQYJKoZIhvcNAQELBQADggEB
AAnZBLZSXvHMq2Nj/PUbGntlpaY3vBz8rLCyoTr5xy09BaxfttzkWEmajuZXxysf
E5tUXntxmT0lvCK88OZDS9q1D517v//mgnI4k47egc8L148PNVxRlw1uoE7jvnPR
GdkjtCX97LrUZ0h0OeoLHMlOLx6BWBbmjqmbUkmZAZClyhPlL/qDirGjmPp0yYdg
RIsOTMCxj54X1Df1QD7DOfxUioFns7f7H0HFMJSz5aPd3RBu4U7nlh7VpsrgIx0e
hL8Vl214FFTkQFzFwHmx6znlXsjvKI7h3CWVD2M4uLxC1T2ZKrEd725GdatqjZvZ
jdnc5HbRVHpbw3jDqgOda64=
-----END CERTIFICATE-----
