Certificate:
    Data:
        Version: 3 (0x2)
        Serial Number: 25 (0x19)
    Signature Algorithm: sha256WithRSAEncryption
        Issuer: C=US, ST=California, L=Santa Clara, O=pkg5, CN=cs8_ch1_ta3/emailAddress=cs8_ch1_ta3
        Validity
            Not Before: Dec  6 03:06:43 2014 GMT
            Not After : Sep  1 03:06:43 2017 GMT
        Subject: C=US, ST=California, L=Santa Clara, O=pkg5, CN=cs1_cs8_ch1_ta3/emailAddress=cs1_cs8_ch1_ta3
        Subject Public Key Info:
            Public Key Algorithm: rsaEncryption
                Public-Key: (1024 bit)
                Modulus:
                    00:aa:c2:ee:67:a1:50:b2:cc:31:ff:19:ff:c4:78:
                    d5:72:2b:31:88:0a:0c:94:68:36:ef:2d:23:44:c8:
                    50:94:a1:05:31:46:21:3c:0f:9e:b3:fd:ae:2e:68:
                    97:34:da:21:60:02:6f:7a:a3:d6:b2:db:7d:e5:18:
                    90:7e:5b:f1:2c:19:71:aa:f0:a4:d5:d0:c5:43:05:
                    e8:ba:b4:a3:44:4b:8e:02:2e:72:63:d8:ce:3f:af:
                    46:25:b2:18:58:21:f3:ec:49:0a:93:2c:64:f6:d9:
                    04:98:b9:4a:67:f7:08:59:eb:63:7d:8b:cf:e9:f0:
                    a8:15:7d:05:39:a6:00:54:e7
                Exponent: 65537 (0x10001)
        X509v3 extensions:
            X509v3 Basic Constraints: critical
                CA:FALSE
            X509v3 Key Usage: critical
                Digital Signature
    Signature Algorithm: sha256WithRSAEncryption
         77:aa:3f:b0:f4:84:d5:73:9a:52:8d:ac:9d:f0:35:c8:84:42:
         84:2a:4b:36:17:20:39:83:75:03:de:fe:65:6b:32:3b:32:e7:
         ff:83:33:84:29:fb:2b:f1:97:00:c9:3c:f2:e0:da:7c:8f:3e:
         bf:62:89:59:93:a7:f5:c6:b3:92:d1:0c:e7:ef:b8:b1:85:1c:
         94:e6:36:bb:75:8d:5c:83:5b:ab:0b:6b:d1:f8:01:ae:18:4b:
         a0:c0:ee:35:0b:32:fe:c6:22:d8:0f:69:d5:21:4f:97:2f:7d:
         7e:84:16:84:48:b4:b4:ed:75:89:37:6f:5c:54:f7:3a:13:21:
         53:c7
-----BEGIN CERTIFICATE-----
MIICkTCCAfqgAwIBAgIBGTANBgkqhkiG9w0BAQsFADB5MQswCQYDVQQGEwJVUzET
MBEGA1UECAwKQ2FsaWZvcm5pYTEUMBIGA1UEBwwLU2FudGEgQ2xhcmExDTALBgNV
BAoMBHBrZzUxFDASBgNVBAMMC2NzOF9jaDFfdGEzMRowGAYJKoZIhvcNAQkBFgtj
czhfY2gxX3RhMzAeFw0xNDEyMDYwMzA2NDNaFw0xNzA5MDEwMzA2NDNaMIGBMQsw
CQYDVQQGEwJVUzETMBEGA1UECAwKQ2FsaWZvcm5pYTEUMBIGA1UEBwwLU2FudGEg
Q2xhcmExDTALBgNVBAoMBHBrZzUxGDAWBgNVBAMMD2NzMV9jczhfY2gxX3RhMzEe
MBwGCSqGSIb3DQEJARYPY3MxX2NzOF9jaDFfdGEzMIGfMA0GCSqGSIb3DQEBAQUA
A4GNADCBiQKBgQCqwu5noVCyzDH/Gf/EeNVyKzGICgyUaDbvLSNEyFCUoQUxRiE8
D56z/a4uaJc02iFgAm96o9ay233lGJB+W/EsGXGq8KTV0MVDBei6tKNES44CLnJj
2M4/r0YlshhYIfPsSQqTLGT22QSYuUpn9whZ62N9i8/p8KgVfQU5pgBU5wIDAQAB
oyAwHjAMBgNVHRMBAf8EAjAAMA4GA1UdDwEB/wQEAwIHgDANBgkqhkiG9w0BAQsF
AAOBgQB3qj+w9ITVc5pSjayd8DXIhEKEKks2FyA5g3UD3v5lazI7Muf/gzOEKfsr
8ZcAyTzy4Np8jz6/YolZk6f1xrOS0Qzn77ixhRyU5ja7dY1cg1urC2vR+AGuGEug
wO41CzL+xiLYD2nVIU+XL31+hBaESLS07XWJN29cVPc6EyFTxw==
-----END CERTIFICATE-----
