Certificate:
    Data:
        Version: 3 (0x2)
        Serial Number: 46 (0x2e)
        Signature Algorithm: sha256WithRSAEncryption
        Issuer: C=US, ST=California, L=Santa Clara, O=pkg5, OU=ta9, CN=localhost/emailAddress=ta9
        Validity
            Not Before: Oct 24 21:43:17 2023 GMT
            Not After : Jul 20 21:43:17 2026 GMT
        Subject: C=US, ST=California, L=Santa Clara, O=pkg5, OU=cs1_ta9, CN=localhost/emailAddress=cs1_ta9
        Subject Public Key Info:
            Public Key Algorithm: rsaEncryption
                Public-Key: (2048 bit)
                Modulus:
                    00:99:3d:8e:ef:bb:78:b7:76:76:02:d8:1e:40:ea:
                    6b:98:25:e4:50:02:8a:1c:d2:76:e1:dc:70:ec:4b:
                    c2:9d:21:95:13:09:1b:e9:75:97:79:6d:33:e9:be:
                    3a:9f:9e:e9:57:d4:d7:66:30:45:cf:35:cf:99:56:
                    98:66:36:0b:78:91:db:9e:d6:b6:3a:98:43:0e:e0:
                    12:2b:3a:59:fd:4e:56:e3:60:3f:b4:1a:4d:42:d2:
                    7a:92:b0:5c:20:8b:ef:9f:d6:b8:13:41:ec:06:95:
                    09:e0:69:61:e3:57:83:43:9b:8b:bb:eb:9a:ce:3d:
                    49:1c:8d:0d:4a:b2:34:db:8b:95:2f:8b:83:2d:86:
                    d9:df:f5:27:b4:da:79:17:ef:e5:a2:5c:24:db:73:
                    fd:a7:b1:f5:4e:55:5e:af:5f:e1:7e:d5:e9:0a:01:
                    bb:f0:18:bd:3b:8f:bb:86:56:dc:76:5f:17:63:9f:
                    fb:52:df:ff:4f:6c:61:f9:f1:1d:9e:fc:9b:73:4c:
                    89:b0:9e:ea:d9:93:51:1c:fa:cd:b5:ad:bd:cf:c2:
                    4b:58:5d:c5:11:5a:2a:8e:96:8a:fa:32:eb:1e:37:
                    b5:a0:86:5c:b7:8f:fe:1a:40:ad:26:5a:7d:23:6b:
                    42:e7:a5:d9:bc:b3:77:52:24:a4:ea:8a:5f:bc:53:
                    d7:4b
                Exponent: 65537 (0x10001)
        X509v3 extensions:
            X509v3 Basic Constraints: critical
                CA:FALSE
            X509v3 Key Usage: critical
                Digital Signature
            X509v3 Subject Key Identifier: 
                12:DA:E5:2F:1C:5F:2B:08:C9:E7:38:A2:43:1C:A4:84:05:C0:E1:EC
            X509v3 Authority Key Identifier: 
                39:D5:47:93:CB:A5:97:77:94:7B:81:90:5A:10:C3:07:F1:2E:1F:6E
    Signature Algorithm: sha256WithRSAEncryption
    Signature Value:
        5d:36:a6:85:5f:3f:b4:4f:4b:aa:fc:ed:6e:4b:ce:95:e5:74:
        f3:8a:35:4e:a0:91:01:77:54:a3:79:3f:dc:c2:66:10:04:a0:
        09:0a:64:44:d3:e1:c0:17:21:5c:89:73:63:bb:89:19:ae:ae:
        39:18:1a:9d:28:90:f1:51:b1:fa:cb:40:5c:60:99:5c:18:1c:
        bc:78:db:b9:f6:1a:6c:2b:27:c0:0c:b8:54:53:f4:e4:4a:61:
        4f:16:7a:b0:8b:ec:65:89:53:9d:6c:13:85:48:f7:e3:bf:7f:
        e9:48:de:79:ba:08:e7:c7:62:fa:66:df:bf:ee:87:78:ca:e0:
        6d:80:8c:4b:23:8d:43:63:95:dd:c6:67:a6:6b:14:70:da:1d:
        bb:a5:f7:38:16:09:90:cc:c2:c1:7b:eb:ac:36:d7:00:6a:89:
        44:32:37:0b:eb:a6:02:c0:c3:b0:f2:c3:e1:7f:f7:b8:b3:41:
        fb:5b:f6:c7:08:00:96:69:f3:d8:cd:b3:12:e4:c1:69:6f:41:
        6b:15:7c:36:0c:49:45:bc:87:4d:4f:fa:a1:29:79:a3:70:28:
        4b:a4:7b:6f:64:2c:52:14:20:f3:da:67:6b:d2:54:36:d5:65:
        1e:d9:99:a1:bb:99:d5:3e:50:6a:24:c5:2d:b2:24:4b:2f:3b:
        82:3b:21:e1
-----BEGIN CERTIFICATE-----
MIID3jCCAsagAwIBAgIBLjANBgkqhkiG9w0BAQsFADB9MQswCQYDVQQGEwJVUzET
MBEGA1UECAwKQ2FsaWZvcm5pYTEUMBIGA1UEBwwLU2FudGEgQ2xhcmExDTALBgNV
BAoMBHBrZzUxDDAKBgNVBAsMA3RhOTESMBAGA1UEAwwJbG9jYWxob3N0MRIwEAYJ
KoZIhvcNAQkBFgN0YTkwHhcNMjMxMDI0MjE0MzE3WhcNMjYwNzIwMjE0MzE3WjCB
hTELMAkGA1UEBhMCVVMxEzARBgNVBAgMCkNhbGlmb3JuaWExFDASBgNVBAcMC1Nh
bnRhIENsYXJhMQ0wCwYDVQQKDARwa2c1MRAwDgYDVQQLDAdjczFfdGE5MRIwEAYD
VQQDDAlsb2NhbGhvc3QxFjAUBgkqhkiG9w0BCQEWB2NzMV90YTkwggEiMA0GCSqG
SIb3DQEBAQUAA4IBDwAwggEKAoIBAQCZPY7vu3i3dnYC2B5A6muYJeRQAooc0nbh
3HDsS8KdIZUTCRvpdZd5bTPpvjqfnulX1NdmMEXPNc+ZVphmNgt4kdue1rY6mEMO
4BIrOln9TlbjYD+0Gk1C0nqSsFwgi++f1rgTQewGlQngaWHjV4NDm4u765rOPUkc
jQ1KsjTbi5Uvi4Mthtnf9Se02nkX7+WiXCTbc/2nsfVOVV6vX+F+1ekKAbvwGL07
j7uGVtx2Xxdjn/tS3/9PbGH58R2e/JtzTImwnurZk1Ec+s21rb3PwktYXcURWiqO
lor6MuseN7Wghly3j/4aQK0mWn0ja0Lnpdm8s3dSJKTqil+8U9dLAgMBAAGjYDBe
MAwGA1UdEwEB/wQCMAAwDgYDVR0PAQH/BAQDAgeAMB0GA1UdDgQWBBQS2uUvHF8r
CMnnOKJDHKSEBcDh7DAfBgNVHSMEGDAWgBQ51UeTy6WXd5R7gZBaEMMH8S4fbjAN
BgkqhkiG9w0BAQsFAAOCAQEAXTamhV8/tE9LqvztbkvOleV084o1TqCRAXdUo3k/
3MJmEASgCQpkRNPhwBchXIlzY7uJGa6uORganSiQ8VGx+stAXGCZXBgcvHjbufYa
bCsnwAy4VFP05EphTxZ6sIvsZYlTnWwThUj3479/6UjeeboI58di+mbfv+6HeMrg
bYCMSyONQ2OV3cZnpmsUcNodu6X3OBYJkMzCwXvrrDbXAGqJRDI3C+umAsDDsPLD
4X/3uLNB+1v2xwgAlmnz2M2zEuTBaW9BaxV8NgxJRbyHTU/6oSl5o3AoS6R7b2Qs
UhQg89pna9JUNtVlHtmZobuZ1T5QaiTFLbIkSy87gjsh4Q==
-----END CERTIFICATE-----
