Certificate:
    Data:
        Version: 3 (0x2)
        Serial Number: 45 (0x2d)
        Signature Algorithm: sha256WithRSAEncryption
        Issuer: C=US, ST=California, L=Santa Clara, O=pkg5, OU=ta8, CN=localhost/emailAddress=ta8
        Validity
            Not Before: Nov 14 14:26:58 2024 GMT
            Not After : Aug 11 14:26:58 2027 GMT
        Subject: C=US, ST=California, L=Santa Clara, O=pkg5, OU=cs1_ta8, CN=localhost/emailAddress=cs1_ta8
        Subject Public Key Info:
            Public Key Algorithm: rsaEncryption
                Public-Key: (2048 bit)
                Modulus:
                    00:b3:bc:1b:36:73:d1:0b:41:ce:7e:a8:99:72:02:
                    db:20:d2:8c:f0:a9:8c:28:ce:f1:7e:8d:65:40:dd:
                    b4:9f:24:df:8a:9e:4b:76:4c:1a:80:a3:29:e5:69:
                    aa:79:46:9b:b1:62:8d:d5:b2:83:cd:68:52:53:6d:
                    5c:42:50:5f:ac:c2:3d:8f:62:f3:e2:bd:62:2e:72:
                    be:6b:fb:b7:cb:18:f0:80:a8:df:3a:d8:b8:46:36:
                    c8:fb:6e:80:38:98:de:49:38:83:ef:56:7a:5e:8c:
                    1d:93:86:61:1a:cd:2a:03:f3:32:59:2b:2c:63:48:
                    01:8d:88:15:bc:d8:64:97:8b:e8:9e:51:56:c3:6c:
                    00:1e:93:01:81:77:30:6f:2a:5f:30:71:40:e5:29:
                    89:75:68:f1:01:3a:80:1e:d5:0e:83:62:36:bb:f5:
                    ce:06:a9:3c:8a:7b:ec:52:b8:be:ed:75:23:5f:e6:
                    21:09:24:67:b3:61:29:a3:e0:f2:eb:de:43:f9:de:
                    ff:7a:9e:4a:5a:40:3c:4c:90:f7:ac:bb:a0:9d:ef:
                    6e:17:57:59:49:c0:3b:65:db:73:fe:ce:2d:84:c9:
                    6a:2c:8f:7d:12:79:45:61:cb:e0:8e:cc:0e:48:d4:
                    3f:d6:2e:fd:e1:2e:44:ef:ef:2c:23:01:0f:fe:86:
                    bf:77
                Exponent: 65537 (0x10001)
        X509v3 extensions:
            X509v3 Basic Constraints: critical
                CA:FALSE
            X509v3 Key Usage: critical
                Digital Signature
            X509v3 Subject Key Identifier: 
                AB:C1:A6:77:47:F6:CB:2A:35:33:A6:5D:24:09:ED:3C:B2:60:F3:47
            X509v3 Authority Key Identifier: 
                E3:10:28:82:9A:2B:55:B9:7E:36:A8:AE:AF:FD:FF:C6:61:C2:F3:80
    Signature Algorithm: sha256WithRSAEncryption
    Signature Value:
        bf:32:3a:0e:0b:86:1a:64:14:5d:83:f1:f6:45:66:ed:77:bd:
        28:79:4f:da:4b:d5:1a:34:18:ab:c3:ea:4b:8c:c6:20:8c:00:
        9a:20:57:79:46:d3:8a:6d:91:11:ba:6f:78:3b:c5:8d:23:e5:
        40:44:9f:7c:69:fd:1a:a2:59:fd:17:a0:22:3c:69:9d:06:32:
        ed:60:6f:df:70:46:7a:9e:27:d3:c6:b3:7a:6a:f9:6e:13:0f:
        26:89:39:4b:64:a2:ea:82:c0:3d:36:fd:c2:87:2f:8e:c8:7d:
        75:46:b5:f1:88:16:59:3f:cc:ef:29:61:ff:e1:a4:83:67:2d:
        08:16:0a:68:5d:86:f3:6d:b1:24:2f:5d:e6:cb:74:62:41:25:
        63:ab:c7:1d:5a:08:c8:24:ae:77:57:ca:96:6e:05:12:44:81:
        1a:b5:a1:95:7e:c7:b9:b5:01:09:4e:53:e3:04:6a:10:dd:78:
        a3:66:3a:7c:c1:8b:af:96:8a:cb:b2:3c:af:9a:e6:fc:2c:87:
        94:b9:e0:70:d7:c8:a5:0b:5d:61:10:db:a5:62:8e:31:32:ab:
        33:d3:08:72:04:f6:38:fa:f9:49:2a:9a:36:de:36:a2:81:5d:
        ac:28:bf:5c:56:30:d6:be:a1:65:2c:c6:eb:6d:37:de:cd:cf:
        f6:f8:00:f9
-----BEGIN CERTIFICATE-----
MIID3jCCAsagAwIBAgIBLTANBgkqhkiG9w0BAQsFADB9MQswCQYDVQQGEwJVUzET
MBEGA1UECAwKQ2FsaWZvcm5pYTEUMBIGA1UEBwwLU2FudGEgQ2xhcmExDTALBgNV
BAoMBHBrZzUxDDAKBgNVBAsMA3RhODESMBAGA1UEAwwJbG9jYWxob3N0MRIwEAYJ
KoZIhvcNAQkBFgN0YTgwHhcNMjQxMTE0MTQyNjU4WhcNMjcwODExMTQyNjU4WjCB
hTELMAkGA1UEBhMCVVMxEzARBgNVBAgMCkNhbGlmb3JuaWExFDASBgNVBAcMC1Nh
bnRhIENsYXJhMQ0wCwYDVQQKDARwa2c1MRAwDgYDVQQLDAdjczFfdGE4MRIwEAYD
VQQDDAlsb2NhbGhvc3QxFjAUBgkqhkiG9w0BCQEWB2NzMV90YTgwggEiMA0GCSqG
SIb3DQEBAQUAA4IBDwAwggEKAoIBAQCzvBs2c9ELQc5+qJlyAtsg0ozwqYwozvF+
jWVA3bSfJN+Knkt2TBqAoynlaap5RpuxYo3VsoPNaFJTbVxCUF+swj2PYvPivWIu
cr5r+7fLGPCAqN862LhGNsj7boA4mN5JOIPvVnpejB2ThmEazSoD8zJZKyxjSAGN
iBW82GSXi+ieUVbDbAAekwGBdzBvKl8wcUDlKYl1aPEBOoAe1Q6DYja79c4GqTyK
e+xSuL7tdSNf5iEJJGezYSmj4PLr3kP53v96nkpaQDxMkPesu6Cd724XV1lJwDtl
23P+zi2EyWosj30SeUVhy+COzA5I1D/WLv3hLkTv7ywjAQ/+hr93AgMBAAGjYDBe
MAwGA1UdEwEB/wQCMAAwDgYDVR0PAQH/BAQDAgeAMB0GA1UdDgQWBBSrwaZ3R/bL
KjUzpl0kCe08smDzRzAfBgNVHSMEGDAWgBTjECiCmitVuX42qK6v/f/GYcLzgDAN
BgkqhkiG9w0BAQsFAAOCAQEAvzI6DguGGmQUXYPx9kVm7Xe9KHlP2kvVGjQYq8Pq
S4zGIIwAmiBXeUbTim2REbpveDvFjSPlQESffGn9GqJZ/RegIjxpnQYy7WBv33BG
ep4n08azemr5bhMPJok5S2Si6oLAPTb9wocvjsh9dUa18YgWWT/M7ylh/+Gkg2ct
CBYKaF2G822xJC9d5st0YkElY6vHHVoIyCSud1fKlm4FEkSBGrWhlX7HubUBCU5T
4wRqEN14o2Y6fMGLr5aKy7I8r5rm/CyHlLngcNfIpQtdYRDbpWKOMTKrM9MIcgT2
OPr5SSqaNt42ooFdrCi/XFYw1r6hZSzG62033s3P9vgA+Q==
-----END CERTIFICATE-----
