Certificate:
    Data:
        Version: 3 (0x2)
        Serial Number: 40 (0x28)
        Signature Algorithm: sha256WithRSAEncryption
        Issuer: C=US, ST=California, L=Santa Clara, O=pkg5, CN=ch1.1_ta4/emailAddress=ch1.1_ta4
        Validity
            Not Before: Nov 14 14:26:57 2024 GMT
            Not After : Aug 11 14:26:57 2027 GMT
        Subject: C=US, ST=California, L=Santa Clara, O=pkg5, CN=cs1_ch1.1_ta4/emailAddress=cs1_ch1.1_ta4
        Subject Public Key Info:
            Public Key Algorithm: rsaEncryption
                Public-Key: (2048 bit)
                Modulus:
                    00:bc:83:fa:dd:22:8d:ca:86:1b:6f:a0:cf:b2:e5:
                    90:62:af:3e:ed:6f:d8:90:bf:d3:38:ab:65:14:3f:
                    68:14:cc:e5:66:e2:ea:85:9f:2a:b5:50:38:eb:5e:
                    5d:fe:7a:11:d6:d8:50:57:40:9f:60:2e:e4:60:69:
                    46:c4:4b:e9:d5:53:ed:61:0a:c8:c7:60:e1:13:32:
                    c5:c0:4d:a6:90:dd:0b:6a:66:6c:db:64:43:8a:8f:
                    56:56:1c:76:90:7e:e1:ab:25:c7:d1:c4:3a:04:80:
                    98:16:87:0f:be:36:b5:e1:e0:58:53:ee:57:4d:1b:
                    d2:81:31:37:ef:65:66:25:32:71:37:82:2a:42:7f:
                    04:8c:b1:c1:cd:78:c4:f7:f5:a0:64:fd:d2:a3:a8:
                    4d:bc:25:21:9a:b1:74:e9:36:c5:fc:a0:e3:c6:2e:
                    90:3b:15:36:b4:4f:bd:6d:c1:0d:95:5c:da:20:34:
                    87:c0:f6:1b:cf:3f:be:c9:08:e3:0d:21:ff:dc:96:
                    cd:15:16:83:8f:9e:34:86:6b:53:4f:63:02:51:d6:
                    02:25:93:b4:50:74:ad:5c:9e:f7:24:0a:f1:d3:1f:
                    68:a7:4a:63:09:96:e3:2e:20:f3:37:27:cd:d1:23:
                    f7:92:d5:df:29:13:71:cb:51:5e:22:71:12:af:5a:
                    fc:fd
                Exponent: 65537 (0x10001)
        X509v3 extensions:
            X509v3 Basic Constraints: critical
                CA:FALSE
            X509v3 CRL Distribution Points: 
                Full Name:
                  URI:http://localhost:12001/file/0/ch1.1_ta4_crl.pem
            X509v3 Subject Key Identifier: 
                0B:A6:11:52:52:DA:6E:F5:4D:FD:9B:F1:89:BC:32:E0:61:DA:07:8F
            X509v3 Authority Key Identifier: 
                9C:6A:92:88:D2:3D:C5:81:5C:DB:5E:83:7D:A5:9C:55:A4:28:7F:92
    Signature Algorithm: sha256WithRSAEncryption
    Signature Value:
        20:ea:b0:26:c4:e9:ef:9b:be:f8:ec:84:a5:6f:33:e1:e2:a7:
        67:db:29:4d:26:58:91:a4:d3:1b:20:2c:a4:31:88:1d:7f:27:
        a5:36:33:d0:b1:21:2b:70:17:e9:a8:02:59:21:c4:55:33:96:
        ef:9d:ff:64:25:66:42:d7:c6:65:1c:f6:ff:ef:48:b7:02:e2:
        6c:b6:4f:46:dd:f1:83:0a:b9:57:66:7e:50:f1:88:00:03:29:
        71:28:30:a1:10:c4:79:eb:dc:4e:af:49:b3:55:d0:e2:3d:fc:
        d4:28:dd:69:c3:bf:a8:32:b7:13:5a:5b:ce:cc:41:f1:aa:70:
        ac:01:2a:06:50:76:5f:f8:57:4d:3c:b6:65:a5:19:f2:02:56:
        de:b8:d8:b0:41:54:85:c1:73:ac:fa:60:93:ab:f6:01:d4:bc:
        79:7a:20:4d:76:4d:2c:fe:4c:95:0f:8a:4f:0b:21:ea:2d:bb:
        b8:73:85:9c:6a:7f:9e:9a:2a:04:f9:2a:58:4c:26:d5:51:4e:
        98:8a:7b:58:30:f8:3d:6c:37:97:87:cf:fc:92:7f:03:b2:12:
        8e:a5:53:eb:2e:16:cb:8c:d5:c9:04:3d:4b:81:c2:3b:de:70:
        29:77:9e:95:84:9c:bf:ed:fb:23:64:0a:59:3c:6a:54:e2:8f:
        fc:1f:47:8c
-----BEGIN CERTIFICATE-----
MIIEATCCAumgAwIBAgIBKDANBgkqhkiG9w0BAQsFADB1MQswCQYDVQQGEwJVUzET
MBEGA1UECAwKQ2FsaWZvcm5pYTEUMBIGA1UEBwwLU2FudGEgQ2xhcmExDTALBgNV
BAoMBHBrZzUxEjAQBgNVBAMMCWNoMS4xX3RhNDEYMBYGCSqGSIb3DQEJARYJY2gx
LjFfdGE0MB4XDTI0MTExNDE0MjY1N1oXDTI3MDgxMTE0MjY1N1owfTELMAkGA1UE
BhMCVVMxEzARBgNVBAgMCkNhbGlmb3JuaWExFDASBgNVBAcMC1NhbnRhIENsYXJh
MQ0wCwYDVQQKDARwa2c1MRYwFAYDVQQDDA1jczFfY2gxLjFfdGE0MRwwGgYJKoZI
hvcNAQkBFg1jczFfY2gxLjFfdGE0MIIBIjANBgkqhkiG9w0BAQEFAAOCAQ8AMIIB
CgKCAQEAvIP63SKNyoYbb6DPsuWQYq8+7W/YkL/TOKtlFD9oFMzlZuLqhZ8qtVA4
615d/noR1thQV0CfYC7kYGlGxEvp1VPtYQrIx2DhEzLFwE2mkN0LamZs22RDio9W
Vhx2kH7hqyXH0cQ6BICYFocPvja14eBYU+5XTRvSgTE372VmJTJxN4IqQn8EjLHB
zXjE9/WgZP3So6hNvCUhmrF06TbF/KDjxi6QOxU2tE+9bcENlVzaIDSHwPYbzz++
yQjjDSH/3JbNFRaDj540hmtTT2MCUdYCJZO0UHStXJ73JArx0x9op0pjCZbjLiDz
NyfN0SP3ktXfKRNxy1FeInESr1r8/QIDAQABo4GTMIGQMAwGA1UdEwEB/wQCMAAw
QAYDVR0fBDkwNzA1oDOgMYYvaHR0cDovL2xvY2FsaG9zdDoxMjAwMS9maWxlLzAv
Y2gxLjFfdGE0X2NybC5wZW0wHQYDVR0OBBYEFAumEVJS2m71Tf2b8Ym8MuBh2geP
MB8GA1UdIwQYMBaAFJxqkojSPcWBXNteg32lnFWkKH+SMA0GCSqGSIb3DQEBCwUA
A4IBAQAg6rAmxOnvm7747ISlbzPh4qdn2ylNJliRpNMbICykMYgdfyelNjPQsSEr
cBfpqAJZIcRVM5bvnf9kJWZC18ZlHPb/70i3AuJstk9G3fGDCrlXZn5Q8YgAAylx
KDChEMR569xOr0mzVdDiPfzUKN1pw7+oMrcTWlvOzEHxqnCsASoGUHZf+FdNPLZl
pRnyAlbeuNiwQVSFwXOs+mCTq/YB1Lx5eiBNdk0s/kyVD4pPCyHqLbu4c4Wcan+e
mioE+SpYTCbVUU6YintYMPg9bDeXh8/8kn8DshKOpVPrLhbLjNXJBD1LgcI73nAp
d56VhJy/7fsjZApZPGpU4o/8H0eM
-----END CERTIFICATE-----
