Certificate:
    Data:
        Version: 3 (0x2)
        Serial Number: 6 (0x6)
        Signature Algorithm: sha256WithRSAEncryption
        Issuer: C=US, ST=California, L=Santa Clara, O=pkg5, CN=ch5_ta1/emailAddress=ch5_ta1
        Validity
            Not Before: Oct 24 21:43:00 2023 GMT
            Not After : Jul 20 21:43:00 2026 GMT
        Subject: C=US, ST=California, L=Santa Clara, O=pkg5, CN=cs1_ch5_ta1/emailAddress=cs1_ch5_ta1
        Subject Public Key Info:
            Public Key Algorithm: rsaEncryption
                Public-Key: (2048 bit)
                Modulus:
                    00:a7:3e:ff:6a:86:7b:c6:4a:e6:93:6c:63:67:89:
                    31:8b:8a:e9:d7:46:68:74:0e:ae:b2:0a:94:89:3f:
                    4e:b2:77:d4:fc:93:dc:59:c4:a0:b9:44:dd:64:5d:
                    eb:d4:34:53:2a:cb:d0:94:a3:66:cb:67:85:58:ef:
                    ea:27:c7:1a:87:f6:91:7e:44:4f:04:07:b6:c5:34:
                    21:82:67:c2:b1:f2:08:cc:31:ad:8e:c1:c5:3b:44:
                    10:14:6e:d6:4e:32:59:cc:94:ce:df:6f:ac:46:2e:
                    7b:7c:bf:aa:02:07:c4:a7:68:fd:e7:09:23:26:59:
                    33:3e:ca:fe:01:45:03:87:17:42:a2:5f:4d:58:fc:
                    c1:b0:93:7d:2c:31:d3:64:80:d7:06:2a:ab:5c:82:
                    ed:da:db:72:a2:5b:d2:c0:db:88:e4:ca:a3:72:ea:
                    5c:8e:fd:04:07:fb:c7:21:bd:5b:1d:4e:22:66:f9:
                    47:22:97:47:83:47:bb:d1:39:72:14:c9:43:4f:53:
                    8a:5c:31:77:21:00:e0:c7:8d:9c:12:43:3e:13:8d:
                    ff:af:23:bf:0d:a4:ec:51:73:9b:32:29:49:1c:05:
                    04:8e:de:b9:7c:32:83:48:42:e9:e8:a9:fa:76:44:
                    51:bb:da:f5:f3:8b:b7:a4:94:8f:ab:8e:48:7b:4d:
                    b3:d3
                Exponent: 65537 (0x10001)
        X509v3 extensions:
            X509v3 Basic Constraints: critical
                CA:FALSE
            X509v3 Key Usage: critical
                Digital Signature
            X509v3 Subject Key Identifier: 
                7C:7C:96:27:4B:CE:29:D8:D4:A6:E9:25:CC:78:72:96:A6:07:F5:0C
            X509v3 Authority Key Identifier: 
                45:27:9F:DE:4D:50:48:45:6D:EF:42:7A:12:3D:AC:95:FA:F8:9B:D6
    Signature Algorithm: sha256WithRSAEncryption
    Signature Value:
        4e:a1:62:e5:f7:85:f1:af:37:40:34:de:8e:b7:06:bf:4d:50:
        cf:76:3d:08:37:be:f1:0e:da:40:fa:22:d3:79:05:3c:df:8d:
        4f:a3:4e:74:9b:42:ce:35:73:03:77:cc:ad:7d:2b:81:a4:80:
        0f:44:08:82:3a:16:db:75:c9:b0:bf:5c:f7:ca:4d:12:b8:35:
        22:a9:1a:43:d4:37:3f:56:9e:83:59:52:ce:37:4b:62:17:b3:
        dd:d4:22:6f:56:30:c7:c5:0f:c5:62:40:5b:70:ae:f5:c9:01:
        da:6b:e4:d1:6d:95:eb:07:f2:d5:2b:fc:2d:ba:22:69:98:dc:
        90:64:b3:f5:7b:89:6a:67:31:bf:f0:ba:4d:f5:c5:dd:39:f4:
        f3:4a:87:a6:53:73:d4:55:c6:b8:e5:cf:a4:17:75:bc:0f:29:
        c1:fa:11:44:6a:f9:47:28:5b:e1:84:55:d1:fa:65:bf:7e:cc:
        4a:83:eb:7b:82:a8:41:d1:d2:13:d2:4c:65:ac:92:0e:5b:d0:
        d1:63:39:38:4d:37:4c:3d:37:9c:42:18:cd:6f:84:be:22:e6:
        b1:2a:9f:54:f1:aa:2b:53:ca:b7:6e:5a:51:79:ef:3c:6a:9e:
        d3:a8:3b:ee:e8:8c:0f:21:aa:d7:97:e1:b1:33:ba:4b:f1:53:
        ed:30:af:17
-----BEGIN CERTIFICATE-----
MIIDxTCCAq2gAwIBAgIBBjANBgkqhkiG9w0BAQsFADBxMQswCQYDVQQGEwJVUzET
MBEGA1UECAwKQ2FsaWZvcm5pYTEUMBIGA1UEBwwLU2FudGEgQ2xhcmExDTALBgNV
BAoMBHBrZzUxEDAOBgNVBAMMB2NoNV90YTExFjAUBgkqhkiG9w0BCQEWB2NoNV90
YTEwHhcNMjMxMDI0MjE0MzAwWhcNMjYwNzIwMjE0MzAwWjB5MQswCQYDVQQGEwJV
UzETMBEGA1UECAwKQ2FsaWZvcm5pYTEUMBIGA1UEBwwLU2FudGEgQ2xhcmExDTAL
BgNVBAoMBHBrZzUxFDASBgNVBAMMC2NzMV9jaDVfdGExMRowGAYJKoZIhvcNAQkB
FgtjczFfY2g1X3RhMTCCASIwDQYJKoZIhvcNAQEBBQADggEPADCCAQoCggEBAKc+
/2qGe8ZK5pNsY2eJMYuK6ddGaHQOrrIKlIk/TrJ31PyT3FnEoLlE3WRd69Q0UyrL
0JSjZstnhVjv6ifHGof2kX5ETwQHtsU0IYJnwrHyCMwxrY7BxTtEEBRu1k4yWcyU
zt9vrEYue3y/qgIHxKdo/ecJIyZZMz7K/gFFA4cXQqJfTVj8wbCTfSwx02SA1wYq
q1yC7drbcqJb0sDbiOTKo3LqXI79BAf7xyG9Wx1OImb5RyKXR4NHu9E5chTJQ09T
ilwxdyEA4MeNnBJDPhON/68jvw2k7FFzmzIpSRwFBI7euXwyg0hC6eip+nZEUbva
9fOLt6SUj6uOSHtNs9MCAwEAAaNgMF4wDAYDVR0TAQH/BAIwADAOBgNVHQ8BAf8E
BAMCB4AwHQYDVR0OBBYEFHx8lidLzinY1KbpJcx4cpamB/UMMB8GA1UdIwQYMBaA
FEUnn95NUEhFbe9CehI9rJX6+JvWMA0GCSqGSIb3DQEBCwUAA4IBAQBOoWLl94Xx
rzdANN6Otwa/TVDPdj0IN77xDtpA+iLTeQU8341Po050m0LONXMDd8ytfSuBpIAP
RAiCOhbbdcmwv1z3yk0SuDUiqRpD1Dc/Vp6DWVLON0tiF7Pd1CJvVjDHxQ/FYkBb
cK71yQHaa+TRbZXrB/LVK/wtuiJpmNyQZLP1e4lqZzG/8LpN9cXdOfTzSoemU3PU
Vca45c+kF3W8DynB+hFEavlHKFvhhFXR+mW/fsxKg+t7gqhB0dIT0kxlrJIOW9DR
Yzk4TTdMPTecQhjNb4S+IuaxKp9U8aorU8q3blpRee88ap7TqDvu6IwPIarXl+Gx
M7pL8VPtMK8X
-----END CERTIFICATE-----
