Certificate:
    Data:
        Version: 3 (0x2)
        Serial Number: 25 (0x19)
    Signature Algorithm: sha256WithRSAEncryption
        Issuer: C=US, ST=California, L=Santa Clara, O=pkg5, CN=cs8_ch1_ta3/emailAddress=cs8_ch1_ta3
        Validity
            Not Before: Nov 16 10:58:49 2017 GMT
            Not After : Aug 12 10:58:49 2020 GMT
        Subject: C=US, ST=California, L=Santa Clara, O=pkg5, CN=cs1_cs8_ch1_ta3/emailAddress=cs1_cs8_ch1_ta3
        Subject Public Key Info:
            Public Key Algorithm: rsaEncryption
                Public-Key: (1024 bit)
                Modulus:
                    00:de:66:bb:67:ce:a6:e3:e9:40:06:33:11:84:a1:
                    c7:ff:e3:c0:94:78:9e:31:cf:9f:fe:da:ae:9a:3a:
                    cb:b6:0f:39:7d:0b:67:85:15:2a:a9:96:8b:c3:10:
                    d3:0a:6e:64:e9:80:12:0a:d0:65:e6:84:bd:38:1d:
                    27:e0:83:bb:f2:46:c5:10:7c:4a:0a:a1:27:ad:00:
                    44:52:30:d1:f2:89:70:38:d8:58:2e:7c:e4:f2:7a:
                    07:13:15:3c:b4:70:15:88:dc:4a:5d:2d:0a:96:12:
                    59:14:a3:a0:66:53:1c:53:ed:fc:63:0a:a0:87:e1:
                    71:b9:93:9d:b4:9b:a4:0b:67
                Exponent: 65537 (0x10001)
        X509v3 extensions:
            X509v3 Basic Constraints: critical
                CA:FALSE
            X509v3 Key Usage: critical
                Digital Signature
    Signature Algorithm: sha256WithRSAEncryption
         28:71:2c:8e:e6:f1:cb:5f:4d:0f:5e:62:b8:0b:bc:cc:56:7b:
         f5:9d:df:09:e8:77:dd:72:7c:38:d7:d0:99:8a:2f:11:39:b2:
         9f:c2:11:b9:2e:b2:09:1c:18:77:ce:5c:09:32:96:f0:20:45:
         36:e2:b4:8f:ce:26:9e:70:a7:56:0f:20:e1:27:eb:de:46:4a:
         07:df:8b:ef:6b:bc:26:2b:25:1e:f5:65:fd:c6:c6:fb:94:18:
         8a:f7:fe:56:b6:68:d0:4c:1e:a4:71:93:7a:37:cd:41:6e:fc:
         e6:dd:28:fe:8d:6c:f6:dc:66:76:64:79:c1:9f:b6:ea:fc:75:
         5b:3e
-----BEGIN CERTIFICATE-----
MIICkTCCAfqgAwIBAgIBGTANBgkqhkiG9w0BAQsFADB5MQswCQYDVQQGEwJVUzET
MBEGA1UECAwKQ2FsaWZvcm5pYTEUMBIGA1UEBwwLU2FudGEgQ2xhcmExDTALBgNV
BAoMBHBrZzUxFDASBgNVBAMMC2NzOF9jaDFfdGEzMRowGAYJKoZIhvcNAQkBFgtj
czhfY2gxX3RhMzAeFw0xNzExMTYxMDU4NDlaFw0yMDA4MTIxMDU4NDlaMIGBMQsw
CQYDVQQGEwJVUzETMBEGA1UECAwKQ2FsaWZvcm5pYTEUMBIGA1UEBwwLU2FudGEg
Q2xhcmExDTALBgNVBAoMBHBrZzUxGDAWBgNVBAMMD2NzMV9jczhfY2gxX3RhMzEe
MBwGCSqGSIb3DQEJARYPY3MxX2NzOF9jaDFfdGEzMIGfMA0GCSqGSIb3DQEBAQUA
A4GNADCBiQKBgQDeZrtnzqbj6UAGMxGEocf/48CUeJ4xz5/+2q6aOsu2Dzl9C2eF
FSqplovDENMKbmTpgBIK0GXmhL04HSfgg7vyRsUQfEoKoSetAERSMNHyiXA42Fgu
fOTyegcTFTy0cBWI3EpdLQqWElkUo6BmUxxT7fxjCqCH4XG5k520m6QLZwIDAQAB
oyAwHjAMBgNVHRMBAf8EAjAAMA4GA1UdDwEB/wQEAwIHgDANBgkqhkiG9w0BAQsF
AAOBgQAocSyO5vHLX00PXmK4C7zMVnv1nd8J6Hfdcnw419CZii8RObKfwhG5LrIJ
HBh3zlwJMpbwIEU24rSPziaecKdWDyDhJ+veRkoH34vva7wmKyUe9WX9xsb7lBiK
9/5WtmjQTB6kcZN6N81Bbvzm3Sj+jWz23GZ2ZHnBn7bq/HVbPg==
-----END CERTIFICATE-----
