Certificate:
    Data:
        Version: 3 (0x2)
        Serial Number: 6 (0x6)
        Signature Algorithm: sha256WithRSAEncryption
        Issuer: C=US, ST=California, L=Santa Clara, O=pkg5, CN=ch5_ta1/emailAddress=ch5_ta1
        Validity
            Not Before: May 23 15:47:15 2024 GMT
            Not After : Feb 17 15:47:15 2027 GMT
        Subject: C=US, ST=California, L=Santa Clara, O=pkg5, CN=cs1_ch5_ta1/emailAddress=cs1_ch5_ta1
        Subject Public Key Info:
            Public Key Algorithm: rsaEncryption
                Public-Key: (2048 bit)
                Modulus:
                    00:bf:ab:c5:b5:81:1c:84:5f:15:1c:8d:b1:77:53:
                    28:dd:4d:c4:9c:01:9a:77:9d:cc:e5:d3:a4:86:86:
                    5b:72:db:af:12:3f:73:9c:ee:00:b0:6e:02:b4:ca:
                    4e:ed:d7:8f:b5:e0:83:55:eb:b5:40:c1:f7:60:a0:
                    85:d5:a8:0b:97:c4:59:56:a1:d3:21:0d:6a:4e:dd:
                    90:82:33:22:bd:32:8d:4b:50:1c:0b:0a:b0:04:4e:
                    19:6c:6c:76:d0:1a:a5:20:15:ea:1e:59:0e:08:c5:
                    73:c3:8b:bb:9a:62:e9:95:9c:d1:60:b5:ec:32:ac:
                    14:c4:f8:62:af:4b:7a:11:bf:e7:3b:39:a0:a2:97:
                    27:11:e4:8d:26:62:0e:9d:f6:81:0f:80:4e:27:c6:
                    3b:9f:23:46:3e:0d:d8:48:26:34:65:69:50:83:9c:
                    17:f7:98:93:c0:fc:29:f2:7b:c6:e4:91:4e:7b:2c:
                    36:09:6c:73:02:5d:92:d1:0b:55:74:f9:1c:ec:44:
                    4d:80:ad:92:f8:69:c4:48:25:2b:43:d8:64:0f:b4:
                    61:4b:f9:d6:6e:0e:2c:75:0a:2e:99:ea:6e:b7:d6:
                    15:f2:59:4a:b6:38:ba:bc:9a:c2:21:93:27:41:b2:
                    eb:1f:d5:58:7a:e9:c3:b4:72:fa:55:29:19:50:e3:
                    88:9f
                Exponent: 65537 (0x10001)
        X509v3 extensions:
            X509v3 Basic Constraints: critical
                CA:FALSE
            X509v3 Key Usage: critical
                Digital Signature
            X509v3 Subject Key Identifier: 
                93:1C:DE:D3:D2:A9:F2:6F:DA:26:A1:F8:1C:67:64:F0:8B:92:F6:2E
            X509v3 Authority Key Identifier: 
                7D:3C:C1:C8:B7:6C:80:5F:63:BD:43:AA:06:EA:CF:00:3E:C8:D2:BC
    Signature Algorithm: sha256WithRSAEncryption
    Signature Value:
        71:b5:4a:79:69:c1:ad:20:d8:1a:bd:da:c7:39:75:86:d9:87:
        55:71:88:7c:80:92:7d:b5:c7:c2:2b:4b:7d:98:31:7b:72:ff:
        b8:06:9a:1f:e4:18:ea:86:5b:0d:25:ec:2d:d5:c8:c0:1f:1d:
        a3:ce:62:e6:91:9e:6c:24:62:5b:33:cb:1b:bc:43:48:56:76:
        7a:dd:a1:38:69:9b:ac:31:fa:32:ea:52:26:d1:22:18:b3:6d:
        56:56:33:61:40:45:b8:87:17:bd:8e:03:d8:64:13:47:44:51:
        15:8d:83:6e:f5:ee:af:e6:ff:6e:84:1c:86:64:c0:98:0e:4a:
        8a:0f:f2:65:3b:bb:92:00:a5:2e:81:5c:87:c7:98:34:94:a9:
        4d:6f:18:95:8e:7d:76:59:15:4c:ae:22:ba:c9:98:58:e7:6f:
        70:b0:ad:44:86:80:4a:52:c7:7a:9b:b6:c4:bf:30:ea:b6:27:
        b8:63:e1:44:91:4d:dd:6d:13:da:2a:5e:fd:53:43:54:4e:ed:
        61:21:3e:db:03:2a:b7:fe:03:73:72:fa:02:02:3d:52:63:66:
        66:b4:9e:52:d2:92:b8:eb:20:45:04:27:52:89:79:4d:92:7e:
        8b:6c:5b:49:45:d1:6a:05:a3:8e:20:12:6b:73:a0:40:84:92:
        0b:14:42:e6
-----BEGIN CERTIFICATE-----
MIIDxTCCAq2gAwIBAgIBBjANBgkqhkiG9w0BAQsFADBxMQswCQYDVQQGEwJVUzET
MBEGA1UECAwKQ2FsaWZvcm5pYTEUMBIGA1UEBwwLU2FudGEgQ2xhcmExDTALBgNV
BAoMBHBrZzUxEDAOBgNVBAMMB2NoNV90YTExFjAUBgkqhkiG9w0BCQEWB2NoNV90
YTEwHhcNMjQwNTIzMTU0NzE1WhcNMjcwMjE3MTU0NzE1WjB5MQswCQYDVQQGEwJV
UzETMBEGA1UECAwKQ2FsaWZvcm5pYTEUMBIGA1UEBwwLU2FudGEgQ2xhcmExDTAL
BgNVBAoMBHBrZzUxFDASBgNVBAMMC2NzMV9jaDVfdGExMRowGAYJKoZIhvcNAQkB
FgtjczFfY2g1X3RhMTCCASIwDQYJKoZIhvcNAQEBBQADggEPADCCAQoCggEBAL+r
xbWBHIRfFRyNsXdTKN1NxJwBmnedzOXTpIaGW3LbrxI/c5zuALBuArTKTu3Xj7Xg
g1XrtUDB92CghdWoC5fEWVah0yENak7dkIIzIr0yjUtQHAsKsAROGWxsdtAapSAV
6h5ZDgjFc8OLu5pi6ZWc0WC17DKsFMT4Yq9LehG/5zs5oKKXJxHkjSZiDp32gQ+A
TifGO58jRj4N2EgmNGVpUIOcF/eYk8D8KfJ7xuSRTnssNglscwJdktELVXT5HOxE
TYCtkvhpxEglK0PYZA+0YUv51m4OLHUKLpnqbrfWFfJZSrY4uryawiGTJ0Gy6x/V
WHrpw7Ry+lUpGVDjiJ8CAwEAAaNgMF4wDAYDVR0TAQH/BAIwADAOBgNVHQ8BAf8E
BAMCB4AwHQYDVR0OBBYEFJMc3tPSqfJv2iah+BxnZPCLkvYuMB8GA1UdIwQYMBaA
FH08wci3bIBfY71DqgbqzwA+yNK8MA0GCSqGSIb3DQEBCwUAA4IBAQBxtUp5acGt
INgavdrHOXWG2YdVcYh8gJJ9tcfCK0t9mDF7cv+4Bpof5BjqhlsNJewt1cjAHx2j
zmLmkZ5sJGJbM8sbvENIVnZ63aE4aZusMfoy6lIm0SIYs21WVjNhQEW4hxe9jgPY
ZBNHRFEVjYNu9e6v5v9uhByGZMCYDkqKD/JlO7uSAKUugVyHx5g0lKlNbxiVjn12
WRVMriK6yZhY529wsK1EhoBKUsd6m7bEvzDqtie4Y+FEkU3dbRPaKl79U0NUTu1h
IT7bAyq3/gNzcvoCAj1SY2ZmtJ5S0pK46yBFBCdSiXlNkn6LbFtJRdFqBaOOIBJr
c6BAhJILFELm
-----END CERTIFICATE-----
