Certificate:
    Data:
        Version: 3 (0x2)
        Serial Number: 47 (0x2f)
        Signature Algorithm: sha256WithRSAEncryption
        Issuer: C=US, ST=California, L=Santa Clara, O=pkg5, OU=ta10, CN=localhost/emailAddress=ta10
        Validity
            Not Before: Oct 22 10:15:25 2021 GMT
            Not After : Jul 18 10:15:25 2024 GMT
        Subject: C=US, ST=California, L=Santa Clara, O=pkg5, OU=cs1_ta10, CN=localhost/emailAddress=cs1_ta10
        Subject Public Key Info:
            Public Key Algorithm: rsaEncryption
                Public-Key: (2048 bit)
                Modulus:
                    00:c1:e6:47:db:df:a3:ab:85:a6:75:91:1d:5d:ed:
                    a8:31:68:60:c2:a4:ca:03:df:3e:47:5a:21:49:41:
                    af:af:0c:d0:15:17:ef:40:f0:14:63:d3:77:10:84:
                    a1:1d:c1:20:36:19:98:bf:45:4b:92:ee:c2:ad:81:
                    0b:95:62:27:a3:b8:3a:4c:cd:37:8b:f8:63:62:2f:
                    67:c3:40:c8:7e:24:1e:4f:1a:3c:e6:27:88:8b:59:
                    83:bc:9a:f7:75:a1:a8:e0:cc:a1:f9:31:ee:4b:5a:
                    14:cd:52:ac:d9:08:c3:c3:92:a7:52:e1:cb:9d:ed:
                    2a:0f:9a:87:ee:66:e1:6d:b2:ac:29:34:5c:6c:f1:
                    39:ff:eb:f1:fc:32:22:51:4f:c4:df:ac:12:d4:c4:
                    62:a4:1c:18:c2:2b:3b:12:b0:1c:e2:b3:6d:79:b6:
                    3f:88:59:2e:cc:3c:e5:52:26:cc:6d:1b:40:87:33:
                    bb:1a:14:f0:67:37:93:18:e2:67:b5:64:21:00:3a:
                    c9:be:b8:2b:20:78:e9:14:96:44:24:6e:44:a1:fc:
                    2f:75:ac:59:09:62:9a:da:45:40:15:32:bc:5f:57:
                    b8:39:f6:fe:7d:9f:7c:29:21:5b:03:be:7d:4f:41:
                    d3:68:42:76:9e:68:c1:39:5e:30:43:20:01:34:c2:
                    b1:09
                Exponent: 65537 (0x10001)
        X509v3 extensions:
            X509v3 Basic Constraints: critical
                CA:FALSE
            X509v3 Key Usage: critical
                Digital Signature
            X509v3 Subject Key Identifier: 
                83:7A:2B:0D:DC:C3:0B:30:C7:1B:88:A1:23:F3:5B:DB:AF:48:AE:79
            X509v3 Authority Key Identifier: 
                17:54:F8:20:78:B1:75:23:B6:CC:28:EC:F2:F4:F5:4A:45:2C:8D:3D
    Signature Algorithm: sha256WithRSAEncryption
    Signature Value:
        9e:64:64:e9:d8:2e:09:fb:b7:00:99:89:77:16:f5:00:2a:3d:
        e9:82:44:93:8b:e6:11:54:76:ff:6a:f5:19:f6:74:6c:c1:55:
        7b:71:01:05:a9:94:49:3e:aa:4a:4f:93:64:bf:05:66:af:ab:
        41:70:55:09:e8:46:95:45:66:95:fc:20:a9:03:43:76:50:76:
        f1:19:d7:40:0a:d3:a4:08:cd:1f:e1:c0:06:83:3b:6d:d6:d8:
        57:d0:13:53:40:00:36:ee:82:a1:04:a1:86:c5:87:15:f8:55:
        26:81:b9:d5:ba:6f:20:5a:88:7c:a1:75:51:9a:9d:11:65:39:
        ee:6b:26:f3:3c:e9:bc:d6:38:da:c0:94:36:df:6f:96:99:50:
        f6:5b:a0:77:ce:d7:9a:45:37:df:b1:4e:c7:e8:f4:8b:07:a2:
        ec:17:d2:73:14:cc:10:3a:51:9c:8d:51:4d:03:a0:53:c6:7c:
        5c:db:cf:8a:73:45:22:48:d2:04:bb:91:72:27:5e:69:44:8e:
        25:9c:2d:bf:88:54:f1:20:a0:3f:b1:35:b2:90:04:8d:89:35:
        cc:b4:4c:fd:24:d6:45:d9:2d:41:7a:47:d9:d2:db:a4:91:d1:
        23:ae:e1:4d:8e:28:f2:1a:c3:c4:93:7e:0a:5b:ba:d7:1f:dd:
        3e:b3:7c:ff
-----BEGIN CERTIFICATE-----
MIID4jCCAsqgAwIBAgIBLzANBgkqhkiG9w0BAQsFADB/MQswCQYDVQQGEwJVUzET
MBEGA1UECAwKQ2FsaWZvcm5pYTEUMBIGA1UEBwwLU2FudGEgQ2xhcmExDTALBgNV
BAoMBHBrZzUxDTALBgNVBAsMBHRhMTAxEjAQBgNVBAMMCWxvY2FsaG9zdDETMBEG
CSqGSIb3DQEJARYEdGExMDAeFw0yMTEwMjIxMDE1MjVaFw0yNDA3MTgxMDE1MjVa
MIGHMQswCQYDVQQGEwJVUzETMBEGA1UECAwKQ2FsaWZvcm5pYTEUMBIGA1UEBwwL
U2FudGEgQ2xhcmExDTALBgNVBAoMBHBrZzUxETAPBgNVBAsMCGNzMV90YTEwMRIw
EAYDVQQDDAlsb2NhbGhvc3QxFzAVBgkqhkiG9w0BCQEWCGNzMV90YTEwMIIBIjAN
BgkqhkiG9w0BAQEFAAOCAQ8AMIIBCgKCAQEAweZH29+jq4WmdZEdXe2oMWhgwqTK
A98+R1ohSUGvrwzQFRfvQPAUY9N3EIShHcEgNhmYv0VLku7CrYELlWIno7g6TM03
i/hjYi9nw0DIfiQeTxo85ieIi1mDvJr3daGo4Myh+THuS1oUzVKs2QjDw5KnUuHL
ne0qD5qH7mbhbbKsKTRcbPE5/+vx/DIiUU/E36wS1MRipBwYwis7ErAc4rNtebY/
iFkuzDzlUibMbRtAhzO7GhTwZzeTGOJntWQhADrJvrgrIHjpFJZEJG5EofwvdaxZ
CWKa2kVAFTK8X1e4Ofb+fZ98KSFbA759T0HTaEJ2nmjBOV4wQyABNMKxCQIDAQAB
o2AwXjAMBgNVHRMBAf8EAjAAMA4GA1UdDwEB/wQEAwIHgDAdBgNVHQ4EFgQUg3or
DdzDCzDHG4ihI/Nb269IrnkwHwYDVR0jBBgwFoAUF1T4IHixdSO2zCjs8vT1SkUs
jT0wDQYJKoZIhvcNAQELBQADggEBAJ5kZOnYLgn7twCZiXcW9QAqPemCRJOL5hFU
dv9q9Rn2dGzBVXtxAQWplEk+qkpPk2S/BWavq0FwVQnoRpVFZpX8IKkDQ3ZQdvEZ
10AK06QIzR/hwAaDO23W2FfQE1NAADbugqEEoYbFhxX4VSaBudW6byBaiHyhdVGa
nRFlOe5rJvM86bzWONrAlDbfb5aZUPZboHfO15pFN9+xTsfo9IsHouwX0nMUzBA6
UZyNUU0DoFPGfFzbz4pzRSJI0gS7kXInXmlEjiWcLb+IVPEgoD+xNbKQBI2JNcy0
TP0k1kXZLUF6R9nS26SR0SOu4U2OKPIaw8STfgpbutcf3T6zfP8=
-----END CERTIFICATE-----
