Certificate:
    Data:
        Version: 3 (0x2)
        Serial Number: 36 (0x24)
        Signature Algorithm: sha256WithRSAEncryption
        Issuer: C=US, ST=California, L=Santa Clara, O=pkg5, CN=ch1_ta4/emailAddress=ch1_ta4
        Validity
            Not Before: Dec 15 15:37:28 2022 GMT
            Not After : Sep 10 15:37:28 2025 GMT
        Subject: C=US, ST=California, L=Santa Clara, O=pkg5, CN=cs1_ch1_ta4/emailAddress=cs1_ch1_ta4
        Subject Public Key Info:
            Public Key Algorithm: rsaEncryption
                Public-Key: (2048 bit)
                Modulus:
                    00:a4:65:73:f1:49:cb:40:a5:b0:7a:5c:0c:9d:89:
                    76:eb:43:48:af:f1:f2:c9:ba:4f:89:7a:cb:2b:dd:
                    80:fd:84:89:60:09:a1:da:a3:83:db:44:cf:af:c5:
                    dc:7d:7e:62:95:11:35:d0:15:bd:fa:c4:04:b5:7e:
                    db:26:ac:d3:36:55:84:2f:c5:71:ff:65:1c:e5:9a:
                    7a:fa:d6:15:80:e1:03:4a:c3:3d:65:6b:33:c3:d0:
                    ec:b9:38:95:63:8e:ea:a9:22:60:91:9d:8c:50:70:
                    6b:84:1a:90:b2:7e:46:5b:aa:22:20:97:4b:c2:ff:
                    d3:9b:27:ed:7d:65:28:fd:9a:63:0c:e0:af:50:02:
                    26:49:d3:0c:23:d7:f0:fb:64:4b:09:74:0c:00:56:
                    5b:46:ce:04:e5:f0:00:ec:44:2c:2b:25:eb:51:5b:
                    45:76:86:92:c9:e0:4c:19:24:47:d3:43:62:f3:4d:
                    48:dc:c2:c2:13:77:58:7d:de:8f:33:3f:d0:34:8b:
                    6b:ff:0b:98:fb:f9:04:9b:89:bc:5b:23:1c:e7:37:
                    a0:de:54:46:91:65:4b:bf:22:62:53:21:7a:81:0b:
                    97:c8:1a:f7:f3:42:b9:0a:b8:58:89:9d:a1:17:07:
                    07:f9:c3:93:1a:55:2e:a4:81:46:d9:4a:ce:fa:33:
                    6b:e9
                Exponent: 65537 (0x10001)
        X509v3 extensions:
            X509v3 Basic Constraints: critical
                CA:FALSE
            X509v3 CRL Distribution Points: 
                Full Name:
                  URI:http://localhost:12001/file/0/ch1_ta4_crl.pem
            X509v3 Subject Key Identifier: 
                A9:18:34:3F:BA:31:09:B0:A0:A5:E4:86:EE:3C:B6:5D:BD:30:1E:5C
            X509v3 Authority Key Identifier: 
                BC:89:23:C0:1A:53:7D:34:1E:E8:72:E2:9A:95:BE:39:0D:B5:6B:5D
    Signature Algorithm: sha256WithRSAEncryption
    Signature Value:
        a6:c0:6f:14:fd:c2:9c:f9:55:29:38:a6:c2:93:dd:3a:71:02:
        bc:22:73:31:1c:da:e6:f5:47:b0:ec:a7:fe:33:25:d5:be:a2:
        7c:3e:1f:42:7c:45:f8:fb:d3:59:56:03:e0:23:e5:38:92:32:
        7a:8e:b2:44:88:6c:5d:37:b7:22:b3:31:fa:5c:c8:36:99:d5:
        54:8d:04:29:45:56:1e:bc:33:b5:35:f2:6f:36:14:b4:8d:d6:
        1d:de:b5:56:27:e3:4f:8f:79:07:ab:c4:46:39:5c:ae:5e:d1:
        df:5e:fd:06:dc:f7:76:c6:7a:08:9c:a6:4b:da:09:f0:9b:4c:
        67:b1:d7:0f:14:ce:8f:34:05:65:36:5a:39:9d:96:89:a0:d0:
        b0:95:78:97:d7:6f:f7:a7:ab:99:30:e2:66:0a:e7:94:8e:cc:
        bc:8a:48:fc:c0:0e:f4:79:cd:a0:47:ba:d5:f1:4a:a5:5b:b9:
        24:e8:b6:54:44:2e:35:44:5b:ab:76:4c:03:9d:20:7d:58:a9:
        d0:fd:9a:6d:35:5d:4e:af:f8:54:fa:61:75:d9:fd:52:cb:b7:
        7b:9d:71:7a:1f:9e:27:7d:1f:41:af:db:3b:de:ca:a0:19:02:
        32:fa:39:64:1d:37:34:87:04:90:e3:2a:63:e4:bd:38:a2:dc:
        9b:23:05:e9
-----BEGIN CERTIFICATE-----
MIID9zCCAt+gAwIBAgIBJDANBgkqhkiG9w0BAQsFADBxMQswCQYDVQQGEwJVUzET
MBEGA1UECAwKQ2FsaWZvcm5pYTEUMBIGA1UEBwwLU2FudGEgQ2xhcmExDTALBgNV
BAoMBHBrZzUxEDAOBgNVBAMMB2NoMV90YTQxFjAUBgkqhkiG9w0BCQEWB2NoMV90
YTQwHhcNMjIxMjE1MTUzNzI4WhcNMjUwOTEwMTUzNzI4WjB5MQswCQYDVQQGEwJV
UzETMBEGA1UECAwKQ2FsaWZvcm5pYTEUMBIGA1UEBwwLU2FudGEgQ2xhcmExDTAL
BgNVBAoMBHBrZzUxFDASBgNVBAMMC2NzMV9jaDFfdGE0MRowGAYJKoZIhvcNAQkB
FgtjczFfY2gxX3RhNDCCASIwDQYJKoZIhvcNAQEBBQADggEPADCCAQoCggEBAKRl
c/FJy0ClsHpcDJ2JdutDSK/x8sm6T4l6yyvdgP2EiWAJodqjg9tEz6/F3H1+YpUR
NdAVvfrEBLV+2yas0zZVhC/Fcf9lHOWaevrWFYDhA0rDPWVrM8PQ7Lk4lWOO6qki
YJGdjFBwa4QakLJ+RluqIiCXS8L/05sn7X1lKP2aYwzgr1ACJknTDCPX8PtkSwl0
DABWW0bOBOXwAOxELCsl61FbRXaGksngTBkkR9NDYvNNSNzCwhN3WH3ejzM/0DSL
a/8LmPv5BJuJvFsjHOc3oN5URpFlS78iYlMheoELl8ga9/NCuQq4WImdoRcHB/nD
kxpVLqSBRtlKzvoza+kCAwEAAaOBkTCBjjAMBgNVHRMBAf8EAjAAMD4GA1UdHwQ3
MDUwM6AxoC+GLWh0dHA6Ly9sb2NhbGhvc3Q6MTIwMDEvZmlsZS8wL2NoMV90YTRf
Y3JsLnBlbTAdBgNVHQ4EFgQUqRg0P7oxCbCgpeSG7jy2Xb0wHlwwHwYDVR0jBBgw
FoAUvIkjwBpTfTQe6HLimpW+OQ21a10wDQYJKoZIhvcNAQELBQADggEBAKbAbxT9
wpz5VSk4psKT3TpxArwiczEc2ub1R7Dsp/4zJdW+onw+H0J8Rfj701lWA+Aj5TiS
MnqOskSIbF03tyKzMfpcyDaZ1VSNBClFVh68M7U18m82FLSN1h3etVYn40+PeQer
xEY5XK5e0d9e/Qbc93bGegicpkvaCfCbTGex1w8Uzo80BWU2Wjmdlomg0LCVeJfX
b/enq5kw4mYK55SOzLyKSPzADvR5zaBHutXxSqVbuSTotlRELjVEW6t2TAOdIH1Y
qdD9mm01XU6v+FT6YXXZ/VLLt3udcXofnid9H0Gv2zveyqAZAjL6OWQdNzSHBJDj
KmPkvTii3JsjBek=
-----END CERTIFICATE-----
