Certificate:
    Data:
        Version: 3 (0x2)
        Serial Number: 15 (0xf)
    Signature Algorithm: sha256WithRSAEncryption
        Issuer: C=US, ST=California, L=Santa Clara, O=pkg5, CN=ta2/emailAddress=ta2
        Validity
            Not Before: Dec  6 03:06:42 2014 GMT
            Not After : Sep  1 03:06:42 2017 GMT
        Subject: C=US, ST=California, L=Santa Clara, O=pkg5, CN=cs1_ta2/emailAddress=cs1_ta2
        Subject Public Key Info:
            Public Key Algorithm: rsaEncryption
                Public-Key: (1024 bit)
                Modulus:
                    00:ab:d8:d5:36:75:f4:80:85:a1:17:c8:5e:fd:fe:
                    79:51:94:e9:de:05:17:24:77:7a:ff:60:46:2a:07:
                    6d:61:c8:af:9f:ab:0c:cb:87:b0:90:20:8e:75:ad:
                    70:38:ea:6e:0c:fc:0a:ed:f6:6c:bb:d2:ea:48:31:
                    77:b2:62:19:60:bb:fb:45:c1:33:c3:86:88:2d:59:
                    1a:5c:d6:41:56:57:a6:a6:b3:bc:21:3a:18:90:fb:
                    7a:83:12:4d:7b:e3:ab:fd:ab:d0:4e:2d:a0:9a:84:
                    e4:20:70:e2:1d:09:5e:24:6a:3e:1c:d2:1f:2a:3f:
                    d7:28:cc:29:66:a4:b7:5c:d7
                Exponent: 65537 (0x10001)
        X509v3 extensions:
            X509v3 Basic Constraints: critical
                CA:FALSE
            X509v3 Key Usage: critical
                Digital Signature
    Signature Algorithm: sha256WithRSAEncryption
         06:46:e5:99:7d:af:b5:57:c8:7a:c2:4f:8b:60:d3:eb:e7:71:
         81:11:7e:8c:93:30:25:9b:c8:38:95:95:38:af:a0:95:79:4d:
         d4:cd:7a:e3:b9:9d:4d:3a:77:f4:45:5a:60:4b:cc:29:b8:25:
         f9:95:f5:0f:67:48:25:65:80:d9:ce:00:62:ff:a8:73:89:32:
         57:17:ad:2a:93:1f:0b:f8:fc:5f:fe:19:ea:b2:3c:6c:d5:34:
         0e:9e:62:68:b3:62:b0:b4:5e:0f:3c:3b:e1:73:e8:33:97:2e:
         04:65:12:11:da:52:49:1d:96:75:c8:07:e1:07:0e:2a:09:5a:
         8b:05
-----BEGIN CERTIFICATE-----
MIICcDCCAdmgAwIBAgIBDzANBgkqhkiG9w0BAQsFADBpMQswCQYDVQQGEwJVUzET
MBEGA1UECAwKQ2FsaWZvcm5pYTEUMBIGA1UEBwwLU2FudGEgQ2xhcmExDTALBgNV
BAoMBHBrZzUxDDAKBgNVBAMMA3RhMjESMBAGCSqGSIb3DQEJARYDdGEyMB4XDTE0
MTIwNjAzMDY0MloXDTE3MDkwMTAzMDY0MlowcTELMAkGA1UEBhMCVVMxEzARBgNV
BAgMCkNhbGlmb3JuaWExFDASBgNVBAcMC1NhbnRhIENsYXJhMQ0wCwYDVQQKDARw
a2c1MRAwDgYDVQQDDAdjczFfdGEyMRYwFAYJKoZIhvcNAQkBFgdjczFfdGEyMIGf
MA0GCSqGSIb3DQEBAQUAA4GNADCBiQKBgQCr2NU2dfSAhaEXyF79/nlRlOneBRck
d3r/YEYqB21hyK+fqwzLh7CQII51rXA46m4M/Art9my70upIMXeyYhlgu/tFwTPD
hogtWRpc1kFWV6ams7whOhiQ+3qDEk1746v9q9BOLaCahOQgcOIdCV4kaj4c0h8q
P9cozClmpLdc1wIDAQABoyAwHjAMBgNVHRMBAf8EAjAAMA4GA1UdDwEB/wQEAwIH
gDANBgkqhkiG9w0BAQsFAAOBgQAGRuWZfa+1V8h6wk+LYNPr53GBEX6MkzAlm8g4
lZU4r6CVeU3UzXrjuZ1NOnf0RVpgS8wpuCX5lfUPZ0glZYDZzgBi/6hziTJXF60q
kx8L+Pxf/hnqsjxs1TQOnmJos2KwtF4PPDvhc+gzly4EZRIR2lJJHZZ1yAfhBw4q
CVqLBQ==
-----END CERTIFICATE-----
