Certificate:
    Data:
        Version: 3 (0x2)
        Serial Number: 42 (0x2a)
        Signature Algorithm: sha256WithRSAEncryption
        Issuer: C=US, ST=California, L=Santa Clara, O=pkg5, CN=ch1_ta5/emailAddress=ch1_ta5
        Validity
            Not Before: Oct 22 10:15:21 2021 GMT
            Not After : Jul 18 10:15:21 2024 GMT
        Subject: C=US, ST=California, L=Santa Clara, O=pkg5, CN=cs1_ch1_ta5/emailAddress=cs1_ch1_ta5
        Subject Public Key Info:
            Public Key Algorithm: rsaEncryption
                Public-Key: (2048 bit)
                Modulus:
                    00:95:33:3e:b6:cf:45:03:99:08:72:89:57:19:da:
                    0a:5c:b2:71:17:54:5b:34:63:36:8b:78:1a:cf:65:
                    91:21:06:d0:53:79:9b:ae:f2:ba:c0:dd:95:62:e3:
                    0c:ed:41:38:d2:43:b7:27:e8:76:e9:71:b9:f0:da:
                    80:34:cd:6f:c0:2d:ec:0a:0a:77:a1:e6:10:47:e1:
                    a9:88:bc:43:fc:20:00:57:73:5e:99:71:86:97:18:
                    34:bc:2e:ed:17:fd:dd:bd:a8:ea:99:00:71:9d:f2:
                    74:93:19:59:d8:67:0c:2f:61:11:9c:7f:2f:68:7e:
                    a7:05:0a:19:0a:8e:ec:59:d8:e3:e8:7a:28:60:31:
                    83:ad:aa:cf:45:88:b8:76:b3:d4:bc:02:fd:9b:b7:
                    d7:2d:1f:33:ff:ff:0a:13:96:1c:ee:a9:01:02:c0:
                    f0:58:ca:4a:f9:22:9d:d0:5d:e1:f5:7c:c6:39:b6:
                    ad:24:7a:6f:7b:41:1c:9e:70:a9:90:05:e3:1b:81:
                    7c:6b:ee:3f:f1:31:20:b8:f4:58:20:70:8d:df:ae:
                    28:bc:5a:60:62:54:3f:23:59:70:d9:12:8d:4b:d2:
                    07:a9:b0:54:62:e9:5f:dd:15:ec:2a:78:bf:86:86:
                    4f:80:10:b7:03:ea:13:6c:62:0e:20:a3:61:18:78:
                    d1:73
                Exponent: 65537 (0x10001)
        X509v3 extensions:
            X509v3 Basic Constraints: critical
                CA:FALSE
            X509v3 Key Usage: critical
                Digital Signature
            X509v3 Subject Key Identifier: 
                47:35:BE:D8:C7:8B:95:6E:CB:01:62:21:CE:10:C8:E4:0D:8C:AD:86
            X509v3 Authority Key Identifier: 
                13:AE:74:F3:AC:8A:72:30:04:8C:4B:5E:26:22:B3:00:D9:CC:AD:4B
    Signature Algorithm: sha256WithRSAEncryption
    Signature Value:
        80:26:e7:32:aa:38:55:46:6a:3f:58:7e:bf:a1:64:f3:55:fb:
        1d:12:79:66:39:4e:31:56:a3:87:2d:80:58:75:4b:2e:aa:42:
        94:cf:c4:10:44:38:36:78:3b:15:3c:b3:0a:bd:a0:e1:e2:d7:
        09:bf:cb:76:d8:36:c3:b6:58:23:1b:8a:8f:2e:c7:e1:f4:9f:
        a1:66:57:e7:6e:00:36:7c:29:65:38:f3:ac:d2:1c:72:66:22:
        62:4b:df:15:26:94:70:1f:54:ad:75:6c:62:7a:ac:dd:d7:11:
        ef:10:97:38:eb:1c:57:b3:5b:46:84:e4:77:40:ca:9e:dd:4f:
        7d:9d:e1:8e:1e:b3:cc:4a:6a:bb:5b:18:9d:5f:f8:7e:1d:7f:
        15:19:64:c5:18:6e:f8:d5:d9:cb:1e:da:e5:6f:52:41:d0:08:
        a9:d6:45:6f:90:3a:3a:81:aa:30:e6:38:33:8b:cc:fd:f9:90:
        69:0a:e6:65:81:20:19:5b:d2:c5:67:fc:36:44:c2:e7:eb:db:
        ae:d6:76:03:dc:67:27:0c:d5:d2:63:5c:89:23:22:df:21:68:
        f8:5e:b9:f9:1d:b4:e4:5e:3a:1d:48:12:4c:7e:02:d7:aa:b3:
        a1:70:6b:f8:47:91:bb:a8:c1:00:9b:88:42:88:f7:fb:18:5d:
        4b:18:af:e5
-----BEGIN CERTIFICATE-----
MIIDxTCCAq2gAwIBAgIBKjANBgkqhkiG9w0BAQsFADBxMQswCQYDVQQGEwJVUzET
MBEGA1UECAwKQ2FsaWZvcm5pYTEUMBIGA1UEBwwLU2FudGEgQ2xhcmExDTALBgNV
BAoMBHBrZzUxEDAOBgNVBAMMB2NoMV90YTUxFjAUBgkqhkiG9w0BCQEWB2NoMV90
YTUwHhcNMjExMDIyMTAxNTIxWhcNMjQwNzE4MTAxNTIxWjB5MQswCQYDVQQGEwJV
UzETMBEGA1UECAwKQ2FsaWZvcm5pYTEUMBIGA1UEBwwLU2FudGEgQ2xhcmExDTAL
BgNVBAoMBHBrZzUxFDASBgNVBAMMC2NzMV9jaDFfdGE1MRowGAYJKoZIhvcNAQkB
FgtjczFfY2gxX3RhNTCCASIwDQYJKoZIhvcNAQEBBQADggEPADCCAQoCggEBAJUz
PrbPRQOZCHKJVxnaClyycRdUWzRjNot4Gs9lkSEG0FN5m67yusDdlWLjDO1BONJD
tyfodulxufDagDTNb8At7AoKd6HmEEfhqYi8Q/wgAFdzXplxhpcYNLwu7Rf93b2o
6pkAcZ3ydJMZWdhnDC9hEZx/L2h+pwUKGQqO7FnY4+h6KGAxg62qz0WIuHaz1LwC
/Zu31y0fM///ChOWHO6pAQLA8FjKSvkindBd4fV8xjm2rSR6b3tBHJ5wqZAF4xuB
fGvuP/ExILj0WCBwjd+uKLxaYGJUPyNZcNkSjUvSB6mwVGLpX90V7Cp4v4aGT4AQ
twPqE2xiDiCjYRh40XMCAwEAAaNgMF4wDAYDVR0TAQH/BAIwADAOBgNVHQ8BAf8E
BAMCB4AwHQYDVR0OBBYEFEc1vtjHi5VuywFiIc4QyOQNjK2GMB8GA1UdIwQYMBaA
FBOudPOsinIwBIxLXiYiswDZzK1LMA0GCSqGSIb3DQEBCwUAA4IBAQCAJucyqjhV
Rmo/WH6/oWTzVfsdEnlmOU4xVqOHLYBYdUsuqkKUz8QQRDg2eDsVPLMKvaDh4tcJ
v8t22DbDtlgjG4qPLsfh9J+hZlfnbgA2fCllOPOs0hxyZiJiS98VJpRwH1StdWxi
eqzd1xHvEJc46xxXs1tGhOR3QMqe3U99neGOHrPMSmq7WxidX/h+HX8VGWTFGG74
1dnLHtrlb1JB0Aip1kVvkDo6gaow5jgzi8z9+ZBpCuZlgSAZW9LFZ/w2RMLn69uu
1nYD3GcnDNXSY1yJIyLfIWj4Xrn5HbTkXjodSBJMfgLXqrOhcGv4R5G7qMEAm4hC
iPf7GF1LGK/l
-----END CERTIFICATE-----
