Certificate:
    Data:
        Version: 3 (0x2)
        Serial Number: 46 (0x2e)
    Signature Algorithm: sha256WithRSAEncryption
        Issuer: C=US, ST=California, L=Santa Clara, O=pkg5, OU=ta10, CN=localhost/emailAddress=ta10
        Validity
            Not Before: Dec  6 03:06:44 2014 GMT
            Not After : Sep  1 03:06:44 2017 GMT
        Subject: C=US, ST=California, L=Santa Clara, O=pkg5, OU=cs1_ta10, CN=localhost/emailAddress=cs1_ta10
        Subject Public Key Info:
            Public Key Algorithm: rsaEncryption
                Public-Key: (1024 bit)
                Modulus:
                    00:9b:22:fe:a7:9a:73:be:8b:1d:85:47:be:59:c6:
                    1d:ac:1c:d8:22:9f:be:d9:33:91:ec:f7:ff:af:b9:
                    b0:c3:6a:06:0c:c9:78:31:15:59:f5:53:a0:85:9d:
                    34:d5:3b:cf:85:9a:d2:fe:e8:23:73:e0:2b:ed:82:
                    38:b0:1e:dc:e7:ca:d2:5a:8f:30:a3:75:c9:47:81:
                    bf:4b:00:f5:95:6e:b7:85:37:22:69:d2:25:d1:43:
                    85:00:e4:fa:13:23:4e:e0:e0:5c:fd:0e:75:dc:9e:
                    67:fd:cf:d1:aa:98:a3:bd:59:b4:33:d3:00:5f:75:
                    c9:47:e6:cc:8a:a2:ad:b2:b9
                Exponent: 65537 (0x10001)
        X509v3 extensions:
            X509v3 Basic Constraints: critical
                CA:FALSE
            X509v3 Key Usage: critical
                Digital Signature
    Signature Algorithm: sha256WithRSAEncryption
         ca:69:7e:01:8c:c3:c4:51:d4:64:a9:8a:8f:48:0f:4b:25:6e:
         04:57:2d:9f:b2:ca:30:50:b9:50:f2:b8:0a:6f:f0:fa:29:60:
         f3:33:e7:12:b8:37:de:ac:31:98:e9:20:cf:0e:a9:08:16:9e:
         e5:6b:2e:16:4a:c5:d7:f2:9f:28:ad:a9:08:59:12:ee:ef:19:
         dd:8a:03:3c:9e:bd:da:03:a9:b1:3c:9d:1d:1b:59:90:82:3c:
         7f:0b:e7:c3:99:66:5b:e7:04:1e:e5:40:43:fe:06:9b:15:ed:
         4c:63:cb:ce:a0:1f:5b:a4:3b:71:a1:94:f3:5a:9d:be:e3:f9:
         7a:26
-----BEGIN CERTIFICATE-----
MIICnTCCAgagAwIBAgIBLjANBgkqhkiG9w0BAQsFADB/MQswCQYDVQQGEwJVUzET
MBEGA1UECAwKQ2FsaWZvcm5pYTEUMBIGA1UEBwwLU2FudGEgQ2xhcmExDTALBgNV
BAoMBHBrZzUxDTALBgNVBAsMBHRhMTAxEjAQBgNVBAMMCWxvY2FsaG9zdDETMBEG
CSqGSIb3DQEJARYEdGExMDAeFw0xNDEyMDYwMzA2NDRaFw0xNzA5MDEwMzA2NDRa
MIGHMQswCQYDVQQGEwJVUzETMBEGA1UECAwKQ2FsaWZvcm5pYTEUMBIGA1UEBwwL
U2FudGEgQ2xhcmExDTALBgNVBAoMBHBrZzUxETAPBgNVBAsMCGNzMV90YTEwMRIw
EAYDVQQDDAlsb2NhbGhvc3QxFzAVBgkqhkiG9w0BCQEWCGNzMV90YTEwMIGfMA0G
CSqGSIb3DQEBAQUAA4GNADCBiQKBgQCbIv6nmnO+ix2FR75Zxh2sHNgin77ZM5Hs
9/+vubDDagYMyXgxFVn1U6CFnTTVO8+FmtL+6CNz4CvtgjiwHtznytJajzCjdclH
gb9LAPWVbreFNyJp0iXRQ4UA5PoTI07g4Fz9DnXcnmf9z9GqmKO9WbQz0wBfdclH
5syKoq2yuQIDAQABoyAwHjAMBgNVHRMBAf8EAjAAMA4GA1UdDwEB/wQEAwIHgDAN
BgkqhkiG9w0BAQsFAAOBgQDKaX4BjMPEUdRkqYqPSA9LJW4EVy2fssowULlQ8rgK
b/D6KWDzM+cSuDferDGY6SDPDqkIFp7lay4WSsXX8p8orakIWRLu7xndigM8nr3a
A6mxPJ0dG1mQgjx/C+fDmWZb5wQe5UBD/gabFe1MY8vOoB9bpDtxoZTzWp2+4/l6
Jg==
-----END CERTIFICATE-----
