Certificate:
    Data:
        Version: 3 (0x2)
        Serial Number: 48 (0x30)
        Signature Algorithm: sha256WithRSAEncryption
        Issuer: C=US, ST=California, L=Santa Clara, O=pkg5, OU=ta11, CN=localhost/emailAddress=ta11
        Validity
            Not Before: Dec 15 15:37:35 2022 GMT
            Not After : Sep 10 15:37:35 2025 GMT
        Subject: C=US, ST=California, L=Santa Clara, O=pkg5, OU=cs1_ta11, CN=localhost/emailAddress=cs1_ta11
        Subject Public Key Info:
            Public Key Algorithm: rsaEncryption
                Public-Key: (2048 bit)
                Modulus:
                    00:a9:3f:57:32:74:52:4c:d1:85:92:74:21:95:f6:
                    d4:54:62:7c:17:6f:ca:fc:62:64:98:ce:dc:80:d3:
                    73:43:ad:53:cf:40:ac:80:8f:2c:53:2d:a2:76:93:
                    2f:ce:d9:7e:a1:8a:94:47:de:d5:03:31:7b:fa:d0:
                    2e:84:66:b4:8d:7b:6a:49:09:67:f6:33:00:73:73:
                    5f:2b:1b:cd:0a:86:3b:60:46:c5:a3:82:d9:5a:ef:
                    88:a0:8c:86:95:e6:28:98:47:25:4f:af:c3:60:ce:
                    41:b6:83:53:3d:f1:ab:de:99:db:7a:30:7a:33:40:
                    ab:96:15:90:73:8f:71:58:41:0b:ea:66:e5:59:1f:
                    d7:1f:5b:53:ce:ae:57:33:94:b2:28:4f:84:95:53:
                    73:b5:54:b6:15:be:40:9b:1b:42:61:b4:5d:40:eb:
                    9c:7e:c5:be:66:fd:e7:a5:0d:1e:36:4e:37:d3:f6:
                    d5:2b:b1:90:01:87:27:56:fc:3d:4d:46:6a:7b:ae:
                    b7:98:1b:43:fb:d9:e2:74:0a:b7:a6:a1:b0:4f:f7:
                    72:04:dd:5a:3f:a5:11:b2:15:76:86:06:2d:14:35:
                    3b:3c:01:11:78:49:21:a9:33:c4:0b:7f:be:29:da:
                    87:9a:7f:b8:71:cc:92:1b:79:35:a6:0a:68:ca:f7:
                    1d:b7
                Exponent: 65537 (0x10001)
        X509v3 extensions:
            X509v3 Basic Constraints: critical
                CA:FALSE
            X509v3 Key Usage: critical
                Digital Signature
            X509v3 Subject Key Identifier: 
                09:0E:D0:79:5E:5C:42:7E:64:39:95:AB:2F:CF:06:8B:45:5A:60:35
            X509v3 Authority Key Identifier: 
                17:A6:AE:15:21:02:BD:F4:88:7D:EB:A6:CF:CE:B7:2A:12:72:D5:09
    Signature Algorithm: sha256WithRSAEncryption
    Signature Value:
        38:13:b2:76:ad:0e:2b:f4:ef:7c:8c:d9:87:32:8c:71:e5:2f:
        60:61:2c:7e:c5:e2:1c:c9:0f:d9:ce:28:f4:d5:68:68:68:c4:
        c9:bd:cc:e4:c3:9d:f8:47:dc:c5:ca:e7:01:38:d0:8e:f2:8c:
        da:70:a2:8d:8e:52:ab:90:c2:67:f2:2a:71:2d:3f:97:73:2b:
        52:f8:8a:86:38:4d:f7:10:da:66:dd:45:5f:c9:c8:05:5e:00:
        5d:23:23:ff:de:ed:fa:79:05:2f:73:34:27:14:4e:78:9b:0e:
        31:79:7e:ac:37:ef:c8:89:49:7d:da:27:d9:11:9b:5e:ae:9b:
        3f:87:6d:f8:ab:be:95:80:27:58:e6:a0:4b:f3:56:db:23:00:
        dd:f6:da:a8:98:fa:87:22:ef:90:b2:4e:77:e9:49:1b:31:85:
        9f:bd:97:24:bd:9c:d6:83:c3:05:75:21:ba:82:46:90:44:37:
        16:6e:24:22:fc:83:b3:fd:05:ec:c9:8c:79:29:dc:97:9e:fb:
        75:07:22:b1:81:93:b7:97:d9:d1:89:15:e8:a1:46:22:39:2c:
        b6:d1:ad:79:5a:91:3c:65:0f:5c:b7:87:f2:65:08:45:33:1b:
        27:1f:0f:64:36:b1:2d:cc:41:35:cf:ba:5b:10:19:70:ec:2e:
        76:02:6d:db
-----BEGIN CERTIFICATE-----
MIID4jCCAsqgAwIBAgIBMDANBgkqhkiG9w0BAQsFADB/MQswCQYDVQQGEwJVUzET
MBEGA1UECAwKQ2FsaWZvcm5pYTEUMBIGA1UEBwwLU2FudGEgQ2xhcmExDTALBgNV
BAoMBHBrZzUxDTALBgNVBAsMBHRhMTExEjAQBgNVBAMMCWxvY2FsaG9zdDETMBEG
CSqGSIb3DQEJARYEdGExMTAeFw0yMjEyMTUxNTM3MzVaFw0yNTA5MTAxNTM3MzVa
MIGHMQswCQYDVQQGEwJVUzETMBEGA1UECAwKQ2FsaWZvcm5pYTEUMBIGA1UEBwwL
U2FudGEgQ2xhcmExDTALBgNVBAoMBHBrZzUxETAPBgNVBAsMCGNzMV90YTExMRIw
EAYDVQQDDAlsb2NhbGhvc3QxFzAVBgkqhkiG9w0BCQEWCGNzMV90YTExMIIBIjAN
BgkqhkiG9w0BAQEFAAOCAQ8AMIIBCgKCAQEAqT9XMnRSTNGFknQhlfbUVGJ8F2/K
/GJkmM7cgNNzQ61Tz0CsgI8sUy2idpMvztl+oYqUR97VAzF7+tAuhGa0jXtqSQln
9jMAc3NfKxvNCoY7YEbFo4LZWu+IoIyGleYomEclT6/DYM5BtoNTPfGr3pnbejB6
M0CrlhWQc49xWEEL6mblWR/XH1tTzq5XM5SyKE+ElVNztVS2Fb5AmxtCYbRdQOuc
fsW+Zv3npQ0eNk430/bVK7GQAYcnVvw9TUZqe663mBtD+9nidAq3pqGwT/dyBN1a
P6URshV2hgYtFDU7PAEReEkhqTPEC3++KdqHmn+4ccySG3k1pgpoyvcdtwIDAQAB
o2AwXjAMBgNVHRMBAf8EAjAAMA4GA1UdDwEB/wQEAwIHgDAdBgNVHQ4EFgQUCQ7Q
eV5cQn5kOZWrL88Gi0VaYDUwHwYDVR0jBBgwFoAUF6auFSECvfSIfeumz863KhJy
1QkwDQYJKoZIhvcNAQELBQADggEBADgTsnatDiv073yM2YcyjHHlL2BhLH7F4hzJ
D9nOKPTVaGhoxMm9zOTDnfhH3MXK5wE40I7yjNpwoo2OUquQwmfyKnEtP5dzK1L4
ioY4TfcQ2mbdRV/JyAVeAF0jI//e7fp5BS9zNCcUTnibDjF5fqw378iJSX3aJ9kR
m16umz+HbfirvpWAJ1jmoEvzVtsjAN322qiY+oci75CyTnfpSRsxhZ+9lyS9nNaD
wwV1IbqCRpBENxZuJCL8g7P9BezJjHkp3Jee+3UHIrGBk7eX2dGJFeihRiI5LLbR
rXlakTxlD1y3h/JlCEUzGycfD2Q2sS3MQTXPulsQGXDsLnYCbds=
-----END CERTIFICATE-----
