Certificate:
    Data:
        Version: 3 (0x2)
        Serial Number: 34 (0x22)
        Signature Algorithm: sha256WithRSAEncryption
        Issuer: C=US, ST=California, L=Santa Clara, O=pkg5, CN=ch1.4_ta3/emailAddress=ch1.4_ta3
        Validity
            Not Before: Oct 24 21:43:10 2023 GMT
            Not After : Jul 20 21:43:10 2026 GMT
        Subject: C=US, ST=California, L=Santa Clara, O=pkg5, CN=cs1_ch1.4_ta3/emailAddress=cs1_ch1.4_ta3
        Subject Public Key Info:
            Public Key Algorithm: rsaEncryption
                Public-Key: (2048 bit)
                Modulus:
                    00:8b:4b:ae:59:18:49:93:69:03:db:48:29:57:c0:
                    e9:a4:ac:67:0a:d4:77:1a:2f:0c:f3:25:a3:33:63:
                    4d:5c:fc:ea:d5:2d:6f:6f:ce:d6:35:d8:df:29:f1:
                    a5:71:03:01:8e:3a:8b:29:c4:bd:fa:16:e0:f2:14:
                    e6:0c:ce:66:1a:9d:93:43:e8:3a:44:eb:de:d4:55:
                    c5:9a:b2:e5:62:73:97:ac:8d:0d:77:73:d5:d1:ee:
                    bc:4b:f8:29:53:ff:cc:63:35:91:b6:cc:9a:61:ee:
                    32:cd:f6:38:2d:51:cc:3d:10:90:2a:e5:38:94:15:
                    07:72:f0:1d:e9:f2:c4:fe:50:0d:d5:6b:30:40:a1:
                    49:af:73:76:d0:f2:42:44:3a:8a:4d:cb:3a:82:7c:
                    0f:8b:a9:7f:76:49:fc:61:17:3c:9c:cc:09:2c:7d:
                    62:58:4b:60:ad:7d:fe:18:d6:c1:dc:41:e6:95:42:
                    a9:c3:2e:a1:82:dd:2f:71:80:e1:dd:af:88:ea:07:
                    2f:16:ec:f7:2e:76:cf:64:bc:b4:46:e2:e4:e1:7f:
                    bd:38:b8:8b:0e:d3:58:8d:e3:2d:68:9b:c4:b1:d9:
                    3a:1a:9d:e3:f8:71:dd:e1:b7:8c:b6:9c:3b:cc:84:
                    1d:c8:90:a3:4a:23:41:a1:09:a0:7f:23:82:5f:1d:
                    37:9d
                Exponent: 65537 (0x10001)
        X509v3 extensions:
            X509v3 Basic Constraints: critical
                CA:FALSE
            X509v3 Key Usage: critical
                Digital Signature
            X509v3 Subject Key Identifier: 
                F5:DA:45:AF:7B:29:FD:32:86:C6:A3:5B:7F:9F:FF:F2:CA:29:50:F7
            X509v3 Authority Key Identifier: 
                DB:7D:A4:0C:29:6C:28:A6:94:AE:5A:FA:80:BE:24:C9:61:B3:B9:3A
    Signature Algorithm: sha256WithRSAEncryption
    Signature Value:
        12:2a:a9:e7:fb:03:5e:f2:a3:31:99:56:b1:39:c4:a4:a4:e8:
        41:9d:cc:82:12:9f:2c:e8:e8:11:e4:79:65:fa:80:62:75:15:
        e7:62:6f:dd:71:1c:93:c6:b9:ff:12:84:32:37:2d:17:a3:2e:
        61:ba:94:ed:bc:8c:ff:1e:ca:9b:9e:61:af:8f:60:6c:d3:95:
        49:29:9b:5a:a5:69:c3:92:42:d2:48:9b:1e:53:f1:6d:92:dc:
        1b:c4:b9:98:bd:69:46:3f:1c:b5:c3:d1:c4:05:ed:6b:04:91:
        92:d8:56:f4:33:b9:7b:ae:6f:af:fb:6e:6d:a7:fa:77:88:5c:
        37:01:ae:2d:6b:b9:dc:b2:f2:c8:41:ba:02:83:7c:66:19:52:
        70:00:79:65:f7:ae:73:f0:35:12:17:c3:3d:90:32:79:66:67:
        e4:c3:20:79:be:5c:9c:e6:30:21:6b:1a:99:91:b9:47:be:4d:
        ad:3b:13:76:a5:81:a2:2c:1e:ed:7f:07:f3:9e:a6:6b:79:a4:
        e3:25:85:a5:7a:ee:7e:e8:46:fc:a1:75:cd:51:85:92:52:50:
        78:e0:c5:32:b9:f7:a3:83:c9:b2:8b:e0:80:fb:5f:ab:58:cd:
        51:86:fa:1a:8b:00:5b:fe:ad:d9:aa:30:17:a1:de:f6:10:1c:
        34:8e:2d:0f
-----BEGIN CERTIFICATE-----
MIIDzTCCArWgAwIBAgIBIjANBgkqhkiG9w0BAQsFADB1MQswCQYDVQQGEwJVUzET
MBEGA1UECAwKQ2FsaWZvcm5pYTEUMBIGA1UEBwwLU2FudGEgQ2xhcmExDTALBgNV
BAoMBHBrZzUxEjAQBgNVBAMMCWNoMS40X3RhMzEYMBYGCSqGSIb3DQEJARYJY2gx
LjRfdGEzMB4XDTIzMTAyNDIxNDMxMFoXDTI2MDcyMDIxNDMxMFowfTELMAkGA1UE
BhMCVVMxEzARBgNVBAgMCkNhbGlmb3JuaWExFDASBgNVBAcMC1NhbnRhIENsYXJh
MQ0wCwYDVQQKDARwa2c1MRYwFAYDVQQDDA1jczFfY2gxLjRfdGEzMRwwGgYJKoZI
hvcNAQkBFg1jczFfY2gxLjRfdGEzMIIBIjANBgkqhkiG9w0BAQEFAAOCAQ8AMIIB
CgKCAQEAi0uuWRhJk2kD20gpV8DppKxnCtR3Gi8M8yWjM2NNXPzq1S1vb87WNdjf
KfGlcQMBjjqLKcS9+hbg8hTmDM5mGp2TQ+g6ROve1FXFmrLlYnOXrI0Nd3PV0e68
S/gpU//MYzWRtsyaYe4yzfY4LVHMPRCQKuU4lBUHcvAd6fLE/lAN1WswQKFJr3N2
0PJCRDqKTcs6gnwPi6l/dkn8YRc8nMwJLH1iWEtgrX3+GNbB3EHmlUKpwy6hgt0v
cYDh3a+I6gcvFuz3LnbPZLy0RuLk4X+9OLiLDtNYjeMtaJvEsdk6Gp3j+HHd4beM
tpw7zIQdyJCjSiNBoQmgfyOCXx03nQIDAQABo2AwXjAMBgNVHRMBAf8EAjAAMA4G
A1UdDwEB/wQEAwIHgDAdBgNVHQ4EFgQU9dpFr3sp/TKGxqNbf5//8sopUPcwHwYD
VR0jBBgwFoAU232kDClsKKaUrlr6gL4kyWGzuTowDQYJKoZIhvcNAQELBQADggEB
ABIqqef7A17yozGZVrE5xKSk6EGdzIISnyzo6BHkeWX6gGJ1Fedib91xHJPGuf8S
hDI3LRejLmG6lO28jP8eypueYa+PYGzTlUkpm1qlacOSQtJImx5T8W2S3BvEuZi9
aUY/HLXD0cQF7WsEkZLYVvQzuXuub6/7bm2n+neIXDcBri1rudyy8shBugKDfGYZ
UnAAeWX3rnPwNRIXwz2QMnlmZ+TDIHm+XJzmMCFrGpmRuUe+Ta07E3algaIsHu1/
B/Oepmt5pOMlhaV67n7oRvyhdc1RhZJSUHjgxTK596ODybKL4ID7X6tYzVGG+hqL
AFv+rdmqMBeh3vYQHDSOLQ8=
-----END CERTIFICATE-----
