Certificate:
    Data:
        Version: 3 (0x2)
        Serial Number: 28 (0x1c)
        Signature Algorithm: sha256WithRSAEncryption
        Issuer: C=US, ST=California, L=Santa Clara, O=pkg5, CN=ch1.1_ta3/emailAddress=ch1.1_ta3
        Validity
            Not Before: Nov 14 14:26:55 2024 GMT
            Not After : Aug 11 14:26:55 2027 GMT
        Subject: C=US, ST=California, L=Santa Clara, O=pkg5, CN=cs1_ch1.1_ta3/emailAddress=cs1_ch1.1_ta3
        Subject Public Key Info:
            Public Key Algorithm: rsaEncryption
                Public-Key: (2048 bit)
                Modulus:
                    00:8f:cb:6a:2d:70:28:02:c0:33:75:3d:bc:6f:a6:
                    c1:62:76:c9:b3:ef:bf:97:7c:b1:58:39:d0:ea:e7:
                    b7:77:48:a9:ff:57:fd:ed:54:72:3e:73:93:6a:47:
                    37:5c:e3:4b:5a:d4:ff:df:43:b0:54:1e:12:39:cf:
                    df:84:f0:63:80:02:78:51:28:97:fd:5d:a1:81:73:
                    f5:d7:8b:6d:db:bc:c1:2e:47:20:54:68:58:78:90:
                    64:f0:e2:2c:9b:e9:ac:a7:34:e5:de:d0:89:15:d8:
                    bb:5a:df:2e:96:ed:31:b0:63:fe:45:91:9a:27:e0:
                    37:5b:a9:e0:2f:66:99:ef:01:88:28:11:93:17:d8:
                    43:89:af:3e:e1:6d:16:d3:98:ab:98:c9:ab:72:71:
                    39:4f:6d:a4:a6:ba:5a:cf:9c:65:59:d5:b6:67:b3:
                    d4:18:a3:ca:dc:4f:c4:8b:16:fa:f8:09:80:f0:49:
                    de:ca:c1:8c:81:36:3f:08:cf:5c:e8:bb:b7:cf:09:
                    21:d3:0b:2c:36:0d:1e:44:57:1b:c3:b5:19:3b:98:
                    58:6d:63:95:a5:29:81:74:9f:e1:7b:0b:70:7b:0d:
                    65:13:23:eb:ab:54:d9:a6:a1:5f:01:55:12:1e:93:
                    da:d0:df:4c:f0:90:6e:45:9a:30:fe:fd:33:e8:8e:
                    1a:bb
                Exponent: 65537 (0x10001)
        X509v3 extensions:
            X509v3 Basic Constraints: critical
                CA:FALSE
            X509v3 Key Usage: critical
                Digital Signature
            X509v3 Subject Key Identifier: 
                3E:E4:54:45:5F:85:0F:D9:E6:40:37:23:50:45:B9:F4:4C:4E:16:B7
            X509v3 Authority Key Identifier: 
                B6:DA:23:41:71:A7:A0:6D:39:4A:30:5D:2F:A2:91:A1:B3:A8:0D:5A
    Signature Algorithm: sha256WithRSAEncryption
    Signature Value:
        4c:a6:e4:99:45:88:54:c9:e4:7b:1b:b3:e1:e6:a5:3f:c0:7b:
        ff:0a:24:60:d6:dd:c3:23:9b:c3:ea:a8:5a:c0:a2:2a:96:d5:
        e9:9d:a8:14:d3:44:00:69:7c:5b:11:2c:57:9c:41:e3:c1:59:
        2c:a8:fe:75:e3:ea:9f:e2:6f:09:84:d4:80:c0:86:c4:83:39:
        4b:fb:9c:30:69:bc:cc:17:3b:f0:65:c8:e5:61:78:f8:c3:07:
        ae:64:27:97:74:2b:74:84:bf:b6:e8:12:bf:dc:5d:aa:66:a8:
        1c:21:65:a1:67:39:1c:cd:7d:78:70:af:fe:a2:ea:52:a5:a5:
        19:91:0a:7d:b4:a0:dc:1a:5a:fc:a2:9c:35:da:49:9f:a8:8e:
        31:70:45:d3:bb:f3:97:3c:3e:16:5d:6f:33:5f:eb:bb:8c:59:
        7d:d4:5a:52:24:12:b7:bb:74:97:d3:9d:44:fa:05:30:32:22:
        c5:41:03:6f:ee:b4:1e:b0:df:d8:62:7e:de:ea:fc:28:df:94:
        cd:e9:c0:94:ee:8e:76:d3:5a:74:12:c0:77:64:00:bd:2b:0e:
        ae:e5:05:9e:7f:b6:c1:8e:13:4a:f9:93:3f:8f:60:05:ff:44:
        c6:df:b2:32:81:72:1c:c0:3a:dc:92:af:4c:c0:72:ca:b3:b1:
        ed:65:2a:5f
-----BEGIN CERTIFICATE-----
MIIDzTCCArWgAwIBAgIBHDANBgkqhkiG9w0BAQsFADB1MQswCQYDVQQGEwJVUzET
MBEGA1UECAwKQ2FsaWZvcm5pYTEUMBIGA1UEBwwLU2FudGEgQ2xhcmExDTALBgNV
BAoMBHBrZzUxEjAQBgNVBAMMCWNoMS4xX3RhMzEYMBYGCSqGSIb3DQEJARYJY2gx
LjFfdGEzMB4XDTI0MTExNDE0MjY1NVoXDTI3MDgxMTE0MjY1NVowfTELMAkGA1UE
BhMCVVMxEzARBgNVBAgMCkNhbGlmb3JuaWExFDASBgNVBAcMC1NhbnRhIENsYXJh
MQ0wCwYDVQQKDARwa2c1MRYwFAYDVQQDDA1jczFfY2gxLjFfdGEzMRwwGgYJKoZI
hvcNAQkBFg1jczFfY2gxLjFfdGEzMIIBIjANBgkqhkiG9w0BAQEFAAOCAQ8AMIIB
CgKCAQEAj8tqLXAoAsAzdT28b6bBYnbJs++/l3yxWDnQ6ue3d0ip/1f97VRyPnOT
akc3XONLWtT/30OwVB4SOc/fhPBjgAJ4USiX/V2hgXP114tt27zBLkcgVGhYeJBk
8OIsm+mspzTl3tCJFdi7Wt8ulu0xsGP+RZGaJ+A3W6ngL2aZ7wGIKBGTF9hDia8+
4W0W05irmMmrcnE5T22kprpaz5xlWdW2Z7PUGKPK3E/Eixb6+AmA8EneysGMgTY/
CM9c6Lu3zwkh0wssNg0eRFcbw7UZO5hYbWOVpSmBdJ/hewtwew1lEyPrq1TZpqFf
AVUSHpPa0N9M8JBuRZow/v0z6I4auwIDAQABo2AwXjAMBgNVHRMBAf8EAjAAMA4G
A1UdDwEB/wQEAwIHgDAdBgNVHQ4EFgQUPuRURV+FD9nmQDcjUEW59ExOFrcwHwYD
VR0jBBgwFoAUttojQXGnoG05SjBdL6KRobOoDVowDQYJKoZIhvcNAQELBQADggEB
AEym5JlFiFTJ5Hsbs+HmpT/Ae/8KJGDW3cMjm8PqqFrAoiqW1emdqBTTRABpfFsR
LFecQePBWSyo/nXj6p/ibwmE1IDAhsSDOUv7nDBpvMwXO/BlyOVhePjDB65kJ5d0
K3SEv7boEr/cXapmqBwhZaFnORzNfXhwr/6i6lKlpRmRCn20oNwaWvyinDXaSZ+o
jjFwRdO785c8PhZdbzNf67uMWX3UWlIkEre7dJfTnUT6BTAyIsVBA2/utB6w39hi
ft7q/CjflM3pwJTujnbTWnQSwHdkAL0rDq7lBZ5/tsGOE0r5kz+PYAX/RMbfsjKB
chzAOtySr0zAcsqzse1lKl8=
-----END CERTIFICATE-----
