Certificate:
    Data:
        Version: 3 (0x2)
        Serial Number: 28 (0x1c)
        Signature Algorithm: sha256WithRSAEncryption
        Issuer: C=US, ST=California, L=Santa Clara, O=pkg5, CN=ch1.1_ta3/emailAddress=ch1.1_ta3
        Validity
            Not Before: May 23 15:47:19 2024 GMT
            Not After : Feb 17 15:47:19 2027 GMT
        Subject: C=US, ST=California, L=Santa Clara, O=pkg5, CN=cs1_ch1.1_ta3/emailAddress=cs1_ch1.1_ta3
        Subject Public Key Info:
            Public Key Algorithm: rsaEncryption
                Public-Key: (2048 bit)
                Modulus:
                    00:b3:97:0c:eb:f1:4e:56:d8:ab:55:4d:0f:29:b3:
                    c0:4a:d9:b8:17:04:f4:c6:b5:cf:ce:00:e2:4d:8e:
                    dd:8d:86:72:d8:3a:48:33:95:34:14:d2:b8:df:6f:
                    b8:ec:e6:67:57:db:25:5e:25:fc:e3:5c:d9:7d:97:
                    59:97:18:3a:29:6a:c0:73:ca:62:c4:3a:fe:1d:2b:
                    78:ba:fa:00:e0:18:95:dc:5c:0f:d8:b7:ff:15:ca:
                    4c:f1:ba:1a:2b:a0:93:d2:3d:14:65:18:ef:0a:11:
                    27:5d:3c:b6:e9:b8:4d:c2:60:98:fc:b8:a1:52:eb:
                    72:9b:18:09:58:9e:3a:09:69:b0:45:3e:37:e7:c5:
                    3c:69:d6:6f:5e:37:32:cf:1d:f9:57:75:55:55:6b:
                    cc:33:b6:48:fe:54:82:3f:65:10:82:99:c0:3a:1f:
                    64:1e:f8:6f:61:e2:8b:ef:fc:5f:7d:29:e6:f0:aa:
                    12:be:5a:8d:7d:b1:2e:be:88:4d:fd:cd:be:29:40:
                    ed:32:f9:ab:56:eb:b4:98:87:5c:f6:ee:3b:e4:2a:
                    82:0c:14:cc:b1:95:8e:0e:73:0f:98:f1:80:c0:d2:
                    60:a5:6a:db:53:98:32:9b:be:6e:6b:c3:47:f0:ec:
                    41:c6:c6:43:b3:26:3a:17:84:f8:ed:26:58:81:6d:
                    65:07
                Exponent: 65537 (0x10001)
        X509v3 extensions:
            X509v3 Basic Constraints: critical
                CA:FALSE
            X509v3 Key Usage: critical
                Digital Signature
            X509v3 Subject Key Identifier: 
                C1:6A:95:A6:18:AA:42:4D:E4:07:77:CA:F6:5F:35:30:5D:78:42:05
            X509v3 Authority Key Identifier: 
                4F:9C:24:8F:B5:C5:57:54:59:D5:CB:F7:9C:1B:07:69:4E:BE:A6:03
    Signature Algorithm: sha256WithRSAEncryption
    Signature Value:
        6e:42:31:2c:f3:1d:27:6a:06:fb:48:37:04:b8:e3:58:8c:54:
        34:fd:de:c1:31:7d:0c:31:37:43:8f:34:2e:aa:ac:12:dd:b9:
        b3:db:42:66:b6:41:8f:37:2a:1b:8a:bf:4c:e1:95:6a:f2:20:
        de:06:c4:e3:6c:78:69:57:5c:e9:8c:f5:7f:9d:07:7f:31:3b:
        fe:e1:23:59:27:05:40:e9:b9:ff:a3:c9:8d:3e:98:40:26:58:
        ed:18:d6:40:b4:78:48:fc:72:79:d0:d1:c1:11:22:f9:31:c7:
        de:d4:af:62:6f:60:94:64:0a:c2:65:71:b1:ab:2c:dc:b6:9f:
        08:09:86:a2:9f:50:90:f9:d1:da:70:1e:2c:f7:f2:ba:a8:d3:
        e6:d7:b5:a9:22:26:3e:d6:e3:b2:ce:ea:12:d0:71:a0:64:a0:
        2b:60:e6:a4:27:e0:35:d4:24:5c:e7:bc:6b:19:4c:a7:7b:b6:
        14:38:4e:4d:fb:5a:c7:6c:9a:26:d2:a6:eb:52:5b:4c:c1:2f:
        2a:58:f4:8f:05:a3:bd:7d:53:9a:20:64:50:2b:14:07:70:c0:
        c1:21:2b:48:69:9e:7e:40:59:0d:cf:dd:79:fd:8a:2f:86:38:
        75:28:a0:cd:3f:61:c3:ca:a3:a2:eb:04:ed:21:7d:61:4a:4e:
        b1:05:c0:37
-----BEGIN CERTIFICATE-----
MIIDzTCCArWgAwIBAgIBHDANBgkqhkiG9w0BAQsFADB1MQswCQYDVQQGEwJVUzET
MBEGA1UECAwKQ2FsaWZvcm5pYTEUMBIGA1UEBwwLU2FudGEgQ2xhcmExDTALBgNV
BAoMBHBrZzUxEjAQBgNVBAMMCWNoMS4xX3RhMzEYMBYGCSqGSIb3DQEJARYJY2gx
LjFfdGEzMB4XDTI0MDUyMzE1NDcxOVoXDTI3MDIxNzE1NDcxOVowfTELMAkGA1UE
BhMCVVMxEzARBgNVBAgMCkNhbGlmb3JuaWExFDASBgNVBAcMC1NhbnRhIENsYXJh
MQ0wCwYDVQQKDARwa2c1MRYwFAYDVQQDDA1jczFfY2gxLjFfdGEzMRwwGgYJKoZI
hvcNAQkBFg1jczFfY2gxLjFfdGEzMIIBIjANBgkqhkiG9w0BAQEFAAOCAQ8AMIIB
CgKCAQEAs5cM6/FOVtirVU0PKbPAStm4FwT0xrXPzgDiTY7djYZy2DpIM5U0FNK4
32+47OZnV9slXiX841zZfZdZlxg6KWrAc8pixDr+HSt4uvoA4BiV3FwP2Lf/FcpM
8boaK6CT0j0UZRjvChEnXTy26bhNwmCY/LihUutymxgJWJ46CWmwRT4358U8adZv
Xjcyzx35V3VVVWvMM7ZI/lSCP2UQgpnAOh9kHvhvYeKL7/xffSnm8KoSvlqNfbEu
vohN/c2+KUDtMvmrVuu0mIdc9u475CqCDBTMsZWODnMPmPGAwNJgpWrbU5gym75u
a8NH8OxBxsZDsyY6F4T47SZYgW1lBwIDAQABo2AwXjAMBgNVHRMBAf8EAjAAMA4G
A1UdDwEB/wQEAwIHgDAdBgNVHQ4EFgQUwWqVphiqQk3kB3fK9l81MF14QgUwHwYD
VR0jBBgwFoAUT5wkj7XFV1RZ1cv3nBsHaU6+pgMwDQYJKoZIhvcNAQELBQADggEB
AG5CMSzzHSdqBvtINwS441iMVDT93sExfQwxN0OPNC6qrBLdubPbQma2QY83KhuK
v0zhlWryIN4GxONseGlXXOmM9X+dB38xO/7hI1knBUDpuf+jyY0+mEAmWO0Y1kC0
eEj8cnnQ0cERIvkxx97Ur2JvYJRkCsJlcbGrLNy2nwgJhqKfUJD50dpwHiz38rqo
0+bXtakiJj7W47LO6hLQcaBkoCtg5qQn4DXUJFznvGsZTKd7thQ4Tk37WsdsmibS
putSW0zBLypY9I8Fo719U5ogZFArFAdwwMEhK0hpnn5AWQ3P3Xn9ii+GOHUooM0/
YcPKo6LrBO0hfWFKTrEFwDc=
-----END CERTIFICATE-----
