Certificate:
    Data:
        Version: 3 (0x2)
        Serial Number: 11 (0xb)
    Signature Algorithm: sha256WithRSAEncryption
        Issuer: C=US, ST=California, L=Santa Clara, O=pkg5, CN=ch5.2_ta1/emailAddress=ch5.2_ta1
        Validity
            Not Before: Nov 16 10:58:48 2017 GMT
            Not After : Aug 12 10:58:48 2020 GMT
        Subject: C=US, ST=California, L=Santa Clara, O=pkg5, CN=cs1_ch5.2_ta1/emailAddress=cs1_ch5.2_ta1
        Subject Public Key Info:
            Public Key Algorithm: rsaEncryption
                Public-Key: (1024 bit)
                Modulus:
                    00:df:78:e6:1f:e7:fb:48:82:7d:45:7d:5f:8e:4d:
                    ec:0a:d3:25:73:48:fe:c0:7f:31:88:d8:4c:0a:4f:
                    29:b9:c8:76:5d:58:c4:0c:73:ac:b4:ec:bd:c9:e8:
                    14:70:9d:77:d8:77:74:10:c8:8b:98:71:76:01:87:
                    c6:29:2e:3a:43:ef:97:a4:33:f9:ad:e2:64:97:f3:
                    a1:6d:c6:25:90:a1:0d:e3:57:e6:5a:e3:c0:86:8a:
                    26:64:ea:68:47:40:d6:9f:42:7b:53:83:2d:6e:4a:
                    c1:3e:88:4b:ec:e6:f9:c7:f5:e1:a8:4c:3e:08:9a:
                    6c:b3:b4:e4:c9:0b:41:06:4d
                Exponent: 65537 (0x10001)
        X509v3 extensions:
            X509v3 Basic Constraints: critical
                CA:FALSE
            X509v3 Key Usage: critical
                Digital Signature
    Signature Algorithm: sha256WithRSAEncryption
         4c:ef:b8:48:3f:4b:36:35:e5:5a:32:ff:09:6f:17:3d:c0:0b:
         0c:49:33:95:a7:85:39:d7:c6:e2:79:2d:f6:b3:b2:c0:71:5e:
         bc:2e:57:fa:66:76:53:39:da:0f:a1:18:c9:6b:ac:31:62:4e:
         0d:4a:a2:8b:28:a5:8f:44:03:fe:32:ce:0d:8f:4f:ff:98:f9:
         c0:f8:b8:6f:65:d5:f9:5b:a3:32:b5:0d:b4:67:9c:f8:2e:29:
         ef:c4:0c:26:a2:db:93:ea:f8:ba:22:bb:e0:53:64:c6:e7:3a:
         e0:f7:70:6f:83:5b:6b:d8:f6:2d:84:cc:85:b8:01:2e:9f:64:
         f4:60:ee:84:47:b0:52:32:20:94:ef:90:ac:b1:54:3a:c0:f9:
         d4:9c:4c:8d:9b:8d:4b:56:70:87:bd:1c:c6:b4:9e:f3:ae:49:
         04:fd:6b:87:11:48:38:ba:0a:b9:34:74:5c:0c:6c:36:e8:5f:
         81:af:3c:ed:3b:92:44:e0:79:3d:79:f8:04:6a:7c:ea:e0:ac:
         51:99:c2:68:65:69:a8:9f:b1:64:1d:43:eb:1a:e9:2d:5e:28:
         8c:77:93:d3:2c:a7:f3:c8:f9:38:04:34:cf:1a:ff:af:73:00:
         9a:3c:4f:4b:fb:0c:05:08:fe:85:c8:70:12:26:e1:22:4e:ed:
         a5:60:98:3c
-----BEGIN CERTIFICATE-----
MIIDCTCCAfGgAwIBAgIBCzANBgkqhkiG9w0BAQsFADB1MQswCQYDVQQGEwJVUzET
MBEGA1UECAwKQ2FsaWZvcm5pYTEUMBIGA1UEBwwLU2FudGEgQ2xhcmExDTALBgNV
BAoMBHBrZzUxEjAQBgNVBAMMCWNoNS4yX3RhMTEYMBYGCSqGSIb3DQEJARYJY2g1
LjJfdGExMB4XDTE3MTExNjEwNTg0OFoXDTIwMDgxMjEwNTg0OFowfTELMAkGA1UE
BhMCVVMxEzARBgNVBAgMCkNhbGlmb3JuaWExFDASBgNVBAcMC1NhbnRhIENsYXJh
MQ0wCwYDVQQKDARwa2c1MRYwFAYDVQQDDA1jczFfY2g1LjJfdGExMRwwGgYJKoZI
hvcNAQkBFg1jczFfY2g1LjJfdGExMIGfMA0GCSqGSIb3DQEBAQUAA4GNADCBiQKB
gQDfeOYf5/tIgn1FfV+OTewK0yVzSP7AfzGI2EwKTym5yHZdWMQMc6y07L3J6BRw
nXfYd3QQyIuYcXYBh8YpLjpD75ekM/mt4mSX86FtxiWQoQ3jV+Za48CGiiZk6mhH
QNafQntTgy1uSsE+iEvs5vnH9eGoTD4ImmyztOTJC0EGTQIDAQABoyAwHjAMBgNV
HRMBAf8EAjAAMA4GA1UdDwEB/wQEAwIHgDANBgkqhkiG9w0BAQsFAAOCAQEATO+4
SD9LNjXlWjL/CW8XPcALDEkzlaeFOdfG4nkt9rOywHFevC5X+mZ2UznaD6EYyWus
MWJODUqiiyilj0QD/jLODY9P/5j5wPi4b2XV+VujMrUNtGec+C4p78QMJqLbk+r4
uiK74FNkxuc64Pdwb4Nba9j2LYTMhbgBLp9k9GDuhEewUjIglO+QrLFUOsD51JxM
jZuNS1Zwh70cxrSe865JBP1rhxFIOLoKuTR0XAxsNuhfga887TuSROB5PXn4BGp8
6uCsUZnCaGVpqJ+xZB1D6xrpLV4ojHeT0yyn88j5OAQ0zxr/r3MAmjxPS/sMBQj+
hchwEibhIk7tpWCYPA==
-----END CERTIFICATE-----
