Certificate:
    Data:
        Version: 3 (0x2)
        Serial Number: 14 (0xe)
        Signature Algorithm: sha256WithRSAEncryption
        Issuer: C=US, ST=California, L=Santa Clara, O=pkg5, CN=ch5.3_ta1/emailAddress=ch5.3_ta1
        Validity
            Not Before: Oct 24 21:43:02 2023 GMT
            Not After : Jul 20 21:43:02 2026 GMT
        Subject: C=US, ST=California, L=Santa Clara, O=pkg5, CN=cs1_ch5.3_ta1/emailAddress=cs1_ch5.3_ta1
        Subject Public Key Info:
            Public Key Algorithm: rsaEncryption
                Public-Key: (2048 bit)
                Modulus:
                    00:cb:9e:7d:77:38:80:3f:1d:f8:2b:2e:55:c8:d9:
                    4b:21:52:6a:38:4e:80:0e:7e:da:0a:47:59:fb:54:
                    f2:a9:a8:4a:50:29:37:2f:5a:9d:8b:97:14:29:fd:
                    16:8c:ef:9e:16:b5:41:7a:ed:01:37:91:bd:86:db:
                    d5:09:c8:1a:eb:77:b8:6a:2f:13:b3:f2:c7:29:fd:
                    4b:af:f5:09:e1:d1:10:62:34:39:db:11:75:e2:41:
                    42:ee:ce:f1:9e:a1:b3:eb:6d:a9:ac:62:2b:0a:6b:
                    71:d5:91:01:00:86:42:1b:57:e4:2a:2d:5d:17:93:
                    46:57:d2:b6:9f:4b:11:c0:da:25:a0:a5:53:80:a8:
                    ec:22:34:b0:48:f1:0f:1f:f2:dc:21:fe:d4:fa:ff:
                    97:dc:a2:2d:ce:5f:73:42:89:ed:56:c8:2e:12:c5:
                    3b:ed:28:99:ba:80:7c:31:80:e4:67:1b:8c:fd:32:
                    84:e9:31:86:b2:04:fc:a5:25:5b:14:40:42:58:c4:
                    56:e7:b6:de:cb:9e:4a:12:31:b7:08:1f:46:40:24:
                    8e:ba:bb:84:d1:88:1a:a4:ef:aa:82:b6:81:15:bd:
                    56:d2:c5:5c:1b:ec:dd:fc:0c:0a:f6:69:02:51:e8:
                    bf:ea:3a:6b:13:eb:b0:21:1b:91:b7:d0:d8:65:e4:
                    0a:f7
                Exponent: 65537 (0x10001)
        X509v3 extensions:
            X509v3 Basic Constraints: critical
                CA:FALSE
            X509v3 Key Usage: critical
                Digital Signature
            X509v3 Subject Key Identifier: 
                DD:10:08:B2:6C:30:C3:CC:AB:A5:97:EE:EF:2F:A7:29:2A:3A:0B:8D
            X509v3 Authority Key Identifier: 
                6B:9E:5E:A6:8D:CD:EE:F9:0D:E2:91:44:47:DE:D2:F9:EE:E7:F2:8A
    Signature Algorithm: sha256WithRSAEncryption
    Signature Value:
        7a:05:69:4a:7f:da:06:a3:4a:6c:65:89:20:5b:4b:0e:5a:b3:
        c7:68:02:16:24:e3:0d:2a:71:a2:54:63:f7:ec:d1:23:7b:97:
        20:79:c6:12:1d:df:e8:74:e2:e5:53:1c:58:a3:32:e9:b4:16:
        ae:aa:22:9f:27:67:f1:80:b8:58:22:70:71:60:72:fc:b3:60:
        3e:0f:ba:3c:39:cb:61:de:09:3d:7e:39:68:fb:58:ab:b4:2b:
        12:a9:90:55:84:20:e5:9d:32:dc:a1:38:cf:5a:60:93:fc:aa:
        37:91:3c:4e:52:b9:15:38:f9:02:ce:e0:dc:ea:91:3d:bb:48:
        44:b5:69:d9:8d:d7:e2:fd:b9:d9:17:8f:7f:e5:90:3f:a2:a6:
        12:58:47:2b:65:d9:90:1d:1b:b2:08:7b:bc:a4:3c:f3:62:c9:
        18:8a:a9:2d:d5:ea:8d:a8:a1:23:29:3a:2c:b0:52:a8:93:ce:
        3a:c3:af:16:c6:78:0b:86:50:a3:d5:ce:2d:dc:f2:41:24:fd:
        dd:2b:59:43:23:b5:3d:78:b1:e2:33:65:c8:e9:fd:83:8f:23:
        74:08:a2:a0:b7:3b:67:d8:f1:52:68:9d:af:64:aa:4d:bf:e9:
        b0:22:a8:9c:d3:da:38:b4:a6:7a:86:4b:9a:41:f5:2a:98:60:
        e3:d7:0c:7b
-----BEGIN CERTIFICATE-----
MIIDzTCCArWgAwIBAgIBDjANBgkqhkiG9w0BAQsFADB1MQswCQYDVQQGEwJVUzET
MBEGA1UECAwKQ2FsaWZvcm5pYTEUMBIGA1UEBwwLU2FudGEgQ2xhcmExDTALBgNV
BAoMBHBrZzUxEjAQBgNVBAMMCWNoNS4zX3RhMTEYMBYGCSqGSIb3DQEJARYJY2g1
LjNfdGExMB4XDTIzMTAyNDIxNDMwMloXDTI2MDcyMDIxNDMwMlowfTELMAkGA1UE
BhMCVVMxEzARBgNVBAgMCkNhbGlmb3JuaWExFDASBgNVBAcMC1NhbnRhIENsYXJh
MQ0wCwYDVQQKDARwa2c1MRYwFAYDVQQDDA1jczFfY2g1LjNfdGExMRwwGgYJKoZI
hvcNAQkBFg1jczFfY2g1LjNfdGExMIIBIjANBgkqhkiG9w0BAQEFAAOCAQ8AMIIB
CgKCAQEAy559dziAPx34Ky5VyNlLIVJqOE6ADn7aCkdZ+1TyqahKUCk3L1qdi5cU
Kf0WjO+eFrVBeu0BN5G9htvVCcga63e4ai8Ts/LHKf1Lr/UJ4dEQYjQ52xF14kFC
7s7xnqGz622prGIrCmtx1ZEBAIZCG1fkKi1dF5NGV9K2n0sRwNoloKVTgKjsIjSw
SPEPH/LcIf7U+v+X3KItzl9zQontVsguEsU77SiZuoB8MYDkZxuM/TKE6TGGsgT8
pSVbFEBCWMRW57bey55KEjG3CB9GQCSOuruE0YgapO+qgraBFb1W0sVcG+zd/AwK
9mkCUei/6jprE+uwIRuRt9DYZeQK9wIDAQABo2AwXjAMBgNVHRMBAf8EAjAAMA4G
A1UdDwEB/wQEAwIHgDAdBgNVHQ4EFgQU3RAIsmwww8yrpZfu7y+nKSo6C40wHwYD
VR0jBBgwFoAUa55epo3N7vkN4pFER97S+e7n8oowDQYJKoZIhvcNAQELBQADggEB
AHoFaUp/2gajSmxliSBbSw5as8doAhYk4w0qcaJUY/fs0SN7lyB5xhId3+h04uVT
HFijMum0Fq6qIp8nZ/GAuFgicHFgcvyzYD4Pujw5y2HeCT1+OWj7WKu0KxKpkFWE
IOWdMtyhOM9aYJP8qjeRPE5SuRU4+QLO4NzqkT27SES1admN1+L9udkXj3/lkD+i
phJYRytl2ZAdG7IIe7ykPPNiyRiKqS3V6o2ooSMpOiywUqiTzjrDrxbGeAuGUKPV
zi3c8kEk/d0rWUMjtT14seIzZcjp/YOPI3QIoqC3O2fY8VJona9kqk2/6bAiqJzT
2ji0pnqGS5pB9SqYYOPXDHs=
-----END CERTIFICATE-----
