Certificate:
    Data:
        Version: 3 (0x2)
        Serial Number: 39 (0x27)
    Signature Algorithm: sha256WithRSAEncryption
        Issuer: C=US, ST=California, L=Santa Clara, O=pkg5, CN=ch1.1_ta4/emailAddress=ch1.1_ta4
        Validity
            Not Before: Dec  6 03:06:43 2014 GMT
            Not After : Sep  1 03:06:43 2017 GMT
        Subject: C=US, ST=California, L=Santa Clara, O=pkg5, CN=cs1_ch1.1_ta4/emailAddress=cs1_ch1.1_ta4
        Subject Public Key Info:
            Public Key Algorithm: rsaEncryption
                Public-Key: (1024 bit)
                Modulus:
                    00:f0:ed:26:a2:56:dd:af:6a:68:5e:30:35:6c:f5:
                    f0:f9:41:3e:9b:43:a3:69:e5:d6:04:f7:69:59:78:
                    7c:11:47:12:2d:9f:4d:3c:1a:93:c5:46:97:f2:15:
                    ab:5f:f1:05:10:fe:8c:b2:40:ac:ea:79:e3:57:b4:
                    c7:f6:b6:5b:2f:d1:20:ae:86:bb:cb:c1:d0:8f:ac:
                    ca:9b:9c:70:17:5f:76:c8:5f:a3:b4:70:a0:eb:c0:
                    10:2a:4c:29:ec:69:a9:bb:1b:88:48:a3:7b:6b:a6:
                    0e:32:5a:ce:68:35:91:c7:1a:3d:cb:58:b0:f1:c6:
                    3e:a6:ee:8a:f5:7c:21:e8:63
                Exponent: 65537 (0x10001)
        X509v3 extensions:
            X509v3 Basic Constraints: critical
                CA:FALSE
            X509v3 CRL Distribution Points: 

                Full Name:
                  URI:http://localhost:12001/file/0/ch1.1_ta4_crl.pem

    Signature Algorithm: sha256WithRSAEncryption
         60:25:cf:78:9c:93:ed:c0:85:04:23:79:f8:71:82:0c:7f:14:
         8b:91:75:41:b2:4e:43:8e:ad:0f:26:84:5c:a1:65:fa:11:29:
         44:cf:c1:e3:62:ca:fe:2b:15:17:d3:f9:24:50:cc:02:e1:bb:
         6c:be:67:39:fa:21:8b:8e:80:52:11:0b:31:3d:a2:d4:52:c8:
         64:f3:9a:d9:77:84:f6:0b:38:d5:34:38:b9:e1:79:16:96:c5:
         32:66:e3:e6:cc:ae:50:4f:78:ce:36:7a:13:d1:42:2d:48:de:
         2b:42:f4:fb:6b:fe:a3:29:a9:fa:76:17:4a:06:6d:99:d6:09:
         3a:bf
-----BEGIN CERTIFICATE-----
MIICujCCAiOgAwIBAgIBJzANBgkqhkiG9w0BAQsFADB1MQswCQYDVQQGEwJVUzET
MBEGA1UECAwKQ2FsaWZvcm5pYTEUMBIGA1UEBwwLU2FudGEgQ2xhcmExDTALBgNV
BAoMBHBrZzUxEjAQBgNVBAMMCWNoMS4xX3RhNDEYMBYGCSqGSIb3DQEJARYJY2gx
LjFfdGE0MB4XDTE0MTIwNjAzMDY0M1oXDTE3MDkwMTAzMDY0M1owfTELMAkGA1UE
BhMCVVMxEzARBgNVBAgMCkNhbGlmb3JuaWExFDASBgNVBAcMC1NhbnRhIENsYXJh
MQ0wCwYDVQQKDARwa2c1MRYwFAYDVQQDDA1jczFfY2gxLjFfdGE0MRwwGgYJKoZI
hvcNAQkBFg1jczFfY2gxLjFfdGE0MIGfMA0GCSqGSIb3DQEBAQUAA4GNADCBiQKB
gQDw7SaiVt2vamheMDVs9fD5QT6bQ6Np5dYE92lZeHwRRxItn008GpPFRpfyFatf
8QUQ/oyyQKzqeeNXtMf2tlsv0SCuhrvLwdCPrMqbnHAXX3bIX6O0cKDrwBAqTCns
aam7G4hIo3trpg4yWs5oNZHHGj3LWLDxxj6m7or1fCHoYwIDAQABo1IwUDAMBgNV
HRMBAf8EAjAAMEAGA1UdHwQ5MDcwNaAzoDGGL2h0dHA6Ly9sb2NhbGhvc3Q6MTIw
MDEvZmlsZS8wL2NoMS4xX3RhNF9jcmwucGVtMA0GCSqGSIb3DQEBCwUAA4GBAGAl
z3ick+3AhQQjefhxggx/FIuRdUGyTkOOrQ8mhFyhZfoRKUTPweNiyv4rFRfT+SRQ
zALhu2y+Zzn6IYuOgFIRCzE9otRSyGTzmtl3hPYLONU0OLnheRaWxTJm4+bMrlBP
eM42ehPRQi1I3itC9Ptr/qMpqfp2F0oGbZnWCTq/
-----END CERTIFICATE-----
