Certificate:
    Data:
        Version: 3 (0x2)
        Serial Number: 47 (0x2f)
        Signature Algorithm: sha256WithRSAEncryption
        Issuer: C=US, ST=California, L=Santa Clara, O=pkg5, OU=ta10, CN=localhost/emailAddress=ta10
        Validity
            Not Before: Nov 14 14:26:59 2024 GMT
            Not After : Aug 11 14:26:59 2027 GMT
        Subject: C=US, ST=California, L=Santa Clara, O=pkg5, OU=cs1_ta10, CN=localhost/emailAddress=cs1_ta10
        Subject Public Key Info:
            Public Key Algorithm: rsaEncryption
                Public-Key: (2048 bit)
                Modulus:
                    00:b3:b2:33:e9:d5:71:c2:b6:4f:e8:c5:96:40:a6:
                    cb:81:0b:0d:3c:b1:30:00:55:69:84:c6:7c:86:20:
                    5c:24:f3:47:61:9a:3d:b2:ee:93:29:ad:cc:be:51:
                    61:99:fb:85:73:3b:96:05:65:92:21:2d:44:fb:21:
                    db:c2:7c:1a:3a:a5:56:e7:d5:e9:e7:81:44:dd:11:
                    98:b0:45:af:dd:d4:62:6a:55:7f:dc:6c:ee:2b:d0:
                    4a:81:c3:91:a8:df:8f:93:a2:75:07:e1:98:2d:79:
                    73:88:46:ae:b2:c0:00:94:3e:b2:7b:7c:20:6a:0d:
                    b3:29:2f:ad:30:b2:5f:7a:0c:99:ec:cc:9e:49:1a:
                    6f:9f:e9:74:c1:e5:dd:27:cb:24:84:0f:d7:82:f2:
                    bd:7c:de:b9:41:d1:d3:07:09:41:b7:96:50:5e:fa:
                    cc:41:76:94:41:af:76:09:82:dc:b1:b2:2f:72:00:
                    1e:4f:e6:15:ad:22:d2:b5:cd:e5:06:86:f5:4b:b1:
                    43:5e:a5:88:8d:47:6f:f7:6c:26:57:6b:94:b7:7e:
                    90:56:11:0b:0b:5c:32:41:f8:04:1b:8e:a1:9a:85:
                    18:40:08:20:8f:28:9a:9c:a4:05:ac:c0:b8:62:55:
                    c5:be:33:c5:78:34:2c:5a:36:3f:30:9d:b9:90:c9:
                    e0:cf
                Exponent: 65537 (0x10001)
        X509v3 extensions:
            X509v3 Basic Constraints: critical
                CA:FALSE
            X509v3 Key Usage: critical
                Digital Signature
            X509v3 Subject Key Identifier: 
                EA:62:54:1F:86:35:2F:F9:19:76:F0:FB:11:95:12:81:A4:EB:3D:EC
            X509v3 Authority Key Identifier: 
                F8:7C:96:9A:77:BC:2E:9B:C5:09:D4:08:D9:E6:31:2E:98:80:89:46
    Signature Algorithm: sha256WithRSAEncryption
    Signature Value:
        08:e6:08:e8:f0:eb:7d:cf:f7:a4:af:f0:d3:3e:7b:49:ef:50:
        4d:9e:8e:df:fb:41:03:e8:cd:02:7f:48:cd:0f:3a:64:fb:77:
        eb:22:9c:d8:9e:2f:a4:34:af:43:c4:ff:a8:46:18:c9:47:39:
        4f:3e:e5:5c:14:6d:d9:b8:76:55:ef:1c:1f:b4:cb:ed:ef:cd:
        56:db:46:26:08:fa:4b:59:a6:97:80:fa:5b:41:1e:04:6e:b8:
        0e:5f:a5:ac:bd:37:f6:77:87:13:41:f9:f0:e6:46:77:80:65:
        42:60:38:dc:de:80:34:2c:67:6f:c3:ba:40:0f:ef:3c:0e:41:
        7e:e7:e1:6b:52:3e:b0:e1:b8:ac:29:18:7a:40:88:50:20:d3:
        80:32:9c:5e:4c:d1:8d:56:c8:bd:a5:3f:45:58:91:72:2b:e8:
        11:5d:dd:45:2a:6d:f0:0e:cb:39:9f:74:7a:ef:e0:ee:05:b6:
        c7:b3:49:98:5b:48:07:49:bb:0e:42:5f:66:bb:6e:1e:58:da:
        7d:fc:cb:33:70:87:aa:07:1d:51:1e:d5:90:4b:df:5d:bc:f0:
        31:c3:fe:0d:1d:46:80:b1:59:9a:f2:62:06:4e:ba:a4:04:58:
        1e:36:e6:a1:d0:8a:62:dc:84:7b:cc:50:62:2b:4c:03:c3:97:
        4b:e2:4d:12
-----BEGIN CERTIFICATE-----
MIID4jCCAsqgAwIBAgIBLzANBgkqhkiG9w0BAQsFADB/MQswCQYDVQQGEwJVUzET
MBEGA1UECAwKQ2FsaWZvcm5pYTEUMBIGA1UEBwwLU2FudGEgQ2xhcmExDTALBgNV
BAoMBHBrZzUxDTALBgNVBAsMBHRhMTAxEjAQBgNVBAMMCWxvY2FsaG9zdDETMBEG
CSqGSIb3DQEJARYEdGExMDAeFw0yNDExMTQxNDI2NTlaFw0yNzA4MTExNDI2NTla
MIGHMQswCQYDVQQGEwJVUzETMBEGA1UECAwKQ2FsaWZvcm5pYTEUMBIGA1UEBwwL
U2FudGEgQ2xhcmExDTALBgNVBAoMBHBrZzUxETAPBgNVBAsMCGNzMV90YTEwMRIw
EAYDVQQDDAlsb2NhbGhvc3QxFzAVBgkqhkiG9w0BCQEWCGNzMV90YTEwMIIBIjAN
BgkqhkiG9w0BAQEFAAOCAQ8AMIIBCgKCAQEAs7Iz6dVxwrZP6MWWQKbLgQsNPLEw
AFVphMZ8hiBcJPNHYZo9su6TKa3MvlFhmfuFczuWBWWSIS1E+yHbwnwaOqVW59Xp
54FE3RGYsEWv3dRialV/3GzuK9BKgcORqN+Pk6J1B+GYLXlziEaussAAlD6ye3wg
ag2zKS+tMLJfegyZ7MyeSRpvn+l0weXdJ8skhA/XgvK9fN65QdHTBwlBt5ZQXvrM
QXaUQa92CYLcsbIvcgAeT+YVrSLStc3lBob1S7FDXqWIjUdv92wmV2uUt36QVhEL
C1wyQfgEG46hmoUYQAggjyianKQFrMC4YlXFvjPFeDQsWjY/MJ25kMngzwIDAQAB
o2AwXjAMBgNVHRMBAf8EAjAAMA4GA1UdDwEB/wQEAwIHgDAdBgNVHQ4EFgQU6mJU
H4Y1L/kZdvD7EZUSgaTrPewwHwYDVR0jBBgwFoAU+HyWmne8LpvFCdQI2eYxLpiA
iUYwDQYJKoZIhvcNAQELBQADggEBAAjmCOjw633P96Sv8NM+e0nvUE2ejt/7QQPo
zQJ/SM0POmT7d+sinNieL6Q0r0PE/6hGGMlHOU8+5VwUbdm4dlXvHB+0y+3vzVbb
RiYI+ktZppeA+ltBHgRuuA5fpay9N/Z3hxNB+fDmRneAZUJgONzegDQsZ2/DukAP
7zwOQX7n4WtSPrDhuKwpGHpAiFAg04AynF5M0Y1WyL2lP0VYkXIr6BFd3UUqbfAO
yzmfdHrv4O4FtsezSZhbSAdJuw5CX2a7bh5Y2n38yzNwh6oHHVEe1ZBL31288DHD
/g0dRoCxWZryYgZOuqQEWB425qHQimLchHvMUGIrTAPDl0viTRI=
-----END CERTIFICATE-----
