Certificate:
    Data:
        Version: 3 (0x2)
        Serial Number: 30 (0x1e)
        Signature Algorithm: sha256WithRSAEncryption
        Issuer: C=US, ST=California, L=Santa Clara, O=pkg5, CN=ch1.2_ta3/emailAddress=ch1.2_ta3
        Validity
            Not Before: Oct 24 21:43:09 2023 GMT
            Not After : Jul 20 21:43:09 2026 GMT
        Subject: C=US, ST=California, L=Santa Clara, O=pkg5, CN=cs1_ch1.2_ta3/emailAddress=cs1_ch1.2_ta3
        Subject Public Key Info:
            Public Key Algorithm: rsaEncryption
                Public-Key: (2048 bit)
                Modulus:
                    00:b1:8b:26:df:3d:43:f2:2f:72:a7:91:c4:6d:b5:
                    f6:14:50:dc:ef:aa:8a:99:c8:93:01:bd:02:c3:ec:
                    7f:ed:52:5e:76:5d:5a:b8:53:3c:cc:4d:b1:f5:62:
                    7e:56:2a:7f:db:63:04:3a:d4:ef:3b:11:e4:f2:f1:
                    dc:00:7f:24:e8:7b:0e:91:36:91:2d:74:c7:39:04:
                    9f:7d:82:e5:8c:1b:00:14:ea:ff:d5:c3:36:fa:5a:
                    8a:20:64:e4:c7:cc:a3:0b:bc:bd:66:bb:f6:a0:4f:
                    2e:3d:bb:66:b4:03:61:96:de:b1:d0:ee:33:6f:3d:
                    66:48:92:d7:72:9f:fb:b5:9a:42:28:61:3c:5c:68:
                    8b:ab:1d:a5:04:3b:7d:a0:9f:3e:27:e5:55:c9:81:
                    0d:16:64:b2:81:71:c1:27:4f:f7:46:ad:20:62:f6:
                    3c:29:68:a0:c2:a5:9e:28:70:ff:58:c7:0e:fa:56:
                    25:44:3d:5a:5e:39:da:f2:9e:04:c6:83:10:8d:43:
                    d6:40:d7:5e:70:cf:5d:a3:08:9d:b4:34:6b:f9:34:
                    aa:5e:82:54:3d:7e:62:1c:fe:4e:0f:ee:36:d4:91:
                    37:ca:ba:aa:f3:f4:1f:bf:30:45:7c:83:82:ff:aa:
                    55:2e:05:69:a4:ff:c0:20:82:56:a5:6e:6a:4b:8e:
                    92:71
                Exponent: 65537 (0x10001)
        X509v3 extensions:
            X509v3 Basic Constraints: critical
                CA:FALSE
            X509v3 Key Usage: critical
                Digital Signature
            X509v3 Subject Key Identifier: 
                19:AC:51:04:50:88:59:26:3A:87:48:1B:3D:9F:51:77:93:72:FA:61
            X509v3 Authority Key Identifier: 
                2D:5F:DA:BD:27:52:33:6A:9D:56:F1:6F:76:42:86:8A:B7:1D:32:E6
    Signature Algorithm: sha256WithRSAEncryption
    Signature Value:
        c5:27:09:64:4c:ab:fd:50:66:eb:54:6e:68:b7:12:f0:c3:cf:
        2b:69:79:99:17:85:fb:36:f6:38:5f:90:18:8c:ac:96:94:61:
        6c:da:36:b8:e2:82:32:2e:2b:71:21:22:5a:ff:fc:e1:88:b9:
        bf:a0:87:6a:d5:9f:f4:d4:b0:86:56:97:98:40:96:3d:3c:10:
        8c:57:a0:d4:37:66:b5:b1:9c:6b:f6:ac:81:49:f7:6a:2c:64:
        b3:83:4f:d5:14:d7:34:0d:33:7b:79:84:53:c4:52:80:01:ab:
        bc:c2:5b:b5:89:c9:c8:4b:a4:44:5a:fc:48:2b:d6:a0:11:9f:
        98:4c:f6:02:85:a7:d3:57:14:33:d6:8a:df:2b:b7:7a:bb:11:
        00:0d:96:04:c7:d9:65:3e:9d:58:7b:fc:e0:2f:2f:19:c5:9b:
        8f:4b:fc:a5:af:c4:8e:e4:0d:22:a2:db:bf:00:3b:a9:3b:91:
        ad:c8:cd:b2:8a:11:15:fe:b1:26:2b:71:3c:01:b5:da:36:08:
        ec:94:85:f2:2c:2e:eb:73:23:65:df:0b:be:c4:38:e5:cd:de:
        23:7a:93:ee:6c:d5:a5:73:f4:2a:eb:0c:35:5d:04:f1:40:ac:
        1e:fe:dc:bf:bd:eb:fb:b1:a0:22:99:01:32:3b:cb:8d:f9:99:
        f1:14:af:1f
-----BEGIN CERTIFICATE-----
MIIDzTCCArWgAwIBAgIBHjANBgkqhkiG9w0BAQsFADB1MQswCQYDVQQGEwJVUzET
MBEGA1UECAwKQ2FsaWZvcm5pYTEUMBIGA1UEBwwLU2FudGEgQ2xhcmExDTALBgNV
BAoMBHBrZzUxEjAQBgNVBAMMCWNoMS4yX3RhMzEYMBYGCSqGSIb3DQEJARYJY2gx
LjJfdGEzMB4XDTIzMTAyNDIxNDMwOVoXDTI2MDcyMDIxNDMwOVowfTELMAkGA1UE
BhMCVVMxEzARBgNVBAgMCkNhbGlmb3JuaWExFDASBgNVBAcMC1NhbnRhIENsYXJh
MQ0wCwYDVQQKDARwa2c1MRYwFAYDVQQDDA1jczFfY2gxLjJfdGEzMRwwGgYJKoZI
hvcNAQkBFg1jczFfY2gxLjJfdGEzMIIBIjANBgkqhkiG9w0BAQEFAAOCAQ8AMIIB
CgKCAQEAsYsm3z1D8i9yp5HEbbX2FFDc76qKmciTAb0Cw+x/7VJedl1auFM8zE2x
9WJ+Vip/22MEOtTvOxHk8vHcAH8k6HsOkTaRLXTHOQSffYLljBsAFOr/1cM2+lqK
IGTkx8yjC7y9Zrv2oE8uPbtmtANhlt6x0O4zbz1mSJLXcp/7tZpCKGE8XGiLqx2l
BDt9oJ8+J+VVyYENFmSygXHBJ0/3Rq0gYvY8KWigwqWeKHD/WMcO+lYlRD1aXjna
8p4ExoMQjUPWQNdecM9dowidtDRr+TSqXoJUPX5iHP5OD+421JE3yrqq8/QfvzBF
fIOC/6pVLgVppP/AIIJWpW5qS46ScQIDAQABo2AwXjAMBgNVHRMBAf8EAjAAMA4G
A1UdDwEB/wQEAwIHgDAdBgNVHQ4EFgQUGaxRBFCIWSY6h0gbPZ9Rd5Ny+mEwHwYD
VR0jBBgwFoAULV/avSdSM2qdVvFvdkKGircdMuYwDQYJKoZIhvcNAQELBQADggEB
AMUnCWRMq/1QZutUbmi3EvDDzytpeZkXhfs29jhfkBiMrJaUYWzaNrjigjIuK3Eh
Ilr//OGIub+gh2rVn/TUsIZWl5hAlj08EIxXoNQ3ZrWxnGv2rIFJ92osZLODT9UU
1zQNM3t5hFPEUoABq7zCW7WJychLpERa/Egr1qARn5hM9gKFp9NXFDPWit8rt3q7
EQANlgTH2WU+nVh7/OAvLxnFm49L/KWvxI7kDSKi278AO6k7ka3IzbKKERX+sSYr
cTwBtdo2COyUhfIsLutzI2XfC77EOOXN3iN6k+5s1aVz9CrrDDVdBPFArB7+3L+9
6/uxoCKZATI7y435mfEUrx8=
-----END CERTIFICATE-----
