Certificate:
    Data:
        Version: 3 (0x2)
        Serial Number: 47 (0x2f)
    Signature Algorithm: sha256WithRSAEncryption
        Issuer: C=US, ST=California, L=Santa Clara, O=pkg5, OU=ta11, CN=localhost/emailAddress=ta11
        Validity
            Not Before: Dec  6 03:06:44 2014 GMT
            Not After : Sep  1 03:06:44 2017 GMT
        Subject: C=US, ST=California, L=Santa Clara, O=pkg5, OU=cs1_ta11, CN=localhost/emailAddress=cs1_ta11
        Subject Public Key Info:
            Public Key Algorithm: rsaEncryption
                Public-Key: (1024 bit)
                Modulus:
                    00:c4:ad:00:ce:89:46:a8:62:15:de:d9:67:c3:03:
                    f2:b1:59:12:50:65:cf:80:19:55:2d:90:cb:d1:e7:
                    0b:5b:44:66:3d:21:d0:09:3b:39:d9:45:bf:4a:82:
                    92:26:d1:14:c8:e3:40:09:54:a1:3b:c7:a2:5e:58:
                    de:c9:c3:11:07:4e:c5:77:c0:ea:47:0e:d1:d0:70:
                    30:bd:f2:52:7b:97:d5:92:64:2d:15:53:57:23:62:
                    84:39:05:0d:bb:28:18:c9:98:68:21:e9:93:49:ac:
                    bc:ed:ad:b7:d8:ee:a4:22:61:51:bd:08:75:43:c5:
                    c7:6a:82:88:a6:36:fa:5b:41
                Exponent: 65537 (0x10001)
        X509v3 extensions:
            X509v3 Basic Constraints: critical
                CA:FALSE
            X509v3 Key Usage: critical
                Digital Signature
    Signature Algorithm: sha256WithRSAEncryption
         d9:6b:08:12:96:2c:b7:9f:d4:3e:73:f1:cf:0c:80:1f:91:02:
         0c:d0:55:9f:1b:81:5d:1d:a3:df:ab:56:0f:3f:53:dc:cb:23:
         8c:6a:bb:91:1c:dd:1e:e9:c1:87:e9:16:18:2e:bc:7c:d0:ad:
         8d:8c:2f:2a:cc:f1:b8:ac:1b:9f:ba:3d:fd:30:ea:3d:c4:60:
         a0:1f:ce:6c:fa:45:4d:30:3e:b6:e0:57:6c:58:3e:89:a3:db:
         bd:dd:34:44:12:01:5a:ee:9e:93:0b:f1:97:3b:14:00:65:09:
         0f:24:ae:c7:97:20:59:06:11:6a:c8:3e:73:23:e5:18:ae:fe:
         d0:21
-----BEGIN CERTIFICATE-----
MIICnTCCAgagAwIBAgIBLzANBgkqhkiG9w0BAQsFADB/MQswCQYDVQQGEwJVUzET
MBEGA1UECAwKQ2FsaWZvcm5pYTEUMBIGA1UEBwwLU2FudGEgQ2xhcmExDTALBgNV
BAoMBHBrZzUxDTALBgNVBAsMBHRhMTExEjAQBgNVBAMMCWxvY2FsaG9zdDETMBEG
CSqGSIb3DQEJARYEdGExMTAeFw0xNDEyMDYwMzA2NDRaFw0xNzA5MDEwMzA2NDRa
MIGHMQswCQYDVQQGEwJVUzETMBEGA1UECAwKQ2FsaWZvcm5pYTEUMBIGA1UEBwwL
U2FudGEgQ2xhcmExDTALBgNVBAoMBHBrZzUxETAPBgNVBAsMCGNzMV90YTExMRIw
EAYDVQQDDAlsb2NhbGhvc3QxFzAVBgkqhkiG9w0BCQEWCGNzMV90YTExMIGfMA0G
CSqGSIb3DQEBAQUAA4GNADCBiQKBgQDErQDOiUaoYhXe2WfDA/KxWRJQZc+AGVUt
kMvR5wtbRGY9IdAJOznZRb9KgpIm0RTI40AJVKE7x6JeWN7JwxEHTsV3wOpHDtHQ
cDC98lJ7l9WSZC0VU1cjYoQ5BQ27KBjJmGgh6ZNJrLztrbfY7qQiYVG9CHVDxcdq
goimNvpbQQIDAQABoyAwHjAMBgNVHRMBAf8EAjAAMA4GA1UdDwEB/wQEAwIHgDAN
BgkqhkiG9w0BAQsFAAOBgQDZawgSliy3n9Q+c/HPDIAfkQIM0FWfG4FdHaPfq1YP
P1PcyyOMaruRHN0e6cGH6RYYLrx80K2NjC8qzPG4rBufuj39MOo9xGCgH85s+kVN
MD624FdsWD6Jo9u93TREEgFa7p6TC/GXOxQAZQkPJK7HlyBZBhFqyD5zI+UYrv7Q
IQ==
-----END CERTIFICATE-----
