Certificate:
    Data:
        Version: 3 (0x2)
        Serial Number: 15 (0xf)
    Signature Algorithm: sha256WithRSAEncryption
        Issuer: C=US, ST=California, L=Santa Clara, O=pkg5, CN=ta2/emailAddress=ta2
        Validity
            Not Before: Nov 28 22:50:56 2016 GMT
            Not After : Aug 25 22:50:56 2019 GMT
        Subject: C=US, ST=California, L=Santa Clara, O=pkg5, CN=cs1_ta2/emailAddress=cs1_ta2
        Subject Public Key Info:
            Public Key Algorithm: rsaEncryption
                Public-Key: (1024 bit)
                Modulus:
                    00:e8:8a:bd:b4:8f:3d:70:e4:18:ae:22:3a:cd:b9:
                    d4:18:fc:ad:55:ae:a7:4f:d2:48:f2:74:d7:ed:a1:
                    87:7e:49:91:3d:e3:43:17:b8:71:7b:b1:fa:d3:d2:
                    17:32:72:80:3b:96:50:d6:eb:11:b7:bf:47:b0:5b:
                    dc:fe:76:02:da:28:3b:f8:05:83:ec:41:05:bd:c5:
                    bb:b3:a3:84:94:32:90:a0:08:fe:ce:02:8e:d8:e5:
                    4d:6b:d9:cc:87:f9:1f:8b:dc:92:18:88:87:c7:99:
                    f0:e0:dd:66:7e:b7:0a:1d:c3:1e:fa:2c:5a:75:b0:
                    31:5e:9f:66:11:21:d7:2b:b9
                Exponent: 65537 (0x10001)
        X509v3 extensions:
            X509v3 Basic Constraints: critical
                CA:FALSE
            X509v3 Key Usage: critical
                Digital Signature
    Signature Algorithm: sha256WithRSAEncryption
         39:98:19:b1:63:8c:04:25:1d:e2:ec:a5:a7:77:bf:2b:3c:36:
         a4:74:24:ca:12:23:2b:db:1a:65:b7:d3:ad:eb:93:eb:41:45:
         d6:d9:ad:ed:f1:9f:82:f2:9a:43:fc:fd:16:aa:3c:fc:5a:0c:
         aa:d3:d0:e1:d2:d3:7b:17:2a:7b:09:2f:9f:db:59:16:97:93:
         28:0e:c2:78:01:b7:24:78:2d:5d:05:d6:87:ca:93:65:da:1d:
         33:96:e4:7f:94:fc:4c:5b:94:8f:17:26:80:59:49:c0:32:5d:
         21:23:25:3d:77:c8:04:0f:9e:60:b6:04:a5:f5:74:2f:19:50:
         4d:ba:63:49:63:43:34:08:8b:9e:0b:7c:f4:bf:ac:b1:22:40:
         87:77:7d:88:ef:f0:5f:fb:ab:9a:c7:57:3d:69:32:d8:7f:fa:
         58:a3:47:fc:54:cb:50:46:fd:c2:4e:e6:99:f0:31:82:ff:66:
         b3:65:da:6b:df:58:f8:56:59:f4:6f:ed:51:39:37:a5:25:99:
         96:a1:08:33:0b:53:a5:e2:e2:44:ef:3c:64:dc:05:3e:d1:3a:
         83:dc:ee:49:00:12:65:49:44:4e:2a:f5:9b:e4:bf:97:ec:1c:
         f7:01:93:a4:9a:20:1d:5c:40:02:09:fa:ec:6c:75:9c:89:3f:
         64:f5:28:89
-----BEGIN CERTIFICATE-----
MIIC8TCCAdmgAwIBAgIBDzANBgkqhkiG9w0BAQsFADBpMQswCQYDVQQGEwJVUzET
MBEGA1UECAwKQ2FsaWZvcm5pYTEUMBIGA1UEBwwLU2FudGEgQ2xhcmExDTALBgNV
BAoMBHBrZzUxDDAKBgNVBAMMA3RhMjESMBAGCSqGSIb3DQEJARYDdGEyMB4XDTE2
MTEyODIyNTA1NloXDTE5MDgyNTIyNTA1NlowcTELMAkGA1UEBhMCVVMxEzARBgNV
BAgMCkNhbGlmb3JuaWExFDASBgNVBAcMC1NhbnRhIENsYXJhMQ0wCwYDVQQKDARw
a2c1MRAwDgYDVQQDDAdjczFfdGEyMRYwFAYJKoZIhvcNAQkBFgdjczFfdGEyMIGf
MA0GCSqGSIb3DQEBAQUAA4GNADCBiQKBgQDoir20jz1w5BiuIjrNudQY/K1VrqdP
0kjydNftoYd+SZE940MXuHF7sfrT0hcycoA7llDW6xG3v0ewW9z+dgLaKDv4BYPs
QQW9xbuzo4SUMpCgCP7OAo7Y5U1r2cyH+R+L3JIYiIfHmfDg3WZ+twodwx76LFp1
sDFen2YRIdcruQIDAQABoyAwHjAMBgNVHRMBAf8EAjAAMA4GA1UdDwEB/wQEAwIH
gDANBgkqhkiG9w0BAQsFAAOCAQEAOZgZsWOMBCUd4uylp3e/Kzw2pHQkyhIjK9sa
ZbfTreuT60FF1tmt7fGfgvKaQ/z9Fqo8/FoMqtPQ4dLTexcqewkvn9tZFpeTKA7C
eAG3JHgtXQXWh8qTZdodM5bkf5T8TFuUjxcmgFlJwDJdISMlPXfIBA+eYLYEpfV0
LxlQTbpjSWNDNAiLngt89L+ssSJAh3d9iO/wX/urmsdXPWky2H/6WKNH/FTLUEb9
wk7mmfAxgv9ms2Xaa99Y+FZZ9G/tUTk3pSWZlqEIMwtTpeLiRO88ZNwFPtE6g9zu
SQASZUlETir1m+S/l+wc9wGTpJogHVxAAgn67Gx1nIk/ZPUoiQ==
-----END CERTIFICATE-----
