Certificate:
    Data:
        Version: 3 (0x2)
        Serial Number: 48 (0x30)
        Signature Algorithm: sha256WithRSAEncryption
        Issuer: C=US, ST=California, L=Santa Clara, O=pkg5, OU=ta11, CN=localhost/emailAddress=ta11
        Validity
            Not Before: Oct 22 10:15:26 2021 GMT
            Not After : Jul 18 10:15:26 2024 GMT
        Subject: C=US, ST=California, L=Santa Clara, O=pkg5, OU=cs1_ta11, CN=localhost/emailAddress=cs1_ta11
        Subject Public Key Info:
            Public Key Algorithm: rsaEncryption
                Public-Key: (2048 bit)
                Modulus:
                    00:b8:77:19:dc:3a:cf:fb:55:28:41:c7:eb:ad:8c:
                    87:c2:60:62:43:a4:3c:b6:9c:2c:36:90:4b:7b:ab:
                    6a:c7:a3:4e:1a:c7:41:3e:ab:e4:82:e6:a7:64:b4:
                    8e:dd:d8:91:4e:23:f1:fe:da:69:c7:9d:91:60:48:
                    89:c6:43:eb:fe:19:ab:3a:df:aa:f6:f8:49:ec:c8:
                    6c:56:19:ec:78:b8:4d:1b:b3:21:9e:f5:c1:48:1f:
                    3f:04:3d:13:60:d5:ea:b7:23:42:41:93:d7:ae:a5:
                    35:8d:2f:a8:62:27:f4:5a:2c:21:2e:28:36:c5:75:
                    dc:8f:11:51:39:67:0c:c6:59:c4:0c:67:6f:54:d6:
                    2d:e8:ec:8d:63:dd:ed:9a:56:fc:b4:a9:3c:0d:9b:
                    dc:53:92:11:85:5e:42:15:09:36:78:5b:c0:77:4d:
                    88:71:93:db:e1:bd:4b:88:d8:61:c3:13:a7:80:ad:
                    32:ba:98:a0:80:03:25:59:30:d8:a2:8d:ed:c4:79:
                    4e:11:ee:74:5a:4d:69:b8:5d:0f:8d:25:fe:d8:58:
                    76:2c:2b:18:21:39:50:43:91:e8:19:0d:49:16:8f:
                    29:02:b3:6a:bb:9a:ce:8c:d6:58:d9:76:a3:9a:e6:
                    b7:ec:6d:ae:e7:1c:2a:25:39:12:2a:77:13:10:c1:
                    07:c3
                Exponent: 65537 (0x10001)
        X509v3 extensions:
            X509v3 Basic Constraints: critical
                CA:FALSE
            X509v3 Key Usage: critical
                Digital Signature
            X509v3 Subject Key Identifier: 
                72:22:5B:7B:B0:E8:BB:69:2C:B4:6A:6E:54:E9:DB:EC:3F:95:57:EB
            X509v3 Authority Key Identifier: 
                C1:E6:E9:43:20:DE:E0:59:3F:E3:89:B6:7E:86:00:3A:8C:E1:B0:4F
    Signature Algorithm: sha256WithRSAEncryption
    Signature Value:
        29:d2:62:1f:67:ef:ef:16:13:df:07:18:ee:ea:b7:61:2e:1f:
        d2:f4:cc:5c:9f:e6:ad:8f:10:82:fc:ba:2f:e4:f5:0f:5e:a2:
        11:63:4e:73:48:e8:cb:0f:90:ef:4c:60:67:1b:ef:fd:cb:01:
        fe:e7:af:3d:33:46:b7:18:89:53:99:5f:d1:bc:96:55:be:85:
        e8:55:f2:2f:a0:a0:4b:98:8c:15:13:a7:ce:8d:df:02:16:be:
        86:e6:1d:ce:75:59:2f:9a:02:21:21:31:9f:11:56:a4:62:47:
        d3:0c:bc:cc:97:95:a2:5e:45:81:32:30:4b:de:7b:c9:9c:27:
        f0:d6:4b:4b:99:a8:7a:4e:3c:71:a2:db:05:3c:f8:28:51:90:
        1a:38:bd:d3:78:b6:80:51:8d:d6:97:b0:10:69:30:cd:e2:d9:
        8c:a5:d2:8d:e0:13:d2:ed:18:c7:64:4e:d2:12:3a:0e:25:09:
        6e:88:62:3e:e8:4f:03:f7:aa:8e:96:e9:49:45:18:7d:69:58:
        85:48:f4:42:b8:2c:1e:e1:9a:a4:62:c3:8e:28:92:e3:ed:9c:
        d8:e0:8c:d4:a1:a3:e3:3b:8c:be:52:49:00:49:1a:a9:be:07:
        f6:32:30:63:2d:9f:ff:84:33:92:c2:17:67:4b:e4:05:91:3f:
        da:57:a5:bb
-----BEGIN CERTIFICATE-----
MIID4jCCAsqgAwIBAgIBMDANBgkqhkiG9w0BAQsFADB/MQswCQYDVQQGEwJVUzET
MBEGA1UECAwKQ2FsaWZvcm5pYTEUMBIGA1UEBwwLU2FudGEgQ2xhcmExDTALBgNV
BAoMBHBrZzUxDTALBgNVBAsMBHRhMTExEjAQBgNVBAMMCWxvY2FsaG9zdDETMBEG
CSqGSIb3DQEJARYEdGExMTAeFw0yMTEwMjIxMDE1MjZaFw0yNDA3MTgxMDE1MjZa
MIGHMQswCQYDVQQGEwJVUzETMBEGA1UECAwKQ2FsaWZvcm5pYTEUMBIGA1UEBwwL
U2FudGEgQ2xhcmExDTALBgNVBAoMBHBrZzUxETAPBgNVBAsMCGNzMV90YTExMRIw
EAYDVQQDDAlsb2NhbGhvc3QxFzAVBgkqhkiG9w0BCQEWCGNzMV90YTExMIIBIjAN
BgkqhkiG9w0BAQEFAAOCAQ8AMIIBCgKCAQEAuHcZ3DrP+1UoQcfrrYyHwmBiQ6Q8
tpwsNpBLe6tqx6NOGsdBPqvkguanZLSO3diRTiPx/tppx52RYEiJxkPr/hmrOt+q
9vhJ7MhsVhnseLhNG7MhnvXBSB8/BD0TYNXqtyNCQZPXrqU1jS+oYif0WiwhLig2
xXXcjxFROWcMxlnEDGdvVNYt6OyNY93tmlb8tKk8DZvcU5IRhV5CFQk2eFvAd02I
cZPb4b1LiNhhwxOngK0yupiggAMlWTDYoo3txHlOEe50Wk1puF0PjSX+2Fh2LCsY
ITlQQ5HoGQ1JFo8pArNqu5rOjNZY2Xajmua37G2u5xwqJTkSKncTEMEHwwIDAQAB
o2AwXjAMBgNVHRMBAf8EAjAAMA4GA1UdDwEB/wQEAwIHgDAdBgNVHQ4EFgQUciJb
e7Dou2kstGpuVOnb7D+VV+swHwYDVR0jBBgwFoAUwebpQyDe4Fk/44m2foYAOozh
sE8wDQYJKoZIhvcNAQELBQADggEBACnSYh9n7+8WE98HGO7qt2EuH9L0zFyf5q2P
EIL8ui/k9Q9eohFjTnNI6MsPkO9MYGcb7/3LAf7nrz0zRrcYiVOZX9G8llW+hehV
8i+goEuYjBUTp86N3wIWvobmHc51WS+aAiEhMZ8RVqRiR9MMvMyXlaJeRYEyMEve
e8mcJ/DWS0uZqHpOPHGi2wU8+ChRkBo4vdN4toBRjdaXsBBpMM3i2Yyl0o3gE9Lt
GMdkTtISOg4lCW6IYj7oTwP3qo6W6UlFGH1pWIVI9EK4LB7hmqRiw44okuPtnNjg
jNSho+M7jL5SSQBJGqm+B/YyMGMtn/+EM5LCF2dL5AWRP9pXpbs=
-----END CERTIFICATE-----
