Certificate:
    Data:
        Version: 3 (0x2)
        Serial Number: 15 (0xf)
        Signature Algorithm: sha256WithRSAEncryption
        Issuer: C=US, ST=California, L=Santa Clara, O=pkg5, CN=ta2/emailAddress=ta2
        Validity
            Not Before: Oct 24 21:43:03 2023 GMT
            Not After : Jul 20 21:43:03 2026 GMT
        Subject: C=US, ST=California, L=Santa Clara, O=pkg5, CN=cs1_ta2/emailAddress=cs1_ta2
        Subject Public Key Info:
            Public Key Algorithm: rsaEncryption
                Public-Key: (2048 bit)
                Modulus:
                    00:9a:8e:f3:29:93:9f:05:71:55:9b:7d:65:66:84:
                    6b:af:83:04:26:28:1e:f5:7a:24:88:a9:ef:b2:f6:
                    3c:95:31:68:68:81:d7:fe:87:95:c9:83:da:95:a0:
                    14:dd:3e:47:f1:85:78:55:54:0b:cb:87:d5:a2:01:
                    55:76:f2:f0:67:f0:e8:46:cf:65:28:60:2f:42:bd:
                    5e:d8:8f:91:0a:5b:df:e5:61:9a:95:80:5a:1c:94:
                    85:c8:a6:a7:ac:3c:9c:5f:47:4a:fe:38:14:f5:1c:
                    a8:63:f3:d7:ae:18:4e:5e:87:a4:82:7e:e7:b9:d5:
                    01:4d:22:b2:a0:24:e4:18:84:36:9e:05:ce:3e:8c:
                    2d:a9:29:37:66:d4:66:fa:8f:0b:76:0d:e9:9b:84:
                    46:eb:f5:16:86:28:00:9e:28:40:96:a9:8b:01:3d:
                    5a:75:5b:f0:ac:ce:1b:eb:36:24:f2:1c:c9:5b:2a:
                    33:5b:33:6e:c3:6d:ee:f5:cd:31:48:8e:ec:30:33:
                    39:43:99:6a:0c:dc:49:20:31:a6:de:db:a2:d8:f8:
                    c9:08:ee:83:10:40:36:4f:16:b7:c4:e8:b2:76:d4:
                    0b:56:6d:99:47:c0:88:70:ce:50:af:72:a2:bf:f3:
                    99:1d:22:71:47:65:69:a2:b1:71:b4:05:9d:d8:47:
                    e8:af
                Exponent: 65537 (0x10001)
        X509v3 extensions:
            X509v3 Basic Constraints: critical
                CA:FALSE
            X509v3 Key Usage: critical
                Digital Signature
            X509v3 Subject Key Identifier: 
                69:4B:B8:22:DA:39:D9:EF:AF:87:6E:ED:67:5C:BC:4B:4C:73:88:31
            X509v3 Authority Key Identifier: 
                93:D3:8A:01:9D:95:31:75:F9:B0:67:5A:C2:44:E9:D6:00:1B:74:DC
    Signature Algorithm: sha256WithRSAEncryption
    Signature Value:
        45:1a:ff:c0:6e:e7:5b:b5:90:08:49:e1:ff:c3:0e:e6:33:c9:
        1e:db:0a:d9:2e:ba:2f:b6:1f:6e:44:ba:f7:06:ca:ef:08:cf:
        76:55:14:f1:5e:d5:4a:76:17:e7:38:ba:53:37:ec:34:96:22:
        ba:43:12:79:cc:2f:db:6e:5d:bf:a4:19:ec:28:3f:36:1d:cb:
        26:ea:4c:00:dd:83:0d:9d:bf:b9:93:0e:a1:85:27:21:1b:8e:
        64:77:d2:e6:88:88:1b:7e:fc:8f:46:0a:b3:e5:5d:63:09:ad:
        48:c0:fc:c7:8e:f5:0c:f2:e7:c1:74:c5:a9:75:10:5e:7b:32:
        b2:2d:7a:44:64:88:71:78:82:b4:20:2f:1b:90:25:2b:63:94:
        5a:df:38:72:6d:53:92:58:fd:06:03:69:8e:ad:a3:b1:ed:25:
        d8:51:ef:7b:e2:5d:3d:cf:fc:24:db:c4:7e:da:44:1e:83:55:
        c7:3e:cb:4e:94:85:d5:79:e8:c8:61:e9:7e:0b:ba:9c:2b:e5:
        48:4f:d4:85:d6:70:98:da:59:89:2b:30:85:65:46:a0:9a:5d:
        e2:be:b6:c8:c0:82:d4:8e:32:08:8b:3f:80:26:d5:bc:dc:15:
        9d:7c:68:38:d7:b1:1b:b2:4c:ae:e5:6b:fc:0d:15:fe:de:1b:
        52:5e:0d:13
-----BEGIN CERTIFICATE-----
MIIDtTCCAp2gAwIBAgIBDzANBgkqhkiG9w0BAQsFADBpMQswCQYDVQQGEwJVUzET
MBEGA1UECAwKQ2FsaWZvcm5pYTEUMBIGA1UEBwwLU2FudGEgQ2xhcmExDTALBgNV
BAoMBHBrZzUxDDAKBgNVBAMMA3RhMjESMBAGCSqGSIb3DQEJARYDdGEyMB4XDTIz
MTAyNDIxNDMwM1oXDTI2MDcyMDIxNDMwM1owcTELMAkGA1UEBhMCVVMxEzARBgNV
BAgMCkNhbGlmb3JuaWExFDASBgNVBAcMC1NhbnRhIENsYXJhMQ0wCwYDVQQKDARw
a2c1MRAwDgYDVQQDDAdjczFfdGEyMRYwFAYJKoZIhvcNAQkBFgdjczFfdGEyMIIB
IjANBgkqhkiG9w0BAQEFAAOCAQ8AMIIBCgKCAQEAmo7zKZOfBXFVm31lZoRrr4ME
Jige9XokiKnvsvY8lTFoaIHX/oeVyYPalaAU3T5H8YV4VVQLy4fVogFVdvLwZ/Do
Rs9lKGAvQr1e2I+RClvf5WGalYBaHJSFyKanrDycX0dK/jgU9RyoY/PXrhhOXoek
gn7nudUBTSKyoCTkGIQ2ngXOPowtqSk3ZtRm+o8Ldg3pm4RG6/UWhigAnihAlqmL
AT1adVvwrM4b6zYk8hzJWyozWzNuw23u9c0xSI7sMDM5Q5lqDNxJIDGm3tui2PjJ
CO6DEEA2Txa3xOiydtQLVm2ZR8CIcM5Qr3Kiv/OZHSJxR2VporFxtAWd2EforwID
AQABo2AwXjAMBgNVHRMBAf8EAjAAMA4GA1UdDwEB/wQEAwIHgDAdBgNVHQ4EFgQU
aUu4Ito52e+vh27tZ1y8S0xziDEwHwYDVR0jBBgwFoAUk9OKAZ2VMXX5sGdawkTp
1gAbdNwwDQYJKoZIhvcNAQELBQADggEBAEUa/8Bu51u1kAhJ4f/DDuYzyR7bCtku
ui+2H25EuvcGyu8Iz3ZVFPFe1Up2F+c4ulM37DSWIrpDEnnML9tuXb+kGewoPzYd
yybqTADdgw2dv7mTDqGFJyEbjmR30uaIiBt+/I9GCrPlXWMJrUjA/MeO9Qzy58F0
xal1EF57MrItekRkiHF4grQgLxuQJStjlFrfOHJtU5JY/QYDaY6to7HtJdhR73vi
XT3P/CTbxH7aRB6DVcc+y06UhdV56Mhh6X4Lupwr5UhP1IXWcJjaWYkrMIVlRqCa
XeK+tsjAgtSOMgiLP4Am1bzcFZ18aDjXsRuyTK7la/wNFf7eG1JeDRM=
-----END CERTIFICATE-----
