Certificate:
    Data:
        Version: 3 (0x2)
        Serial Number: 43 (0x2b)
        Signature Algorithm: sha256WithRSAEncryption
        Issuer: C=US, ST=California, L=Santa Clara, O=pkg5, OU=ta6, CN=localhost/emailAddress=ta6
        Validity
            Not Before: Oct 24 21:43:15 2023 GMT
            Not After : Jul 20 21:43:15 2026 GMT
        Subject: C=US, ST=California, L=Santa Clara, O=pkg5, OU=cs1_ta6, CN=localhost/emailAddress=cs1_ta6
        Subject Public Key Info:
            Public Key Algorithm: rsaEncryption
                Public-Key: (2048 bit)
                Modulus:
                    00:a4:37:cd:b0:ce:b1:90:05:ee:fe:7c:95:60:d4:
                    ba:24:ca:90:4d:af:b8:d4:6b:40:e6:f0:be:af:9e:
                    23:e5:ce:af:8b:ae:6f:96:fc:38:9c:48:c3:3c:d0:
                    44:e4:25:63:c7:7c:bd:df:7a:96:1a:56:49:38:78:
                    45:db:f7:d8:3e:3c:2e:3d:c1:3d:7d:e1:66:42:5b:
                    7d:44:46:47:df:46:81:a0:d3:d1:ec:a7:5d:bd:f4:
                    75:17:fa:9f:37:ca:47:e7:78:c9:e0:56:c5:c1:4d:
                    b5:5d:45:1e:ef:8d:27:13:c3:64:89:a3:96:87:e0:
                    da:62:15:5b:9b:e9:8b:1f:dc:63:1f:69:34:99:09:
                    12:5e:39:eb:37:3f:e9:1a:83:b6:48:cc:1d:25:b3:
                    3b:ec:ca:cc:cb:b5:8a:c3:46:44:13:f7:7c:57:e5:
                    59:ff:26:fd:73:ac:96:e3:e7:29:0e:02:55:1e:5e:
                    ca:db:02:12:17:ac:96:5d:65:a3:8e:5b:f2:d2:d3:
                    59:24:61:41:19:96:19:34:d9:dd:f4:9f:94:73:0a:
                    71:83:c3:58:f5:20:47:a3:8d:8a:45:59:b7:0d:d8:
                    d3:aa:ad:5e:6c:34:41:f6:57:f8:c4:4b:5e:8e:23:
                    60:c7:88:d6:5a:70:21:d3:ce:82:f6:b1:b4:29:cd:
                    3e:b9
                Exponent: 65537 (0x10001)
        X509v3 extensions:
            X509v3 Basic Constraints: critical
                CA:FALSE
            X509v3 Key Usage: critical
                Digital Signature
            X509v3 Subject Key Identifier: 
                3A:03:C7:DE:2E:FF:B6:7A:03:EF:A3:46:66:06:7F:AF:0E:D5:E7:9D
            X509v3 Authority Key Identifier: 
                44:51:89:2C:18:55:65:37:93:C0:FA:3D:2A:E0:06:0B:E4:9D:D8:BF
    Signature Algorithm: sha256WithRSAEncryption
    Signature Value:
        52:ae:d9:df:a9:f5:2c:67:34:80:d7:ad:ee:8d:71:e6:4a:81:
        ea:e1:76:a6:f9:65:f1:59:24:f8:87:e4:89:f3:1f:dc:b5:7f:
        59:a1:bf:48:90:b9:bc:e0:dd:31:91:3f:e1:90:03:ee:3e:32:
        d0:12:a8:03:b9:2f:48:a1:a4:13:88:a3:7f:ce:97:f0:9a:3b:
        bc:3e:5b:12:04:ec:57:28:d2:07:df:ab:99:67:c8:6d:bc:03:
        a3:38:d0:79:25:f8:0c:01:18:93:08:f2:ea:39:c1:1a:a6:ea:
        80:a5:ea:59:ad:a2:1e:93:05:30:6c:12:14:05:3c:78:84:e2:
        23:f3:74:23:7f:84:86:5d:df:d2:03:2c:67:67:3a:c2:47:b1:
        c3:51:71:db:24:e6:80:90:6e:e6:35:bc:29:7f:bb:f1:6b:d0:
        d2:d6:36:d7:e7:e7:18:87:51:2e:cb:a5:3a:9c:d6:a8:95:be:
        dc:62:30:8a:81:ec:ef:1c:ab:b7:e5:58:79:0d:20:c7:d8:91:
        2a:d2:c4:33:3b:c6:cd:a4:d0:13:b4:c8:d9:ad:4c:a4:f1:25:
        c4:9e:27:96:ed:67:7c:73:8e:64:dd:b4:ce:12:5a:b4:3f:c9:
        78:30:ec:cc:c2:5a:10:72:37:44:c9:ad:40:5a:4d:d2:26:e6:
        53:09:2c:89
-----BEGIN CERTIFICATE-----
MIID3jCCAsagAwIBAgIBKzANBgkqhkiG9w0BAQsFADB9MQswCQYDVQQGEwJVUzET
MBEGA1UECAwKQ2FsaWZvcm5pYTEUMBIGA1UEBwwLU2FudGEgQ2xhcmExDTALBgNV
BAoMBHBrZzUxDDAKBgNVBAsMA3RhNjESMBAGA1UEAwwJbG9jYWxob3N0MRIwEAYJ
KoZIhvcNAQkBFgN0YTYwHhcNMjMxMDI0MjE0MzE1WhcNMjYwNzIwMjE0MzE1WjCB
hTELMAkGA1UEBhMCVVMxEzARBgNVBAgMCkNhbGlmb3JuaWExFDASBgNVBAcMC1Nh
bnRhIENsYXJhMQ0wCwYDVQQKDARwa2c1MRAwDgYDVQQLDAdjczFfdGE2MRIwEAYD
VQQDDAlsb2NhbGhvc3QxFjAUBgkqhkiG9w0BCQEWB2NzMV90YTYwggEiMA0GCSqG
SIb3DQEBAQUAA4IBDwAwggEKAoIBAQCkN82wzrGQBe7+fJVg1LokypBNr7jUa0Dm
8L6vniPlzq+Lrm+W/DicSMM80ETkJWPHfL3fepYaVkk4eEXb99g+PC49wT194WZC
W31ERkffRoGg09Hsp1299HUX+p83ykfneMngVsXBTbVdRR7vjScTw2SJo5aH4Npi
FVub6Ysf3GMfaTSZCRJeOes3P+kag7ZIzB0lszvsyszLtYrDRkQT93xX5Vn/Jv1z
rJbj5ykOAlUeXsrbAhIXrJZdZaOOW/LS01kkYUEZlhk02d30n5RzCnGDw1j1IEej
jYpFWbcN2NOqrV5sNEH2V/jES16OI2DHiNZacCHTzoL2sbQpzT65AgMBAAGjYDBe
MAwGA1UdEwEB/wQCMAAwDgYDVR0PAQH/BAQDAgeAMB0GA1UdDgQWBBQ6A8feLv+2
egPvo0ZmBn+vDtXnnTAfBgNVHSMEGDAWgBREUYksGFVlN5PA+j0q4AYL5J3YvzAN
BgkqhkiG9w0BAQsFAAOCAQEAUq7Z36n1LGc0gNet7o1x5kqB6uF2pvll8Vkk+Ifk
ifMf3LV/WaG/SJC5vODdMZE/4ZAD7j4y0BKoA7kvSKGkE4ijf86X8Jo7vD5bEgTs
VyjSB9+rmWfIbbwDozjQeSX4DAEYkwjy6jnBGqbqgKXqWa2iHpMFMGwSFAU8eITi
I/N0I3+Ehl3f0gMsZ2c6wkexw1Fx2yTmgJBu5jW8KX+78WvQ0tY21+fnGIdRLsul
OpzWqJW+3GIwioHs7xyrt+VYeQ0gx9iRKtLEMzvGzaTQE7TI2a1MpPElxJ4nlu1n
fHOOZN20zhJatD/JeDDszMJaEHI3RMmtQFpN0ibmUwksiQ==
-----END CERTIFICATE-----
