Certificate:
    Data:
        Version: 3 (0x2)
        Serial Number: 25 (0x19)
    Signature Algorithm: sha256WithRSAEncryption
        Issuer: C=US, ST=California, L=Santa Clara, O=pkg5, CN=cs8_ch1_ta3/emailAddress=cs8_ch1_ta3
        Validity
            Not Before: Mar 20 10:20:54 2018 GMT
            Not After : Dec 14 10:20:54 2020 GMT
        Subject: C=US, ST=California, L=Santa Clara, O=pkg5, CN=cs1_cs8_ch1_ta3/emailAddress=cs1_cs8_ch1_ta3
        Subject Public Key Info:
            Public Key Algorithm: rsaEncryption
                Public-Key: (1024 bit)
                Modulus:
                    00:c7:b2:86:6f:a1:c2:2c:1c:ab:1b:3c:85:af:e6:
                    65:9b:5f:1c:8d:58:1a:df:60:7d:66:23:c9:51:b7:
                    09:56:31:6e:6e:c9:10:2c:62:71:80:3d:21:61:22:
                    45:e4:a3:76:2b:82:03:0f:d6:c4:51:9f:9a:12:a9:
                    6d:b6:5f:70:20:18:66:5e:ce:c0:cd:17:e6:26:30:
                    78:e7:ec:da:9f:16:d6:0b:aa:5f:84:8f:9a:09:0c:
                    19:b5:7d:52:f6:3e:83:e2:5d:d1:f3:25:cb:70:1c:
                    ea:a4:d5:aa:77:e5:ef:de:2d:28:17:ea:34:e8:f9:
                    c4:cc:10:88:38:6e:69:75:ad
                Exponent: 65537 (0x10001)
        X509v3 extensions:
            X509v3 Basic Constraints: critical
                CA:FALSE
            X509v3 Key Usage: critical
                Digital Signature
    Signature Algorithm: sha256WithRSAEncryption
         80:29:86:4a:98:3b:fa:ce:6a:ed:a8:eb:fa:45:01:90:f6:c7:
         83:7d:cf:37:71:78:0d:e7:fc:b9:8b:87:24:ae:b1:e3:75:bd:
         16:99:ab:7e:cf:cf:57:f0:f1:e5:a4:29:05:08:6b:ea:aa:01:
         74:cc:2e:bd:ed:f9:5b:1e:3b:a0:52:ff:aa:57:61:7e:24:86:
         02:c5:47:86:5b:c5:61:e7:f2:9e:9c:f7:e7:26:75:ee:49:8d:
         eb:6f:14:1f:b4:24:55:d7:24:a4:15:b3:93:03:63:45:5c:10:
         0a:48:9b:62:af:06:4e:93:f2:ce:6b:58:01:f2:d0:1f:db:66:
         39:18
-----BEGIN CERTIFICATE-----
MIICkTCCAfqgAwIBAgIBGTANBgkqhkiG9w0BAQsFADB5MQswCQYDVQQGEwJVUzET
MBEGA1UECAwKQ2FsaWZvcm5pYTEUMBIGA1UEBwwLU2FudGEgQ2xhcmExDTALBgNV
BAoMBHBrZzUxFDASBgNVBAMMC2NzOF9jaDFfdGEzMRowGAYJKoZIhvcNAQkBFgtj
czhfY2gxX3RhMzAeFw0xODAzMjAxMDIwNTRaFw0yMDEyMTQxMDIwNTRaMIGBMQsw
CQYDVQQGEwJVUzETMBEGA1UECAwKQ2FsaWZvcm5pYTEUMBIGA1UEBwwLU2FudGEg
Q2xhcmExDTALBgNVBAoMBHBrZzUxGDAWBgNVBAMMD2NzMV9jczhfY2gxX3RhMzEe
MBwGCSqGSIb3DQEJARYPY3MxX2NzOF9jaDFfdGEzMIGfMA0GCSqGSIb3DQEBAQUA
A4GNADCBiQKBgQDHsoZvocIsHKsbPIWv5mWbXxyNWBrfYH1mI8lRtwlWMW5uyRAs
YnGAPSFhIkXko3YrggMP1sRRn5oSqW22X3AgGGZezsDNF+YmMHjn7NqfFtYLql+E
j5oJDBm1fVL2PoPiXdHzJctwHOqk1ap35e/eLSgX6jTo+cTMEIg4bml1rQIDAQAB
oyAwHjAMBgNVHRMBAf8EAjAAMA4GA1UdDwEB/wQEAwIHgDANBgkqhkiG9w0BAQsF
AAOBgQCAKYZKmDv6zmrtqOv6RQGQ9seDfc83cXgN5/y5i4ckrrHjdb0Wmat+z89X
8PHlpCkFCGvqqgF0zC697flbHjugUv+qV2F+JIYCxUeGW8Vh5/KenPfnJnXuSY3r
bxQftCRV1ySkFbOTA2NFXBAKSJtirwZOk/LOa1gB8tAf22Y5GA==
-----END CERTIFICATE-----
