Certificate:
    Data:
        Version: 3 (0x2)
        Serial Number: 44 (0x2c)
    Signature Algorithm: sha256WithRSAEncryption
        Issuer: C=US, ST=California, L=Santa Clara, O=pkg5, OU=ta8, CN=localhost/emailAddress=ta8
        Validity
            Not Before: Nov 28 22:50:58 2016 GMT
            Not After : Aug 25 22:50:58 2019 GMT
        Subject: C=US, ST=California, L=Santa Clara, O=pkg5, OU=cs1_ta8, CN=localhost/emailAddress=cs1_ta8
        Subject Public Key Info:
            Public Key Algorithm: rsaEncryption
                Public-Key: (1024 bit)
                Modulus:
                    00:a5:02:82:f8:51:bb:b8:67:19:c7:c5:51:09:bd:
                    ef:f5:08:23:b9:33:fe:12:32:6d:5d:80:e7:ed:f1:
                    72:64:d4:7c:63:fe:d0:b4:91:0b:6a:e3:24:38:9d:
                    49:b6:ec:9e:f7:aa:e4:84:f3:2f:d6:dd:2c:78:eb:
                    63:18:d0:7e:9f:c1:26:43:41:34:75:31:1f:d4:ba:
                    2c:59:c0:85:38:62:97:94:0b:aa:e7:43:c7:61:99:
                    78:ad:38:d6:ae:e7:4b:36:5c:56:1c:fb:2e:e3:46:
                    e0:1f:8e:13:23:0f:29:4f:ea:d3:8f:95:0e:c4:c9:
                    3f:a7:4d:28:ce:92:2c:e9:0d
                Exponent: 65537 (0x10001)
        X509v3 extensions:
            X509v3 Basic Constraints: critical
                CA:FALSE
            X509v3 Key Usage: critical
                Digital Signature
    Signature Algorithm: sha256WithRSAEncryption
         78:e6:cc:cc:62:60:f6:ae:a3:f6:c0:1b:c5:41:7a:9d:c6:d0:
         d5:26:da:2c:c2:fc:eb:a4:6d:51:11:de:7c:dd:4b:22:62:04:
         36:47:80:17:ac:67:e8:f3:88:2c:28:cd:31:fa:4e:b4:7d:16:
         4c:9e:4a:8d:25:7b:be:4b:d5:2d:de:70:e7:d2:35:65:83:51:
         40:1b:0f:25:1a:f9:80:77:47:86:bc:b0:b6:a8:a8:e3:d9:a2:
         54:cd:db:2b:c2:0a:35:e8:49:f4:48:fc:26:d0:5d:94:e3:1d:
         11:7d:ee:16:a3:79:a6:d1:09:dc:3d:f9:cf:5e:c2:b5:91:c7:
         44:a8:a4:63:be:c6:17:8c:74:dd:00:d2:07:86:b1:bd:10:2e:
         00:c4:ff:8f:c5:95:0f:53:67:d7:29:33:90:1f:5b:a6:86:e6:
         07:15:e8:71:87:a2:74:22:be:ec:43:b6:9a:b1:fc:6f:c3:00:
         44:f0:29:66:55:01:35:7a:fb:03:4c:21:a2:0b:c7:dd:af:f7:
         50:ad:e4:68:d6:b9:ba:7f:ae:ba:7c:91:a8:58:38:26:5e:9d:
         64:f9:b0:6f:1d:78:e4:3f:8c:72:7a:03:32:4d:5a:ec:8c:25:
         8c:cc:6a:a4:84:7f:fa:49:9e:c4:eb:3c:27:e0:cc:db:87:eb:
         44:43:4b:25
-----BEGIN CERTIFICATE-----
MIIDGjCCAgKgAwIBAgIBLDANBgkqhkiG9w0BAQsFADB9MQswCQYDVQQGEwJVUzET
MBEGA1UECAwKQ2FsaWZvcm5pYTEUMBIGA1UEBwwLU2FudGEgQ2xhcmExDTALBgNV
BAoMBHBrZzUxDDAKBgNVBAsMA3RhODESMBAGA1UEAwwJbG9jYWxob3N0MRIwEAYJ
KoZIhvcNAQkBFgN0YTgwHhcNMTYxMTI4MjI1MDU4WhcNMTkwODI1MjI1MDU4WjCB
hTELMAkGA1UEBhMCVVMxEzARBgNVBAgMCkNhbGlmb3JuaWExFDASBgNVBAcMC1Nh
bnRhIENsYXJhMQ0wCwYDVQQKDARwa2c1MRAwDgYDVQQLDAdjczFfdGE4MRIwEAYD
VQQDDAlsb2NhbGhvc3QxFjAUBgkqhkiG9w0BCQEWB2NzMV90YTgwgZ8wDQYJKoZI
hvcNAQEBBQADgY0AMIGJAoGBAKUCgvhRu7hnGcfFUQm97/UII7kz/hIybV2A5+3x
cmTUfGP+0LSRC2rjJDidSbbsnveq5ITzL9bdLHjrYxjQfp/BJkNBNHUxH9S6LFnA
hThil5QLqudDx2GZeK041q7nSzZcVhz7LuNG4B+OEyMPKU/q04+VDsTJP6dNKM6S
LOkNAgMBAAGjIDAeMAwGA1UdEwEB/wQCMAAwDgYDVR0PAQH/BAQDAgeAMA0GCSqG
SIb3DQEBCwUAA4IBAQB45szMYmD2rqP2wBvFQXqdxtDVJtoswvzrpG1REd583Usi
YgQ2R4AXrGfo84gsKM0x+k60fRZMnkqNJXu+S9Ut3nDn0jVlg1FAGw8lGvmAd0eG
vLC2qKjj2aJUzdsrwgo16En0SPwm0F2U4x0Rfe4Wo3mm0QncPfnPXsK1kcdEqKRj
vsYXjHTdANIHhrG9EC4AxP+PxZUPU2fXKTOQH1umhuYHFehxh6J0Ir7sQ7aasfxv
wwBE8ClmVQE1evsDTCGiC8fdr/dQreRo1rm6f666fJGoWDgmXp1k+bBvHXjkP4xy
egMyTVrsjCWMzGqkhH/6SZ7E6zwn4Mzbh+tEQ0sl
-----END CERTIFICATE-----
