Certificate:
    Data:
        Version: 3 (0x2)
        Serial Number: 43 (0x2b)
        Signature Algorithm: sha256WithRSAEncryption
        Issuer: C=US, ST=California, L=Santa Clara, O=pkg5, OU=ta6, CN=localhost/emailAddress=ta6
        Validity
            Not Before: Oct 22 10:15:22 2021 GMT
            Not After : Jul 18 10:15:22 2024 GMT
        Subject: C=US, ST=California, L=Santa Clara, O=pkg5, OU=cs1_ta6, CN=localhost/emailAddress=cs1_ta6
        Subject Public Key Info:
            Public Key Algorithm: rsaEncryption
                Public-Key: (2048 bit)
                Modulus:
                    00:dc:29:5e:a2:f3:cc:26:f0:6c:0d:13:85:2b:60:
                    5d:81:c9:58:85:cb:8a:02:d9:9f:93:fe:54:7e:91:
                    6f:ce:ea:45:78:9b:c5:c2:6d:12:74:61:f3:fb:25:
                    08:dd:b5:c2:24:cc:5b:7d:0e:9c:8a:94:38:ee:50:
                    73:eb:02:f2:09:17:62:59:fd:e4:15:95:32:11:e9:
                    ae:0f:e2:0e:40:68:06:04:7d:0a:a3:10:f3:ac:78:
                    bc:ff:2d:fd:f0:1d:af:ac:ae:28:f5:9a:7e:b1:fe:
                    56:a8:75:d1:16:2c:a7:c4:fb:57:24:47:03:dc:7f:
                    b9:c2:96:5f:40:a4:7b:ba:25:d2:b5:ac:76:07:23:
                    9c:5a:7a:e7:81:58:12:0b:f3:80:db:0c:2f:b9:c7:
                    12:6e:42:8f:70:95:f0:6b:04:db:4a:7c:d8:47:1b:
                    7b:20:15:c6:b4:ca:ff:a1:5f:89:85:c0:1d:06:87:
                    cc:9f:de:8c:5a:d1:ed:9a:d2:6d:66:9e:64:f5:63:
                    f1:db:5a:95:15:88:a8:6b:96:3a:24:aa:73:9c:f9:
                    ec:d3:62:ba:a4:01:59:79:f4:ad:45:19:b3:8f:82:
                    12:19:e1:cb:24:fd:54:cf:cc:23:9c:85:d2:a7:dd:
                    01:1c:f3:23:cc:3f:64:fb:54:77:70:30:18:8f:b5:
                    c4:d9
                Exponent: 65537 (0x10001)
        X509v3 extensions:
            X509v3 Basic Constraints: critical
                CA:FALSE
            X509v3 Key Usage: critical
                Digital Signature
            X509v3 Subject Key Identifier: 
                94:05:94:AC:2C:EF:66:B1:89:84:7F:E8:17:F4:D1:A4:67:C9:DE:9B
            X509v3 Authority Key Identifier: 
                97:10:72:0C:EE:4A:4A:3B:FC:5C:21:AB:12:39:3C:7C:D7:4B:32:35
    Signature Algorithm: sha256WithRSAEncryption
    Signature Value:
        15:a6:1a:04:57:85:23:f2:44:7d:be:46:96:1f:f8:df:9e:ab:
        82:85:65:9c:2c:97:2a:f6:c5:ae:3b:c3:b1:ad:83:03:fe:c3:
        ba:46:3f:6a:dd:05:72:96:11:d0:e6:bf:51:19:a8:18:0b:81:
        ed:69:26:fc:ae:88:52:69:b5:f1:6b:20:6b:6b:e4:cd:df:29:
        de:77:10:f3:a5:d7:e7:00:77:98:63:9c:6b:a3:b6:62:47:bc:
        0d:bb:43:00:d5:79:31:28:7e:6d:2a:4d:f0:b7:c1:9a:d6:9b:
        0d:71:a8:53:32:25:c5:79:18:f9:8f:ba:7f:21:c1:a4:28:39:
        3a:0e:d9:82:30:a6:3a:b9:e8:2d:51:a1:91:20:dc:ec:9e:87:
        29:8d:66:75:ec:e9:b3:97:9d:0f:c1:3d:b8:59:da:84:cb:18:
        fa:46:7b:d9:9a:16:7d:ab:b6:78:36:79:a1:5c:48:f5:16:84:
        81:ce:05:bb:ca:45:9a:85:f0:b0:fd:c7:98:75:d6:d3:47:df:
        71:b1:17:ae:51:73:05:03:69:87:e6:83:95:f3:33:b2:7d:a6:
        78:95:58:9f:5f:1f:53:71:ee:a1:e1:30:2e:6d:42:f5:3c:98:
        83:0c:86:9e:87:d8:2e:ca:c8:ab:83:c7:82:5b:dd:e9:f8:9c:
        f5:f3:59:3f
-----BEGIN CERTIFICATE-----
MIID3jCCAsagAwIBAgIBKzANBgkqhkiG9w0BAQsFADB9MQswCQYDVQQGEwJVUzET
MBEGA1UECAwKQ2FsaWZvcm5pYTEUMBIGA1UEBwwLU2FudGEgQ2xhcmExDTALBgNV
BAoMBHBrZzUxDDAKBgNVBAsMA3RhNjESMBAGA1UEAwwJbG9jYWxob3N0MRIwEAYJ
KoZIhvcNAQkBFgN0YTYwHhcNMjExMDIyMTAxNTIyWhcNMjQwNzE4MTAxNTIyWjCB
hTELMAkGA1UEBhMCVVMxEzARBgNVBAgMCkNhbGlmb3JuaWExFDASBgNVBAcMC1Nh
bnRhIENsYXJhMQ0wCwYDVQQKDARwa2c1MRAwDgYDVQQLDAdjczFfdGE2MRIwEAYD
VQQDDAlsb2NhbGhvc3QxFjAUBgkqhkiG9w0BCQEWB2NzMV90YTYwggEiMA0GCSqG
SIb3DQEBAQUAA4IBDwAwggEKAoIBAQDcKV6i88wm8GwNE4UrYF2ByViFy4oC2Z+T
/lR+kW/O6kV4m8XCbRJ0YfP7JQjdtcIkzFt9DpyKlDjuUHPrAvIJF2JZ/eQVlTIR
6a4P4g5AaAYEfQqjEPOseLz/Lf3wHa+srij1mn6x/laoddEWLKfE+1ckRwPcf7nC
ll9ApHu6JdK1rHYHI5xaeueBWBIL84DbDC+5xxJuQo9wlfBrBNtKfNhHG3sgFca0
yv+hX4mFwB0Gh8yf3oxa0e2a0m1mnmT1Y/HbWpUViKhrljokqnOc+ezTYrqkAVl5
9K1FGbOPghIZ4csk/VTPzCOchdKn3QEc8yPMP2T7VHdwMBiPtcTZAgMBAAGjYDBe
MAwGA1UdEwEB/wQCMAAwDgYDVR0PAQH/BAQDAgeAMB0GA1UdDgQWBBSUBZSsLO9m
sYmEf+gX9NGkZ8nemzAfBgNVHSMEGDAWgBSXEHIM7kpKO/xcIasSOTx810syNTAN
BgkqhkiG9w0BAQsFAAOCAQEAFaYaBFeFI/JEfb5Glh/4356rgoVlnCyXKvbFrjvD
sa2DA/7DukY/at0FcpYR0Oa/URmoGAuB7Wkm/K6IUmm18Wsga2vkzd8p3ncQ86XX
5wB3mGOca6O2Yke8DbtDANV5MSh+bSpN8LfBmtabDXGoUzIlxXkY+Y+6fyHBpCg5
Og7ZgjCmOrnoLVGhkSDc7J6HKY1mdezps5edD8E9uFnahMsY+kZ72ZoWfau2eDZ5
oVxI9RaEgc4Fu8pFmoXwsP3HmHXW00ffcbEXrlFzBQNph+aDlfMzsn2meJVYn18f
U3HuoeEwLm1C9TyYgwyGnofYLsrIq4PHglvd6fic9fNZPw==
-----END CERTIFICATE-----
