Certificate:
    Data:
        Version: 3 (0x2)
        Serial Number: 43 (0x2b)
        Signature Algorithm: sha256WithRSAEncryption
        Issuer: C=US, ST=California, L=Santa Clara, O=pkg5, OU=ta6, CN=localhost/emailAddress=ta6
        Validity
            Not Before: May 23 15:47:22 2024 GMT
            Not After : Feb 17 15:47:22 2027 GMT
        Subject: C=US, ST=California, L=Santa Clara, O=pkg5, OU=cs1_ta6, CN=localhost/emailAddress=cs1_ta6
        Subject Public Key Info:
            Public Key Algorithm: rsaEncryption
                Public-Key: (2048 bit)
                Modulus:
                    00:b0:16:2d:2d:e7:25:d1:4c:1d:e7:83:6e:06:9e:
                    da:79:bf:a8:e0:b0:4b:de:95:5c:f7:dc:39:ad:f7:
                    96:b7:87:4e:91:d7:a1:73:04:fe:82:08:7a:6b:5c:
                    2f:d2:fc:33:d4:28:87:c7:73:fb:dd:ee:e2:ae:b8:
                    c2:76:c7:e9:1a:4d:82:b5:27:bc:45:7c:9a:ff:d8:
                    44:e7:6d:fe:c1:46:85:2e:d1:5d:6c:22:07:2e:b4:
                    f2:1d:35:c8:3d:95:2a:85:ae:56:23:89:20:ef:4e:
                    0f:dd:7f:d7:3e:1a:fd:51:2d:a4:f5:c2:4d:cd:b6:
                    cc:d3:0d:61:77:87:3b:2f:0c:5d:fe:a1:79:04:ed:
                    4f:59:b2:34:10:30:49:a4:9a:8b:f1:09:5a:9f:a7:
                    6e:12:c7:dd:f3:a2:30:d6:e8:55:d8:95:db:4f:f1:
                    44:29:e3:28:32:a9:ad:22:f5:9c:fa:17:c2:26:8f:
                    b4:06:51:1f:cf:69:d9:66:73:53:e6:24:78:c9:55:
                    e0:37:bf:c2:6f:1a:a9:95:9b:50:cc:06:76:3d:bf:
                    2c:e4:ab:1b:e8:77:5b:26:8c:00:4f:1a:d1:63:b0:
                    92:a7:7a:26:12:cc:f6:be:93:ca:f7:8d:d4:13:a8:
                    24:39:3e:dc:dc:9a:57:1e:a9:21:80:71:86:25:34:
                    4e:37
                Exponent: 65537 (0x10001)
        X509v3 extensions:
            X509v3 Basic Constraints: critical
                CA:FALSE
            X509v3 Key Usage: critical
                Digital Signature
            X509v3 Subject Key Identifier: 
                9D:4B:78:A4:F9:16:E3:96:04:A6:7A:9B:05:B7:77:44:EE:C9:16:E3
            X509v3 Authority Key Identifier: 
                5D:A6:D1:20:DD:B5:2C:F8:BC:01:09:9B:63:A4:B1:23:BA:45:77:83
    Signature Algorithm: sha256WithRSAEncryption
    Signature Value:
        36:35:bf:bf:d1:dc:85:ee:5f:ca:cd:99:fd:ae:bd:ab:9e:5b:
        cf:8b:82:3c:7c:f1:1c:b6:37:32:dd:7e:e3:03:a4:95:6d:03:
        56:64:c8:d0:a5:0c:a4:03:56:d8:03:bf:7c:64:a4:4b:db:cd:
        aa:e8:53:5e:a9:ba:58:c4:a4:bf:e7:96:0d:af:e6:bf:4f:7d:
        0b:99:6a:6e:bf:f3:e6:a5:99:da:6b:86:c0:0a:04:1c:4c:9f:
        e9:8d:b1:ad:d7:3e:21:3b:ce:19:39:06:f8:a7:21:23:0e:f6:
        4f:0b:49:86:e6:2c:3d:63:af:f7:b6:5e:da:44:55:26:ab:cf:
        8b:d4:cc:ce:80:7b:dd:a6:56:de:04:f6:47:d7:2f:bb:5e:71:
        87:e7:14:23:0d:a7:97:33:52:89:24:49:9e:60:57:76:1c:7d:
        2a:9d:65:fc:4e:c4:18:12:f7:ca:db:4e:10:d2:10:06:0d:bc:
        22:11:84:65:ba:8b:87:62:3f:1f:7c:5d:2f:df:4b:05:0b:ea:
        58:a2:be:f9:09:53:f5:05:d9:b1:b9:a7:87:04:d7:64:00:2c:
        c7:b1:fd:b5:f6:8f:11:a0:65:9c:cb:1e:d3:7b:c0:2a:d0:3b:
        f4:05:1a:68:af:f2:f5:66:a4:2f:ef:db:70:58:d7:5c:ee:08:
        38:38:c3:6d
-----BEGIN CERTIFICATE-----
MIID3jCCAsagAwIBAgIBKzANBgkqhkiG9w0BAQsFADB9MQswCQYDVQQGEwJVUzET
MBEGA1UECAwKQ2FsaWZvcm5pYTEUMBIGA1UEBwwLU2FudGEgQ2xhcmExDTALBgNV
BAoMBHBrZzUxDDAKBgNVBAsMA3RhNjESMBAGA1UEAwwJbG9jYWxob3N0MRIwEAYJ
KoZIhvcNAQkBFgN0YTYwHhcNMjQwNTIzMTU0NzIyWhcNMjcwMjE3MTU0NzIyWjCB
hTELMAkGA1UEBhMCVVMxEzARBgNVBAgMCkNhbGlmb3JuaWExFDASBgNVBAcMC1Nh
bnRhIENsYXJhMQ0wCwYDVQQKDARwa2c1MRAwDgYDVQQLDAdjczFfdGE2MRIwEAYD
VQQDDAlsb2NhbGhvc3QxFjAUBgkqhkiG9w0BCQEWB2NzMV90YTYwggEiMA0GCSqG
SIb3DQEBAQUAA4IBDwAwggEKAoIBAQCwFi0t5yXRTB3ng24Gntp5v6jgsEvelVz3
3Dmt95a3h06R16FzBP6CCHprXC/S/DPUKIfHc/vd7uKuuMJ2x+kaTYK1J7xFfJr/
2ETnbf7BRoUu0V1sIgcutPIdNcg9lSqFrlYjiSDvTg/df9c+Gv1RLaT1wk3NtszT
DWF3hzsvDF3+oXkE7U9ZsjQQMEmkmovxCVqfp24Sx93zojDW6FXYldtP8UQp4ygy
qa0i9Zz6F8Imj7QGUR/Padlmc1PmJHjJVeA3v8JvGqmVm1DMBnY9vyzkqxvod1sm
jABPGtFjsJKneiYSzPa+k8r3jdQTqCQ5PtzcmlceqSGAcYYlNE43AgMBAAGjYDBe
MAwGA1UdEwEB/wQCMAAwDgYDVR0PAQH/BAQDAgeAMB0GA1UdDgQWBBSdS3ik+Rbj
lgSmepsFt3dE7skW4zAfBgNVHSMEGDAWgBRdptEg3bUs+LwBCZtjpLEjukV3gzAN
BgkqhkiG9w0BAQsFAAOCAQEANjW/v9Hche5fys2Z/a69q55bz4uCPHzxHLY3Mt1+
4wOklW0DVmTI0KUMpANW2AO/fGSkS9vNquhTXqm6WMSkv+eWDa/mv099C5lqbr/z
5qWZ2muGwAoEHEyf6Y2xrdc+ITvOGTkG+KchIw72TwtJhuYsPWOv97Ze2kRVJqvP
i9TMzoB73aZW3gT2R9cvu15xh+cUIw2nlzNSiSRJnmBXdhx9Kp1l/E7EGBL3yttO
ENIQBg28IhGEZbqLh2I/H3xdL99LBQvqWKK++QlT9QXZsbmnhwTXZAAsx7H9tfaP
EaBlnMse03vAKtA79AUaaK/y9WakL+/bcFjXXO4IODjDbQ==
-----END CERTIFICATE-----
