Certificate:
    Data:
        Version: 3 (0x2)
        Serial Number: 42 (0x2a)
    Signature Algorithm: sha256WithRSAEncryption
        Issuer: C=US, ST=California, L=Santa Clara, O=pkg5, OU=ta6, CN=localhost/emailAddress=ta6
        Validity
            Not Before: Nov 28 22:50:58 2016 GMT
            Not After : Aug 25 22:50:58 2019 GMT
        Subject: C=US, ST=California, L=Santa Clara, O=pkg5, OU=cs1_ta6, CN=localhost/emailAddress=cs1_ta6
        Subject Public Key Info:
            Public Key Algorithm: rsaEncryption
                Public-Key: (1024 bit)
                Modulus:
                    00:b3:e8:f7:75:a1:96:54:e6:24:5a:d3:05:c0:dd:
                    5d:e7:47:56:3f:3c:dd:14:48:f0:9a:45:d9:98:c1:
                    7c:a1:74:ed:82:e0:9d:0d:02:62:50:7e:32:d5:11:
                    aa:8d:12:cf:77:49:21:bd:37:4f:56:91:73:8e:f7:
                    b8:2f:9c:2f:d1:7e:4c:8e:39:9e:fa:a2:b1:85:6d:
                    d4:0a:98:ac:59:f1:27:5d:9b:99:91:20:0d:8e:04:
                    5a:79:34:5f:12:5c:bc:d4:8f:8d:d0:77:ed:52:47:
                    eb:9d:76:25:45:d6:3c:ce:18:bb:57:97:e5:af:8f:
                    87:fb:8b:ca:95:04:fd:55:63
                Exponent: 65537 (0x10001)
        X509v3 extensions:
            X509v3 Basic Constraints: critical
                CA:FALSE
            X509v3 Key Usage: critical
                Digital Signature
    Signature Algorithm: sha256WithRSAEncryption
         20:b8:f3:54:b5:1c:a6:46:9f:6a:78:22:3a:0a:01:df:8f:9b:
         e2:fc:c1:4d:e9:b8:a1:49:95:06:e4:7b:cd:4e:1c:75:ec:a8:
         87:25:c5:3f:4c:07:30:31:96:f4:09:36:0a:52:f2:83:28:da:
         dd:68:6f:23:51:ed:5c:43:7f:23:a9:fc:d9:08:de:4a:bf:99:
         49:17:24:d0:2b:72:9f:7a:77:d1:4f:ad:a2:a8:44:5d:da:b3:
         15:64:cd:79:3f:0d:ab:54:7e:b7:00:da:a4:e5:b6:df:3c:f4:
         67:74:75:ae:17:06:3e:bf:1b:82:40:4a:26:bd:24:60:9d:5b:
         7f:00:8a:97:2a:01:fd:73:56:04:8d:15:44:7c:b8:09:4b:80:
         f1:49:ad:9c:18:b6:ec:10:30:0d:b5:86:5c:e9:33:58:11:e5:
         86:1b:93:8a:f5:5e:40:3c:40:c0:52:65:2d:6d:1e:18:18:67:
         42:a8:eb:99:bd:4c:18:33:41:6a:ca:00:4c:63:33:e4:22:06:
         60:08:97:5b:40:91:29:f1:59:75:f7:87:04:15:ab:09:2a:b1:
         a1:b8:2a:50:0d:26:61:7b:76:7f:e2:a6:e4:62:d0:7f:8a:ff:
         56:78:de:c1:76:51:ec:7d:84:fe:86:96:be:11:3b:3f:fe:60:
         6e:f2:55:ac
-----BEGIN CERTIFICATE-----
MIIDGjCCAgKgAwIBAgIBKjANBgkqhkiG9w0BAQsFADB9MQswCQYDVQQGEwJVUzET
MBEGA1UECAwKQ2FsaWZvcm5pYTEUMBIGA1UEBwwLU2FudGEgQ2xhcmExDTALBgNV
BAoMBHBrZzUxDDAKBgNVBAsMA3RhNjESMBAGA1UEAwwJbG9jYWxob3N0MRIwEAYJ
KoZIhvcNAQkBFgN0YTYwHhcNMTYxMTI4MjI1MDU4WhcNMTkwODI1MjI1MDU4WjCB
hTELMAkGA1UEBhMCVVMxEzARBgNVBAgMCkNhbGlmb3JuaWExFDASBgNVBAcMC1Nh
bnRhIENsYXJhMQ0wCwYDVQQKDARwa2c1MRAwDgYDVQQLDAdjczFfdGE2MRIwEAYD
VQQDDAlsb2NhbGhvc3QxFjAUBgkqhkiG9w0BCQEWB2NzMV90YTYwgZ8wDQYJKoZI
hvcNAQEBBQADgY0AMIGJAoGBALPo93WhllTmJFrTBcDdXedHVj883RRI8JpF2ZjB
fKF07YLgnQ0CYlB+MtURqo0Sz3dJIb03T1aRc473uC+cL9F+TI45nvqisYVt1AqY
rFnxJ12bmZEgDY4EWnk0XxJcvNSPjdB37VJH6512JUXWPM4Yu1eX5a+Ph/uLypUE
/VVjAgMBAAGjIDAeMAwGA1UdEwEB/wQCMAAwDgYDVR0PAQH/BAQDAgeAMA0GCSqG
SIb3DQEBCwUAA4IBAQAguPNUtRymRp9qeCI6CgHfj5vi/MFN6bihSZUG5HvNThx1
7KiHJcU/TAcwMZb0CTYKUvKDKNrdaG8jUe1cQ38jqfzZCN5Kv5lJFyTQK3KfenfR
T62iqERd2rMVZM15Pw2rVH63ANqk5bbfPPRndHWuFwY+vxuCQEomvSRgnVt/AIqX
KgH9c1YEjRVEfLgJS4DxSa2cGLbsEDANtYZc6TNYEeWGG5OK9V5APEDAUmUtbR4Y
GGdCqOuZvUwYM0FqygBMYzPkIgZgCJdbQJEp8Vl194cEFasJKrGhuCpQDSZhe3Z/
4qbkYtB/iv9WeN7BdlHsfYT+hpa+ETs//mBu8lWs
-----END CERTIFICATE-----
