Certificate:
    Data:
        Version: 3 (0x2)
        Serial Number: 40 (0x28)
        Signature Algorithm: sha256WithRSAEncryption
        Issuer: C=US, ST=California, L=Santa Clara, O=pkg5, CN=ch1.1_ta4/emailAddress=ch1.1_ta4
        Validity
            Not Before: Oct 24 21:43:13 2023 GMT
            Not After : Jul 20 21:43:13 2026 GMT
        Subject: C=US, ST=California, L=Santa Clara, O=pkg5, CN=cs1_ch1.1_ta4/emailAddress=cs1_ch1.1_ta4
        Subject Public Key Info:
            Public Key Algorithm: rsaEncryption
                Public-Key: (2048 bit)
                Modulus:
                    00:d1:9b:8b:11:c2:58:0b:4e:0c:c8:34:ef:15:d1:
                    28:b7:4f:da:e7:b8:2e:88:1a:f5:29:0b:db:0c:5e:
                    1c:77:b2:4a:58:cc:b1:fa:1d:c4:06:6f:24:b6:ed:
                    b1:41:ae:80:dc:8a:dc:5a:56:9a:13:38:76:c6:d3:
                    88:d6:bc:51:ee:55:9d:7b:2a:37:c9:b6:f5:53:a8:
                    24:94:7e:6c:39:52:04:46:90:a3:c6:d2:f2:fc:af:
                    1d:cb:2e:a3:af:82:49:7e:25:6d:1c:1c:9f:c6:79:
                    8e:56:8e:0a:63:37:88:f1:d1:9e:22:4e:bc:c0:2b:
                    cf:d5:46:5a:54:5d:6c:85:8a:21:0b:22:d9:63:1f:
                    8a:54:d8:ba:6e:60:62:15:b4:d6:91:33:20:9a:6e:
                    ed:46:da:73:f1:5f:85:0b:4e:69:71:5e:54:cb:6c:
                    00:9b:9c:27:45:0b:00:90:9c:ef:ae:b4:f4:2e:91:
                    28:4b:a1:75:09:59:ad:09:a9:a1:8e:b7:e8:92:9e:
                    ad:38:b8:f3:b8:38:a9:eb:fb:c3:c7:5d:da:28:af:
                    c5:38:8d:22:83:68:a0:11:df:0a:69:7a:6a:d1:68:
                    e0:9d:df:34:05:2d:48:ad:b0:9f:d4:e1:17:48:8f:
                    7b:76:f5:81:14:30:2c:8e:8c:a6:7c:0a:42:12:10:
                    9b:77
                Exponent: 65537 (0x10001)
        X509v3 extensions:
            X509v3 Basic Constraints: critical
                CA:FALSE
            X509v3 CRL Distribution Points: 
                Full Name:
                  URI:http://localhost:12001/file/0/ch1.1_ta4_crl.pem
            X509v3 Subject Key Identifier: 
                7B:2D:4A:31:9C:47:A6:39:65:EE:7A:D9:A2:94:2C:4C:6E:C0:92:CB
            X509v3 Authority Key Identifier: 
                33:C0:7C:69:5B:F8:20:0D:87:78:64:73:02:3A:4A:30:F9:69:7A:25
    Signature Algorithm: sha256WithRSAEncryption
    Signature Value:
        70:7f:de:3e:25:5e:ca:a9:a4:56:da:d0:33:e5:db:26:02:ae:
        26:2f:85:4e:65:58:ad:fa:5d:9e:11:32:36:51:53:dd:07:f9:
        90:83:cd:c6:d6:2b:79:31:3e:d6:e4:a6:68:d1:7b:bb:28:6f:
        11:6a:48:a5:4e:8d:39:e9:bc:db:23:1f:a2:e5:91:3a:bd:fa:
        b3:9f:ac:c6:40:ec:e3:fc:2d:cb:1c:2d:ea:60:fe:fd:93:fb:
        b5:ac:99:38:4b:45:74:0c:2f:f7:20:ab:e3:f3:d3:25:72:50:
        cf:b3:33:66:b3:17:c0:c0:ea:88:4c:d4:4d:f8:a6:a7:3d:dc:
        2e:06:d9:1c:f0:56:9f:32:b5:5a:03:d0:6d:16:f3:52:c3:42:
        e4:9b:bb:88:fe:4a:00:9e:75:22:df:1a:a1:42:eb:c1:d3:dc:
        e1:05:27:7d:82:cd:93:ca:72:1e:70:db:4f:3e:80:4e:c9:f5:
        8c:90:ea:b0:7f:9a:14:85:4d:97:d2:d0:a4:ff:15:48:51:ab:
        90:96:06:dc:e9:4d:4c:44:e7:41:98:99:d8:52:aa:09:dc:84:
        60:7b:aa:49:b2:56:50:0f:90:a7:38:92:6c:8d:85:0f:25:08:
        0c:59:f3:0b:8a:21:5c:e9:c5:c8:2b:33:4b:b7:f5:ef:a2:cb:
        20:be:c9:c5
-----BEGIN CERTIFICATE-----
MIIEATCCAumgAwIBAgIBKDANBgkqhkiG9w0BAQsFADB1MQswCQYDVQQGEwJVUzET
MBEGA1UECAwKQ2FsaWZvcm5pYTEUMBIGA1UEBwwLU2FudGEgQ2xhcmExDTALBgNV
BAoMBHBrZzUxEjAQBgNVBAMMCWNoMS4xX3RhNDEYMBYGCSqGSIb3DQEJARYJY2gx
LjFfdGE0MB4XDTIzMTAyNDIxNDMxM1oXDTI2MDcyMDIxNDMxM1owfTELMAkGA1UE
BhMCVVMxEzARBgNVBAgMCkNhbGlmb3JuaWExFDASBgNVBAcMC1NhbnRhIENsYXJh
MQ0wCwYDVQQKDARwa2c1MRYwFAYDVQQDDA1jczFfY2gxLjFfdGE0MRwwGgYJKoZI
hvcNAQkBFg1jczFfY2gxLjFfdGE0MIIBIjANBgkqhkiG9w0BAQEFAAOCAQ8AMIIB
CgKCAQEA0ZuLEcJYC04MyDTvFdEot0/a57guiBr1KQvbDF4cd7JKWMyx+h3EBm8k
tu2xQa6A3IrcWlaaEzh2xtOI1rxR7lWdeyo3ybb1U6gklH5sOVIERpCjxtLy/K8d
yy6jr4JJfiVtHByfxnmOVo4KYzeI8dGeIk68wCvP1UZaVF1shYohCyLZYx+KVNi6
bmBiFbTWkTMgmm7tRtpz8V+FC05pcV5Uy2wAm5wnRQsAkJzvrrT0LpEoS6F1CVmt
Camhjrfokp6tOLjzuDip6/vDx13aKK/FOI0ig2igEd8KaXpq0Wjgnd80BS1IrbCf
1OEXSI97dvWBFDAsjoymfApCEhCbdwIDAQABo4GTMIGQMAwGA1UdEwEB/wQCMAAw
QAYDVR0fBDkwNzA1oDOgMYYvaHR0cDovL2xvY2FsaG9zdDoxMjAwMS9maWxlLzAv
Y2gxLjFfdGE0X2NybC5wZW0wHQYDVR0OBBYEFHstSjGcR6Y5Ze562aKULExuwJLL
MB8GA1UdIwQYMBaAFDPAfGlb+CANh3hkcwI6SjD5aXolMA0GCSqGSIb3DQEBCwUA
A4IBAQBwf94+JV7KqaRW2tAz5dsmAq4mL4VOZVit+l2eETI2UVPdB/mQg83G1it5
MT7W5KZo0Xu7KG8RakilTo056bzbIx+i5ZE6vfqzn6zGQOzj/C3LHC3qYP79k/u1
rJk4S0V0DC/3IKvj89MlclDPszNmsxfAwOqITNRN+KanPdwuBtkc8FafMrVaA9Bt
FvNSw0Lkm7uI/koAnnUi3xqhQuvB09zhBSd9gs2TynIecNtPPoBOyfWMkOqwf5oU
hU2X0tCk/xVIUauQlgbc6U1MROdBmJnYUqoJ3IRge6pJslZQD5CnOJJsjYUPJQgM
WfMLiiFc6cXIKzNLt/XvossgvsnF
-----END CERTIFICATE-----
