Certificate:
    Data:
        Version: 3 (0x2)
        Serial Number: 25 (0x19)
        Signature Algorithm: sha256WithRSAEncryption
        Issuer: C=US, ST=California, L=Santa Clara, O=pkg5, CN=cs8_ch1_ta3/emailAddress=cs8_ch1_ta3
        Validity
            Not Before: Dec 15 15:37:24 2022 GMT
            Not After : Sep 10 15:37:24 2025 GMT
        Subject: C=US, ST=California, L=Santa Clara, O=pkg5, CN=cs1_cs8_ch1_ta3/emailAddress=cs1_cs8_ch1_ta3
        Subject Public Key Info:
            Public Key Algorithm: rsaEncryption
                Public-Key: (2048 bit)
                Modulus:
                    00:aa:00:e4:48:26:1e:36:d7:fa:55:18:98:5f:51:
                    4b:d1:e9:75:74:9d:28:c9:e0:57:20:5b:36:2b:df:
                    4a:29:fc:d8:eb:51:08:d4:d2:3b:29:7d:1c:a4:b6:
                    2f:c7:ac:56:ac:d6:b7:c7:57:6c:b4:a6:26:b7:09:
                    d2:3f:1a:68:2c:4f:8a:14:da:2a:d7:ad:4d:82:30:
                    93:dd:ae:74:95:f2:46:f6:09:31:5f:b1:31:e1:f8:
                    ac:6b:63:13:ac:58:ed:6a:5d:9b:c3:9c:b6:eb:be:
                    37:21:d0:1f:b2:bc:8f:8c:8d:b5:ab:77:06:d6:a7:
                    f2:e9:e3:3a:b4:0e:c9:c4:8b:d6:45:ee:00:e0:74:
                    c0:36:b9:13:66:e6:de:f9:4f:bd:ab:b6:3d:0b:ee:
                    6a:41:a0:16:2d:0a:17:a8:dc:83:8b:d2:d9:14:5a:
                    c8:48:d2:8e:d5:94:71:51:a3:2f:15:ec:b0:a1:04:
                    f0:bd:c8:5c:bf:03:aa:78:cd:4c:9f:8c:af:e0:0d:
                    d2:ea:cd:02:ec:24:88:f5:76:de:21:cf:f3:d8:88:
                    8e:cd:e2:ee:42:b3:7f:cd:a3:67:66:da:f5:22:46:
                    2f:55:88:1c:2c:6a:f3:15:d9:00:9d:4f:75:76:01:
                    6f:b9:e7:47:f5:1b:e0:80:8e:8d:02:4a:98:ec:0a:
                    e4:3d
                Exponent: 65537 (0x10001)
        X509v3 extensions:
            X509v3 Basic Constraints: critical
                CA:FALSE
            X509v3 Key Usage: critical
                Digital Signature
            X509v3 Subject Key Identifier: 
                25:20:8A:01:8B:C9:54:F6:24:A7:71:73:10:8B:BD:A0:51:6C:DC:72
            X509v3 Authority Key Identifier: 
                0D:7C:D6:0B:F5:3A:BC:1E:68:A9:4B:A2:C1:50:1D:18:5F:EA:90:80
    Signature Algorithm: sha256WithRSAEncryption
    Signature Value:
        2a:45:ed:66:99:f8:18:88:c4:ee:57:57:5f:b0:13:87:eb:01:
        ce:a2:58:43:ba:d6:ad:14:69:20:bd:8c:5f:32:34:0e:f8:8f:
        46:b0:74:24:f5:4d:77:36:42:7e:f1:26:e0:f6:62:4b:f9:54:
        23:dd:a0:0e:bb:a8:02:d1:48:c7:0f:ec:5f:36:6a:6d:ab:30:
        05:97:50:ba:c3:8b:db:51:55:79:9b:8c:98:c8:e4:14:12:b0:
        90:67:82:5f:bf:9a:6a:ab:89:8f:cc:0b:a9:ba:c5:54:ea:04:
        49:94:8c:bc:b9:f3:82:87:7e:58:50:5e:57:c3:e6:79:02:37:
        95:44:70:34:26:e8:f4:de:eb:34:d4:48:9c:36:59:ac:75:16:
        28:68:df:67:33:04:f5:9f:fe:da:0b:10:c9:77:c6:bc:a0:e8:
        b6:e9:dd:7d:04:9b:9d:c6:05:47:55:87:c1:9a:53:a8:c4:6a:
        77:57:cd:6d:06:1f:29:c4:e4:c6:7c:52:d5:33:95:36:31:93:
        80:21:bc:ed:8a:09:7a:80:b9:15:59:8c:c9:6e:38:2d:68:e6:
        ad:23:9c:97:4a:ec:c7:0a:62:59:7e:79:8e:bf:fa:d5:c3:c0:
        86:01:a1:8b:23:21:cd:43:ea:4f:d5:90:6d:80:10:01:50:0d:
        bc:4d:15:7a
-----BEGIN CERTIFICATE-----
MIID1jCCAr6gAwIBAgIBGTANBgkqhkiG9w0BAQsFADB5MQswCQYDVQQGEwJVUzET
MBEGA1UECAwKQ2FsaWZvcm5pYTEUMBIGA1UEBwwLU2FudGEgQ2xhcmExDTALBgNV
BAoMBHBrZzUxFDASBgNVBAMMC2NzOF9jaDFfdGEzMRowGAYJKoZIhvcNAQkBFgtj
czhfY2gxX3RhMzAeFw0yMjEyMTUxNTM3MjRaFw0yNTA5MTAxNTM3MjRaMIGBMQsw
CQYDVQQGEwJVUzETMBEGA1UECAwKQ2FsaWZvcm5pYTEUMBIGA1UEBwwLU2FudGEg
Q2xhcmExDTALBgNVBAoMBHBrZzUxGDAWBgNVBAMMD2NzMV9jczhfY2gxX3RhMzEe
MBwGCSqGSIb3DQEJARYPY3MxX2NzOF9jaDFfdGEzMIIBIjANBgkqhkiG9w0BAQEF
AAOCAQ8AMIIBCgKCAQEAqgDkSCYeNtf6VRiYX1FL0el1dJ0oyeBXIFs2K99KKfzY
61EI1NI7KX0cpLYvx6xWrNa3x1dstKYmtwnSPxpoLE+KFNoq161NgjCT3a50lfJG
9gkxX7Ex4fisa2MTrFjtal2bw5y26743IdAfsryPjI21q3cG1qfy6eM6tA7JxIvW
Re4A4HTANrkTZube+U+9q7Y9C+5qQaAWLQoXqNyDi9LZFFrISNKO1ZRxUaMvFeyw
oQTwvchcvwOqeM1Mn4yv4A3S6s0C7CSI9XbeIc/z2IiOzeLuQrN/zaNnZtr1IkYv
VYgcLGrzFdkAnU91dgFvuedH9RvggI6NAkqY7ArkPQIDAQABo2AwXjAMBgNVHRMB
Af8EAjAAMA4GA1UdDwEB/wQEAwIHgDAdBgNVHQ4EFgQUJSCKAYvJVPYkp3FzEIu9
oFFs3HIwHwYDVR0jBBgwFoAUDXzWC/U6vB5oqUuiwVAdGF/qkIAwDQYJKoZIhvcN
AQELBQADggEBACpF7WaZ+BiIxO5XV1+wE4frAc6iWEO61q0UaSC9jF8yNA74j0aw
dCT1TXc2Qn7xJuD2Ykv5VCPdoA67qALRSMcP7F82am2rMAWXULrDi9tRVXmbjJjI
5BQSsJBngl+/mmqriY/MC6m6xVTqBEmUjLy584KHflhQXlfD5nkCN5VEcDQm6PTe
6zTUSJw2Wax1Fiho32czBPWf/toLEMl3xryg6Lbp3X0Em53GBUdVh8GaU6jEandX
zW0GHynE5MZ8UtUzlTYxk4AhvO2KCXqAuRVZjMluOC1o5q0jnJdK7McKYll+eY6/
+tXDwIYBoYsjIc1D6k/VkG2AEAFQDbxNFXo=
-----END CERTIFICATE-----
