Certificate:
    Data:
        Version: 3 (0x2)
        Serial Number: 36 (0x24)
        Signature Algorithm: sha256WithRSAEncryption
        Issuer: C=US, ST=California, L=Santa Clara, O=pkg5, CN=ch1_ta4/emailAddress=ch1_ta4
        Validity
            Not Before: Nov 14 14:26:57 2024 GMT
            Not After : Aug 11 14:26:57 2027 GMT
        Subject: C=US, ST=California, L=Santa Clara, O=pkg5, CN=cs1_ch1_ta4/emailAddress=cs1_ch1_ta4
        Subject Public Key Info:
            Public Key Algorithm: rsaEncryption
                Public-Key: (2048 bit)
                Modulus:
                    00:ae:b4:16:85:87:1c:35:79:83:45:d7:7c:f9:60:
                    22:06:11:63:b5:00:f3:e2:a5:d1:8a:b0:9d:29:28:
                    91:9d:28:8b:26:c1:43:f1:d7:15:f8:c2:27:49:1c:
                    c4:17:fe:75:76:e7:8f:f6:56:52:c4:4b:96:11:54:
                    fb:ce:fb:c4:cb:20:35:87:f1:2a:d3:cd:6e:43:1d:
                    cc:20:83:b2:91:86:7c:a3:8a:88:ed:5d:ad:0d:c6:
                    f5:4d:67:48:93:9a:fe:5c:ad:31:6e:bf:82:c8:a7:
                    4d:bd:d2:06:de:d2:c2:27:22:5c:ba:13:1a:e9:67:
                    f4:6f:4b:89:76:ce:ad:0b:f2:99:8a:31:c1:12:e3:
                    15:f3:df:b4:4c:cd:95:c9:6d:23:c9:4c:d9:6a:7b:
                    df:09:93:f1:1c:82:2d:9c:fb:41:fb:b6:e8:07:32:
                    8c:8c:16:df:fa:2c:af:71:2b:32:c8:f9:10:2e:62:
                    24:d3:1a:49:83:f0:cd:ea:7f:17:f4:c9:86:d7:96:
                    27:b3:a0:01:fd:77:2a:3b:74:60:76:5d:95:d4:17:
                    34:51:43:88:f0:9c:4e:67:bb:d3:f3:88:82:a1:dc:
                    fa:ce:c7:aa:b4:82:61:b4:8c:6c:f6:5e:ba:55:f1:
                    ce:b5:84:78:b6:bc:ae:66:e8:e7:25:21:d2:0c:1b:
                    bb:27
                Exponent: 65537 (0x10001)
        X509v3 extensions:
            X509v3 Basic Constraints: critical
                CA:FALSE
            X509v3 CRL Distribution Points: 
                Full Name:
                  URI:http://localhost:12001/file/0/ch1_ta4_crl.pem
            X509v3 Subject Key Identifier: 
                88:41:69:74:0E:C7:22:F6:9F:5B:5E:E4:F3:BB:C4:AF:90:9C:DA:29
            X509v3 Authority Key Identifier: 
                3E:81:C4:66:D7:17:83:A6:DB:1A:AA:09:6B:22:48:C9:DE:1D:66:AC
    Signature Algorithm: sha256WithRSAEncryption
    Signature Value:
        70:c2:9c:dd:45:80:e9:ef:5c:12:ad:ee:e5:f5:39:8e:cf:08:
        8f:3d:2c:3c:7e:f8:40:8d:ce:c4:29:b5:81:5e:a0:4a:89:4a:
        43:fe:a3:3b:73:2b:5e:36:b4:50:ae:d2:c6:df:96:59:c7:a5:
        a3:10:76:80:87:bb:9b:d5:be:ef:f9:55:15:99:ca:9d:9f:7d:
        ec:e9:8d:5d:88:24:bd:03:79:8b:b5:12:7b:e2:6e:42:ea:ec:
        03:5d:bf:a6:01:c1:a0:9c:ca:39:3f:41:cb:9c:b4:b9:07:e0:
        fc:77:8a:b7:e9:50:0e:f3:08:2b:fb:7b:95:9c:5d:79:c0:f6:
        b9:c8:e0:91:2b:27:c4:75:22:84:f6:c5:a2:3e:cd:77:96:0f:
        f2:c6:f9:1d:1e:e6:73:cc:bf:18:a5:81:91:26:9e:b8:92:c1:
        a2:a6:21:8c:42:63:e7:bf:65:95:c7:bd:60:53:65:31:09:6c:
        64:38:7f:65:14:57:c4:44:8e:41:0d:e3:ee:d9:68:ae:32:e5:
        0a:48:6d:d3:bb:e5:64:04:85:d9:04:2b:1e:45:e9:ab:42:ba:
        00:f1:29:90:48:3b:9d:7c:16:b1:9e:91:f6:e3:a1:01:ea:7d:
        af:1c:3c:d7:68:de:80:35:bc:60:06:ea:6b:85:cf:e6:43:4f:
        99:17:0e:8f
-----BEGIN CERTIFICATE-----
MIID9zCCAt+gAwIBAgIBJDANBgkqhkiG9w0BAQsFADBxMQswCQYDVQQGEwJVUzET
MBEGA1UECAwKQ2FsaWZvcm5pYTEUMBIGA1UEBwwLU2FudGEgQ2xhcmExDTALBgNV
BAoMBHBrZzUxEDAOBgNVBAMMB2NoMV90YTQxFjAUBgkqhkiG9w0BCQEWB2NoMV90
YTQwHhcNMjQxMTE0MTQyNjU3WhcNMjcwODExMTQyNjU3WjB5MQswCQYDVQQGEwJV
UzETMBEGA1UECAwKQ2FsaWZvcm5pYTEUMBIGA1UEBwwLU2FudGEgQ2xhcmExDTAL
BgNVBAoMBHBrZzUxFDASBgNVBAMMC2NzMV9jaDFfdGE0MRowGAYJKoZIhvcNAQkB
FgtjczFfY2gxX3RhNDCCASIwDQYJKoZIhvcNAQEBBQADggEPADCCAQoCggEBAK60
FoWHHDV5g0XXfPlgIgYRY7UA8+Kl0YqwnSkokZ0oiybBQ/HXFfjCJ0kcxBf+dXbn
j/ZWUsRLlhFU+877xMsgNYfxKtPNbkMdzCCDspGGfKOKiO1drQ3G9U1nSJOa/lyt
MW6/gsinTb3SBt7SwiciXLoTGuln9G9LiXbOrQvymYoxwRLjFfPftEzNlcltI8lM
2Wp73wmT8RyCLZz7Qfu26AcyjIwW3/osr3ErMsj5EC5iJNMaSYPwzep/F/TJhteW
J7OgAf13Kjt0YHZdldQXNFFDiPCcTme70/OIgqHc+s7HqrSCYbSMbPZeulXxzrWE
eLa8rmbo5yUh0gwbuycCAwEAAaOBkTCBjjAMBgNVHRMBAf8EAjAAMD4GA1UdHwQ3
MDUwM6AxoC+GLWh0dHA6Ly9sb2NhbGhvc3Q6MTIwMDEvZmlsZS8wL2NoMV90YTRf
Y3JsLnBlbTAdBgNVHQ4EFgQUiEFpdA7HIvafW17k87vEr5Cc2ikwHwYDVR0jBBgw
FoAUPoHEZtcXg6bbGqoJayJIyd4dZqwwDQYJKoZIhvcNAQELBQADggEBAHDCnN1F
gOnvXBKt7uX1OY7PCI89LDx++ECNzsQptYFeoEqJSkP+oztzK142tFCu0sbfllnH
paMQdoCHu5vVvu/5VRWZyp2ffezpjV2IJL0DeYu1EnvibkLq7ANdv6YBwaCcyjk/
QcuctLkH4Px3irfpUA7zCCv7e5WcXXnA9rnI4JErJ8R1IoT2xaI+zXeWD/LG+R0e
5nPMvxilgZEmnriSwaKmIYxCY+e/ZZXHvWBTZTEJbGQ4f2UUV8REjkEN4+7ZaK4y
5QpIbdO75WQEhdkEKx5F6atCugDxKZBIO518FrGekfbjoQHqfa8cPNdo3oA1vGAG
6muFz+ZDT5kXDo8=
-----END CERTIFICATE-----
