Certificate:
    Data:
        Version: 3 (0x2)
        Serial Number: 48 (0x30)
        Signature Algorithm: sha256WithRSAEncryption
        Issuer: C=US, ST=California, L=Santa Clara, O=pkg5, OU=ta11, CN=localhost/emailAddress=ta11
        Validity
            Not Before: May 23 15:47:23 2024 GMT
            Not After : Feb 17 15:47:23 2027 GMT
        Subject: C=US, ST=California, L=Santa Clara, O=pkg5, OU=cs1_ta11, CN=localhost/emailAddress=cs1_ta11
        Subject Public Key Info:
            Public Key Algorithm: rsaEncryption
                Public-Key: (2048 bit)
                Modulus:
                    00:99:a0:3c:f0:e9:e9:b5:f7:8f:43:9f:67:ed:97:
                    d7:c0:66:54:40:af:88:94:32:5b:7a:01:c1:9c:10:
                    68:e7:b3:a9:ad:f6:d9:84:db:09:7e:55:67:9e:28:
                    3b:ed:a7:1f:3d:36:ee:2d:48:f4:1e:4c:69:62:06:
                    0f:a0:67:3f:b6:f4:e0:17:af:9b:95:6a:18:13:9b:
                    41:3c:aa:f2:01:5a:e4:77:c3:4f:f8:66:27:1a:33:
                    4a:96:7d:86:7a:b6:8d:11:30:eb:64:32:64:2a:61:
                    f7:7b:40:d6:00:a0:b8:19:8e:dd:7f:5d:96:7c:51:
                    30:5e:70:9f:cd:21:65:5f:1f:bb:9a:af:89:9c:cf:
                    9e:e5:1f:24:7d:3d:f0:d7:4a:95:06:24:7f:2c:22:
                    37:c7:31:6a:cc:a1:96:a5:8a:4d:f2:d3:dd:4b:b4:
                    4b:12:55:64:1d:5c:07:07:2b:d0:bd:6a:2f:84:16:
                    0f:04:15:e3:21:da:2f:bd:c4:2e:7d:31:6a:ce:72:
                    c9:e0:a9:63:9c:8b:0c:18:cc:0a:2b:0e:b9:fa:58:
                    4c:44:c0:81:7e:d5:c8:88:e6:af:a4:90:2a:34:e6:
                    d9:e1:f2:b5:a1:f6:82:b5:02:22:ec:2f:8c:e2:bd:
                    a8:e0:fd:89:b2:55:e6:d4:f1:c3:e0:56:10:fb:76:
                    35:7f
                Exponent: 65537 (0x10001)
        X509v3 extensions:
            X509v3 Basic Constraints: critical
                CA:FALSE
            X509v3 Key Usage: critical
                Digital Signature
            X509v3 Subject Key Identifier: 
                E9:02:AA:DF:7C:66:9D:B1:2A:4F:6F:DD:F2:C9:E6:04:3C:16:66:BD
            X509v3 Authority Key Identifier: 
                68:76:50:71:1A:6C:AB:DC:E9:B3:C7:C0:4E:28:D5:D8:28:D7:EE:48
    Signature Algorithm: sha256WithRSAEncryption
    Signature Value:
        70:16:e3:a4:d6:46:42:98:c7:74:e3:fb:05:5b:40:e0:18:9a:
        ce:45:7e:7e:be:72:86:70:0e:e5:54:f0:fb:cb:26:8d:d5:0f:
        10:48:3a:03:1a:f6:89:99:f3:5a:40:53:6a:05:6a:8c:e2:06:
        29:8b:f3:fa:d0:ea:fc:73:ce:ab:02:b2:4a:44:98:32:dd:03:
        a0:68:a7:4b:2d:08:2c:f7:aa:4b:3a:8e:b8:31:fb:15:4f:c6:
        ed:74:3e:eb:74:6d:d3:39:85:4e:a3:d1:b2:cb:0b:02:f0:86:
        ee:72:6e:9e:7f:6d:3d:70:57:66:33:25:89:77:ac:89:d9:8f:
        f2:e7:8e:53:1c:8e:b9:ee:14:92:4c:c8:b6:5f:bd:d5:c6:f2:
        9e:6a:d5:9c:75:c6:c0:01:37:bb:81:48:70:bb:7f:01:29:11:
        e7:93:ab:33:ab:0f:71:45:99:35:d8:cc:72:78:c7:51:eb:2a:
        5a:a2:51:91:20:5d:48:2a:91:a4:5f:6a:b7:c0:a9:2c:97:21:
        e8:34:c2:6a:c4:58:94:7b:88:8f:b5:84:7d:12:8e:bd:73:9f:
        86:71:ff:38:ca:3f:9c:b6:ff:07:cc:52:64:2e:71:0b:9f:1d:
        d6:03:96:d3:ba:2e:ba:41:65:76:09:32:ce:fb:43:78:30:7e:
        a6:ad:82:0f
-----BEGIN CERTIFICATE-----
MIID4jCCAsqgAwIBAgIBMDANBgkqhkiG9w0BAQsFADB/MQswCQYDVQQGEwJVUzET
MBEGA1UECAwKQ2FsaWZvcm5pYTEUMBIGA1UEBwwLU2FudGEgQ2xhcmExDTALBgNV
BAoMBHBrZzUxDTALBgNVBAsMBHRhMTExEjAQBgNVBAMMCWxvY2FsaG9zdDETMBEG
CSqGSIb3DQEJARYEdGExMTAeFw0yNDA1MjMxNTQ3MjNaFw0yNzAyMTcxNTQ3MjNa
MIGHMQswCQYDVQQGEwJVUzETMBEGA1UECAwKQ2FsaWZvcm5pYTEUMBIGA1UEBwwL
U2FudGEgQ2xhcmExDTALBgNVBAoMBHBrZzUxETAPBgNVBAsMCGNzMV90YTExMRIw
EAYDVQQDDAlsb2NhbGhvc3QxFzAVBgkqhkiG9w0BCQEWCGNzMV90YTExMIIBIjAN
BgkqhkiG9w0BAQEFAAOCAQ8AMIIBCgKCAQEAmaA88OnptfePQ59n7ZfXwGZUQK+I
lDJbegHBnBBo57OprfbZhNsJflVnnig77acfPTbuLUj0HkxpYgYPoGc/tvTgF6+b
lWoYE5tBPKryAVrkd8NP+GYnGjNKln2GeraNETDrZDJkKmH3e0DWAKC4GY7df12W
fFEwXnCfzSFlXx+7mq+JnM+e5R8kfT3w10qVBiR/LCI3xzFqzKGWpYpN8tPdS7RL
ElVkHVwHByvQvWovhBYPBBXjIdovvcQufTFqznLJ4KljnIsMGMwKKw65+lhMRMCB
ftXIiOavpJAqNObZ4fK1ofaCtQIi7C+M4r2o4P2JslXm1PHD4FYQ+3Y1fwIDAQAB
o2AwXjAMBgNVHRMBAf8EAjAAMA4GA1UdDwEB/wQEAwIHgDAdBgNVHQ4EFgQU6QKq
33xmnbEqT2/d8snmBDwWZr0wHwYDVR0jBBgwFoAUaHZQcRpsq9zps8fATijV2CjX
7kgwDQYJKoZIhvcNAQELBQADggEBAHAW46TWRkKYx3Tj+wVbQOAYms5Ffn6+coZw
DuVU8PvLJo3VDxBIOgMa9omZ81pAU2oFaoziBimL8/rQ6vxzzqsCskpEmDLdA6Bo
p0stCCz3qks6jrgx+xVPxu10Put0bdM5hU6j0bLLCwLwhu5ybp5/bT1wV2YzJYl3
rInZj/LnjlMcjrnuFJJMyLZfvdXG8p5q1Zx1xsABN7uBSHC7fwEpEeeTqzOrD3FF
mTXYzHJ4x1HrKlqiUZEgXUgqkaRfarfAqSyXIeg0wmrEWJR7iI+1hH0Sjr1zn4Zx
/zjKP5y2/wfMUmQucQufHdYDltO6LrpBZXYJMs77Q3gwfqatgg8=
-----END CERTIFICATE-----
