Certificate:
    Data:
        Version: 3 (0x2)
        Serial Number: 9 (0x9)
        Signature Algorithm: sha256WithRSAEncryption
        Issuer: C=US, ST=California, L=Santa Clara, O=pkg5, CN=ch5.1_ta1/emailAddress=ch5.1_ta1
        Validity
            Not Before: Oct 24 21:43:01 2023 GMT
            Not After : Jul 20 21:43:01 2026 GMT
        Subject: C=US, ST=California, L=Santa Clara, O=pkg5, CN=cs1_ch5.1_ta1/emailAddress=cs1_ch5.1_ta1
        Subject Public Key Info:
            Public Key Algorithm: rsaEncryption
                Public-Key: (2048 bit)
                Modulus:
                    00:ac:aa:3c:d6:5c:ca:1f:7e:73:c6:73:aa:a3:ea:
                    2d:ae:c9:84:37:68:af:79:3d:76:d8:09:1a:f9:29:
                    b8:ae:39:75:03:9d:2c:23:f8:a7:55:e8:fa:ab:f5:
                    6d:22:5c:7b:90:1c:6b:1b:df:bf:7b:b9:e6:e1:76:
                    c4:2e:34:78:c8:52:78:d7:15:e1:e3:df:87:ae:86:
                    1f:a3:e8:39:b8:0e:2b:61:66:7b:84:2e:2b:90:74:
                    d8:44:d0:5e:40:44:53:c8:9c:38:94:e5:59:47:87:
                    73:d7:9f:bf:f4:c3:bf:0b:52:ed:f2:30:99:2c:a9:
                    a1:dc:1b:32:ab:04:ce:36:79:4f:ce:19:5a:09:36:
                    79:32:d4:10:35:23:c8:49:fd:a3:fe:72:55:41:49:
                    07:7f:d6:b2:21:e1:ca:65:ff:3d:2e:6f:6b:e9:52:
                    a0:a3:39:f9:e1:7a:3b:3b:7b:78:22:ff:69:98:d7:
                    0b:f7:37:8b:d0:b7:7c:30:22:fc:91:29:ac:a9:e2:
                    e3:63:5b:a3:be:9c:38:a2:b4:2a:ca:40:17:f3:5b:
                    72:68:06:4c:ab:c0:62:07:e6:7a:ba:61:8b:78:7f:
                    07:56:55:c0:df:3e:bf:90:e3:7e:22:3e:af:26:98:
                    fb:19:34:0d:66:ab:b6:1c:a9:0f:ef:43:f4:31:b2:
                    0a:59
                Exponent: 65537 (0x10001)
        X509v3 extensions:
            X509v3 Basic Constraints: critical
                CA:FALSE
            X509v3 Key Usage: critical
                Digital Signature
            X509v3 Subject Key Identifier: 
                CE:39:19:DB:69:2F:97:26:80:CF:76:24:C2:93:CC:16:37:0C:F6:CF
            X509v3 Authority Key Identifier: 
                3C:6C:2E:2F:F4:FF:4B:C1:6A:87:7B:13:9D:93:D3:CF:5E:54:00:7E
    Signature Algorithm: sha256WithRSAEncryption
    Signature Value:
        bd:2b:38:34:b5:b8:15:2e:4b:6f:a4:f6:64:40:a7:46:75:0f:
        3e:8d:a1:dc:50:9a:49:67:04:f2:34:e9:b0:67:2c:80:fb:33:
        4e:45:12:53:8e:a3:cd:0a:37:d5:e8:58:75:1d:9c:b8:31:93:
        ae:1b:3d:43:ba:f5:c5:c5:32:ec:53:5a:db:c3:26:85:d1:7f:
        ab:58:0c:a9:cd:d0:cf:3b:57:3b:f8:0f:42:24:6c:6e:70:03:
        dc:61:e4:d2:c9:8f:44:70:a4:be:91:7e:d5:c2:81:e5:03:47:
        a8:dd:b8:62:15:82:3f:cc:bd:9a:ca:f3:3e:d5:56:58:3c:48:
        a2:9a:24:3b:29:f8:48:80:90:fd:cc:f8:94:2e:5a:06:c6:e4:
        c7:d1:87:b0:45:3e:77:78:a1:da:fe:ce:4c:af:73:af:7e:54:
        59:71:d6:87:98:ab:f3:76:7b:04:d4:3b:a9:33:76:43:e9:5f:
        ea:ac:56:45:d9:df:86:02:2e:86:5a:05:74:d8:f4:19:83:82:
        ef:88:db:51:2c:65:c6:d3:f6:6a:5a:1a:00:48:49:52:ce:53:
        87:a6:83:e9:ea:e0:4d:13:39:e4:64:5f:a9:ec:77:e8:c0:13:
        06:de:cc:f2:ab:35:3a:40:c9:0c:74:a5:dc:dd:69:d6:6d:b9:
        62:d1:05:d2
-----BEGIN CERTIFICATE-----
MIIDzTCCArWgAwIBAgIBCTANBgkqhkiG9w0BAQsFADB1MQswCQYDVQQGEwJVUzET
MBEGA1UECAwKQ2FsaWZvcm5pYTEUMBIGA1UEBwwLU2FudGEgQ2xhcmExDTALBgNV
BAoMBHBrZzUxEjAQBgNVBAMMCWNoNS4xX3RhMTEYMBYGCSqGSIb3DQEJARYJY2g1
LjFfdGExMB4XDTIzMTAyNDIxNDMwMVoXDTI2MDcyMDIxNDMwMVowfTELMAkGA1UE
BhMCVVMxEzARBgNVBAgMCkNhbGlmb3JuaWExFDASBgNVBAcMC1NhbnRhIENsYXJh
MQ0wCwYDVQQKDARwa2c1MRYwFAYDVQQDDA1jczFfY2g1LjFfdGExMRwwGgYJKoZI
hvcNAQkBFg1jczFfY2g1LjFfdGExMIIBIjANBgkqhkiG9w0BAQEFAAOCAQ8AMIIB
CgKCAQEArKo81lzKH35zxnOqo+otrsmEN2iveT122Aka+Sm4rjl1A50sI/inVej6
q/VtIlx7kBxrG9+/e7nm4XbELjR4yFJ41xXh49+HroYfo+g5uA4rYWZ7hC4rkHTY
RNBeQERTyJw4lOVZR4dz15+/9MO/C1Lt8jCZLKmh3BsyqwTONnlPzhlaCTZ5MtQQ
NSPISf2j/nJVQUkHf9ayIeHKZf89Lm9r6VKgozn54Xo7O3t4Iv9pmNcL9zeL0Ld8
MCL8kSmsqeLjY1ujvpw4orQqykAX81tyaAZMq8BiB+Z6umGLeH8HVlXA3z6/kON+
Ij6vJpj7GTQNZqu2HKkP70P0MbIKWQIDAQABo2AwXjAMBgNVHRMBAf8EAjAAMA4G
A1UdDwEB/wQEAwIHgDAdBgNVHQ4EFgQUzjkZ22kvlyaAz3YkwpPMFjcM9s8wHwYD
VR0jBBgwFoAUPGwuL/T/S8Fqh3sTnZPTz15UAH4wDQYJKoZIhvcNAQELBQADggEB
AL0rODS1uBUuS2+k9mRAp0Z1Dz6NodxQmklnBPI06bBnLID7M05FElOOo80KN9Xo
WHUdnLgxk64bPUO69cXFMuxTWtvDJoXRf6tYDKnN0M87Vzv4D0IkbG5wA9xh5NLJ
j0RwpL6RftXCgeUDR6jduGIVgj/MvZrK8z7VVlg8SKKaJDsp+EiAkP3M+JQuWgbG
5MfRh7BFPnd4odr+zkyvc69+VFlx1oeYq/N2ewTUO6kzdkPpX+qsVkXZ34YCLoZa
BXTY9BmDgu+I21EsZcbT9mpaGgBISVLOU4emg+nq4E0TOeRkX6nsd+jAEwbezPKr
NTpAyQx0pdzdadZtuWLRBdI=
-----END CERTIFICATE-----
