Certificate:
    Data:
        Version: 3 (0x2)
        Serial Number: 29 (0x1d)
    Signature Algorithm: sha256WithRSAEncryption
        Issuer: C=US, ST=California, L=Santa Clara, O=pkg5, CN=ch1.2_ta3/emailAddress=ch1.2_ta3
        Validity
            Not Before: Dec  6 03:06:43 2014 GMT
            Not After : Sep  1 03:06:43 2017 GMT
        Subject: C=US, ST=California, L=Santa Clara, O=pkg5, CN=cs1_ch1.2_ta3/emailAddress=cs1_ch1.2_ta3
        Subject Public Key Info:
            Public Key Algorithm: rsaEncryption
                Public-Key: (1024 bit)
                Modulus:
                    00:a2:a5:06:8d:8f:6f:a1:e9:d0:c7:95:d4:7d:4a:
                    a1:62:8a:4a:9a:43:c7:19:81:97:ba:86:b2:bc:d7:
                    09:85:8f:46:df:1f:9a:e8:24:bf:c3:ff:cb:49:f9:
                    ff:e8:9e:ee:fe:bd:4c:e1:3c:9a:a8:95:84:8f:4e:
                    f1:6b:92:e1:54:29:ef:b5:ac:81:b0:f3:70:9d:58:
                    6b:78:18:6d:a9:67:50:b3:c1:cb:7b:55:b2:f5:e1:
                    9a:f0:86:40:a3:5f:2f:0d:d3:af:be:f4:25:5e:8d:
                    e8:7e:b1:4e:ff:62:97:9f:4d:09:3f:40:85:4e:ec:
                    aa:ff:86:53:f6:b8:23:a9:e1
                Exponent: 65537 (0x10001)
        X509v3 extensions:
            X509v3 Basic Constraints: critical
                CA:FALSE
            X509v3 Key Usage: critical
                Digital Signature
    Signature Algorithm: sha256WithRSAEncryption
         77:8c:61:bc:b6:20:6e:3c:0f:5e:29:ec:93:72:c1:2b:13:ee:
         98:b6:61:dd:b7:b7:4e:56:9b:9f:5d:97:47:a0:d7:2f:cd:d7:
         ec:1c:1f:ee:bd:de:f8:8f:55:2c:b3:09:b0:c3:43:7b:21:3a:
         20:a2:c6:a2:89:c5:0d:42:52:7f:0f:0e:fa:e9:77:5e:46:b0:
         e1:71:85:25:4d:87:10:f6:04:57:ee:dc:4c:8c:c7:88:cd:a3:
         f5:55:68:0d:ed:2e:ac:5e:4f:0f:7c:46:9d:ce:d2:1f:89:48:
         60:65:c5:78:b8:fc:e7:a3:91:11:27:c1:4e:71:ca:63:26:10:
         fe:a6
-----BEGIN CERTIFICATE-----
MIICiDCCAfGgAwIBAgIBHTANBgkqhkiG9w0BAQsFADB1MQswCQYDVQQGEwJVUzET
MBEGA1UECAwKQ2FsaWZvcm5pYTEUMBIGA1UEBwwLU2FudGEgQ2xhcmExDTALBgNV
BAoMBHBrZzUxEjAQBgNVBAMMCWNoMS4yX3RhMzEYMBYGCSqGSIb3DQEJARYJY2gx
LjJfdGEzMB4XDTE0MTIwNjAzMDY0M1oXDTE3MDkwMTAzMDY0M1owfTELMAkGA1UE
BhMCVVMxEzARBgNVBAgMCkNhbGlmb3JuaWExFDASBgNVBAcMC1NhbnRhIENsYXJh
MQ0wCwYDVQQKDARwa2c1MRYwFAYDVQQDDA1jczFfY2gxLjJfdGEzMRwwGgYJKoZI
hvcNAQkBFg1jczFfY2gxLjJfdGEzMIGfMA0GCSqGSIb3DQEBAQUAA4GNADCBiQKB
gQCipQaNj2+h6dDHldR9SqFiikqaQ8cZgZe6hrK81wmFj0bfH5roJL/D/8tJ+f/o
nu7+vUzhPJqolYSPTvFrkuFUKe+1rIGw83CdWGt4GG2pZ1Czwct7VbL14ZrwhkCj
Xy8N06++9CVejeh+sU7/YpefTQk/QIVO7Kr/hlP2uCOp4QIDAQABoyAwHjAMBgNV
HRMBAf8EAjAAMA4GA1UdDwEB/wQEAwIHgDANBgkqhkiG9w0BAQsFAAOBgQB3jGG8
tiBuPA9eKeyTcsErE+6YtmHdt7dOVpufXZdHoNcvzdfsHB/uvd74j1Usswmww0N7
ITogosaiicUNQlJ/Dw766XdeRrDhcYUlTYcQ9gRX7txMjMeIzaP1VWgN7S6sXk8P
fEadztIfiUhgZcV4uPzno5ERJ8FOccpjJhD+pg==
-----END CERTIFICATE-----
