Certificate:
    Data:
        Version: 3 (0x2)
        Serial Number: 34 (0x22)
        Signature Algorithm: sha256WithRSAEncryption
        Issuer: C=US, ST=California, L=Santa Clara, O=pkg5, CN=ch1.4_ta3/emailAddress=ch1.4_ta3
        Validity
            Not Before: Oct 22 10:15:17 2021 GMT
            Not After : Jul 18 10:15:17 2024 GMT
        Subject: C=US, ST=California, L=Santa Clara, O=pkg5, CN=cs1_ch1.4_ta3/emailAddress=cs1_ch1.4_ta3
        Subject Public Key Info:
            Public Key Algorithm: rsaEncryption
                Public-Key: (2048 bit)
                Modulus:
                    00:bf:63:78:29:e6:fc:ee:a5:ad:56:d3:8e:d0:66:
                    0e:65:a3:3a:e8:0b:06:29:88:1f:b3:8a:1b:fd:92:
                    11:6a:80:01:3c:47:5d:c6:44:44:f5:18:a1:df:94:
                    9a:e9:af:86:95:d2:9f:f7:a2:7f:27:48:27:8e:26:
                    4a:70:75:ee:cb:d2:c0:a6:1c:5a:bc:63:9e:1f:f1:
                    17:28:7d:77:9d:b3:ab:2b:0b:13:6d:68:48:a3:cc:
                    29:b4:60:c4:e9:b1:7d:1e:87:b1:98:b0:83:6c:a0:
                    af:45:79:a2:21:19:0c:fc:24:7a:60:2d:e9:fc:b8:
                    79:d4:5c:eb:67:c3:fa:1e:5e:53:26:ec:b8:e6:46:
                    6a:3d:5e:1a:64:4d:1f:b1:57:26:e4:c4:ef:b3:1f:
                    c1:7b:d4:98:bf:67:58:10:9a:b3:1f:20:d4:a1:9c:
                    48:83:f2:b6:38:3a:8a:21:b2:1a:bf:4e:d5:9f:10:
                    f0:df:4c:34:59:aa:62:83:ab:93:02:02:a7:40:58:
                    f1:30:c1:4e:22:9b:ef:a0:48:93:b7:e5:3a:15:e5:
                    06:a9:4e:ff:e7:b9:f3:4f:df:0c:54:fc:05:0a:c0:
                    37:3c:a9:27:97:3a:25:76:e6:04:59:9e:7d:b5:8a:
                    a9:a1:7f:be:97:57:64:67:cb:a0:a1:6f:b3:3e:7e:
                    54:5d
                Exponent: 65537 (0x10001)
        X509v3 extensions:
            X509v3 Basic Constraints: critical
                CA:FALSE
            X509v3 Key Usage: critical
                Digital Signature
            X509v3 Subject Key Identifier: 
                DC:13:D3:3F:E1:D8:51:35:D3:15:39:CB:FA:EC:8E:6F:C4:A6:39:B3
            X509v3 Authority Key Identifier: 
                A4:7C:D0:3B:27:59:CD:88:F4:21:8B:E6:D6:A5:C3:23:6D:B4:00:D7
    Signature Algorithm: sha256WithRSAEncryption
    Signature Value:
        2a:57:95:2d:59:e8:91:2e:99:81:a2:33:d0:70:85:cd:78:a9:
        eb:18:08:cc:39:93:ad:c9:5a:6f:0b:f0:49:aa:f0:f6:63:34:
        c0:62:c7:20:a3:bf:25:3c:23:fa:3f:83:ff:bb:87:25:34:a8:
        62:06:c4:bf:72:97:34:47:8f:a3:a6:45:9c:e9:1f:a8:6c:37:
        c8:c7:9b:de:e1:2b:af:6c:18:71:dc:94:29:94:da:c2:52:d2:
        eb:25:d7:75:82:44:31:c0:7f:2d:56:26:cb:33:51:5d:d7:f7:
        b3:26:0d:48:39:14:cc:69:3c:8f:2d:fa:fd:91:a6:82:0b:9f:
        bb:7a:40:c0:df:35:1a:aa:36:02:27:09:29:e7:92:78:6b:1e:
        a5:de:18:81:4a:7d:05:00:b1:35:3e:d2:3f:d9:6a:f3:16:1d:
        d6:f4:9b:79:a5:e9:b7:15:39:f8:4a:58:71:dc:f0:72:60:96:
        8b:58:b2:c0:6f:b0:b1:bd:bb:3c:60:f9:04:30:4d:07:51:35:
        2b:1d:07:ed:03:9a:d6:d3:83:06:bd:13:57:c5:c0:cd:07:f8:
        cd:6c:e3:94:67:db:89:18:a7:b6:8b:c1:ca:64:92:fe:07:62:
        a0:f1:a5:37:67:c7:9d:27:01:a0:69:bb:73:a5:fa:24:04:b7:
        32:8c:de:b3
-----BEGIN CERTIFICATE-----
MIIDzTCCArWgAwIBAgIBIjANBgkqhkiG9w0BAQsFADB1MQswCQYDVQQGEwJVUzET
MBEGA1UECAwKQ2FsaWZvcm5pYTEUMBIGA1UEBwwLU2FudGEgQ2xhcmExDTALBgNV
BAoMBHBrZzUxEjAQBgNVBAMMCWNoMS40X3RhMzEYMBYGCSqGSIb3DQEJARYJY2gx
LjRfdGEzMB4XDTIxMTAyMjEwMTUxN1oXDTI0MDcxODEwMTUxN1owfTELMAkGA1UE
BhMCVVMxEzARBgNVBAgMCkNhbGlmb3JuaWExFDASBgNVBAcMC1NhbnRhIENsYXJh
MQ0wCwYDVQQKDARwa2c1MRYwFAYDVQQDDA1jczFfY2gxLjRfdGEzMRwwGgYJKoZI
hvcNAQkBFg1jczFfY2gxLjRfdGEzMIIBIjANBgkqhkiG9w0BAQEFAAOCAQ8AMIIB
CgKCAQEAv2N4Keb87qWtVtOO0GYOZaM66AsGKYgfs4ob/ZIRaoABPEddxkRE9Rih
35Sa6a+GldKf96J/J0gnjiZKcHXuy9LAphxavGOeH/EXKH13nbOrKwsTbWhIo8wp
tGDE6bF9HoexmLCDbKCvRXmiIRkM/CR6YC3p/Lh51FzrZ8P6Hl5TJuy45kZqPV4a
ZE0fsVcm5MTvsx/Be9SYv2dYEJqzHyDUoZxIg/K2ODqKIbIav07VnxDw30w0Wapi
g6uTAgKnQFjxMMFOIpvvoEiTt+U6FeUGqU7/57nzT98MVPwFCsA3PKknlzolduYE
WZ59tYqpoX++l1dkZ8ugoW+zPn5UXQIDAQABo2AwXjAMBgNVHRMBAf8EAjAAMA4G
A1UdDwEB/wQEAwIHgDAdBgNVHQ4EFgQU3BPTP+HYUTXTFTnL+uyOb8SmObMwHwYD
VR0jBBgwFoAUpHzQOydZzYj0IYvm1qXDI220ANcwDQYJKoZIhvcNAQELBQADggEB
ACpXlS1Z6JEumYGiM9Bwhc14qesYCMw5k63JWm8L8Emq8PZjNMBixyCjvyU8I/o/
g/+7hyU0qGIGxL9ylzRHj6OmRZzpH6hsN8jHm97hK69sGHHclCmU2sJS0usl13WC
RDHAfy1WJsszUV3X97MmDUg5FMxpPI8t+v2RpoILn7t6QMDfNRqqNgInCSnnknhr
HqXeGIFKfQUAsTU+0j/ZavMWHdb0m3ml6bcVOfhKWHHc8HJglotYssBvsLG9uzxg
+QQwTQdRNSsdB+0DmtbTgwa9E1fFwM0H+M1s45Rn24kYp7aLwcpkkv4HYqDxpTdn
x50nAaBpu3Ol+iQEtzKM3rM=
-----END CERTIFICATE-----
