Certificate:
    Data:
        Version: 3 (0x2)
        Serial Number: 9 (0x9)
        Signature Algorithm: sha256WithRSAEncryption
        Issuer: C=US, ST=California, L=Santa Clara, O=pkg5, CN=ch5.1_ta1/emailAddress=ch5.1_ta1
        Validity
            Not Before: Oct 22 10:15:07 2021 GMT
            Not After : Jul 18 10:15:07 2024 GMT
        Subject: C=US, ST=California, L=Santa Clara, O=pkg5, CN=cs1_ch5.1_ta1/emailAddress=cs1_ch5.1_ta1
        Subject Public Key Info:
            Public Key Algorithm: rsaEncryption
                Public-Key: (2048 bit)
                Modulus:
                    00:bb:41:a2:66:9b:1f:7f:b9:e8:62:75:e4:7d:4d:
                    8b:2d:68:cc:7e:ed:21:25:a1:6f:9c:f7:a3:66:fe:
                    ac:7c:a8:2b:de:c8:cc:b2:e4:31:b4:04:aa:db:af:
                    bb:04:02:38:28:9b:e9:50:23:4b:37:6f:74:a2:68:
                    fd:28:fb:33:a0:96:ab:3e:08:4c:b1:66:3f:00:9b:
                    27:a5:64:69:f1:91:41:42:ee:07:17:bf:35:df:0a:
                    85:90:bc:f4:2a:f0:f2:0b:63:e2:20:a4:57:b9:09:
                    1f:04:30:90:52:6c:ef:8d:1d:b7:9f:4e:60:06:63:
                    a7:37:bf:2a:ed:cb:6f:76:6d:ce:d7:59:f4:ef:3e:
                    b4:64:fd:33:8e:84:ac:77:00:c5:da:f4:66:9e:59:
                    3a:9c:89:f5:62:b1:95:b0:35:94:b9:1b:87:a0:e7:
                    c4:82:f2:bd:91:66:a5:91:5d:f5:8a:32:33:fc:18:
                    0c:ca:31:9f:46:3b:12:ce:db:ba:42:68:1f:40:89:
                    dd:54:ec:15:5d:2f:63:cc:7c:6a:49:57:3a:92:18:
                    25:d6:96:77:ff:ed:8b:7d:51:7e:80:97:c6:97:67:
                    ec:ff:79:92:99:05:a1:5a:8d:62:14:3c:42:24:42:
                    43:ce:61:b1:e4:13:28:3c:c1:87:00:e0:cb:bd:17:
                    73:e7
                Exponent: 65537 (0x10001)
        X509v3 extensions:
            X509v3 Basic Constraints: critical
                CA:FALSE
            X509v3 Key Usage: critical
                Digital Signature
            X509v3 Subject Key Identifier: 
                8C:6B:FA:13:4B:A6:9D:D5:24:D9:E6:75:DB:4B:FB:FB:F1:82:76:19
            X509v3 Authority Key Identifier: 
                49:22:80:C3:03:88:E1:DF:61:D4:CB:2F:7B:91:84:0D:3B:9D:7A:59
    Signature Algorithm: sha256WithRSAEncryption
    Signature Value:
        55:20:56:df:f8:4f:39:42:c2:65:6f:f2:f7:5a:a1:28:53:f7:
        0a:2a:61:8c:7d:37:24:2a:49:a1:90:9f:95:ef:fa:2b:c8:80:
        d8:a2:60:da:34:0c:b2:28:67:8b:be:e0:47:18:38:8c:19:25:
        cd:13:37:80:9f:9a:55:84:85:f7:32:bc:86:24:67:8c:9f:af:
        dc:63:2f:9e:98:fe:97:4b:a8:b0:71:bd:2e:ce:ab:4c:11:05:
        d9:8d:97:be:fd:56:7c:bb:85:89:31:22:b0:78:45:bd:9b:f6:
        c8:88:ee:9a:f0:17:63:d8:ef:48:b4:10:70:18:de:54:d9:1f:
        a7:41:03:8e:99:59:28:a0:32:4a:1b:cc:dc:9b:c1:98:52:61:
        8c:47:37:df:19:7a:4e:ba:9f:b9:25:50:37:36:a7:04:71:ef:
        d9:4c:d4:61:4c:35:93:2f:81:cb:49:65:97:79:9d:91:21:34:
        9b:8f:6b:5f:f5:db:a4:fc:1c:6a:36:ef:52:3f:e4:ec:53:4b:
        73:97:f9:9f:d3:5b:0f:d2:b4:79:3b:9e:f5:26:50:dc:94:3e:
        d9:ed:12:9c:b1:8f:0f:a2:b4:48:49:f7:7f:0c:53:87:69:bc:
        38:ea:04:0a:c9:c0:6d:84:1f:cf:7f:aa:27:64:d8:33:e3:67:
        b7:59:eb:e5
-----BEGIN CERTIFICATE-----
MIIDzTCCArWgAwIBAgIBCTANBgkqhkiG9w0BAQsFADB1MQswCQYDVQQGEwJVUzET
MBEGA1UECAwKQ2FsaWZvcm5pYTEUMBIGA1UEBwwLU2FudGEgQ2xhcmExDTALBgNV
BAoMBHBrZzUxEjAQBgNVBAMMCWNoNS4xX3RhMTEYMBYGCSqGSIb3DQEJARYJY2g1
LjFfdGExMB4XDTIxMTAyMjEwMTUwN1oXDTI0MDcxODEwMTUwN1owfTELMAkGA1UE
BhMCVVMxEzARBgNVBAgMCkNhbGlmb3JuaWExFDASBgNVBAcMC1NhbnRhIENsYXJh
MQ0wCwYDVQQKDARwa2c1MRYwFAYDVQQDDA1jczFfY2g1LjFfdGExMRwwGgYJKoZI
hvcNAQkBFg1jczFfY2g1LjFfdGExMIIBIjANBgkqhkiG9w0BAQEFAAOCAQ8AMIIB
CgKCAQEAu0GiZpsff7noYnXkfU2LLWjMfu0hJaFvnPejZv6sfKgr3sjMsuQxtASq
26+7BAI4KJvpUCNLN290omj9KPszoJarPghMsWY/AJsnpWRp8ZFBQu4HF7813wqF
kLz0KvDyC2PiIKRXuQkfBDCQUmzvjR23n05gBmOnN78q7ctvdm3O11n07z60ZP0z
joSsdwDF2vRmnlk6nIn1YrGVsDWUuRuHoOfEgvK9kWalkV31ijIz/BgMyjGfRjsS
ztu6QmgfQIndVOwVXS9jzHxqSVc6khgl1pZ3/+2LfVF+gJfGl2fs/3mSmQWhWo1i
FDxCJEJDzmGx5BMoPMGHAODLvRdz5wIDAQABo2AwXjAMBgNVHRMBAf8EAjAAMA4G
A1UdDwEB/wQEAwIHgDAdBgNVHQ4EFgQUjGv6E0umndUk2eZ120v7+/GCdhkwHwYD
VR0jBBgwFoAUSSKAwwOI4d9h1Msve5GEDTudelkwDQYJKoZIhvcNAQELBQADggEB
AFUgVt/4TzlCwmVv8vdaoShT9woqYYx9NyQqSaGQn5Xv+ivIgNiiYNo0DLIoZ4u+
4EcYOIwZJc0TN4CfmlWEhfcyvIYkZ4yfr9xjL56Y/pdLqLBxvS7Oq0wRBdmNl779
Vny7hYkxIrB4Rb2b9siI7prwF2PY70i0EHAY3lTZH6dBA46ZWSigMkobzNybwZhS
YYxHN98Zek66n7klUDc2pwRx79lM1GFMNZMvgctJZZd5nZEhNJuPa1/126T8HGo2
71I/5OxTS3OX+Z/TWw/StHk7nvUmUNyUPtntEpyxjw+itEhJ938MU4dpvDjqBArJ
wG2EH89/qidk2DPjZ7dZ6+U=
-----END CERTIFICATE-----
