Certificate:
    Data:
        Version: 3 (0x2)
        Serial Number: 32 (0x20)
        Signature Algorithm: sha256WithRSAEncryption
        Issuer: C=US, ST=California, L=Santa Clara, O=pkg5, CN=ch1.3_ta3/emailAddress=ch1.3_ta3
        Validity
            Not Before: Oct 24 21:43:10 2023 GMT
            Not After : Jul 20 21:43:10 2026 GMT
        Subject: C=US, ST=California, L=Santa Clara, O=pkg5, CN=cs1_ch1.3_ta3/emailAddress=cs1_ch1.3_ta3
        Subject Public Key Info:
            Public Key Algorithm: rsaEncryption
                Public-Key: (2048 bit)
                Modulus:
                    00:af:16:2c:7e:44:83:f0:f7:8f:e7:2c:cc:b7:a4:
                    3d:00:fe:45:7d:77:75:e4:cf:65:c0:86:50:06:a5:
                    9d:20:a0:16:0b:cf:d0:64:31:4d:89:06:7c:03:5c:
                    e0:3a:b7:b6:90:c0:b7:73:b8:0d:82:b9:ef:c5:2f:
                    f9:83:bd:82:b7:4f:48:0f:0e:6c:9c:7b:91:ab:78:
                    15:37:ba:3b:ae:ae:67:a9:06:9b:3d:b9:57:3d:3e:
                    a1:75:00:a0:ea:4a:c5:70:ad:6f:1b:44:21:d4:46:
                    23:9c:29:84:99:8a:24:b6:31:3f:40:63:42:6f:96:
                    1f:08:44:51:9f:24:f4:21:c6:8e:e8:31:21:18:c1:
                    7c:21:b5:11:be:2d:c9:76:53:85:de:8f:8e:4b:f6:
                    67:56:85:e4:0a:85:63:75:70:6c:a4:6d:75:a2:d7:
                    89:b5:c4:04:f0:30:4a:be:31:1c:2b:94:3a:e1:de:
                    76:97:c0:ac:98:ee:4d:99:9c:51:2c:40:1a:3b:b3:
                    1a:93:65:b9:1d:ff:ff:a5:0f:cb:b3:6e:97:9a:5e:
                    ab:02:b9:b1:06:c9:1a:9c:4d:29:ce:51:42:d2:38:
                    ca:22:58:e2:8a:f4:a0:7e:1c:06:d9:72:ab:27:3c:
                    ac:47:0a:64:65:30:e3:ec:be:e4:e8:b7:43:be:34:
                    64:37
                Exponent: 65537 (0x10001)
        X509v3 extensions:
            X509v3 Basic Constraints: critical
                CA:FALSE
            X509v3 Key Usage: critical
                Digital Signature
            X509v3 Subject Key Identifier: 
                ED:F3:08:C4:D6:D0:69:70:5E:76:32:65:C5:EF:A4:AA:62:D8:38:F1
            X509v3 Authority Key Identifier: 
                DF:0E:59:29:41:4F:58:D9:FC:B0:E8:B1:DD:88:F4:89:FF:0A:D1:D4
    Signature Algorithm: sha256WithRSAEncryption
    Signature Value:
        1d:b9:1e:70:ae:9b:99:85:46:73:82:5f:d2:65:b8:8a:28:e0:
        ce:bb:22:49:f0:5b:1a:74:f6:b2:13:2a:d4:f7:25:8d:c5:ca:
        73:48:3c:e3:bd:c5:33:4b:16:8d:9e:b7:3d:78:9f:98:ba:67:
        34:33:82:01:12:e9:27:5f:f0:f9:1a:dc:34:ba:98:98:be:a6:
        3c:a9:1c:85:c6:0e:95:84:86:dc:ff:fe:bd:da:91:66:5d:6e:
        56:56:5d:d8:80:4e:65:92:d6:be:6f:fe:5b:a0:1b:9d:79:60:
        79:39:ef:f2:d4:40:b6:a1:2e:b2:10:21:50:47:1b:e2:87:8d:
        15:6f:8b:c3:86:48:0a:2b:bf:0b:de:41:26:97:67:80:87:2e:
        8a:42:15:27:58:46:3d:69:81:97:47:ef:71:14:5e:6b:44:c5:
        78:88:bd:eb:f3:be:a0:c7:fd:30:50:cc:87:62:c0:39:66:20:
        bf:97:cd:4e:13:b5:4c:94:c5:6b:6c:b0:31:75:9f:fe:c3:94:
        97:03:17:ee:a3:7a:4c:96:93:6a:17:ec:4e:c8:a3:b6:32:cc:
        9a:f0:15:9e:ad:2f:e6:a7:34:3a:c0:55:93:72:e4:86:aa:16:
        b5:ca:ba:d4:99:cb:09:d7:aa:1f:fe:93:58:8b:02:f6:db:05:
        cf:31:c6:81
-----BEGIN CERTIFICATE-----
MIIDzTCCArWgAwIBAgIBIDANBgkqhkiG9w0BAQsFADB1MQswCQYDVQQGEwJVUzET
MBEGA1UECAwKQ2FsaWZvcm5pYTEUMBIGA1UEBwwLU2FudGEgQ2xhcmExDTALBgNV
BAoMBHBrZzUxEjAQBgNVBAMMCWNoMS4zX3RhMzEYMBYGCSqGSIb3DQEJARYJY2gx
LjNfdGEzMB4XDTIzMTAyNDIxNDMxMFoXDTI2MDcyMDIxNDMxMFowfTELMAkGA1UE
BhMCVVMxEzARBgNVBAgMCkNhbGlmb3JuaWExFDASBgNVBAcMC1NhbnRhIENsYXJh
MQ0wCwYDVQQKDARwa2c1MRYwFAYDVQQDDA1jczFfY2gxLjNfdGEzMRwwGgYJKoZI
hvcNAQkBFg1jczFfY2gxLjNfdGEzMIIBIjANBgkqhkiG9w0BAQEFAAOCAQ8AMIIB
CgKCAQEArxYsfkSD8PeP5yzMt6Q9AP5FfXd15M9lwIZQBqWdIKAWC8/QZDFNiQZ8
A1zgOre2kMC3c7gNgrnvxS/5g72Ct09IDw5snHuRq3gVN7o7rq5nqQabPblXPT6h
dQCg6krFcK1vG0Qh1EYjnCmEmYoktjE/QGNCb5YfCERRnyT0IcaO6DEhGMF8IbUR
vi3JdlOF3o+OS/ZnVoXkCoVjdXBspG11oteJtcQE8DBKvjEcK5Q64d52l8CsmO5N
mZxRLEAaO7Mak2W5Hf//pQ/Ls26Xml6rArmxBskanE0pzlFC0jjKIljiivSgfhwG
2XKrJzysRwpkZTDj7L7k6LdDvjRkNwIDAQABo2AwXjAMBgNVHRMBAf8EAjAAMA4G
A1UdDwEB/wQEAwIHgDAdBgNVHQ4EFgQU7fMIxNbQaXBedjJlxe+kqmLYOPEwHwYD
VR0jBBgwFoAU3w5ZKUFPWNn8sOix3Yj0if8K0dQwDQYJKoZIhvcNAQELBQADggEB
AB25HnCum5mFRnOCX9JluIoo4M67IknwWxp09rITKtT3JY3FynNIPOO9xTNLFo2e
tz14n5i6ZzQzggES6Sdf8Pka3DS6mJi+pjypHIXGDpWEhtz//r3akWZdblZWXdiA
TmWS1r5v/lugG515YHk57/LUQLahLrIQIVBHG+KHjRVvi8OGSAorvwveQSaXZ4CH
LopCFSdYRj1pgZdH73EUXmtExXiIvevzvqDH/TBQzIdiwDlmIL+XzU4TtUyUxWts
sDF1n/7DlJcDF+6jekyWk2oX7E7Io7YyzJrwFZ6tL+anNDrAVZNy5IaqFrXKutSZ
ywnXqh/+k1iLAvbbBc8xxoE=
-----END CERTIFICATE-----
