Certificate:
    Data:
        Version: 3 (0x2)
        Serial Number: 47 (0x2f)
        Signature Algorithm: sha256WithRSAEncryption
        Issuer: C=US, ST=California, L=Santa Clara, O=pkg5, OU=ta10, CN=localhost/emailAddress=ta10
        Validity
            Not Before: Nov 17 23:01:35 2020 GMT
            Not After : Aug 14 23:01:35 2023 GMT
        Subject: C=US, ST=California, L=Santa Clara, O=pkg5, OU=cs1_ta10, CN=localhost/emailAddress=cs1_ta10
        Subject Public Key Info:
            Public Key Algorithm: rsaEncryption
                RSA Public-Key: (1024 bit)
                Modulus:
                    00:b9:c8:7a:8c:5f:06:28:da:e6:83:01:ff:8d:46:
                    40:40:3f:46:7c:94:a6:c6:bd:b5:0e:9a:83:97:e8:
                    22:58:5e:3b:10:a1:30:93:c6:a7:f1:43:9c:3c:8a:
                    8e:a4:73:9e:04:70:cd:58:90:6f:68:01:e5:25:97:
                    90:fe:21:90:35:51:76:ae:7e:5c:e6:45:22:4e:50:
                    da:79:12:3d:81:68:e6:2d:38:97:15:cf:6b:9f:9e:
                    7a:be:7d:88:98:63:1e:f8:3f:e5:19:1f:3e:d0:ce:
                    5c:62:0d:21:26:17:83:60:c2:16:d2:19:8f:1d:8b:
                    16:3c:6e:a7:5d:54:15:65:2d
                Exponent: 65537 (0x10001)
        X509v3 extensions:
            X509v3 Basic Constraints: critical
                CA:FALSE
            X509v3 Key Usage: critical
                Digital Signature
    Signature Algorithm: sha256WithRSAEncryption
         43:a4:58:cd:1c:dc:99:c6:74:e2:14:5a:87:a9:4a:0d:46:9b:
         9f:1f:62:33:fb:cc:60:3e:ca:ec:d9:ae:55:9c:3a:55:4b:59:
         42:34:a7:9b:43:f0:35:1c:95:de:46:81:9d:4a:98:e1:82:33:
         86:19:fc:3e:99:6f:03:f5:e8:c4:ea:d6:7a:44:e5:b0:ca:af:
         64:0a:3f:4a:81:66:db:30:6b:30:53:b3:fa:c6:bd:a1:68:70:
         3d:e7:3a:61:78:48:62:eb:a9:67:c2:79:59:61:88:fe:b2:75:
         48:84:1d:a2:ce:60:64:87:25:84:31:1a:57:73:bb:b9:e0:4f:
         39:2c:75:de:28:dc:95:cf:c4:8a:97:d1:f0:12:da:bd:fb:e5:
         2e:02:89:98:34:5e:fa:f9:55:0e:e3:10:b4:4f:7c:26:f7:43:
         cc:16:6e:1b:6a:44:c5:59:1c:85:97:85:75:48:ff:c2:88:0d:
         06:60:35:0e:68:e8:8f:37:1d:b8:fa:2f:d1:f4:2b:cf:92:0f:
         08:ff:af:5a:2b:7f:18:57:a1:65:ba:cd:6d:2f:4d:dc:af:26:
         0e:9e:42:ca:aa:7f:55:17:9e:a7:aa:2a:06:55:49:bf:af:43:
         41:06:7f:36:f6:29:a5:8d:4b:a9:b9:7a:5d:4e:ce:95:84:ec:
         33:8b:23:2b
-----BEGIN CERTIFICATE-----
MIIDHjCCAgagAwIBAgIBLzANBgkqhkiG9w0BAQsFADB/MQswCQYDVQQGEwJVUzET
MBEGA1UECAwKQ2FsaWZvcm5pYTEUMBIGA1UEBwwLU2FudGEgQ2xhcmExDTALBgNV
BAoMBHBrZzUxDTALBgNVBAsMBHRhMTAxEjAQBgNVBAMMCWxvY2FsaG9zdDETMBEG
CSqGSIb3DQEJARYEdGExMDAeFw0yMDExMTcyMzAxMzVaFw0yMzA4MTQyMzAxMzVa
MIGHMQswCQYDVQQGEwJVUzETMBEGA1UECAwKQ2FsaWZvcm5pYTEUMBIGA1UEBwwL
U2FudGEgQ2xhcmExDTALBgNVBAoMBHBrZzUxETAPBgNVBAsMCGNzMV90YTEwMRIw
EAYDVQQDDAlsb2NhbGhvc3QxFzAVBgkqhkiG9w0BCQEWCGNzMV90YTEwMIGfMA0G
CSqGSIb3DQEBAQUAA4GNADCBiQKBgQC5yHqMXwYo2uaDAf+NRkBAP0Z8lKbGvbUO
moOX6CJYXjsQoTCTxqfxQ5w8io6kc54EcM1YkG9oAeUll5D+IZA1UXauflzmRSJO
UNp5Ej2BaOYtOJcVz2ufnnq+fYiYYx74P+UZHz7QzlxiDSEmF4NgwhbSGY8dixY8
bqddVBVlLQIDAQABoyAwHjAMBgNVHRMBAf8EAjAAMA4GA1UdDwEB/wQEAwIHgDAN
BgkqhkiG9w0BAQsFAAOCAQEAQ6RYzRzcmcZ04hRah6lKDUabnx9iM/vMYD7K7Nmu
VZw6VUtZQjSnm0PwNRyV3kaBnUqY4YIzhhn8PplvA/XoxOrWekTlsMqvZAo/SoFm
2zBrMFOz+sa9oWhwPec6YXhIYuupZ8J5WWGI/rJ1SIQdos5gZIclhDEaV3O7ueBP
OSx13ijclc/EipfR8BLavfvlLgKJmDRe+vlVDuMQtE98JvdDzBZuG2pExVkchZeF
dUj/wogNBmA1DmjojzcduPov0fQrz5IPCP+vWit/GFehZbrNbS9N3K8mDp5Cyqp/
VReep6oqBlVJv69DQQZ/NvYppY1Lqbl6XU7OlYTsM4sjKw==
-----END CERTIFICATE-----
