Certificate:
    Data:
        Version: 3 (0x2)
        Serial Number: 6 (0x6)
        Signature Algorithm: sha256WithRSAEncryption
        Issuer: C=US, ST=California, L=Santa Clara, O=pkg5, CN=ch5_ta1/emailAddress=ch5_ta1
        Validity
            Not Before: Dec 15 15:37:16 2022 GMT
            Not After : Sep 10 15:37:16 2025 GMT
        Subject: C=US, ST=California, L=Santa Clara, O=pkg5, CN=cs1_ch5_ta1/emailAddress=cs1_ch5_ta1
        Subject Public Key Info:
            Public Key Algorithm: rsaEncryption
                Public-Key: (2048 bit)
                Modulus:
                    00:cf:28:39:c8:55:bd:f0:bf:99:d2:57:76:c1:07:
                    07:f6:f1:b0:f0:98:7c:d3:65:c2:f4:7c:cc:ef:ef:
                    63:33:3b:20:29:48:11:56:19:08:2c:f8:e4:29:e7:
                    1e:6c:0a:48:76:8f:4d:6e:67:ea:69:6f:4c:8d:7c:
                    d2:fc:7f:28:8b:bc:64:21:1e:f2:1c:00:e8:c3:42:
                    9b:8c:4e:ae:d1:41:c0:a5:1e:bb:35:0e:46:22:6f:
                    7e:f9:d8:68:5b:23:3f:2c:58:0e:9c:08:30:fe:ca:
                    0f:bc:df:11:b3:69:88:d1:a7:a6:f3:e1:d9:cc:01:
                    7d:c3:91:9c:ed:83:a8:62:42:c6:82:b5:44:e0:c4:
                    3d:b2:47:e5:0a:43:04:fe:ac:93:4e:ec:a5:48:d1:
                    ab:3a:64:a5:3f:2d:34:b1:d8:2f:8b:3b:8b:5a:3c:
                    05:d4:62:a7:8f:cb:53:a3:77:5f:fa:d4:d7:40:ec:
                    e1:60:e6:2e:69:7d:84:84:73:ad:25:77:00:74:f8:
                    c3:f5:7f:81:91:84:aa:d3:10:ef:ce:ca:08:f9:8e:
                    9e:54:65:81:7d:f1:01:a0:7a:b5:7c:75:64:ca:93:
                    b2:2e:d2:42:05:66:13:6f:32:e4:59:2f:a4:01:3d:
                    5d:45:3a:ac:cb:93:dd:2a:ee:1a:98:76:fa:6a:43:
                    20:f1
                Exponent: 65537 (0x10001)
        X509v3 extensions:
            X509v3 Basic Constraints: critical
                CA:FALSE
            X509v3 Key Usage: critical
                Digital Signature
            X509v3 Subject Key Identifier: 
                C9:47:C2:AC:36:1A:9C:0F:14:FD:6E:DA:EB:77:27:E9:B7:F2:2F:38
            X509v3 Authority Key Identifier: 
                26:20:3F:64:E7:2E:7B:75:2C:EF:65:DF:05:65:D1:DB:BF:FE:B7:65
    Signature Algorithm: sha256WithRSAEncryption
    Signature Value:
        31:f0:2c:fe:ff:b0:83:74:57:18:84:b6:09:aa:ec:75:11:9e:
        42:72:a0:ed:35:51:f9:5a:49:1e:a0:93:5f:a7:53:ff:97:13:
        1e:95:00:62:b7:39:41:67:f0:52:d4:17:a3:be:66:31:7b:36:
        1c:8f:a2:05:79:6e:fb:31:ba:08:72:88:2c:a4:ea:90:d5:cb:
        ce:2a:f0:fb:6b:e8:0f:a3:db:32:ea:f5:c4:da:9d:1c:c0:b3:
        f1:a8:5b:df:02:7d:04:0c:a5:9f:58:53:e0:b1:1d:2d:c7:1f:
        94:66:26:1a:42:64:68:7a:5c:4f:33:81:dc:ec:84:76:87:92:
        22:de:55:0c:f3:71:be:0f:55:c6:f9:05:3e:56:db:b0:b7:9e:
        aa:2a:95:fe:56:d7:d2:d2:a1:8d:c0:82:40:e3:5f:76:bf:ff:
        fe:15:b7:62:6e:6f:cd:96:50:ef:20:d7:18:45:78:03:aa:11:
        9b:bb:36:9f:45:05:41:dc:93:cc:2d:1b:1c:e6:e7:a0:a0:86:
        c0:ce:6b:7c:1a:fa:07:bc:6a:c0:af:02:5b:a2:7a:a4:1c:a1:
        f2:c1:0f:40:10:df:8c:94:07:3e:ae:a3:7f:5a:29:da:b1:60:
        0f:fa:0d:62:90:f8:76:56:5e:52:15:44:6f:b4:da:61:01:8a:
        51:da:9f:93
-----BEGIN CERTIFICATE-----
MIIDxTCCAq2gAwIBAgIBBjANBgkqhkiG9w0BAQsFADBxMQswCQYDVQQGEwJVUzET
MBEGA1UECAwKQ2FsaWZvcm5pYTEUMBIGA1UEBwwLU2FudGEgQ2xhcmExDTALBgNV
BAoMBHBrZzUxEDAOBgNVBAMMB2NoNV90YTExFjAUBgkqhkiG9w0BCQEWB2NoNV90
YTEwHhcNMjIxMjE1MTUzNzE2WhcNMjUwOTEwMTUzNzE2WjB5MQswCQYDVQQGEwJV
UzETMBEGA1UECAwKQ2FsaWZvcm5pYTEUMBIGA1UEBwwLU2FudGEgQ2xhcmExDTAL
BgNVBAoMBHBrZzUxFDASBgNVBAMMC2NzMV9jaDVfdGExMRowGAYJKoZIhvcNAQkB
FgtjczFfY2g1X3RhMTCCASIwDQYJKoZIhvcNAQEBBQADggEPADCCAQoCggEBAM8o
OchVvfC/mdJXdsEHB/bxsPCYfNNlwvR8zO/vYzM7IClIEVYZCCz45CnnHmwKSHaP
TW5n6mlvTI180vx/KIu8ZCEe8hwA6MNCm4xOrtFBwKUeuzUORiJvfvnYaFsjPyxY
DpwIMP7KD7zfEbNpiNGnpvPh2cwBfcORnO2DqGJCxoK1RODEPbJH5QpDBP6sk07s
pUjRqzpkpT8tNLHYL4s7i1o8BdRip4/LU6N3X/rU10Ds4WDmLml9hIRzrSV3AHT4
w/V/gZGEqtMQ787KCPmOnlRlgX3xAaB6tXx1ZMqTsi7SQgVmE28y5FkvpAE9XUU6
rMuT3SruGph2+mpDIPECAwEAAaNgMF4wDAYDVR0TAQH/BAIwADAOBgNVHQ8BAf8E
BAMCB4AwHQYDVR0OBBYEFMlHwqw2GpwPFP1u2ut3J+m38i84MB8GA1UdIwQYMBaA
FCYgP2TnLnt1LO9l3wVl0du//rdlMA0GCSqGSIb3DQEBCwUAA4IBAQAx8Cz+/7CD
dFcYhLYJqux1EZ5CcqDtNVH5WkkeoJNfp1P/lxMelQBitzlBZ/BS1BejvmYxezYc
j6IFeW77MboIcogspOqQ1cvOKvD7a+gPo9sy6vXE2p0cwLPxqFvfAn0EDKWfWFPg
sR0txx+UZiYaQmRoelxPM4Hc7IR2h5Ii3lUM83G+D1XG+QU+Vtuwt56qKpX+VtfS
0qGNwIJA4192v//+Fbdibm/NllDvINcYRXgDqhGbuzafRQVB3JPMLRsc5uegoIbA
zmt8GvoHvGrArwJbonqkHKHywQ9AEN+MlAc+rqN/WinasWAP+g1ikPh2Vl5SFURv
tNphAYpR2p+T
-----END CERTIFICATE-----
