Certificate:
    Data:
        Version: 3 (0x2)
        Serial Number: 30 (0x1e)
        Signature Algorithm: sha256WithRSAEncryption
        Issuer: C=US, ST=California, L=Santa Clara, O=pkg5, CN=ch1.2_ta3/emailAddress=ch1.2_ta3
        Validity
            Not Before: May 23 15:47:19 2024 GMT
            Not After : Feb 17 15:47:19 2027 GMT
        Subject: C=US, ST=California, L=Santa Clara, O=pkg5, CN=cs1_ch1.2_ta3/emailAddress=cs1_ch1.2_ta3
        Subject Public Key Info:
            Public Key Algorithm: rsaEncryption
                Public-Key: (2048 bit)
                Modulus:
                    00:e0:0a:0e:29:fa:22:58:74:30:df:a1:1c:32:1c:
                    89:94:f0:fe:6d:88:70:8f:95:87:4a:79:8b:c9:a0:
                    7c:bd:f3:63:02:63:e5:b7:3c:65:9e:ef:75:2c:a3:
                    60:0a:d2:7a:4c:9f:9b:2b:03:f9:c7:41:6b:b5:f7:
                    c6:0e:0f:e0:72:08:b0:58:7b:05:35:1a:b5:ff:2d:
                    5f:ff:98:f3:d0:cf:d6:b3:56:bf:e6:e8:6c:25:9b:
                    55:f2:b1:9b:f4:86:83:4a:c0:2a:6d:b7:6f:42:38:
                    a9:3f:45:dd:86:d0:ff:c2:6a:e9:2d:99:22:2f:69:
                    1d:cd:a8:bb:2f:39:69:c9:35:eb:0e:80:03:f5:d6:
                    9b:e0:8e:08:dd:fb:72:96:53:e1:4b:80:79:29:a5:
                    45:fc:6b:7f:d3:8b:4e:83:2c:06:71:a0:0b:db:9e:
                    64:0e:23:09:77:1a:da:6f:45:63:8b:f4:6e:c5:6f:
                    26:1d:9b:2c:d0:be:5b:d6:82:75:9c:ac:69:af:09:
                    73:ca:c8:18:f4:df:9c:91:ee:ae:11:5c:6a:71:5c:
                    51:30:b2:29:98:26:3e:e6:5c:d4:a8:bb:0c:16:52:
                    d0:e1:e6:62:94:51:fa:0c:aa:6d:9b:6d:39:3c:2b:
                    47:2a:42:04:41:50:94:f4:17:be:18:fa:a9:52:91:
                    7d:39
                Exponent: 65537 (0x10001)
        X509v3 extensions:
            X509v3 Basic Constraints: critical
                CA:FALSE
            X509v3 Key Usage: critical
                Digital Signature
            X509v3 Subject Key Identifier: 
                D8:17:AD:71:FB:5B:73:59:51:B9:1D:13:13:34:17:AA:6E:76:A7:3F
            X509v3 Authority Key Identifier: 
                08:9D:DD:3E:58:16:67:39:05:3C:9A:9E:24:B1:B5:39:F1:3C:2C:4E
    Signature Algorithm: sha256WithRSAEncryption
    Signature Value:
        4c:b3:38:75:cd:0e:72:00:f7:1a:5b:74:d9:ef:a8:cb:42:09:
        32:6f:c0:e4:2b:cf:21:93:6b:da:48:1e:4e:eb:45:77:7c:f0:
        e3:d5:3c:a4:85:50:28:9a:70:29:ac:b8:7b:3a:f8:69:1c:ab:
        be:2a:7a:1d:c5:64:12:0e:12:af:6d:f2:93:97:ba:75:c8:4b:
        22:9c:cc:65:34:12:23:b3:e6:76:d3:a5:de:4a:2d:e3:9e:4f:
        a8:bb:44:66:aa:19:d9:22:69:6a:69:9e:f3:f7:08:56:c1:3b:
        8d:64:35:59:72:ca:e9:da:0e:94:48:68:4e:03:4d:77:2e:48:
        a1:56:7d:c0:20:32:2e:85:aa:18:9a:75:cb:dc:4b:36:07:24:
        3e:b1:43:ec:3b:0a:4b:25:02:e7:46:d0:d3:31:5b:c9:a8:c5:
        7a:79:30:11:bb:1e:21:2d:1b:da:56:56:08:09:60:9a:ec:fd:
        24:36:70:fd:1a:cd:60:6c:66:be:15:4a:4f:24:cc:f2:85:df:
        5e:d3:6c:06:20:2f:ec:a5:e9:50:4d:e9:74:17:d7:2a:3c:1d:
        ec:a8:5d:f1:66:27:ca:3c:49:66:87:a7:10:a1:7c:aa:18:4c:
        99:33:58:a9:5a:88:19:ac:16:33:7e:39:52:22:f8:d2:32:b3:
        a2:59:13:00
-----BEGIN CERTIFICATE-----
MIIDzTCCArWgAwIBAgIBHjANBgkqhkiG9w0BAQsFADB1MQswCQYDVQQGEwJVUzET
MBEGA1UECAwKQ2FsaWZvcm5pYTEUMBIGA1UEBwwLU2FudGEgQ2xhcmExDTALBgNV
BAoMBHBrZzUxEjAQBgNVBAMMCWNoMS4yX3RhMzEYMBYGCSqGSIb3DQEJARYJY2gx
LjJfdGEzMB4XDTI0MDUyMzE1NDcxOVoXDTI3MDIxNzE1NDcxOVowfTELMAkGA1UE
BhMCVVMxEzARBgNVBAgMCkNhbGlmb3JuaWExFDASBgNVBAcMC1NhbnRhIENsYXJh
MQ0wCwYDVQQKDARwa2c1MRYwFAYDVQQDDA1jczFfY2gxLjJfdGEzMRwwGgYJKoZI
hvcNAQkBFg1jczFfY2gxLjJfdGEzMIIBIjANBgkqhkiG9w0BAQEFAAOCAQ8AMIIB
CgKCAQEA4AoOKfoiWHQw36EcMhyJlPD+bYhwj5WHSnmLyaB8vfNjAmPltzxlnu91
LKNgCtJ6TJ+bKwP5x0FrtffGDg/gcgiwWHsFNRq1/y1f/5jz0M/Ws1a/5uhsJZtV
8rGb9IaDSsAqbbdvQjipP0XdhtD/wmrpLZkiL2kdzai7LzlpyTXrDoAD9dab4I4I
3ftyllPhS4B5KaVF/Gt/04tOgywGcaAL255kDiMJdxrab0Vji/RuxW8mHZss0L5b
1oJ1nKxprwlzysgY9N+cke6uEVxqcVxRMLIpmCY+5lzUqLsMFlLQ4eZilFH6DKpt
m205PCtHKkIEQVCU9Be+GPqpUpF9OQIDAQABo2AwXjAMBgNVHRMBAf8EAjAAMA4G
A1UdDwEB/wQEAwIHgDAdBgNVHQ4EFgQU2Betcftbc1lRuR0TEzQXqm52pz8wHwYD
VR0jBBgwFoAUCJ3dPlgWZzkFPJqeJLG1OfE8LE4wDQYJKoZIhvcNAQELBQADggEB
AEyzOHXNDnIA9xpbdNnvqMtCCTJvwOQrzyGTa9pIHk7rRXd88OPVPKSFUCiacCms
uHs6+Gkcq74qeh3FZBIOEq9t8pOXunXISyKczGU0EiOz5nbTpd5KLeOeT6i7RGaq
GdkiaWppnvP3CFbBO41kNVlyyunaDpRIaE4DTXcuSKFWfcAgMi6FqhiadcvcSzYH
JD6xQ+w7CkslAudG0NMxW8moxXp5MBG7HiEtG9pWVggJYJrs/SQ2cP0azWBsZr4V
Sk8kzPKF317TbAYgL+yl6VBN6XQX1yo8HeyoXfFmJ8o8SWaHpxChfKoYTJkzWKla
iBmsFjN+OVIi+NIys6JZEwA=
-----END CERTIFICATE-----
