Certificate:
    Data:
        Version: 3 (0x2)
        Serial Number: 46 (0x2e)
    Signature Algorithm: sha256WithRSAEncryption
        Issuer: C=US, ST=California, L=Santa Clara, O=pkg5, OU=ta10, CN=localhost/emailAddress=ta10
        Validity
            Not Before: Nov 28 22:50:59 2016 GMT
            Not After : Aug 25 22:50:59 2019 GMT
        Subject: C=US, ST=California, L=Santa Clara, O=pkg5, OU=cs1_ta10, CN=localhost/emailAddress=cs1_ta10
        Subject Public Key Info:
            Public Key Algorithm: rsaEncryption
                Public-Key: (1024 bit)
                Modulus:
                    00:a6:86:61:75:a0:ab:ac:f1:9a:64:ac:ea:74:1c:
                    51:67:d3:8c:f4:4b:04:4d:3e:4d:f1:5b:49:11:44:
                    c2:28:b9:5c:59:4d:d1:36:c6:79:dc:74:05:6a:db:
                    46:c4:3e:ad:d0:7a:c1:cf:ac:96:44:2b:07:5d:30:
                    66:a7:31:21:93:42:90:b7:99:d4:e5:3c:e7:5e:12:
                    40:62:bf:8e:19:f0:51:df:bd:d9:2a:2d:09:52:4f:
                    c9:cd:03:b6:f9:1b:5d:64:20:5b:81:5f:09:a9:ea:
                    75:f0:fa:d2:37:57:64:3e:fb:64:91:67:12:f0:98:
                    b7:92:cc:37:94:d8:f8:cf:cb
                Exponent: 65537 (0x10001)
        X509v3 extensions:
            X509v3 Basic Constraints: critical
                CA:FALSE
            X509v3 Key Usage: critical
                Digital Signature
    Signature Algorithm: sha256WithRSAEncryption
         77:a1:48:32:04:3d:24:d2:ef:23:c2:7c:26:91:30:a2:cd:85:
         f2:2a:53:dc:0c:b3:44:dc:d1:f3:bb:41:67:a5:fb:08:1f:80:
         ed:31:87:9d:6d:f2:29:b0:b2:ea:a1:04:58:da:36:a3:2d:fb:
         bf:89:55:3e:f3:10:92:15:bb:68:f8:05:b2:ed:6e:34:b5:ff:
         26:dd:12:61:2f:db:8d:e0:ab:6f:17:dd:4a:5c:b6:f9:f5:14:
         09:e5:e4:90:9b:41:77:80:66:69:0e:49:1f:3f:42:ae:d4:2d:
         13:98:dc:11:33:21:2e:84:00:48:9d:68:df:e8:64:59:0a:8d:
         3f:31:08:da:9d:d9:9f:ba:f1:34:c6:49:5b:d6:0e:c5:3a:9e:
         c1:a0:90:59:ba:1e:8a:87:09:57:1a:52:75:b4:cd:85:25:fe:
         53:c5:5d:72:81:4a:94:eb:98:24:6b:5f:36:f2:55:1a:26:9b:
         a3:44:82:b6:d8:d0:2c:20:d0:46:fb:23:cd:84:23:a4:17:73:
         28:c5:4e:d4:3e:76:ab:ca:d6:b9:80:af:71:fa:c2:22:9d:76:
         42:64:ae:e1:df:4e:a8:92:a1:d5:34:46:d2:9d:9d:41:50:ca:
         62:ac:e6:c7:15:14:0f:9e:97:2c:49:23:35:8a:69:e4:0c:9d:
         b9:21:55:be
-----BEGIN CERTIFICATE-----
MIIDHjCCAgagAwIBAgIBLjANBgkqhkiG9w0BAQsFADB/MQswCQYDVQQGEwJVUzET
MBEGA1UECAwKQ2FsaWZvcm5pYTEUMBIGA1UEBwwLU2FudGEgQ2xhcmExDTALBgNV
BAoMBHBrZzUxDTALBgNVBAsMBHRhMTAxEjAQBgNVBAMMCWxvY2FsaG9zdDETMBEG
CSqGSIb3DQEJARYEdGExMDAeFw0xNjExMjgyMjUwNTlaFw0xOTA4MjUyMjUwNTla
MIGHMQswCQYDVQQGEwJVUzETMBEGA1UECAwKQ2FsaWZvcm5pYTEUMBIGA1UEBwwL
U2FudGEgQ2xhcmExDTALBgNVBAoMBHBrZzUxETAPBgNVBAsMCGNzMV90YTEwMRIw
EAYDVQQDDAlsb2NhbGhvc3QxFzAVBgkqhkiG9w0BCQEWCGNzMV90YTEwMIGfMA0G
CSqGSIb3DQEBAQUAA4GNADCBiQKBgQCmhmF1oKus8ZpkrOp0HFFn04z0SwRNPk3x
W0kRRMIouVxZTdE2xnncdAVq20bEPq3QesHPrJZEKwddMGanMSGTQpC3mdTlPOde
EkBiv44Z8FHfvdkqLQlST8nNA7b5G11kIFuBXwmp6nXw+tI3V2Q++2SRZxLwmLeS
zDeU2PjPywIDAQABoyAwHjAMBgNVHRMBAf8EAjAAMA4GA1UdDwEB/wQEAwIHgDAN
BgkqhkiG9w0BAQsFAAOCAQEAd6FIMgQ9JNLvI8J8JpEwos2F8ipT3AyzRNzR87tB
Z6X7CB+A7TGHnW3yKbCy6qEEWNo2oy37v4lVPvMQkhW7aPgFsu1uNLX/Jt0SYS/b
jeCrbxfdSly2+fUUCeXkkJtBd4BmaQ5JHz9CrtQtE5jcETMhLoQASJ1o3+hkWQqN
PzEI2p3Zn7rxNMZJW9YOxTqewaCQWboeiocJVxpSdbTNhSX+U8VdcoFKlOuYJGtf
NvJVGiabo0SCttjQLCDQRvsjzYQjpBdzKMVO1D52q8rWuYCvcfrCIp12QmSu4d9O
qJKh1TRG0p2dQVDKYqzmxxUUD56XLEkjNYpp5AyduSFVvg==
-----END CERTIFICATE-----
