Certificate:
    Data:
        Version: 3 (0x2)
        Serial Number: 11 (0xb)
        Signature Algorithm: sha256WithRSAEncryption
        Issuer: C=US, ST=California, L=Santa Clara, O=pkg5, CN=ch5.2_ta1/emailAddress=ch5.2_ta1
        Validity
            Not Before: Oct 24 21:43:02 2023 GMT
            Not After : Jul 20 21:43:02 2026 GMT
        Subject: C=US, ST=California, L=Santa Clara, O=pkg5, CN=cs1_ch5.2_ta1/emailAddress=cs1_ch5.2_ta1
        Subject Public Key Info:
            Public Key Algorithm: rsaEncryption
                Public-Key: (2048 bit)
                Modulus:
                    00:bd:d6:bf:01:c5:ec:71:cd:c9:12:4e:fb:0d:e2:
                    06:4a:e6:a9:7b:f7:8c:07:a1:e3:95:d7:e2:32:5e:
                    2d:16:76:5c:ca:1d:dd:46:7a:aa:c2:08:bb:a9:64:
                    68:58:ff:05:6e:a5:a4:07:b9:30:2b:2e:d0:49:ba:
                    d4:eb:ef:96:6a:35:62:90:51:59:7d:9e:bb:38:0a:
                    84:64:e6:de:d0:3b:b9:b5:6a:b9:cc:a5:8e:88:aa:
                    1d:c7:fa:e1:ee:eb:c7:b5:2b:05:ed:fa:34:8c:d0:
                    42:77:98:8f:06:67:7e:1e:de:9a:85:c3:c0:14:d2:
                    84:1c:5f:7f:62:c9:a9:02:90:0d:ce:41:50:13:42:
                    19:4c:ae:9b:51:9e:8e:f1:2b:24:97:38:43:81:1b:
                    15:09:ac:c8:d8:66:3b:54:17:c6:7c:d5:25:ae:34:
                    1a:8c:9a:d3:69:09:30:cd:1d:4a:5b:69:42:dc:37:
                    64:2d:b1:e6:03:3e:c2:c0:77:d4:0f:aa:47:87:22:
                    72:47:85:be:dd:91:31:1c:ac:74:a6:36:8a:08:96:
                    c5:ba:0d:2a:e0:51:dc:96:64:2c:1c:ae:49:6a:ba:
                    21:95:03:c5:f2:c8:fc:2b:46:e5:d7:8c:7e:ce:69:
                    13:0f:2b:1e:df:b3:3a:90:65:a4:f8:61:b3:a5:ba:
                    b8:f9
                Exponent: 65537 (0x10001)
        X509v3 extensions:
            X509v3 Basic Constraints: critical
                CA:FALSE
            X509v3 Key Usage: critical
                Digital Signature
            X509v3 Subject Key Identifier: 
                7D:21:19:6C:05:2D:2A:A1:A9:E1:F2:6D:AB:F7:7A:51:8D:54:24:0D
            X509v3 Authority Key Identifier: 
                DD:45:2E:28:EB:E3:26:2C:3E:1F:2B:61:E8:5E:0D:15:11:1D:23:05
    Signature Algorithm: sha256WithRSAEncryption
    Signature Value:
        17:3f:05:b4:04:6e:0b:09:03:01:61:2d:17:13:1a:09:a9:55:
        d1:dc:be:22:15:94:89:93:b4:cc:de:f6:27:92:96:40:75:4a:
        d2:49:39:51:d9:43:f7:62:ba:e2:a5:a7:2f:62:bf:c6:51:54:
        2e:dd:26:51:65:d3:6f:36:e5:65:0d:21:21:57:81:68:63:cb:
        11:73:6b:dd:85:f1:9c:93:5a:70:87:d1:b8:de:c7:2b:a0:c7:
        fb:8e:76:91:dc:b1:30:87:3b:90:fd:61:cc:aa:c4:df:93:d8:
        32:22:3d:bb:76:4f:05:59:05:e8:dc:84:63:ca:61:fb:d7:1b:
        d8:4b:a5:c5:88:52:8e:db:d2:a2:e4:c6:b0:28:33:2f:fb:96:
        a6:e2:d9:55:4f:70:cb:db:84:44:95:c8:8c:c6:6c:99:dc:ee:
        db:96:bf:97:1f:5e:ec:a1:55:17:9a:a9:aa:e9:46:c9:73:c0:
        b7:25:47:ee:b2:8b:72:0e:18:80:53:0d:f0:aa:11:b0:24:7d:
        a5:00:88:1d:8e:38:51:2f:c1:40:88:98:09:12:0d:12:84:0b:
        70:ff:2a:c5:80:0c:7d:62:f1:fa:ed:b4:39:92:c1:88:a2:76:
        b0:84:2e:d9:ed:2c:a9:4d:52:d4:d5:c7:47:30:71:83:5c:63:
        6c:69:50:7a
-----BEGIN CERTIFICATE-----
MIIDzTCCArWgAwIBAgIBCzANBgkqhkiG9w0BAQsFADB1MQswCQYDVQQGEwJVUzET
MBEGA1UECAwKQ2FsaWZvcm5pYTEUMBIGA1UEBwwLU2FudGEgQ2xhcmExDTALBgNV
BAoMBHBrZzUxEjAQBgNVBAMMCWNoNS4yX3RhMTEYMBYGCSqGSIb3DQEJARYJY2g1
LjJfdGExMB4XDTIzMTAyNDIxNDMwMloXDTI2MDcyMDIxNDMwMlowfTELMAkGA1UE
BhMCVVMxEzARBgNVBAgMCkNhbGlmb3JuaWExFDASBgNVBAcMC1NhbnRhIENsYXJh
MQ0wCwYDVQQKDARwa2c1MRYwFAYDVQQDDA1jczFfY2g1LjJfdGExMRwwGgYJKoZI
hvcNAQkBFg1jczFfY2g1LjJfdGExMIIBIjANBgkqhkiG9w0BAQEFAAOCAQ8AMIIB
CgKCAQEAvda/AcXscc3JEk77DeIGSuape/eMB6HjldfiMl4tFnZcyh3dRnqqwgi7
qWRoWP8FbqWkB7kwKy7QSbrU6++WajVikFFZfZ67OAqEZObe0Du5tWq5zKWOiKod
x/rh7uvHtSsF7fo0jNBCd5iPBmd+Ht6ahcPAFNKEHF9/YsmpApANzkFQE0IZTK6b
UZ6O8SsklzhDgRsVCazI2GY7VBfGfNUlrjQajJrTaQkwzR1KW2lC3DdkLbHmAz7C
wHfUD6pHhyJyR4W+3ZExHKx0pjaKCJbFug0q4FHclmQsHK5JarohlQPF8sj8K0bl
14x+zmkTDyse37M6kGWk+GGzpbq4+QIDAQABo2AwXjAMBgNVHRMBAf8EAjAAMA4G
A1UdDwEB/wQEAwIHgDAdBgNVHQ4EFgQUfSEZbAUtKqGp4fJtq/d6UY1UJA0wHwYD
VR0jBBgwFoAU3UUuKOvjJiw+Hyth6F4NFREdIwUwDQYJKoZIhvcNAQELBQADggEB
ABc/BbQEbgsJAwFhLRcTGgmpVdHcviIVlImTtMze9ieSlkB1StJJOVHZQ/diuuKl
py9iv8ZRVC7dJlFl02825WUNISFXgWhjyxFza92F8ZyTWnCH0bjexyugx/uOdpHc
sTCHO5D9YcyqxN+T2DIiPbt2TwVZBejchGPKYfvXG9hLpcWIUo7b0qLkxrAoMy/7
lqbi2VVPcMvbhESVyIzGbJnc7tuWv5cfXuyhVReaqarpRslzwLclR+6yi3IOGIBT
DfCqEbAkfaUAiB2OOFEvwUCImAkSDRKEC3D/KsWADH1i8frttDmSwYiidrCELtnt
LKlNUtTVx0cwcYNcY2xpUHo=
-----END CERTIFICATE-----
