Certificate:
    Data:
        Version: 3 (0x2)
        Serial Number: 45 (0x2d)
    Signature Algorithm: sha256WithRSAEncryption
        Issuer: C=US, ST=California, L=Santa Clara, O=pkg5, OU=ta9, CN=localhost/emailAddress=ta9
        Validity
            Not Before: Dec  6 03:06:44 2014 GMT
            Not After : Sep  1 03:06:44 2017 GMT
        Subject: C=US, ST=California, L=Santa Clara, O=pkg5, OU=cs1_ta9, CN=localhost/emailAddress=cs1_ta9
        Subject Public Key Info:
            Public Key Algorithm: rsaEncryption
                Public-Key: (1024 bit)
                Modulus:
                    00:bd:f1:77:00:9c:75:a7:7c:25:cd:9c:6e:7d:9e:
                    3e:fc:98:f2:d7:4a:92:3a:c5:3c:d3:89:03:8f:3d:
                    63:7c:bb:4d:d8:a4:d5:05:41:bd:f0:be:b8:8b:9e:
                    ff:05:ef:a9:67:29:c2:7c:49:57:ea:00:da:88:c6:
                    e3:0d:24:11:6f:95:14:dc:99:c0:86:7e:8f:3e:d1:
                    01:d7:33:0c:0b:f2:47:61:20:8e:a6:96:ab:23:10:
                    24:b7:34:6b:c9:66:b9:c1:f4:d2:41:e1:b6:bd:36:
                    56:ca:31:85:b9:41:aa:db:c4:b5:1c:2c:ab:6b:a7:
                    f1:3c:d3:52:81:f8:75:4c:b9
                Exponent: 65537 (0x10001)
        X509v3 extensions:
            X509v3 Basic Constraints: critical
                CA:FALSE
            X509v3 Key Usage: critical
                Digital Signature
    Signature Algorithm: sha256WithRSAEncryption
         4c:ac:19:be:b4:42:e4:40:76:83:2c:e9:c7:64:53:d6:e7:cc:
         4b:a0:78:66:c4:fd:32:80:51:c3:92:af:f9:da:d3:06:60:19:
         80:98:9b:b5:c1:95:f6:fe:db:1c:3d:1f:63:9f:aa:dc:4c:50:
         88:27:ab:a1:f8:ae:08:15:68:be:de:76:f7:6f:00:48:a7:fb:
         21:b1:92:1e:78:9d:f8:e2:1b:34:d3:51:62:f5:71:d5:5f:8d:
         1c:5b:c8:00:d7:be:81:d1:70:ef:4a:a7:29:38:3b:a2:d8:60:
         71:ff:7d:9f:f9:59:6e:9d:07:cf:ed:93:92:e6:da:7a:fb:5c:
         5a:28
-----BEGIN CERTIFICATE-----
MIICmTCCAgKgAwIBAgIBLTANBgkqhkiG9w0BAQsFADB9MQswCQYDVQQGEwJVUzET
MBEGA1UECAwKQ2FsaWZvcm5pYTEUMBIGA1UEBwwLU2FudGEgQ2xhcmExDTALBgNV
BAoMBHBrZzUxDDAKBgNVBAsMA3RhOTESMBAGA1UEAwwJbG9jYWxob3N0MRIwEAYJ
KoZIhvcNAQkBFgN0YTkwHhcNMTQxMjA2MDMwNjQ0WhcNMTcwOTAxMDMwNjQ0WjCB
hTELMAkGA1UEBhMCVVMxEzARBgNVBAgMCkNhbGlmb3JuaWExFDASBgNVBAcMC1Nh
bnRhIENsYXJhMQ0wCwYDVQQKDARwa2c1MRAwDgYDVQQLDAdjczFfdGE5MRIwEAYD
VQQDDAlsb2NhbGhvc3QxFjAUBgkqhkiG9w0BCQEWB2NzMV90YTkwgZ8wDQYJKoZI
hvcNAQEBBQADgY0AMIGJAoGBAL3xdwCcdad8Jc2cbn2ePvyY8tdKkjrFPNOJA489
Y3y7Tdik1QVBvfC+uIue/wXvqWcpwnxJV+oA2ojG4w0kEW+VFNyZwIZ+jz7RAdcz
DAvyR2EgjqaWqyMQJLc0a8lmucH00kHhtr02VsoxhblBqtvEtRwsq2un8TzTUoH4
dUy5AgMBAAGjIDAeMAwGA1UdEwEB/wQCMAAwDgYDVR0PAQH/BAQDAgeAMA0GCSqG
SIb3DQEBCwUAA4GBAEysGb60QuRAdoMs6cdkU9bnzEugeGbE/TKAUcOSr/na0wZg
GYCYm7XBlfb+2xw9H2OfqtxMUIgnq6H4rggVaL7edvdvAEin+yGxkh54nfjiGzTT
UWL1cdVfjRxbyADXvoHRcO9Kpyk4O6LYYHH/fZ/5WW6dB8/tk5Lm2nr7XFoo
-----END CERTIFICATE-----
