Certificate:
    Data:
        Version: 3 (0x2)
        Serial Number: 43 (0x2b)
        Signature Algorithm: sha256WithRSAEncryption
        Issuer: C=US, ST=California, L=Santa Clara, O=pkg5, OU=ta6, CN=localhost/emailAddress=ta6
        Validity
            Not Before: Nov 14 14:26:58 2024 GMT
            Not After : Aug 11 14:26:58 2027 GMT
        Subject: C=US, ST=California, L=Santa Clara, O=pkg5, OU=cs1_ta6, CN=localhost/emailAddress=cs1_ta6
        Subject Public Key Info:
            Public Key Algorithm: rsaEncryption
                Public-Key: (2048 bit)
                Modulus:
                    00:ae:fb:c2:11:37:1c:94:5b:2f:a9:32:47:f3:d5:
                    38:e7:68:60:3d:19:e0:66:e0:c4:7f:26:7f:4f:2f:
                    f1:db:af:94:47:2b:40:6e:9d:a4:ad:9e:46:5c:91:
                    9f:53:d4:37:80:85:3d:3a:d4:8b:06:7f:33:c7:49:
                    aa:fd:c9:94:1b:38:07:96:db:7f:6a:84:f5:01:9f:
                    93:e2:18:3d:03:13:b3:55:7f:04:c5:cb:be:ca:46:
                    34:d4:3f:dd:48:25:6b:3f:fe:85:d8:e3:82:ce:82:
                    c4:b9:05:21:13:c8:10:a1:19:32:e3:d2:bd:86:1e:
                    02:a1:16:af:a1:04:05:8c:da:1a:29:c7:79:ea:88:
                    72:2f:bb:04:9f:03:6d:89:ce:d7:34:0c:31:c9:19:
                    00:03:3f:93:1d:3d:8b:7b:04:45:c9:82:e9:52:bb:
                    69:e7:e9:76:87:1a:be:90:1b:61:c9:ad:31:93:70:
                    5f:93:68:c4:d3:52:bc:29:0a:45:e6:50:6a:0f:44:
                    59:8d:11:e3:ac:08:d3:b5:7e:e3:cc:b7:02:51:f5:
                    67:72:cb:04:76:92:2e:23:ba:bc:2c:00:37:15:50:
                    43:cc:90:cc:b3:c0:eb:ea:02:be:90:12:f3:a6:f2:
                    52:be:cf:f3:05:da:1b:1b:44:5f:fd:d9:8c:75:44:
                    f9:b3
                Exponent: 65537 (0x10001)
        X509v3 extensions:
            X509v3 Basic Constraints: critical
                CA:FALSE
            X509v3 Key Usage: critical
                Digital Signature
            X509v3 Subject Key Identifier: 
                4B:B2:EC:63:B4:11:B7:69:5B:AD:8B:A7:52:BC:9A:36:10:C7:7D:C7
            X509v3 Authority Key Identifier: 
                7E:28:23:4E:6C:E7:4A:5B:C8:3E:CC:DF:9A:48:28:BE:7E:81:89:D0
    Signature Algorithm: sha256WithRSAEncryption
    Signature Value:
        ae:ca:ce:ef:c5:ef:68:b3:8b:f4:5d:ae:53:07:f0:72:8c:84:
        c4:67:5f:fc:4f:6f:df:6f:4a:cc:23:f6:7b:5f:6a:39:21:84:
        70:08:20:f3:06:ec:1a:f2:21:a1:c8:12:45:2f:85:8c:0d:a6:
        23:c2:5a:6d:25:ab:43:ad:a4:83:51:86:b5:a6:56:1b:84:7f:
        60:e3:8a:a6:b4:63:41:7f:59:de:8e:4b:e4:18:f5:d6:da:98:
        bc:2e:74:e2:d9:48:3e:e2:c7:98:6f:3f:9a:e0:a2:59:0e:4e:
        ca:c7:12:4a:f3:f0:a5:bf:e5:91:e2:0f:bd:37:a3:59:aa:87:
        a4:79:d7:55:4e:6e:ef:ac:2a:69:d0:b9:6b:e6:a1:28:69:8a:
        ab:5e:12:91:b3:58:d5:9c:20:4d:69:5c:ca:22:68:66:ac:c7:
        cc:35:1f:1f:bb:c5:87:98:99:e3:ac:0f:6f:7d:86:94:46:14:
        aa:f6:66:21:e1:0d:a2:52:fa:0b:2a:ef:b2:29:f7:36:bc:b6:
        41:37:2b:86:9f:0a:43:53:96:f0:46:0d:f0:17:6c:d2:1b:1f:
        cb:7a:b9:b2:3e:d0:c2:a9:40:33:4e:55:8e:37:42:0e:db:19:
        da:fa:fa:de:01:19:d6:70:d9:f0:48:6e:1a:3a:f9:ca:ec:41:
        cb:60:07:58
-----BEGIN CERTIFICATE-----
MIID3jCCAsagAwIBAgIBKzANBgkqhkiG9w0BAQsFADB9MQswCQYDVQQGEwJVUzET
MBEGA1UECAwKQ2FsaWZvcm5pYTEUMBIGA1UEBwwLU2FudGEgQ2xhcmExDTALBgNV
BAoMBHBrZzUxDDAKBgNVBAsMA3RhNjESMBAGA1UEAwwJbG9jYWxob3N0MRIwEAYJ
KoZIhvcNAQkBFgN0YTYwHhcNMjQxMTE0MTQyNjU4WhcNMjcwODExMTQyNjU4WjCB
hTELMAkGA1UEBhMCVVMxEzARBgNVBAgMCkNhbGlmb3JuaWExFDASBgNVBAcMC1Nh
bnRhIENsYXJhMQ0wCwYDVQQKDARwa2c1MRAwDgYDVQQLDAdjczFfdGE2MRIwEAYD
VQQDDAlsb2NhbGhvc3QxFjAUBgkqhkiG9w0BCQEWB2NzMV90YTYwggEiMA0GCSqG
SIb3DQEBAQUAA4IBDwAwggEKAoIBAQCu+8IRNxyUWy+pMkfz1TjnaGA9GeBm4MR/
Jn9PL/Hbr5RHK0BunaStnkZckZ9T1DeAhT061IsGfzPHSar9yZQbOAeW239qhPUB
n5PiGD0DE7NVfwTFy77KRjTUP91IJWs//oXY44LOgsS5BSETyBChGTLj0r2GHgKh
Fq+hBAWM2hopx3nqiHIvuwSfA22Jztc0DDHJGQADP5MdPYt7BEXJgulSu2nn6XaH
Gr6QG2HJrTGTcF+TaMTTUrwpCkXmUGoPRFmNEeOsCNO1fuPMtwJR9WdyywR2ki4j
urwsADcVUEPMkMyzwOvqAr6QEvOm8lK+z/MF2hsbRF/92Yx1RPmzAgMBAAGjYDBe
MAwGA1UdEwEB/wQCMAAwDgYDVR0PAQH/BAQDAgeAMB0GA1UdDgQWBBRLsuxjtBG3
aVuti6dSvJo2EMd9xzAfBgNVHSMEGDAWgBR+KCNObOdKW8g+zN+aSCi+foGJ0DAN
BgkqhkiG9w0BAQsFAAOCAQEArsrO78XvaLOL9F2uUwfwcoyExGdf/E9v329KzCP2
e19qOSGEcAgg8wbsGvIhocgSRS+FjA2mI8JabSWrQ62kg1GGtaZWG4R/YOOKprRj
QX9Z3o5L5Bj11tqYvC504tlIPuLHmG8/muCiWQ5OyscSSvPwpb/lkeIPvTejWaqH
pHnXVU5u76wqadC5a+ahKGmKq14SkbNY1ZwgTWlcyiJoZqzHzDUfH7vFh5iZ46wP
b32GlEYUqvZmIeENolL6Cyrvsin3Nry2QTcrhp8KQ1OW8EYN8Bds0hsfy3q5sj7Q
wqlAM05VjjdCDtsZ2vr63gEZ1nDZ8EhuGjr5yuxBy2AHWA==
-----END CERTIFICATE-----
