Certificate:
    Data:
        Version: 3 (0x2)
        Serial Number: 44 (0x2c)
        Signature Algorithm: sha256WithRSAEncryption
        Issuer: C=US, ST=California, L=Santa Clara, O=pkg5, OU=ta7, CN=localhost/emailAddress=ta7
        Validity
            Not Before: Oct 22 10:15:23 2021 GMT
            Not After : Jul 18 10:15:23 2024 GMT
        Subject: C=US, ST=California, L=Santa Clara, O=pkg5, OU=cs1_ta7, CN=localhost/emailAddress=cs1_ta7
        Subject Public Key Info:
            Public Key Algorithm: rsaEncryption
                Public-Key: (2048 bit)
                Modulus:
                    00:9f:b2:b8:71:aa:eb:0d:1e:76:21:ed:49:0c:97:
                    02:29:8d:c4:d0:c4:c2:4f:f7:1a:aa:06:d2:2a:37:
                    04:94:e6:89:8e:99:85:1f:12:25:b7:ec:4c:dc:28:
                    db:a6:44:39:b1:8e:79:f4:c0:fb:00:1a:08:2c:a6:
                    06:32:5c:56:fd:ac:25:87:a4:4a:97:90:41:d0:f4:
                    c2:75:e2:95:d5:8d:82:c7:0c:d1:c2:a8:d0:1a:73:
                    a6:67:35:80:06:a0:b8:e0:4d:b4:4e:d8:c6:eb:ec:
                    9b:a7:05:8f:ce:da:63:55:c4:35:ed:07:b2:2c:b3:
                    9b:e2:72:b3:77:3e:78:d8:c6:6d:6e:cd:28:5c:3f:
                    7c:9d:74:78:0c:ab:dc:9c:cc:ba:45:4f:59:5a:4e:
                    ac:52:04:e8:2b:d6:56:d4:b5:dd:a5:e8:ed:4d:1f:
                    8c:f0:b4:9d:4a:d3:5b:b0:a0:df:87:18:5b:3c:6d:
                    09:b2:78:ec:22:3c:56:69:9d:ec:70:31:28:cb:ca:
                    60:46:23:91:f3:6e:60:3c:5d:3c:97:33:9b:5d:74:
                    2e:76:52:8b:28:f6:1f:21:f1:23:5d:32:77:4b:0b:
                    27:47:d1:0f:bb:f2:03:28:7b:7c:ea:c8:60:28:27:
                    15:8b:0c:e5:76:73:93:c3:ab:36:15:4b:a3:cb:8b:
                    8b:1f
                Exponent: 65537 (0x10001)
        X509v3 extensions:
            X509v3 Basic Constraints: critical
                CA:FALSE
            X509v3 Key Usage: critical
                Digital Signature
            X509v3 Subject Key Identifier: 
                F8:6A:C6:3E:37:EB:3A:F9:EB:67:71:75:0A:1F:D0:46:F2:20:BE:A2
            X509v3 Authority Key Identifier: 
                37:DE:BD:2D:98:B6:EA:07:41:61:0A:E4:17:FA:6E:EF:9A:EE:96:22
    Signature Algorithm: sha256WithRSAEncryption
    Signature Value:
        0e:9a:a7:c8:1b:ee:54:cb:13:35:65:19:20:66:e3:40:8d:13:
        d5:14:2a:49:ae:f9:1e:66:c0:34:d3:84:e6:6f:96:be:1c:db:
        66:06:59:2f:ae:13:76:f6:86:64:bb:d6:3a:4b:ca:9f:e5:02:
        b5:19:9e:66:f8:13:29:71:00:8a:88:f8:25:d7:96:a2:0f:7e:
        6f:22:d1:b0:7a:7f:b3:43:d1:9a:53:e6:77:6f:ac:c0:dc:8c:
        73:e8:d9:f3:ca:26:fb:8e:09:dd:67:d7:11:6f:cd:de:d0:c7:
        d3:ce:5a:88:2f:37:99:83:8b:06:13:d1:89:da:37:f1:82:b5:
        fb:b4:b8:e7:54:50:4b:65:48:80:63:98:66:ca:da:dc:75:8f:
        94:de:dc:29:bf:a7:f8:35:6c:e1:c5:02:ff:ab:e2:11:71:ee:
        0e:ea:09:34:19:53:e7:8a:9c:42:e8:87:b1:0d:d8:59:29:cb:
        ac:ef:e6:ba:95:36:85:16:fa:89:6e:f5:0c:5f:59:25:37:80:
        e6:80:cc:88:17:83:e2:5e:0c:e7:eb:df:2c:1a:11:ef:69:ec:
        8c:08:fc:e4:dd:f9:68:b7:d2:7f:94:8c:c9:9f:90:32:bc:bb:
        99:0c:50:34:c1:38:5d:eb:c0:96:d5:52:33:0b:6f:71:b2:5b:
        43:0b:e4:36
-----BEGIN CERTIFICATE-----
MIID3jCCAsagAwIBAgIBLDANBgkqhkiG9w0BAQsFADB9MQswCQYDVQQGEwJVUzET
MBEGA1UECAwKQ2FsaWZvcm5pYTEUMBIGA1UEBwwLU2FudGEgQ2xhcmExDTALBgNV
BAoMBHBrZzUxDDAKBgNVBAsMA3RhNzESMBAGA1UEAwwJbG9jYWxob3N0MRIwEAYJ
KoZIhvcNAQkBFgN0YTcwHhcNMjExMDIyMTAxNTIzWhcNMjQwNzE4MTAxNTIzWjCB
hTELMAkGA1UEBhMCVVMxEzARBgNVBAgMCkNhbGlmb3JuaWExFDASBgNVBAcMC1Nh
bnRhIENsYXJhMQ0wCwYDVQQKDARwa2c1MRAwDgYDVQQLDAdjczFfdGE3MRIwEAYD
VQQDDAlsb2NhbGhvc3QxFjAUBgkqhkiG9w0BCQEWB2NzMV90YTcwggEiMA0GCSqG
SIb3DQEBAQUAA4IBDwAwggEKAoIBAQCfsrhxqusNHnYh7UkMlwIpjcTQxMJP9xqq
BtIqNwSU5omOmYUfEiW37EzcKNumRDmxjnn0wPsAGggspgYyXFb9rCWHpEqXkEHQ
9MJ14pXVjYLHDNHCqNAac6ZnNYAGoLjgTbRO2Mbr7JunBY/O2mNVxDXtB7Iss5vi
crN3PnjYxm1uzShcP3yddHgMq9yczLpFT1laTqxSBOgr1lbUtd2l6O1NH4zwtJ1K
01uwoN+HGFs8bQmyeOwiPFZpnexwMSjLymBGI5HzbmA8XTyXM5tddC52Uoso9h8h
8SNdMndLCydH0Q+78gMoe3zqyGAoJxWLDOV2c5PDqzYVS6PLi4sfAgMBAAGjYDBe
MAwGA1UdEwEB/wQCMAAwDgYDVR0PAQH/BAQDAgeAMB0GA1UdDgQWBBT4asY+N+s6
+etncXUKH9BG8iC+ojAfBgNVHSMEGDAWgBQ33r0tmLbqB0FhCuQX+m7vmu6WIjAN
BgkqhkiG9w0BAQsFAAOCAQEADpqnyBvuVMsTNWUZIGbjQI0T1RQqSa75HmbANNOE
5m+WvhzbZgZZL64TdvaGZLvWOkvKn+UCtRmeZvgTKXEAioj4JdeWog9+byLRsHp/
s0PRmlPmd2+swNyMc+jZ88om+44J3WfXEW/N3tDH085aiC83mYOLBhPRido38YK1
+7S451RQS2VIgGOYZsra3HWPlN7cKb+n+DVs4cUC/6viEXHuDuoJNBlT54qcQuiH
sQ3YWSnLrO/mupU2hRb6iW71DF9ZJTeA5oDMiBeD4l4M5+vfLBoR72nsjAj85N35
aLfSf5SMyZ+QMry7mQxQNME4XevAltVSMwtvcbJbQwvkNg==
-----END CERTIFICATE-----
