Certificate:
    Data:
        Version: 3 (0x2)
        Serial Number: 33 (0x21)
    Signature Algorithm: sha256WithRSAEncryption
        Issuer: C=US, ST=California, L=Santa Clara, O=pkg5, CN=ch1.4_ta3/emailAddress=ch1.4_ta3
        Validity
            Not Before: Nov 28 22:50:57 2016 GMT
            Not After : Aug 25 22:50:57 2019 GMT
        Subject: C=US, ST=California, L=Santa Clara, O=pkg5, CN=cs1_ch1.4_ta3/emailAddress=cs1_ch1.4_ta3
        Subject Public Key Info:
            Public Key Algorithm: rsaEncryption
                Public-Key: (1024 bit)
                Modulus:
                    00:c3:3a:bb:67:28:68:ab:47:dc:73:3d:8c:05:0b:
                    4b:11:4e:79:06:e4:db:83:87:f0:89:9d:73:e0:47:
                    db:20:c2:6f:65:e3:31:cc:ab:9a:b9:60:97:2b:e1:
                    02:64:5f:d4:7f:76:34:25:0c:af:cc:6a:42:eb:4e:
                    ca:56:27:f3:04:c2:b7:8b:16:fa:4c:b2:3e:3c:22:
                    d6:be:ee:a3:d2:28:65:4a:45:9d:96:93:74:cd:b8:
                    32:9e:3e:be:ca:d1:94:c6:cb:16:fe:1e:8b:bf:2e:
                    0c:d8:6b:c8:35:64:17:ef:24:bc:1f:fa:f7:13:61:
                    ec:11:ec:84:db:1b:de:a1:37
                Exponent: 65537 (0x10001)
        X509v3 extensions:
            X509v3 Basic Constraints: critical
                CA:FALSE
            X509v3 Key Usage: critical
                Digital Signature
    Signature Algorithm: sha256WithRSAEncryption
         1e:d0:e7:bb:60:56:cc:92:92:15:74:c1:ef:f3:6b:e9:02:aa:
         c5:42:1f:ca:1b:32:96:40:72:c5:14:77:6d:80:80:3a:ec:79:
         c5:c4:99:ee:d0:41:f3:99:83:df:6f:36:77:7e:4d:ac:79:b7:
         3c:bb:43:5a:6b:f8:9e:ef:01:fa:4f:a0:74:57:a8:bc:9f:de:
         e6:ae:95:55:42:4f:05:27:ba:cb:db:8a:c3:2e:5f:f9:99:10:
         c0:d1:bd:bd:f4:b9:dc:11:72:0a:8b:da:65:18:a7:cb:72:d5:
         04:2d:61:b2:02:00:ba:9a:78:de:e4:92:66:01:12:e4:99:61:
         90:b4:55:a2:21:da:ad:03:e9:73:46:29:df:bb:b1:df:22:48:
         73:b0:c5:58:21:f4:b1:70:5f:56:30:25:93:f4:55:a7:6d:21:
         00:b9:f5:1e:35:8a:14:51:85:c8:f4:d4:07:03:14:a8:da:ba:
         47:bc:c8:f5:5e:82:8e:46:05:1c:bf:0f:76:0f:fb:05:51:ee:
         19:cf:be:1d:93:26:8a:2b:43:0d:25:29:e0:46:c2:6b:f1:f7:
         48:fa:23:f3:14:0c:05:ac:6c:73:08:43:f2:9c:df:05:8d:5d:
         92:66:07:6c:b3:78:6f:83:ac:49:c2:17:e0:10:db:fb:18:dd:
         03:54:0c:65
-----BEGIN CERTIFICATE-----
MIIDCTCCAfGgAwIBAgIBITANBgkqhkiG9w0BAQsFADB1MQswCQYDVQQGEwJVUzET
MBEGA1UECAwKQ2FsaWZvcm5pYTEUMBIGA1UEBwwLU2FudGEgQ2xhcmExDTALBgNV
BAoMBHBrZzUxEjAQBgNVBAMMCWNoMS40X3RhMzEYMBYGCSqGSIb3DQEJARYJY2gx
LjRfdGEzMB4XDTE2MTEyODIyNTA1N1oXDTE5MDgyNTIyNTA1N1owfTELMAkGA1UE
BhMCVVMxEzARBgNVBAgMCkNhbGlmb3JuaWExFDASBgNVBAcMC1NhbnRhIENsYXJh
MQ0wCwYDVQQKDARwa2c1MRYwFAYDVQQDDA1jczFfY2gxLjRfdGEzMRwwGgYJKoZI
hvcNAQkBFg1jczFfY2gxLjRfdGEzMIGfMA0GCSqGSIb3DQEBAQUAA4GNADCBiQKB
gQDDOrtnKGirR9xzPYwFC0sRTnkG5NuDh/CJnXPgR9sgwm9l4zHMq5q5YJcr4QJk
X9R/djQlDK/MakLrTspWJ/MEwreLFvpMsj48Ita+7qPSKGVKRZ2Wk3TNuDKePr7K
0ZTGyxb+Hou/LgzYa8g1ZBfvJLwf+vcTYewR7ITbG96hNwIDAQABoyAwHjAMBgNV
HRMBAf8EAjAAMA4GA1UdDwEB/wQEAwIHgDANBgkqhkiG9w0BAQsFAAOCAQEAHtDn
u2BWzJKSFXTB7/Nr6QKqxUIfyhsylkByxRR3bYCAOux5xcSZ7tBB85mD3282d35N
rHm3PLtDWmv4nu8B+k+gdFeovJ/e5q6VVUJPBSe6y9uKwy5f+ZkQwNG9vfS53BFy
CovaZRiny3LVBC1hsgIAupp43uSSZgES5JlhkLRVoiHarQPpc0Yp37ux3yJIc7DF
WCH0sXBfVjAlk/RVp20hALn1HjWKFFGFyPTUBwMUqNq6R7zI9V6CjkYFHL8Pdg/7
BVHuGc++HZMmiitDDSUp4EbCa/H3SPoj8xQMBaxscwhD8pzfBY1dkmYHbLN4b4Os
ScIX4BDb+xjdA1QMZQ==
-----END CERTIFICATE-----
