Certificate:
    Data:
        Version: 3 (0x2)
        Serial Number: 46 (0x2e)
        Signature Algorithm: sha256WithRSAEncryption
        Issuer: C=US, ST=California, L=Santa Clara, O=pkg5, OU=ta9, CN=localhost/emailAddress=ta9
        Validity
            Not Before: May 23 15:47:23 2024 GMT
            Not After : Feb 17 15:47:23 2027 GMT
        Subject: C=US, ST=California, L=Santa Clara, O=pkg5, OU=cs1_ta9, CN=localhost/emailAddress=cs1_ta9
        Subject Public Key Info:
            Public Key Algorithm: rsaEncryption
                Public-Key: (2048 bit)
                Modulus:
                    00:bf:86:67:6a:92:7d:31:d1:9e:4b:8d:0e:c3:5a:
                    c2:04:7e:13:4e:ea:1b:4c:b7:ea:3b:2c:e7:93:0f:
                    0f:1f:f8:14:7c:9d:f2:58:80:e4:83:61:00:f6:4f:
                    c8:31:00:03:d7:30:ad:51:85:c7:bf:d2:a1:2a:e4:
                    b9:c5:20:01:bf:09:bc:c2:0e:a7:5a:b6:53:6b:37:
                    48:30:d1:d5:16:68:75:e4:59:cc:c1:5a:9d:ba:5e:
                    e0:ca:cb:e5:b7:d5:36:11:f5:83:6a:89:99:46:45:
                    df:35:d6:01:ea:95:a8:c8:90:79:40:8b:bf:f7:e2:
                    8e:aa:fd:5a:fd:6f:33:92:88:5a:44:90:19:c5:6b:
                    88:c9:ee:af:61:81:e4:1c:4e:d1:ad:99:21:f2:04:
                    d5:a1:96:1f:d4:05:4f:d3:80:91:9e:c4:92:94:56:
                    b7:07:99:8b:17:2b:dd:8f:e7:73:1d:10:ba:01:66:
                    41:c4:5b:66:e5:6c:46:96:29:6c:2a:48:78:2a:ec:
                    e3:d0:57:8b:1e:e8:fc:ce:18:15:dc:d3:fa:4c:9b:
                    5f:7a:50:7f:5b:c3:fc:d6:f8:be:c4:1d:59:29:1a:
                    9c:ff:72:7a:79:82:95:4d:ff:3f:d6:d0:1c:23:08:
                    4e:15:4c:45:30:cc:b7:82:73:5f:49:21:a9:11:2e:
                    7b:23
                Exponent: 65537 (0x10001)
        X509v3 extensions:
            X509v3 Basic Constraints: critical
                CA:FALSE
            X509v3 Key Usage: critical
                Digital Signature
            X509v3 Subject Key Identifier: 
                9E:9E:35:E5:77:B8:CD:47:C7:75:35:A8:24:E0:21:65:45:D0:E2:DE
            X509v3 Authority Key Identifier: 
                DC:CD:26:63:5C:E2:4F:CD:62:4E:9C:6C:4F:70:94:A7:15:68:E2:60
    Signature Algorithm: sha256WithRSAEncryption
    Signature Value:
        b6:67:c1:1c:0f:d7:54:09:6d:af:d3:4c:a9:23:0a:98:ca:df:
        17:19:ce:9f:b5:68:7f:46:aa:2b:10:d6:9a:ee:ce:e9:1a:cf:
        b7:d1:87:e0:e6:2a:09:2a:d7:34:08:28:58:df:9f:12:82:db:
        82:7f:df:39:8c:6d:0d:f6:ec:d9:14:c3:41:af:1b:db:05:a2:
        b2:d3:be:e7:c8:5d:1d:8f:7b:94:e7:0b:ac:c2:70:fc:29:79:
        97:7c:72:38:42:ff:cc:f7:15:12:b5:81:4d:c7:c4:d6:e9:67:
        f3:45:86:8f:aa:7f:21:61:f5:c2:13:45:3f:e6:67:6f:57:7c:
        ae:77:7f:9e:81:e0:5d:5b:3d:ea:f5:26:09:8e:a4:3c:81:e5:
        46:d9:b2:c5:6f:ae:93:22:6c:04:81:53:85:4e:9e:a3:22:d6:
        cf:a9:69:af:64:05:f0:a1:ae:b3:57:3b:13:92:34:c9:03:a3:
        f2:21:bd:3f:d6:40:b2:a5:15:c6:45:8e:6a:f1:7f:85:cf:20:
        5a:b6:12:4a:29:b1:f0:4b:f8:a4:a4:93:14:07:66:52:1b:d4:
        f4:9e:14:a8:96:cb:ae:64:2c:1b:45:20:d7:64:a3:49:54:fe:
        bf:be:c0:37:e9:b4:15:b5:95:c7:88:82:15:8c:a7:16:ec:65:
        28:46:04:b4
-----BEGIN CERTIFICATE-----
MIID3jCCAsagAwIBAgIBLjANBgkqhkiG9w0BAQsFADB9MQswCQYDVQQGEwJVUzET
MBEGA1UECAwKQ2FsaWZvcm5pYTEUMBIGA1UEBwwLU2FudGEgQ2xhcmExDTALBgNV
BAoMBHBrZzUxDDAKBgNVBAsMA3RhOTESMBAGA1UEAwwJbG9jYWxob3N0MRIwEAYJ
KoZIhvcNAQkBFgN0YTkwHhcNMjQwNTIzMTU0NzIzWhcNMjcwMjE3MTU0NzIzWjCB
hTELMAkGA1UEBhMCVVMxEzARBgNVBAgMCkNhbGlmb3JuaWExFDASBgNVBAcMC1Nh
bnRhIENsYXJhMQ0wCwYDVQQKDARwa2c1MRAwDgYDVQQLDAdjczFfdGE5MRIwEAYD
VQQDDAlsb2NhbGhvc3QxFjAUBgkqhkiG9w0BCQEWB2NzMV90YTkwggEiMA0GCSqG
SIb3DQEBAQUAA4IBDwAwggEKAoIBAQC/hmdqkn0x0Z5LjQ7DWsIEfhNO6htMt+o7
LOeTDw8f+BR8nfJYgOSDYQD2T8gxAAPXMK1Rhce/0qEq5LnFIAG/CbzCDqdatlNr
N0gw0dUWaHXkWczBWp26XuDKy+W31TYR9YNqiZlGRd811gHqlajIkHlAi7/34o6q
/Vr9bzOSiFpEkBnFa4jJ7q9hgeQcTtGtmSHyBNWhlh/UBU/TgJGexJKUVrcHmYsX
K92P53MdELoBZkHEW2blbEaWKWwqSHgq7OPQV4se6PzOGBXc0/pMm196UH9bw/zW
+L7EHVkpGpz/cnp5gpVN/z/W0BwjCE4VTEUwzLeCc19JIakRLnsjAgMBAAGjYDBe
MAwGA1UdEwEB/wQCMAAwDgYDVR0PAQH/BAQDAgeAMB0GA1UdDgQWBBSenjXld7jN
R8d1Nagk4CFlRdDi3jAfBgNVHSMEGDAWgBTczSZjXOJPzWJOnGxPcJSnFWjiYDAN
BgkqhkiG9w0BAQsFAAOCAQEAtmfBHA/XVAltr9NMqSMKmMrfFxnOn7Vof0aqKxDW
mu7O6RrPt9GH4OYqCSrXNAgoWN+fEoLbgn/fOYxtDfbs2RTDQa8b2wWistO+58hd
HY97lOcLrMJw/Cl5l3xyOEL/zPcVErWBTcfE1uln80WGj6p/IWH1whNFP+Znb1d8
rnd/noHgXVs96vUmCY6kPIHlRtmyxW+ukyJsBIFThU6eoyLWz6lpr2QF8KGus1c7
E5I0yQOj8iG9P9ZAsqUVxkWOavF/hc8gWrYSSimx8Ev4pKSTFAdmUhvU9J4UqJbL
rmQsG0Ug12SjSVT+v77AN+m0FbWVx4iCFYynFuxlKEYEtA==
-----END CERTIFICATE-----
