Certificate:
    Data:
        Version: 3 (0x2)
        Serial Number: 36 (0x24)
        Signature Algorithm: sha256WithRSAEncryption
        Issuer: C=US, ST=California, L=Santa Clara, O=pkg5, CN=ch1_ta4/emailAddress=ch1_ta4
        Validity
            Not Before: Oct 22 10:15:18 2021 GMT
            Not After : Jul 18 10:15:18 2024 GMT
        Subject: C=US, ST=California, L=Santa Clara, O=pkg5, CN=cs1_ch1_ta4/emailAddress=cs1_ch1_ta4
        Subject Public Key Info:
            Public Key Algorithm: rsaEncryption
                Public-Key: (2048 bit)
                Modulus:
                    00:c4:8c:4c:df:d4:08:e0:4b:fb:c6:92:24:58:dc:
                    a0:ff:2c:26:1b:48:2b:be:0e:e5:02:15:c0:b6:d0:
                    c5:09:50:58:76:c9:13:25:64:df:49:d7:86:70:91:
                    60:20:0d:d5:9b:bb:75:e9:47:23:ad:a3:53:22:28:
                    1b:e2:42:c9:1d:01:c8:4b:6e:bb:40:80:40:00:1a:
                    c6:9a:48:c2:eb:54:8e:fb:26:05:71:e2:02:ad:20:
                    85:8e:29:77:e9:92:50:9c:c8:ad:63:a5:f0:70:0d:
                    09:7d:65:aa:e2:b9:2d:fa:e9:5b:16:10:5f:92:0b:
                    e7:1a:dd:69:b2:43:da:64:3e:07:96:af:68:f4:80:
                    b6:c7:33:11:12:c4:21:b4:fc:8b:ea:8c:55:f7:d0:
                    74:26:e4:af:57:d0:86:54:a2:db:92:84:b6:e0:1d:
                    6d:25:56:a2:29:f1:38:4a:2d:73:c5:e7:97:14:3b:
                    64:53:ea:b5:13:6a:38:19:b8:95:0c:48:55:09:49:
                    fe:ea:9a:c9:75:0b:ad:70:c1:4a:18:ae:4d:0b:07:
                    bc:87:7f:95:0b:09:44:9a:44:d8:ba:ad:9f:06:98:
                    2c:95:61:8e:e5:60:d3:9f:61:af:a4:88:f6:a4:9b:
                    e3:a6:61:0a:fd:1d:9f:79:a2:3b:4d:5c:c8:28:98:
                    1b:e9
                Exponent: 65537 (0x10001)
        X509v3 extensions:
            X509v3 Basic Constraints: critical
                CA:FALSE
            X509v3 CRL Distribution Points: 
                Full Name:
                  URI:http://localhost:12001/file/0/ch1_ta4_crl.pem
            X509v3 Subject Key Identifier: 
                CC:00:33:05:16:AC:1D:9F:B0:09:B6:64:C5:CE:2F:2D:C0:2A:94:5A
            X509v3 Authority Key Identifier: 
                0E:D1:7E:6A:98:F8:F9:68:97:C8:CC:DA:FE:31:F3:6B:B4:20:E2:01
    Signature Algorithm: sha256WithRSAEncryption
    Signature Value:
        53:1f:a5:26:5b:0b:01:e4:19:1a:b9:03:8d:67:6c:ba:2a:67:
        cd:d5:a3:34:a9:8e:94:72:11:fa:82:e6:04:48:db:c1:33:36:
        80:3c:80:5b:96:92:a0:24:5e:24:87:66:b7:f4:f9:6f:ea:d9:
        84:16:d8:8b:35:8c:69:4b:8b:91:6b:6f:70:19:be:f0:10:bc:
        ab:aa:d7:87:a2:80:81:9d:83:06:d5:96:db:03:08:c4:45:3e:
        69:6b:59:8c:41:43:5f:42:ac:ed:12:d7:1d:3f:73:a4:92:29:
        c7:80:94:b4:01:cd:23:71:23:c7:6e:e3:f0:50:9d:9f:15:c9:
        96:82:33:df:88:18:35:7d:f2:af:95:c4:59:8f:23:f9:a4:1e:
        60:40:ab:34:f9:81:c0:fe:59:c4:ff:66:97:b4:92:f5:9c:69:
        84:3a:7a:ab:de:c1:2d:41:d4:25:76:94:43:e5:f8:71:a4:58:
        ca:07:d0:46:54:c7:13:f3:5f:31:e5:1b:92:dc:18:6f:fd:66:
        e9:52:c1:0a:ee:94:18:8b:91:99:02:68:6d:21:69:97:20:d0:
        fe:2c:6f:82:e8:12:9f:3a:0c:ae:7c:df:ea:75:52:ac:62:8d:
        d8:bd:68:b0:e5:b1:ba:01:19:2e:79:a4:d9:75:02:ed:da:29:
        e5:40:bd:d6
-----BEGIN CERTIFICATE-----
MIID9zCCAt+gAwIBAgIBJDANBgkqhkiG9w0BAQsFADBxMQswCQYDVQQGEwJVUzET
MBEGA1UECAwKQ2FsaWZvcm5pYTEUMBIGA1UEBwwLU2FudGEgQ2xhcmExDTALBgNV
BAoMBHBrZzUxEDAOBgNVBAMMB2NoMV90YTQxFjAUBgkqhkiG9w0BCQEWB2NoMV90
YTQwHhcNMjExMDIyMTAxNTE4WhcNMjQwNzE4MTAxNTE4WjB5MQswCQYDVQQGEwJV
UzETMBEGA1UECAwKQ2FsaWZvcm5pYTEUMBIGA1UEBwwLU2FudGEgQ2xhcmExDTAL
BgNVBAoMBHBrZzUxFDASBgNVBAMMC2NzMV9jaDFfdGE0MRowGAYJKoZIhvcNAQkB
FgtjczFfY2gxX3RhNDCCASIwDQYJKoZIhvcNAQEBBQADggEPADCCAQoCggEBAMSM
TN/UCOBL+8aSJFjcoP8sJhtIK74O5QIVwLbQxQlQWHbJEyVk30nXhnCRYCAN1Zu7
delHI62jUyIoG+JCyR0ByEtuu0CAQAAaxppIwutUjvsmBXHiAq0ghY4pd+mSUJzI
rWOl8HANCX1lquK5LfrpWxYQX5IL5xrdabJD2mQ+B5avaPSAtsczERLEIbT8i+qM
VffQdCbkr1fQhlSi25KEtuAdbSVWoinxOEotc8XnlxQ7ZFPqtRNqOBm4lQxIVQlJ
/uqayXULrXDBShiuTQsHvId/lQsJRJpE2LqtnwaYLJVhjuVg059hr6SI9qSb46Zh
Cv0dn3miO01cyCiYG+kCAwEAAaOBkTCBjjAMBgNVHRMBAf8EAjAAMD4GA1UdHwQ3
MDUwM6AxoC+GLWh0dHA6Ly9sb2NhbGhvc3Q6MTIwMDEvZmlsZS8wL2NoMV90YTRf
Y3JsLnBlbTAdBgNVHQ4EFgQUzAAzBRasHZ+wCbZkxc4vLcAqlFowHwYDVR0jBBgw
FoAUDtF+apj4+WiXyMza/jHza7Qg4gEwDQYJKoZIhvcNAQELBQADggEBAFMfpSZb
CwHkGRq5A41nbLoqZ83VozSpjpRyEfqC5gRI28EzNoA8gFuWkqAkXiSHZrf0+W/q
2YQW2Is1jGlLi5Frb3AZvvAQvKuq14eigIGdgwbVltsDCMRFPmlrWYxBQ19CrO0S
1x0/c6SSKceAlLQBzSNxI8du4/BQnZ8VyZaCM9+IGDV98q+VxFmPI/mkHmBAqzT5
gcD+WcT/Zpe0kvWcaYQ6eqvewS1B1CV2lEPl+HGkWMoH0EZUxxPzXzHlG5LcGG/9
ZulSwQrulBiLkZkCaG0haZcg0P4sb4LoEp86DK583+p1Uqxijdi9aLDlsboBGS55
pNl1Au3aKeVAvdY=
-----END CERTIFICATE-----
