Certificate:
    Data:
        Version: 3 (0x2)
        Serial Number: 43 (0x2b)
    Signature Algorithm: sha256WithRSAEncryption
        Issuer: C=US, ST=California, L=Santa Clara, O=pkg5, OU=ta7, CN=localhost/emailAddress=ta7
        Validity
            Not Before: Nov 28 22:50:58 2016 GMT
            Not After : Aug 25 22:50:58 2019 GMT
        Subject: C=US, ST=California, L=Santa Clara, O=pkg5, OU=cs1_ta7, CN=localhost/emailAddress=cs1_ta7
        Subject Public Key Info:
            Public Key Algorithm: rsaEncryption
                Public-Key: (1024 bit)
                Modulus:
                    00:e3:0a:67:10:b4:af:50:6c:3c:05:5f:f5:e4:8a:
                    12:a7:78:34:8c:b0:33:0d:1f:f5:47:61:c0:f7:82:
                    de:99:5b:a9:a0:0c:b0:14:df:25:a2:c7:91:95:91:
                    a5:34:37:26:b4:fc:16:57:e7:49:2f:01:a1:35:ef:
                    3b:5b:ec:9f:c8:e5:f0:35:84:c5:ac:24:9a:29:0c:
                    83:9a:cb:38:a9:76:78:db:36:1a:99:4a:49:ed:ff:
                    f6:6e:5b:ff:c5:d3:97:f7:8d:a6:80:6d:52:00:6b:
                    90:8e:44:84:8d:83:83:b4:48:45:2f:fb:0e:41:bf:
                    38:21:7e:a5:fa:89:c0:bc:d1
                Exponent: 65537 (0x10001)
        X509v3 extensions:
            X509v3 Basic Constraints: critical
                CA:FALSE
            X509v3 Key Usage: critical
                Digital Signature
    Signature Algorithm: sha256WithRSAEncryption
         68:1a:8f:66:2c:ba:1c:70:14:4b:4b:12:91:09:5c:a5:6b:d0:
         f4:70:e3:70:1a:c5:18:a6:c3:c6:7d:30:05:d1:42:b1:db:37:
         5a:d9:ba:9c:d5:b8:ff:b9:98:86:8e:b9:75:2e:71:5b:84:13:
         ef:27:45:0d:0f:1f:98:0d:63:78:ae:24:94:ea:fb:b4:ed:4a:
         6b:9d:4e:de:73:a5:17:d2:96:e5:0c:d3:79:ee:58:c6:fb:db:
         3f:3b:15:83:8a:35:f8:99:b9:fd:ac:e7:52:c3:05:d2:28:f6:
         9c:30:bd:b1:a1:8d:1b:a8:49:d9:3d:44:b3:c0:9e:d4:50:93:
         f6:26:8b:8b:f8:42:e2:6a:43:ac:da:82:7b:e4:74:71:9d:da:
         19:5f:55:76:ec:b9:c5:e9:4f:59:c3:96:1a:97:85:d9:61:24:
         36:e3:48:28:da:88:83:2d:fe:5f:0f:55:07:e1:f4:eb:13:65:
         f0:0a:ec:c8:af:97:72:f3:81:36:51:d9:81:22:95:47:ec:98:
         f9:96:26:1b:01:71:39:4c:cf:0c:b3:ff:5e:72:6f:cb:c1:9c:
         6f:d7:ce:eb:31:0f:93:f5:cd:62:ea:33:b9:bd:e5:ff:f1:00:
         87:e9:8e:c4:bb:5e:da:0d:f2:51:6b:79:94:cb:4e:a1:2a:b8:
         cc:a3:1b:14
-----BEGIN CERTIFICATE-----
MIIDGjCCAgKgAwIBAgIBKzANBgkqhkiG9w0BAQsFADB9MQswCQYDVQQGEwJVUzET
MBEGA1UECAwKQ2FsaWZvcm5pYTEUMBIGA1UEBwwLU2FudGEgQ2xhcmExDTALBgNV
BAoMBHBrZzUxDDAKBgNVBAsMA3RhNzESMBAGA1UEAwwJbG9jYWxob3N0MRIwEAYJ
KoZIhvcNAQkBFgN0YTcwHhcNMTYxMTI4MjI1MDU4WhcNMTkwODI1MjI1MDU4WjCB
hTELMAkGA1UEBhMCVVMxEzARBgNVBAgMCkNhbGlmb3JuaWExFDASBgNVBAcMC1Nh
bnRhIENsYXJhMQ0wCwYDVQQKDARwa2c1MRAwDgYDVQQLDAdjczFfdGE3MRIwEAYD
VQQDDAlsb2NhbGhvc3QxFjAUBgkqhkiG9w0BCQEWB2NzMV90YTcwgZ8wDQYJKoZI
hvcNAQEBBQADgY0AMIGJAoGBAOMKZxC0r1BsPAVf9eSKEqd4NIywMw0f9UdhwPeC
3plbqaAMsBTfJaLHkZWRpTQ3JrT8FlfnSS8BoTXvO1vsn8jl8DWExawkmikMg5rL
OKl2eNs2GplKSe3/9m5b/8XTl/eNpoBtUgBrkI5EhI2Dg7RIRS/7DkG/OCF+pfqJ
wLzRAgMBAAGjIDAeMAwGA1UdEwEB/wQCMAAwDgYDVR0PAQH/BAQDAgeAMA0GCSqG
SIb3DQEBCwUAA4IBAQBoGo9mLLoccBRLSxKRCVyla9D0cONwGsUYpsPGfTAF0UKx
2zda2bqc1bj/uZiGjrl1LnFbhBPvJ0UNDx+YDWN4riSU6vu07UprnU7ec6UX0pbl
DNN57ljG+9s/OxWDijX4mbn9rOdSwwXSKPacML2xoY0bqEnZPUSzwJ7UUJP2JouL
+ELiakOs2oJ75HRxndoZX1V27LnF6U9Zw5Yal4XZYSQ240go2oiDLf5fD1UH4fTr
E2XwCuzIr5dy84E2UdmBIpVH7Jj5liYbAXE5TM8Ms/9ecm/LwZxv187rMQ+T9c1i
6jO5veX/8QCH6Y7Eu17aDfJRa3mUy06hKrjMoxsU
-----END CERTIFICATE-----
