Certificate:
    Data:
        Version: 3 (0x2)
        Serial Number: 7 (0x7)
        Signature Algorithm: sha256WithRSAEncryption
        Issuer: C=US, ST=California, L=Santa Clara, O=pkg5, CN=ch5_ta1/emailAddress=ch5_ta1
        Validity
            Not Before: Nov 14 14:26:52 2024 GMT
            Not After : Aug 11 14:26:52 2027 GMT
        Subject: C=US, ST=California, L=Santa Clara, O=pkg5, CN=cs2_ch5_ta1/emailAddress=cs2_ch5_ta1
        Subject Public Key Info:
            Public Key Algorithm: rsaEncryption
                Public-Key: (2048 bit)
                Modulus:
                    00:ba:f6:20:60:65:e3:f8:e6:b5:5d:3c:86:bd:24:
                    1f:cb:fb:d0:f4:88:d2:c2:1f:37:07:e6:06:3b:be:
                    84:3c:b4:42:98:40:aa:90:bf:69:ec:62:c4:4c:8c:
                    0a:ce:75:e4:d6:66:f1:d8:88:5d:88:91:b9:08:97:
                    eb:4e:cf:76:4f:3f:cd:a9:46:1d:f0:10:7a:3f:59:
                    f3:24:5b:04:d0:c3:13:0c:f6:4b:ac:f7:a6:cc:68:
                    2a:2d:cb:1e:2d:ff:e6:c9:62:2b:42:81:d2:97:cb:
                    c1:97:8a:d0:b6:31:81:a0:f6:bf:94:1d:4a:ca:91:
                    24:ff:b0:a3:da:c2:50:d1:84:be:fd:f1:1c:a2:16:
                    84:9f:2e:1a:c5:22:56:1c:fd:15:00:aa:13:2c:a1:
                    7f:90:58:95:b5:d6:9f:0c:8a:35:36:52:eb:14:96:
                    45:a6:ff:d8:27:6a:0a:c1:be:e3:47:76:a0:12:97:
                    bc:02:53:da:79:e3:69:41:0a:51:25:45:32:88:01:
                    cd:ae:be:cf:b3:1f:3d:c1:ba:2a:75:63:40:a7:d7:
                    0c:13:ef:79:e2:f9:57:53:46:4f:f3:18:b1:f5:0f:
                    6d:f0:4a:5d:9a:7c:bd:6a:ac:ce:72:43:e3:55:8b:
                    7a:8f:60:c0:27:72:49:31:d7:73:93:89:9a:f7:cf:
                    e5:d7
                Exponent: 65537 (0x10001)
        X509v3 extensions:
            X509v3 Basic Constraints: critical
                CA:FALSE
            X509v3 CRL Distribution Points: 
                Full Name:
                  URI:http://localhost:12001/file/0/ch5_ta1_crl.pem
            X509v3 Subject Key Identifier: 
                03:00:85:E0:3C:FC:F8:CC:20:1C:9E:4E:F8:A0:FB:E9:90:37:86:B4
            X509v3 Authority Key Identifier: 
                D6:AC:B5:CE:15:A5:A5:63:ED:CD:0D:D2:64:2C:B3:B0:31:C4:86:C8
    Signature Algorithm: sha256WithRSAEncryption
    Signature Value:
        94:c3:a9:f0:a2:e1:a2:9f:5e:93:b7:8e:03:12:ae:a0:ec:1b:
        57:36:94:ec:46:fb:1b:fd:23:cf:37:e2:4f:ca:39:cc:a6:27:
        dd:0a:3f:3b:68:cc:ee:d1:72:47:d0:f9:9d:8c:a5:7d:8b:bd:
        bf:82:06:ce:77:0e:3a:a3:88:76:24:14:9e:7b:31:30:fe:f9:
        57:ed:23:76:a0:e4:ea:23:19:51:6e:73:0b:8b:50:0b:15:3f:
        7b:c8:5d:cc:f4:73:14:a2:7e:1f:84:5d:16:d5:8a:41:a4:d8:
        c2:06:08:f6:97:e2:49:aa:27:33:e5:cd:6e:08:98:f9:b4:64:
        5d:18:6d:3b:02:23:89:e1:1c:f9:d2:29:d4:86:00:18:9d:0a:
        f5:01:ca:89:1a:9e:46:e4:41:9a:0f:66:4e:61:b4:53:09:09:
        96:25:02:5e:f0:84:48:7a:a6:74:ee:9f:ca:b5:7e:b5:b7:c5:
        54:e2:bb:e8:f5:43:87:cc:65:d5:5a:b6:25:92:1c:30:b4:83:
        eb:16:bd:cc:4b:93:13:81:db:e4:af:f3:e9:1b:d1:e7:0d:f5:
        71:17:3b:6b:0b:c8:07:b0:5c:7f:ef:e0:35:b2:88:3c:b2:a8:
        7f:73:39:d4:02:e6:ac:1e:a3:8f:26:af:23:f2:b8:be:21:2a:
        6c:85:d9:60
-----BEGIN CERTIFICATE-----
MIID9zCCAt+gAwIBAgIBBzANBgkqhkiG9w0BAQsFADBxMQswCQYDVQQGEwJVUzET
MBEGA1UECAwKQ2FsaWZvcm5pYTEUMBIGA1UEBwwLU2FudGEgQ2xhcmExDTALBgNV
BAoMBHBrZzUxEDAOBgNVBAMMB2NoNV90YTExFjAUBgkqhkiG9w0BCQEWB2NoNV90
YTEwHhcNMjQxMTE0MTQyNjUyWhcNMjcwODExMTQyNjUyWjB5MQswCQYDVQQGEwJV
UzETMBEGA1UECAwKQ2FsaWZvcm5pYTEUMBIGA1UEBwwLU2FudGEgQ2xhcmExDTAL
BgNVBAoMBHBrZzUxFDASBgNVBAMMC2NzMl9jaDVfdGExMRowGAYJKoZIhvcNAQkB
FgtjczJfY2g1X3RhMTCCASIwDQYJKoZIhvcNAQEBBQADggEPADCCAQoCggEBALr2
IGBl4/jmtV08hr0kH8v70PSI0sIfNwfmBju+hDy0QphAqpC/aexixEyMCs515NZm
8diIXYiRuQiX607Pdk8/zalGHfAQej9Z8yRbBNDDEwz2S6z3psxoKi3LHi3/5sli
K0KB0pfLwZeK0LYxgaD2v5QdSsqRJP+wo9rCUNGEvv3xHKIWhJ8uGsUiVhz9FQCq
Eyyhf5BYlbXWnwyKNTZS6xSWRab/2CdqCsG+40d2oBKXvAJT2nnjaUEKUSVFMogB
za6+z7MfPcG6KnVjQKfXDBPveeL5V1NGT/MYsfUPbfBKXZp8vWqsznJD41WLeo9g
wCdySTHXc5OJmvfP5dcCAwEAAaOBkTCBjjAMBgNVHRMBAf8EAjAAMD4GA1UdHwQ3
MDUwM6AxoC+GLWh0dHA6Ly9sb2NhbGhvc3Q6MTIwMDEvZmlsZS8wL2NoNV90YTFf
Y3JsLnBlbTAdBgNVHQ4EFgQUAwCF4Dz8+MwgHJ5O+KD76ZA3hrQwHwYDVR0jBBgw
FoAU1qy1zhWlpWPtzQ3SZCyzsDHEhsgwDQYJKoZIhvcNAQELBQADggEBAJTDqfCi
4aKfXpO3jgMSrqDsG1c2lOxG+xv9I8834k/KOcymJ90KPztozO7RckfQ+Z2MpX2L
vb+CBs53DjqjiHYkFJ57MTD++VftI3ag5OojGVFucwuLUAsVP3vIXcz0cxSifh+E
XRbVikGk2MIGCPaX4kmqJzPlzW4ImPm0ZF0YbTsCI4nhHPnSKdSGABidCvUByoka
nkbkQZoPZk5htFMJCZYlAl7whEh6pnTun8q1frW3xVTiu+j1Q4fMZdVatiWSHDC0
g+sWvcxLkxOB2+Sv8+kb0ecN9XEXO2sLyAewXH/v4DWyiDyyqH9zOdQC5qweo48m
ryPyuL4hKmyF2WA=
-----END CERTIFICATE-----
