Certificate:
    Data:
        Version: 3 (0x2)
        Serial Number: 18 (0x12)
        Signature Algorithm: sha256WithRSAEncryption
        Issuer: C=US, ST=California, L=Santa Clara, O=pkg5, CN=ch1_ta3/emailAddress=ch1_ta3
        Validity
            Not Before: Oct 24 21:43:05 2023 GMT
            Not After : Jul 20 21:43:05 2026 GMT
        Subject: C=US, ST=California, L=Santa Clara, O=pkg5, CN=cs2_ch1_ta3/emailAddress=cs2_ch1_ta3
        Subject Public Key Info:
            Public Key Algorithm: rsaEncryption
                Public-Key: (2048 bit)
                Modulus:
                    00:a5:78:58:91:49:c8:74:01:5a:33:38:fc:14:e8:
                    35:65:8b:0b:92:2a:3d:3c:98:73:15:c8:3e:b2:8a:
                    7c:4a:da:f0:d2:d2:a1:8d:43:1f:d1:ec:15:f4:b4:
                    38:46:5a:a4:32:ad:59:90:b2:17:c8:64:e8:af:f0:
                    4f:35:6b:c4:d3:fe:0b:c4:c8:61:c5:7f:94:57:9d:
                    ef:4a:cd:ad:07:3e:4b:63:2b:fe:93:0f:75:39:8e:
                    70:38:c1:fb:d8:bc:59:b1:7e:4f:d5:4d:28:6f:ae:
                    51:b6:40:8a:8c:46:62:b0:99:a7:2d:8d:6d:f8:80:
                    13:b5:16:1f:0d:21:35:ce:dd:e7:54:18:09:62:30:
                    b6:e1:ce:25:55:b8:2c:a4:f4:36:87:c5:16:a6:d9:
                    7b:05:67:35:75:5c:4f:d0:fc:5b:b6:aa:8c:1c:2f:
                    3f:c5:1a:ae:99:76:a1:c7:cf:4c:47:01:1b:4d:9c:
                    3f:db:1d:57:42:de:be:12:bb:17:0d:bd:be:72:79:
                    85:a3:5c:77:fd:e6:f4:17:a4:45:d6:29:9b:00:f4:
                    e5:d4:c5:73:60:18:88:cc:dc:69:e2:a5:92:9a:85:
                    3b:23:05:55:bc:78:c7:21:8b:88:c2:5b:8d:bd:a5:
                    15:dc:bf:c5:17:fa:c6:55:94:ff:51:43:3b:6a:96:
                    e5:79
                Exponent: 65537 (0x10001)
        X509v3 extensions:
            X509v3 Basic Constraints: critical
                CA:FALSE
            X509v3 Issuer Alternative Name: critical
                email:ch1_ta3
            X509v3 Subject Key Identifier: 
                BF:52:36:08:A5:B6:42:C2:CC:06:FB:D7:AC:67:AD:19:73:47:3C:EE
            X509v3 Authority Key Identifier: 
                EC:04:9D:52:42:13:3C:0B:DA:EF:1D:7E:FD:8C:02:F4:74:FA:24:6D
    Signature Algorithm: sha256WithRSAEncryption
    Signature Value:
        34:8c:86:f9:a5:bb:b8:96:82:3e:4c:4e:31:e7:4f:fe:d1:b1:
        c2:d2:76:b7:d7:e2:10:d5:e1:84:b5:18:81:16:36:04:4d:21:
        30:53:6f:ce:f3:20:5b:c5:c0:d5:98:9d:ee:f7:42:3d:ea:17:
        d1:a9:5a:c3:03:5e:5b:6f:d0:88:54:56:a0:9d:f9:f4:a0:33:
        42:5d:05:07:64:5a:b8:1f:02:a5:26:2a:a7:89:e7:f7:11:b0:
        29:56:0a:bb:96:2c:fa:cf:02:c7:d6:50:76:1b:f2:08:02:24:
        a6:77:1b:21:24:c3:1e:14:83:18:6c:8b:84:f7:a6:3c:af:c2:
        3c:5c:50:f3:c5:e6:7f:9d:36:7b:eb:f0:2f:b4:b6:2b:85:1b:
        13:0e:c5:c7:4a:d0:8b:6c:bb:e1:5f:49:3a:06:95:4c:a0:cc:
        2d:e5:c2:b0:ad:53:21:2c:a0:cb:2b:01:e7:e6:2e:a2:ab:a4:
        8f:bb:92:27:08:1f:57:1d:2e:3f:f3:10:ae:3f:71:89:44:19:
        2b:d4:d9:7f:87:59:28:76:40:92:06:98:ae:49:0c:53:0b:e2:
        e2:e6:7b:40:34:e7:78:3f:dd:00:48:fb:ab:23:29:06:d1:42:
        25:c6:5f:87:fb:6b:a1:76:d5:ff:e5:a0:bb:2e:fe:4e:d4:bc:
        29:3f:2d:07
-----BEGIN CERTIFICATE-----
MIIDzDCCArSgAwIBAgIBEjANBgkqhkiG9w0BAQsFADBxMQswCQYDVQQGEwJVUzET
MBEGA1UECAwKQ2FsaWZvcm5pYTEUMBIGA1UEBwwLU2FudGEgQ2xhcmExDTALBgNV
BAoMBHBrZzUxEDAOBgNVBAMMB2NoMV90YTMxFjAUBgkqhkiG9w0BCQEWB2NoMV90
YTMwHhcNMjMxMDI0MjE0MzA1WhcNMjYwNzIwMjE0MzA1WjB5MQswCQYDVQQGEwJV
UzETMBEGA1UECAwKQ2FsaWZvcm5pYTEUMBIGA1UEBwwLU2FudGEgQ2xhcmExDTAL
BgNVBAoMBHBrZzUxFDASBgNVBAMMC2NzMl9jaDFfdGEzMRowGAYJKoZIhvcNAQkB
FgtjczJfY2gxX3RhMzCCASIwDQYJKoZIhvcNAQEBBQADggEPADCCAQoCggEBAKV4
WJFJyHQBWjM4/BToNWWLC5IqPTyYcxXIPrKKfEra8NLSoY1DH9HsFfS0OEZapDKt
WZCyF8hk6K/wTzVrxNP+C8TIYcV/lFed70rNrQc+S2Mr/pMPdTmOcDjB+9i8WbF+
T9VNKG+uUbZAioxGYrCZpy2NbfiAE7UWHw0hNc7d51QYCWIwtuHOJVW4LKT0NofF
FqbZewVnNXVcT9D8W7aqjBwvP8Uarpl2ocfPTEcBG02cP9sdV0LevhK7Fw29vnJ5
haNcd/3m9BekRdYpmwD05dTFc2AYiMzcaeKlkpqFOyMFVbx4xyGLiMJbjb2lFdy/
xRf6xlWU/1FDO2qW5XkCAwEAAaNnMGUwDAYDVR0TAQH/BAIwADAVBgNVHRIBAf8E
CzAJgQdjaDFfdGEzMB0GA1UdDgQWBBS/UjYIpbZCwswG+9esZ60Zc0c87jAfBgNV
HSMEGDAWgBTsBJ1SQhM8C9rvHX79jAL0dPokbTANBgkqhkiG9w0BAQsFAAOCAQEA
NIyG+aW7uJaCPkxOMedP/tGxwtJ2t9fiENXhhLUYgRY2BE0hMFNvzvMgW8XA1Zid
7vdCPeoX0alawwNeW2/QiFRWoJ359KAzQl0FB2RauB8CpSYqp4nn9xGwKVYKu5Ys
+s8Cx9ZQdhvyCAIkpncbISTDHhSDGGyLhPemPK/CPFxQ88Xmf502e+vwL7S2K4Ub
Ew7Fx0rQi2y74V9JOgaVTKDMLeXCsK1TISygyysB5+Yuoqukj7uSJwgfVx0uP/MQ
rj9xiUQZK9TZf4dZKHZAkgaYrkkMUwvi4uZ7QDTneD/dAEj7qyMpBtFCJcZfh/tr
oXbV/+Wguy7+TtS8KT8tBw==
-----END CERTIFICATE-----
