Certificate:
    Data:
        Version: 3 (0x2)
        Serial Number: 7 (0x7)
    Signature Algorithm: sha256WithRSAEncryption
        Issuer: C=US, ST=California, L=Santa Clara, O=pkg5, CN=ch5_ta1/emailAddress=ch5_ta1
        Validity
            Not Before: Mar 20 10:20:52 2018 GMT
            Not After : Dec 14 10:20:52 2020 GMT
        Subject: C=US, ST=California, L=Santa Clara, O=pkg5, CN=cs2_ch5_ta1/emailAddress=cs2_ch5_ta1
        Subject Public Key Info:
            Public Key Algorithm: rsaEncryption
                Public-Key: (1024 bit)
                Modulus:
                    00:cb:99:55:22:ff:09:36:85:7b:f8:2f:80:62:37:
                    7b:64:28:ff:e1:97:12:78:ae:f0:89:7f:99:ad:27:
                    0f:49:d7:fa:93:38:2b:52:e4:dc:96:40:a4:e8:d0:
                    74:1f:dc:dd:44:08:74:90:64:a3:09:41:1c:bf:2c:
                    7c:4a:fc:03:87:bf:4a:61:ca:70:86:96:a0:3d:3e:
                    c4:db:c9:b6:80:9d:36:75:60:65:c3:d5:26:32:d1:
                    af:fb:4e:e2:7b:2c:cf:ee:04:68:e3:2e:1f:b0:f6:
                    98:ce:7e:51:16:22:d4:9c:1c:2e:ae:07:a8:19:ae:
                    6e:eb:0d:61:b1:c6:90:ba:61
                Exponent: 65537 (0x10001)
        X509v3 extensions:
            X509v3 Basic Constraints: critical
                CA:FALSE
            X509v3 CRL Distribution Points: 

                Full Name:
                  URI:http://localhost:12001/file/0/ch5_ta1_crl.pem

    Signature Algorithm: sha256WithRSAEncryption
         25:46:a5:fb:ad:db:b9:76:71:3e:5d:29:72:2d:8a:62:a5:3f:
         a7:c0:0f:fd:4d:91:2b:eb:f5:72:8e:1f:2f:92:24:eb:79:aa:
         58:60:ad:a8:4c:6c:86:45:54:19:9b:2d:3d:b5:55:9d:89:60:
         dd:b4:48:c4:08:37:cf:a4:b0:37:2e:ff:cb:71:28:29:c5:09:
         a9:09:02:c4:08:db:e4:e2:b7:01:f9:c3:e3:f0:aa:b1:aa:00:
         f8:4f:f4:ee:b4:81:be:44:7a:21:67:89:ab:8d:b4:f2:c0:7d:
         a5:99:d8:b3:53:a7:ca:ae:a4:7c:47:3f:bf:35:1f:8d:f7:5c:
         a0:be:40:7a:ca:30:72:f4:9c:cb:78:c9:0a:3b:fe:56:f2:9c:
         63:72:a3:2c:f2:f0:67:7d:ef:50:7b:14:c3:7c:a0:b7:1d:6f:
         a7:f9:4e:75:78:0d:c5:ef:d8:f1:b8:31:04:84:54:02:59:d2:
         17:30:6c:0e:5e:0b:7b:42:96:a6:b9:eb:78:f0:5e:e7:9d:99:
         5a:2e:ed:94:33:5a:c3:fc:ac:a5:1a:1c:81:b2:d1:86:ef:b2:
         ed:60:bb:5b:5d:b6:a3:be:06:75:95:07:da:12:fe:55:ed:7f:
         d8:68:7a:4e:76:e0:3c:2e:ea:a6:da:80:0c:4f:7c:74:4f:2f:
         53:0f:8b:cd
-----BEGIN CERTIFICATE-----
MIIDMTCCAhmgAwIBAgIBBzANBgkqhkiG9w0BAQsFADBxMQswCQYDVQQGEwJVUzET
MBEGA1UECAwKQ2FsaWZvcm5pYTEUMBIGA1UEBwwLU2FudGEgQ2xhcmExDTALBgNV
BAoMBHBrZzUxEDAOBgNVBAMMB2NoNV90YTExFjAUBgkqhkiG9w0BCQEWB2NoNV90
YTEwHhcNMTgwMzIwMTAyMDUyWhcNMjAxMjE0MTAyMDUyWjB5MQswCQYDVQQGEwJV
UzETMBEGA1UECAwKQ2FsaWZvcm5pYTEUMBIGA1UEBwwLU2FudGEgQ2xhcmExDTAL
BgNVBAoMBHBrZzUxFDASBgNVBAMMC2NzMl9jaDVfdGExMRowGAYJKoZIhvcNAQkB
FgtjczJfY2g1X3RhMTCBnzANBgkqhkiG9w0BAQEFAAOBjQAwgYkCgYEAy5lVIv8J
NoV7+C+AYjd7ZCj/4ZcSeK7wiX+ZrScPSdf6kzgrUuTclkCk6NB0H9zdRAh0kGSj
CUEcvyx8SvwDh79KYcpwhpagPT7E28m2gJ02dWBlw9UmMtGv+07ieyzP7gRo4y4f
sPaYzn5RFiLUnBwurgeoGa5u6w1hscaQumECAwEAAaNQME4wDAYDVR0TAQH/BAIw
ADA+BgNVHR8ENzA1MDOgMaAvhi1odHRwOi8vbG9jYWxob3N0OjEyMDAxL2ZpbGUv
MC9jaDVfdGExX2NybC5wZW0wDQYJKoZIhvcNAQELBQADggEBACVGpfut27l2cT5d
KXItimKlP6fAD/1NkSvr9XKOHy+SJOt5qlhgrahMbIZFVBmbLT21VZ2JYN20SMQI
N8+ksDcu/8txKCnFCakJAsQI2+TitwH5w+PwqrGqAPhP9O60gb5EeiFniauNtPLA
faWZ2LNTp8qupHxHP781H433XKC+QHrKMHL0nMt4yQo7/lbynGNyoyzy8Gd971B7
FMN8oLcdb6f5TnV4DcXv2PG4MQSEVAJZ0hcwbA5eC3tClqa563jwXuedmVou7ZQz
WsP8rKUaHIGy0Ybvsu1gu1tdtqO+BnWVB9oS/lXtf9hoek524Dwu6qbagAxPfHRP
L1MPi80=
-----END CERTIFICATE-----
