Certificate:
    Data:
        Version: 3 (0x2)
        Serial Number: 7 (0x7)
        Signature Algorithm: sha256WithRSAEncryption
        Issuer: C=US, ST=California, L=Santa Clara, O=pkg5, CN=ch5_ta1/emailAddress=ch5_ta1
        Validity
            Not Before: Dec 15 15:37:17 2022 GMT
            Not After : Sep 10 15:37:17 2025 GMT
        Subject: C=US, ST=California, L=Santa Clara, O=pkg5, CN=cs2_ch5_ta1/emailAddress=cs2_ch5_ta1
        Subject Public Key Info:
            Public Key Algorithm: rsaEncryption
                Public-Key: (2048 bit)
                Modulus:
                    00:9d:81:48:c0:bd:04:f5:36:46:74:57:f1:e2:f2:
                    af:83:2b:b4:13:bd:85:93:70:12:15:9b:fc:8a:1f:
                    a1:27:c4:cb:24:a6:f6:f1:0e:20:a0:2f:ff:59:ca:
                    79:73:7a:cf:1c:c2:53:06:8f:52:42:82:22:1d:ba:
                    b5:96:dc:5d:00:0c:ef:ac:39:f7:08:9d:7c:cf:03:
                    b0:ba:f4:67:7a:c0:18:20:9a:bd:ef:16:88:65:76:
                    46:e9:80:9f:ad:f2:ef:d4:5d:a3:46:81:38:15:8a:
                    4d:aa:34:fc:32:2b:b1:5f:97:86:f9:ed:0a:46:0a:
                    f1:88:2d:a7:32:0c:78:8b:20:86:3f:b6:69:27:14:
                    e8:5e:2c:2b:22:aa:c4:90:22:41:80:2a:88:cd:08:
                    12:08:73:54:98:15:4f:f1:c4:0b:43:22:04:68:55:
                    d2:a8:db:20:5d:48:a8:ea:84:e2:ae:8e:84:7f:68:
                    4f:0e:e3:0c:f8:e8:72:57:f5:29:81:c0:f7:2a:81:
                    cd:61:13:2e:93:6b:71:1e:92:99:f0:83:03:3d:95:
                    29:83:d7:5b:66:6c:94:f1:84:14:44:82:ae:30:ef:
                    45:4e:f0:fa:1c:7d:2d:03:3d:4c:47:cc:bb:41:a7:
                    a4:f5:46:5c:6d:2a:9f:3f:0f:30:f6:ea:d0:64:87:
                    07:59
                Exponent: 65537 (0x10001)
        X509v3 extensions:
            X509v3 Basic Constraints: critical
                CA:FALSE
            X509v3 CRL Distribution Points: 
                Full Name:
                  URI:http://localhost:12001/file/0/ch5_ta1_crl.pem
            X509v3 Subject Key Identifier: 
                54:8E:7A:99:3A:59:61:E7:B5:CD:BF:8E:F5:7D:AA:15:16:AF:45:56
            X509v3 Authority Key Identifier: 
                26:20:3F:64:E7:2E:7B:75:2C:EF:65:DF:05:65:D1:DB:BF:FE:B7:65
    Signature Algorithm: sha256WithRSAEncryption
    Signature Value:
        85:33:c1:f9:f4:d9:cc:82:17:67:b7:c7:64:c0:a5:a2:98:ed:
        4c:01:fd:36:a8:b5:3c:ac:63:c0:ff:ef:7e:30:bc:00:66:f6:
        65:ca:3b:7e:02:73:af:2c:54:51:96:6e:c0:4c:fd:e3:f6:24:
        e6:07:06:12:df:64:9c:e9:27:a7:82:3d:cc:04:1b:e5:24:3f:
        34:c1:8b:27:99:96:30:9d:5e:03:9f:8e:91:76:5e:07:d9:ec:
        87:e1:0e:23:b7:ea:94:e5:6f:49:89:64:ac:81:da:b6:ec:3a:
        26:a4:12:96:f4:f8:d9:d7:d6:79:fb:a2:f0:ed:ce:8d:ad:33:
        4d:44:c8:32:79:14:58:89:b3:14:a0:14:25:c8:e9:28:9e:f5:
        84:06:ce:b1:55:0c:43:59:41:da:2f:12:14:6e:c8:ae:ea:b7:
        74:b9:45:93:4b:3d:f8:08:43:a3:09:e0:51:eb:e0:f3:c0:73:
        07:fa:56:27:a4:ea:04:97:59:0c:fa:22:ec:a8:a6:7d:8f:e8:
        f2:2d:a9:7f:26:34:c3:a8:26:89:35:37:11:25:de:26:98:73:
        9e:ce:71:7c:6b:d6:71:cf:e2:8e:ef:84:46:4c:a8:71:5a:83:
        f0:42:6c:44:ef:47:fa:02:85:ba:32:27:cc:22:90:d6:7b:b7:
        14:1b:da:14
-----BEGIN CERTIFICATE-----
MIID9zCCAt+gAwIBAgIBBzANBgkqhkiG9w0BAQsFADBxMQswCQYDVQQGEwJVUzET
MBEGA1UECAwKQ2FsaWZvcm5pYTEUMBIGA1UEBwwLU2FudGEgQ2xhcmExDTALBgNV
BAoMBHBrZzUxEDAOBgNVBAMMB2NoNV90YTExFjAUBgkqhkiG9w0BCQEWB2NoNV90
YTEwHhcNMjIxMjE1MTUzNzE3WhcNMjUwOTEwMTUzNzE3WjB5MQswCQYDVQQGEwJV
UzETMBEGA1UECAwKQ2FsaWZvcm5pYTEUMBIGA1UEBwwLU2FudGEgQ2xhcmExDTAL
BgNVBAoMBHBrZzUxFDASBgNVBAMMC2NzMl9jaDVfdGExMRowGAYJKoZIhvcNAQkB
FgtjczJfY2g1X3RhMTCCASIwDQYJKoZIhvcNAQEBBQADggEPADCCAQoCggEBAJ2B
SMC9BPU2RnRX8eLyr4MrtBO9hZNwEhWb/IofoSfEyySm9vEOIKAv/1nKeXN6zxzC
UwaPUkKCIh26tZbcXQAM76w59widfM8DsLr0Z3rAGCCave8WiGV2RumAn63y79Rd
o0aBOBWKTao0/DIrsV+XhvntCkYK8YgtpzIMeIsghj+2aScU6F4sKyKqxJAiQYAq
iM0IEghzVJgVT/HEC0MiBGhV0qjbIF1IqOqE4q6OhH9oTw7jDPjoclf1KYHA9yqB
zWETLpNrcR6SmfCDAz2VKYPXW2ZslPGEFESCrjDvRU7w+hx9LQM9TEfMu0GnpPVG
XG0qnz8PMPbq0GSHB1kCAwEAAaOBkTCBjjAMBgNVHRMBAf8EAjAAMD4GA1UdHwQ3
MDUwM6AxoC+GLWh0dHA6Ly9sb2NhbGhvc3Q6MTIwMDEvZmlsZS8wL2NoNV90YTFf
Y3JsLnBlbTAdBgNVHQ4EFgQUVI56mTpZYee1zb+O9X2qFRavRVYwHwYDVR0jBBgw
FoAUJiA/ZOcue3Us72XfBWXR27/+t2UwDQYJKoZIhvcNAQELBQADggEBAIUzwfn0
2cyCF2e3x2TApaKY7UwB/TaotTysY8D/734wvABm9mXKO34Cc68sVFGWbsBM/eP2
JOYHBhLfZJzpJ6eCPcwEG+UkPzTBiyeZljCdXgOfjpF2XgfZ7IfhDiO36pTlb0mJ
ZKyB2rbsOiakEpb0+NnX1nn7ovDtzo2tM01EyDJ5FFiJsxSgFCXI6Sie9YQGzrFV
DENZQdovEhRuyK7qt3S5RZNLPfgIQ6MJ4FHr4PPAcwf6Viek6gSXWQz6Iuyopn2P
6PItqX8mNMOoJok1NxEl3iaYc57OcXxr1nHP4o7vhEZMqHFag/BCbETvR/oChboy
J8wikNZ7txQb2hQ=
-----END CERTIFICATE-----
