Certificate:
    Data:
        Version: 3 (0x2)
        Serial Number: 37 (0x25)
    Signature Algorithm: sha256WithRSAEncryption
        Issuer: C=US, ST=California, L=Santa Clara, O=pkg5, CN=ch1_ta4/emailAddress=ch1_ta4
        Validity
            Not Before: Mar 20 10:20:55 2018 GMT
            Not After : Dec 14 10:20:55 2020 GMT
        Subject: C=US, ST=California, L=Santa Clara, O=pkg5, CN=cs2_ch1_ta4/emailAddress=cs2_ch1_ta4
        Subject Public Key Info:
            Public Key Algorithm: rsaEncryption
                Public-Key: (1024 bit)
                Modulus:
                    00:ea:87:74:a0:c8:0e:b8:cf:67:f7:19:73:56:7f:
                    6a:30:4b:b9:0d:69:14:e1:60:11:ed:aa:03:d8:f6:
                    79:28:a6:1b:b7:ed:6a:c6:eb:17:cf:a5:40:91:95:
                    db:f2:1d:c5:a5:29:d0:42:a9:50:31:dd:b8:29:06:
                    db:be:f8:a2:34:c4:42:32:7f:55:fd:ce:27:e1:9f:
                    16:58:4b:85:9d:7e:96:b8:ad:a3:0c:9d:76:5f:17:
                    0b:0d:21:bc:f7:3e:c5:c0:45:12:b7:2b:5d:81:2b:
                    91:a8:0a:d2:4b:52:5d:7a:6c:08:85:c1:d1:79:84:
                    6a:12:c1:16:4c:96:20:25:a9
                Exponent: 65537 (0x10001)
        X509v3 extensions:
            X509v3 Subject Key Identifier: 
                40:9D:3A:EE:B2:54:A8:6D:74:5B:36:9E:37:72:9F:CC:2F:3A:98:40
            X509v3 Authority Key Identifier: 
                keyid:1F:C3:17:35:AF:BC:CF:C0:2B:13:96:F2:E2:D7:10:4A:9E:07:25:96
                DirName:/C=US/ST=California/L=Santa Clara/O=pkg5/CN=ta4/emailAddress=ta4
                serial:23

            X509v3 Basic Constraints: critical
                CA:FALSE
            X509v3 CRL Distribution Points: 

                Full Name:
                  URI:http://localhost:12001/file/0/example_file

    Signature Algorithm: sha256WithRSAEncryption
         1c:9e:c9:b8:d8:a9:bf:6c:a5:e3:e9:e3:d9:aa:01:a6:45:cd:
         1e:55:83:4c:7a:e2:67:4a:49:57:b3:0e:b2:0f:88:a5:9c:77:
         67:f6:f3:d4:62:f8:c3:9e:7f:de:ef:4f:39:3f:06:1f:c8:7c:
         47:57:d8:83:f3:07:32:79:4f:1b:90:15:3f:73:b4:24:17:31:
         5d:c5:83:7e:e2:ab:77:e9:76:ea:f6:ec:20:4e:ae:97:2a:94:
         bb:c4:7b:c9:c8:16:52:c3:f1:bf:4c:d4:31:ea:06:8e:74:33:
         22:3f:0e:f8:aa:43:8e:1a:d8:4c:d2:1e:0f:ce:eb:17:8e:46:
         ee:87:d2:dd:9b:e6:e8:83:8f:df:be:cb:2c:a0:d4:1f:32:14:
         55:f5:0c:11:ee:9d:64:f6:ff:26:e4:15:40:c1:73:ef:6c:74:
         4e:56:95:80:a9:8e:3c:93:e7:85:85:e5:41:6d:7b:7c:ab:1b:
         fc:aa:17:fc:c7:53:bc:2b:f5:f3:ea:dc:db:b0:97:ac:92:8f:
         6d:48:ce:62:db:ea:4b:89:6b:fd:fb:b7:67:0b:40:84:b9:b2:
         5b:40:1b:80:6d:46:5e:29:80:d2:1d:b3:14:e8:9a:9f:3d:ee:
         8d:db:0a:80:e5:85:6a:dc:b4:54:1c:f4:6c:56:11:d3:a6:a7:
         a2:ca:6b:ce
-----BEGIN CERTIFICATE-----
MIID5zCCAs+gAwIBAgIBJTANBgkqhkiG9w0BAQsFADBxMQswCQYDVQQGEwJVUzET
MBEGA1UECAwKQ2FsaWZvcm5pYTEUMBIGA1UEBwwLU2FudGEgQ2xhcmExDTALBgNV
BAoMBHBrZzUxEDAOBgNVBAMMB2NoMV90YTQxFjAUBgkqhkiG9w0BCQEWB2NoMV90
YTQwHhcNMTgwMzIwMTAyMDU1WhcNMjAxMjE0MTAyMDU1WjB5MQswCQYDVQQGEwJV
UzETMBEGA1UECAwKQ2FsaWZvcm5pYTEUMBIGA1UEBwwLU2FudGEgQ2xhcmExDTAL
BgNVBAoMBHBrZzUxFDASBgNVBAMMC2NzMl9jaDFfdGE0MRowGAYJKoZIhvcNAQkB
FgtjczJfY2gxX3RhNDCBnzANBgkqhkiG9w0BAQEFAAOBjQAwgYkCgYEA6od0oMgO
uM9n9xlzVn9qMEu5DWkU4WAR7aoD2PZ5KKYbt+1qxusXz6VAkZXb8h3FpSnQQqlQ
Md24KQbbvviiNMRCMn9V/c4n4Z8WWEuFnX6WuK2jDJ12XxcLDSG89z7FwEUStytd
gSuRqArSS1JdemwIhcHReYRqEsEWTJYgJakCAwEAAaOCAQQwggEAMB0GA1UdDgQW
BBRAnTruslSobXRbNp43cp/MLzqYQDCBkwYDVR0jBIGLMIGIgBQfwxc1r7zPwCsT
lvLi1xBKngcllqFtpGswaTELMAkGA1UEBhMCVVMxEzARBgNVBAgMCkNhbGlmb3Ju
aWExFDASBgNVBAcMC1NhbnRhIENsYXJhMQ0wCwYDVQQKDARwa2c1MQwwCgYDVQQD
DAN0YTQxEjAQBgkqhkiG9w0BCQEWA3RhNIIBIzAMBgNVHRMBAf8EAjAAMDsGA1Ud
HwQ0MDIwMKAuoCyGKmh0dHA6Ly9sb2NhbGhvc3Q6MTIwMDEvZmlsZS8wL2V4YW1w
bGVfZmlsZTANBgkqhkiG9w0BAQsFAAOCAQEAHJ7JuNipv2yl4+nj2aoBpkXNHlWD
THriZ0pJV7MOsg+IpZx3Z/bz1GL4w55/3u9POT8GH8h8R1fYg/MHMnlPG5AVP3O0
JBcxXcWDfuKrd+l26vbsIE6ulyqUu8R7ycgWUsPxv0zUMeoGjnQzIj8O+KpDjhrY
TNIeD87rF45G7ofS3Zvm6IOP377LLKDUHzIUVfUMEe6dZPb/JuQVQMFz72x0TlaV
gKmOPJPnhYXlQW17fKsb/KoX/MdTvCv18+rc27CXrJKPbUjOYtvqS4lr/fu3ZwtA
hLmyW0AbgG1GXimA0h2zFOianz3ujdsKgOWFaty0VBz0bFYR06anosprzg==
-----END CERTIFICATE-----
