Certificate:
    Data:
        Version: 3 (0x2)
        Serial Number: 7 (0x7)
    Signature Algorithm: sha256WithRSAEncryption
        Issuer: C=US, ST=California, L=Santa Clara, O=pkg5, CN=ch5_ta1/emailAddress=ch5_ta1
        Validity
            Not Before: Nov 16 10:58:47 2017 GMT
            Not After : Aug 12 10:58:47 2020 GMT
        Subject: C=US, ST=California, L=Santa Clara, O=pkg5, CN=cs2_ch5_ta1/emailAddress=cs2_ch5_ta1
        Subject Public Key Info:
            Public Key Algorithm: rsaEncryption
                Public-Key: (1024 bit)
                Modulus:
                    00:e9:3a:63:d8:05:81:f2:8e:5d:09:83:af:84:4f:
                    bd:8a:23:ff:b0:4e:2e:cb:bb:e1:13:49:4a:19:cd:
                    e2:d6:3e:5a:00:c8:18:bd:84:c5:e3:17:fd:88:f0:
                    19:61:79:6c:a9:54:71:3a:c4:4c:e6:99:01:20:fd:
                    87:9e:18:fa:8d:a5:a6:05:48:12:ae:8a:df:f2:55:
                    2a:1e:90:23:58:ff:7d:59:9b:7c:30:f0:23:f1:b3:
                    46:fa:de:fb:b2:96:09:4f:7e:79:0b:21:30:96:f1:
                    4c:24:05:c2:fe:11:79:c3:6a:4a:6f:f6:d6:83:74:
                    89:bb:fe:1e:ea:30:38:0f:ab
                Exponent: 65537 (0x10001)
        X509v3 extensions:
            X509v3 Basic Constraints: critical
                CA:FALSE
            X509v3 CRL Distribution Points: 

                Full Name:
                  URI:http://localhost:12001/file/0/ch5_ta1_crl.pem

    Signature Algorithm: sha256WithRSAEncryption
         56:8d:15:e0:62:eb:f2:1b:42:16:3c:41:df:f2:db:1d:8b:cb:
         1d:ea:b1:ce:72:cd:b9:cc:f7:03:71:bd:9a:40:8d:fd:73:7d:
         d0:76:3e:76:0f:0e:58:e1:f6:0a:86:dc:42:e6:aa:eb:48:78:
         9f:80:c3:f9:75:72:c4:68:ba:4a:2b:5a:86:2e:32:08:4f:97:
         4a:79:61:fb:1b:84:07:8b:39:b0:7e:d3:5c:df:70:93:4f:cd:
         13:84:2b:90:84:58:04:fb:fc:06:4a:80:c8:3a:77:86:e1:99:
         1b:34:ea:04:81:62:e5:8e:74:5f:24:2d:3e:fa:e5:ee:e2:6f:
         39:d4:63:1d:ed:9a:59:99:52:2a:8e:99:c4:3c:9b:ef:f2:2c:
         94:c6:db:23:6b:03:c2:a8:ec:8e:b1:e4:0f:85:82:ab:ba:9b:
         55:5f:1e:a9:40:df:f0:4d:44:f8:aa:f5:7f:e5:0e:2b:95:c4:
         e0:a1:cf:a0:5c:4e:28:b5:f3:90:d1:54:ae:4e:a1:f6:c4:a9:
         ec:2a:70:17:e7:86:e6:3d:79:58:4b:7e:ee:2d:2c:4a:5a:41:
         ba:ce:bc:08:62:8f:7c:e9:2f:a8:b1:1e:e7:42:05:b8:c9:0f:
         82:92:d2:8e:f3:db:70:15:3e:82:a4:47:ba:d9:83:4c:ff:70:
         0b:29:29:2f
-----BEGIN CERTIFICATE-----
MIIDMTCCAhmgAwIBAgIBBzANBgkqhkiG9w0BAQsFADBxMQswCQYDVQQGEwJVUzET
MBEGA1UECAwKQ2FsaWZvcm5pYTEUMBIGA1UEBwwLU2FudGEgQ2xhcmExDTALBgNV
BAoMBHBrZzUxEDAOBgNVBAMMB2NoNV90YTExFjAUBgkqhkiG9w0BCQEWB2NoNV90
YTEwHhcNMTcxMTE2MTA1ODQ3WhcNMjAwODEyMTA1ODQ3WjB5MQswCQYDVQQGEwJV
UzETMBEGA1UECAwKQ2FsaWZvcm5pYTEUMBIGA1UEBwwLU2FudGEgQ2xhcmExDTAL
BgNVBAoMBHBrZzUxFDASBgNVBAMMC2NzMl9jaDVfdGExMRowGAYJKoZIhvcNAQkB
FgtjczJfY2g1X3RhMTCBnzANBgkqhkiG9w0BAQEFAAOBjQAwgYkCgYEA6Tpj2AWB
8o5dCYOvhE+9iiP/sE4uy7vhE0lKGc3i1j5aAMgYvYTF4xf9iPAZYXlsqVRxOsRM
5pkBIP2Hnhj6jaWmBUgSrorf8lUqHpAjWP99WZt8MPAj8bNG+t77spYJT355CyEw
lvFMJAXC/hF5w2pKb/bWg3SJu/4e6jA4D6sCAwEAAaNQME4wDAYDVR0TAQH/BAIw
ADA+BgNVHR8ENzA1MDOgMaAvhi1odHRwOi8vbG9jYWxob3N0OjEyMDAxL2ZpbGUv
MC9jaDVfdGExX2NybC5wZW0wDQYJKoZIhvcNAQELBQADggEBAFaNFeBi6/IbQhY8
Qd/y2x2Lyx3qsc5yzbnM9wNxvZpAjf1zfdB2PnYPDljh9gqG3ELmqutIeJ+Aw/l1
csRoukorWoYuMghPl0p5YfsbhAeLObB+01zfcJNPzROEK5CEWAT7/AZKgMg6d4bh
mRs06gSBYuWOdF8kLT765e7ibznUYx3tmlmZUiqOmcQ8m+/yLJTG2yNrA8Ko7I6x
5A+Fgqu6m1VfHqlA3/BNRPiq9X/lDiuVxOChz6BcTii185DRVK5OofbEqewqcBfn
huY9eVhLfu4tLEpaQbrOvAhij3zpL6ixHudCBbjJD4KS0o7z23AVPoKkR7rZg0z/
cAspKS8=
-----END CERTIFICATE-----
