Certificate:
    Data:
        Version: 3 (0x2)
        Serial Number: 18 (0x12)
    Signature Algorithm: sha256WithRSAEncryption
        Issuer: C=US, ST=California, L=Santa Clara, O=pkg5, CN=ch1_ta3/emailAddress=ch1_ta3
        Validity
            Not Before: Mar 20 10:20:53 2018 GMT
            Not After : Dec 14 10:20:53 2020 GMT
        Subject: C=US, ST=California, L=Santa Clara, O=pkg5, CN=cs2_ch1_ta3/emailAddress=cs2_ch1_ta3
        Subject Public Key Info:
            Public Key Algorithm: rsaEncryption
                Public-Key: (1024 bit)
                Modulus:
                    00:c0:77:a2:c0:e9:27:73:d6:b0:b5:f0:f5:e1:0f:
                    b2:2b:27:a1:a9:40:fc:e3:33:71:bc:e5:67:5d:ea:
                    e0:72:41:44:85:28:41:af:79:88:f9:e0:bd:8b:d7:
                    a3:42:9e:8d:b9:f6:d0:45:8e:48:ad:ef:31:47:ce:
                    36:c7:e1:02:08:e7:c2:f5:53:ea:f9:b1:55:08:4b:
                    f4:67:76:ba:88:68:12:1a:83:0a:34:7a:26:c9:0a:
                    e6:0f:c8:34:60:40:e9:71:9b:a4:c6:fc:1b:6d:85:
                    df:4f:13:4e:e2:44:af:89:c8:03:c5:f8:78:28:78:
                    72:ef:b5:60:bd:1c:66:a0:7b
                Exponent: 65537 (0x10001)
        X509v3 extensions:
            X509v3 Basic Constraints: critical
                CA:FALSE
            X509v3 Issuer Alternative Name: critical
                email:ch1_ta3
    Signature Algorithm: sha256WithRSAEncryption
         10:57:be:70:94:cc:71:c2:6f:79:3e:51:d2:9c:a7:4e:22:b3:
         d0:0d:77:81:0a:45:fa:8b:92:9a:c7:69:ac:9d:85:53:7e:2c:
         f9:41:66:50:54:8a:18:f3:b1:f1:69:ce:77:0d:31:19:d6:fd:
         7a:2c:d4:bb:9f:3e:7a:42:44:d1:c1:55:56:f7:38:91:3d:86:
         19:85:99:29:9b:9d:16:c3:de:f9:c2:a8:6f:99:cb:b8:47:04:
         ff:7b:0f:08:a8:dc:57:62:73:ad:1d:76:f9:77:aa:05:5c:97:
         f4:e9:49:c3:56:e7:fd:83:6b:36:9e:f7:07:0b:ee:95:f6:49:
         7d:e5:fe:69:1f:f7:d3:6f:45:ab:7e:32:87:15:02:89:79:c5:
         57:21:38:2c:2a:0c:d7:c7:a8:2f:99:b8:d3:57:74:7a:3d:97:
         28:55:ba:f4:3d:63:7c:8d:e8:0a:d1:8b:02:90:b6:1d:c0:c2:
         63:f3:37:3d:55:de:6a:a2:9a:49:63:4c:88:5d:49:b9:6c:67:
         57:da:ad:98:80:58:31:7b:00:92:02:b2:25:f8:ec:b2:1a:b4:
         0c:2f:af:5a:e9:3d:29:8d:bd:e8:59:de:fc:22:16:d6:92:df:
         9c:78:18:c2:81:22:52:8c:b5:37:9c:c0:16:6c:3b:0a:1d:b3:
         43:01:c6:76
-----BEGIN CERTIFICATE-----
MIIDCDCCAfCgAwIBAgIBEjANBgkqhkiG9w0BAQsFADBxMQswCQYDVQQGEwJVUzET
MBEGA1UECAwKQ2FsaWZvcm5pYTEUMBIGA1UEBwwLU2FudGEgQ2xhcmExDTALBgNV
BAoMBHBrZzUxEDAOBgNVBAMMB2NoMV90YTMxFjAUBgkqhkiG9w0BCQEWB2NoMV90
YTMwHhcNMTgwMzIwMTAyMDUzWhcNMjAxMjE0MTAyMDUzWjB5MQswCQYDVQQGEwJV
UzETMBEGA1UECAwKQ2FsaWZvcm5pYTEUMBIGA1UEBwwLU2FudGEgQ2xhcmExDTAL
BgNVBAoMBHBrZzUxFDASBgNVBAMMC2NzMl9jaDFfdGEzMRowGAYJKoZIhvcNAQkB
FgtjczJfY2gxX3RhMzCBnzANBgkqhkiG9w0BAQEFAAOBjQAwgYkCgYEAwHeiwOkn
c9awtfD14Q+yKyehqUD84zNxvOVnXergckFEhShBr3mI+eC9i9ejQp6NufbQRY5I
re8xR842x+ECCOfC9VPq+bFVCEv0Z3a6iGgSGoMKNHomyQrmD8g0YEDpcZukxvwb
bYXfTxNO4kSvicgDxfh4KHhy77VgvRxmoHsCAwEAAaMnMCUwDAYDVR0TAQH/BAIw
ADAVBgNVHRIBAf8ECzAJgQdjaDFfdGEzMA0GCSqGSIb3DQEBCwUAA4IBAQAQV75w
lMxxwm95PlHSnKdOIrPQDXeBCkX6i5Kax2msnYVTfiz5QWZQVIoY87Hxac53DTEZ
1v16LNS7nz56QkTRwVVW9ziRPYYZhZkpm50Ww975wqhvmcu4RwT/ew8IqNxXYnOt
HXb5d6oFXJf06UnDVuf9g2s2nvcHC+6V9kl95f5pH/fTb0WrfjKHFQKJecVXITgs
KgzXx6gvmbjTV3R6PZcoVbr0PWN8jegK0YsCkLYdwMJj8zc9Vd5qoppJY0yIXUm5
bGdX2q2YgFgxewCSArIl+OyyGrQML69a6T0pjb3oWd78IhbWkt+ceBjCgSJSjLU3
nMAWbDsKHbNDAcZ2
-----END CERTIFICATE-----
