Certificate:
    Data:
        Version: 3 (0x2)
        Serial Number: 18 (0x12)
        Signature Algorithm: sha256WithRSAEncryption
        Issuer: C=US, ST=California, L=Santa Clara, O=pkg5, CN=ch1_ta3/emailAddress=ch1_ta3
        Validity
            Not Before: Nov 14 14:26:54 2024 GMT
            Not After : Aug 11 14:26:54 2027 GMT
        Subject: C=US, ST=California, L=Santa Clara, O=pkg5, CN=cs2_ch1_ta3/emailAddress=cs2_ch1_ta3
        Subject Public Key Info:
            Public Key Algorithm: rsaEncryption
                Public-Key: (2048 bit)
                Modulus:
                    00:bf:c7:cf:1d:04:73:bd:16:d3:ca:4a:2c:9d:9f:
                    4e:ee:89:fd:87:bd:e1:27:5f:04:d8:09:a5:f3:7c:
                    18:93:95:46:58:79:2f:b5:67:49:d5:03:28:80:62:
                    a0:4b:70:ce:89:a6:6e:4e:6c:82:04:38:6e:a1:97:
                    af:58:1a:a1:6b:40:fd:64:8f:3f:2c:71:05:7e:f0:
                    be:5d:5b:d4:58:df:84:a8:45:19:ef:39:0c:ef:b6:
                    37:ae:28:27:30:0c:7f:f2:82:ad:c9:b3:e4:c6:b1:
                    58:01:98:a3:a9:f5:00:aa:07:a8:79:4b:70:5e:cd:
                    bf:94:fb:e4:9a:71:88:95:c3:a5:77:71:b7:97:5e:
                    5e:c1:9d:16:c9:50:3e:6a:e1:85:2e:8e:79:fa:d9:
                    91:a2:3f:0e:ad:51:4f:42:13:94:ba:82:1d:2a:40:
                    f2:c4:ee:ec:6d:59:6c:05:30:92:ad:f9:aa:56:a4:
                    c1:60:93:52:52:45:3a:39:1a:67:fc:32:ff:86:cd:
                    44:35:aa:fc:54:7b:87:c6:1d:7c:62:d9:e6:5c:bc:
                    50:7b:94:c1:7e:23:b5:31:97:d1:05:e3:28:d3:ce:
                    e3:ba:2e:d0:84:bb:da:c1:10:be:76:37:5f:b0:a2:
                    44:1a:ed:07:7f:7a:d4:79:fd:da:e4:7b:f6:01:5f:
                    71:43
                Exponent: 65537 (0x10001)
        X509v3 extensions:
            X509v3 Basic Constraints: critical
                CA:FALSE
            X509v3 Issuer Alternative Name: critical
                email:ch1_ta3
            X509v3 Subject Key Identifier: 
                94:0A:37:9C:35:10:29:67:0E:6D:8A:BA:83:2A:7D:1F:56:40:5D:A3
            X509v3 Authority Key Identifier: 
                AD:BE:5E:36:0D:CA:1F:58:96:99:52:1F:30:4B:F4:16:7A:8D:9E:7F
    Signature Algorithm: sha256WithRSAEncryption
    Signature Value:
        4c:40:e8:78:d7:a3:84:77:41:1d:48:08:29:af:84:60:fb:98:
        05:17:4e:63:b3:f6:a0:8a:33:e9:ef:dc:b2:9e:a5:ed:08:92:
        9d:bf:68:51:15:99:47:42:15:56:1f:3b:9e:dd:be:eb:c6:48:
        f7:99:7c:05:9d:b5:59:53:64:e4:05:c9:12:20:c2:d9:66:c7:
        c8:aa:f5:9f:e3:c5:9e:d2:94:2e:5e:8e:8b:dc:51:66:6e:b3:
        7b:85:61:a0:32:6d:fb:7a:20:6d:89:21:38:92:e1:6e:a8:6e:
        0e:9a:78:39:7b:bd:83:51:78:1d:9a:d1:0a:f5:a4:f9:df:64:
        6c:f7:54:25:18:5b:ac:b6:ff:cb:dd:d2:f0:ff:61:b4:a8:53:
        4d:0a:7f:c4:33:bf:b7:64:9f:8a:71:8f:6b:a7:52:fb:5e:03:
        fb:15:bf:4a:b6:b2:92:a5:25:39:c4:8e:fa:81:1e:09:fb:13:
        d8:9f:e0:ac:dd:3e:13:86:26:c2:63:b8:c1:42:10:83:c8:bf:
        44:6f:b7:84:ce:fc:78:b1:c1:b9:2b:d0:6d:38:31:24:e0:53:
        44:da:2a:6e:7c:fb:4c:9f:b3:51:9d:a7:e9:0c:ba:d4:ba:f3:
        cd:53:ea:9c:95:a3:cb:3d:d0:4c:2a:85:14:83:65:3b:1e:39:
        af:7f:e9:96
-----BEGIN CERTIFICATE-----
MIIDzDCCArSgAwIBAgIBEjANBgkqhkiG9w0BAQsFADBxMQswCQYDVQQGEwJVUzET
MBEGA1UECAwKQ2FsaWZvcm5pYTEUMBIGA1UEBwwLU2FudGEgQ2xhcmExDTALBgNV
BAoMBHBrZzUxEDAOBgNVBAMMB2NoMV90YTMxFjAUBgkqhkiG9w0BCQEWB2NoMV90
YTMwHhcNMjQxMTE0MTQyNjU0WhcNMjcwODExMTQyNjU0WjB5MQswCQYDVQQGEwJV
UzETMBEGA1UECAwKQ2FsaWZvcm5pYTEUMBIGA1UEBwwLU2FudGEgQ2xhcmExDTAL
BgNVBAoMBHBrZzUxFDASBgNVBAMMC2NzMl9jaDFfdGEzMRowGAYJKoZIhvcNAQkB
FgtjczJfY2gxX3RhMzCCASIwDQYJKoZIhvcNAQEBBQADggEPADCCAQoCggEBAL/H
zx0Ec70W08pKLJ2fTu6J/Ye94SdfBNgJpfN8GJOVRlh5L7VnSdUDKIBioEtwzomm
bk5sggQ4bqGXr1gaoWtA/WSPPyxxBX7wvl1b1FjfhKhFGe85DO+2N64oJzAMf/KC
rcmz5MaxWAGYo6n1AKoHqHlLcF7Nv5T75JpxiJXDpXdxt5deXsGdFslQPmrhhS6O
efrZkaI/Dq1RT0ITlLqCHSpA8sTu7G1ZbAUwkq35qlakwWCTUlJFOjkaZ/wy/4bN
RDWq/FR7h8YdfGLZ5ly8UHuUwX4jtTGX0QXjKNPO47ou0IS72sEQvnY3X7CiRBrt
B3961Hn92uR79gFfcUMCAwEAAaNnMGUwDAYDVR0TAQH/BAIwADAVBgNVHRIBAf8E
CzAJgQdjaDFfdGEzMB0GA1UdDgQWBBSUCjecNRApZw5tirqDKn0fVkBdozAfBgNV
HSMEGDAWgBStvl42DcofWJaZUh8wS/QWeo2efzANBgkqhkiG9w0BAQsFAAOCAQEA
TEDoeNejhHdBHUgIKa+EYPuYBRdOY7P2oIoz6e/csp6l7QiSnb9oURWZR0IVVh87
nt2+68ZI95l8BZ21WVNk5AXJEiDC2WbHyKr1n+PFntKULl6Oi9xRZm6ze4VhoDJt
+3ogbYkhOJLhbqhuDpp4OXu9g1F4HZrRCvWk+d9kbPdUJRhbrLb/y93S8P9htKhT
TQp/xDO/t2SfinGPa6dS+14D+xW/SraykqUlOcSO+oEeCfsT2J/grN0+E4YmwmO4
wUIQg8i/RG+3hM78eLHBuSvQbTgxJOBTRNoqbnz7TJ+zUZ2n6Qy61LrzzVPqnJWj
yz3QTCqFFINlOx45r3/plg==
-----END CERTIFICATE-----
