Certificate:
    Data:
        Version: 3 (0x2)
        Serial Number: 37 (0x25)
        Signature Algorithm: sha256WithRSAEncryption
        Issuer: C=US, ST=California, L=Santa Clara, O=pkg5, CN=ch1_ta4/emailAddress=ch1_ta4
        Validity
            Not Before: Oct 24 21:43:12 2023 GMT
            Not After : Jul 20 21:43:12 2026 GMT
        Subject: C=US, ST=California, L=Santa Clara, O=pkg5, CN=cs2_ch1_ta4/emailAddress=cs2_ch1_ta4
        Subject Public Key Info:
            Public Key Algorithm: rsaEncryption
                Public-Key: (2048 bit)
                Modulus:
                    00:90:ed:2f:c5:90:c1:01:90:4b:c9:e6:57:fc:e5:
                    98:f6:68:85:09:cc:c7:0e:6c:14:12:1c:f6:0c:f1:
                    9a:c5:04:a1:2a:01:29:6e:89:4d:46:eb:25:ef:bb:
                    e9:b7:7a:7b:27:bd:4a:16:14:53:a6:97:fc:de:8b:
                    0f:8a:93:bc:71:dd:17:52:46:47:f5:f5:ef:24:da:
                    b7:6f:96:a4:e2:b3:7c:71:a6:8a:a7:6d:4a:c3:3f:
                    85:ac:b4:4f:53:c3:31:15:5c:30:8f:b3:a6:90:33:
                    4a:42:a0:cc:a9:75:8f:91:ff:62:c9:f7:ea:4c:dd:
                    97:4f:fb:7d:ad:a6:c9:9d:04:bc:80:c3:55:1a:bf:
                    6a:c4:dc:7a:5f:1b:6e:ec:af:63:f5:2a:d3:d0:89:
                    ca:38:74:45:61:1e:cb:6e:d9:e6:f9:14:7e:54:26:
                    86:94:cf:bb:1a:b7:9f:42:52:ff:25:9a:08:88:f5:
                    e3:83:c9:1b:88:d6:de:37:5c:c5:75:5f:74:62:95:
                    e6:12:a1:38:39:c0:bc:c0:b5:18:bb:77:7d:c8:ce:
                    07:91:93:fe:81:45:07:d7:d2:93:55:f3:0c:cb:32:
                    60:e6:56:6a:41:e3:49:ca:cb:7d:27:3d:bf:2c:83:
                    13:df:d4:d9:22:f9:04:70:8d:0a:c4:2a:6e:af:50:
                    7f:57
                Exponent: 65537 (0x10001)
        X509v3 extensions:
            X509v3 Subject Key Identifier: 
                8B:21:7E:01:9F:42:02:C6:9D:39:93:17:E6:23:2A:51:8E:4E:27:93
            X509v3 Authority Key Identifier: 
                keyid:3C:21:78:84:F9:73:24:3A:7F:39:6C:DF:92:A8:F4:37:30:5E:47:09
                DirName:/C=US/ST=California/L=Santa Clara/O=pkg5/CN=ta4/emailAddress=ta4
                serial:23
            X509v3 Basic Constraints: critical
                CA:FALSE
            X509v3 CRL Distribution Points: 
                Full Name:
                  URI:http://localhost:12001/file/0/example_file
    Signature Algorithm: sha256WithRSAEncryption
    Signature Value:
        70:9a:21:a2:e9:0b:4d:96:68:dd:07:c4:8a:10:29:85:16:0b:
        2a:16:8c:92:16:54:b4:90:ee:8a:3c:be:30:26:48:c1:fe:09:
        16:13:85:13:e0:13:02:6d:e7:4f:f2:f8:ed:16:2e:7f:7f:dd:
        61:64:1f:5f:0c:d3:db:34:61:ed:4d:50:ec:23:ff:ad:af:85:
        03:07:74:da:45:ad:51:9c:19:59:b2:d6:0d:f4:7d:51:a6:e3:
        e6:d8:1a:57:c3:47:87:a0:03:02:cf:78:62:ec:fb:5d:28:af:
        df:b9:5c:2e:49:11:12:fd:b6:7a:70:09:fd:c4:05:ba:59:ed:
        86:83:e8:45:2a:09:ab:78:bf:74:1f:0c:69:94:b7:18:6b:56:
        5d:10:a7:d3:2e:61:e2:75:c5:81:db:3d:c7:b9:8a:4c:52:47:
        42:01:5d:10:3b:ea:4d:fd:4c:81:70:98:ce:43:d8:b9:9c:34:
        e7:35:ac:28:07:b2:6f:12:7d:c9:15:42:07:45:13:25:f2:7a:
        70:5e:42:98:70:23:23:53:9c:64:a3:9d:0a:aa:ed:f4:39:36:
        f7:96:d6:5b:6b:8c:dc:26:33:d0:84:f3:05:df:04:4a:ad:b0:
        c5:3d:a5:17:b5:8c:a5:b9:32:de:73:e3:81:4c:84:2c:bf:5f:
        d7:dc:e1:db
-----BEGIN CERTIFICATE-----
MIIEazCCA1OgAwIBAgIBJTANBgkqhkiG9w0BAQsFADBxMQswCQYDVQQGEwJVUzET
MBEGA1UECAwKQ2FsaWZvcm5pYTEUMBIGA1UEBwwLU2FudGEgQ2xhcmExDTALBgNV
BAoMBHBrZzUxEDAOBgNVBAMMB2NoMV90YTQxFjAUBgkqhkiG9w0BCQEWB2NoMV90
YTQwHhcNMjMxMDI0MjE0MzEyWhcNMjYwNzIwMjE0MzEyWjB5MQswCQYDVQQGEwJV
UzETMBEGA1UECAwKQ2FsaWZvcm5pYTEUMBIGA1UEBwwLU2FudGEgQ2xhcmExDTAL
BgNVBAoMBHBrZzUxFDASBgNVBAMMC2NzMl9jaDFfdGE0MRowGAYJKoZIhvcNAQkB
FgtjczJfY2gxX3RhNDCCASIwDQYJKoZIhvcNAQEBBQADggEPADCCAQoCggEBAJDt
L8WQwQGQS8nmV/zlmPZohQnMxw5sFBIc9gzxmsUEoSoBKW6JTUbrJe+76bd6eye9
ShYUU6aX/N6LD4qTvHHdF1JGR/X17yTat2+WpOKzfHGmiqdtSsM/hay0T1PDMRVc
MI+zppAzSkKgzKl1j5H/Ysn36kzdl0/7fa2myZ0EvIDDVRq/asTcel8bbuyvY/Uq
09CJyjh0RWEey27Z5vkUflQmhpTPuxq3n0JS/yWaCIj144PJG4jW3jdcxXVfdGKV
5hKhODnAvMC1GLt3fcjOB5GT/oFFB9fSk1XzDMsyYOZWakHjScrLfSc9vyyDE9/U
2SL5BHCNCsQqbq9Qf1cCAwEAAaOCAQQwggEAMB0GA1UdDgQWBBSLIX4Bn0ICxp05
kxfmIypRjk4nkzCBkwYDVR0jBIGLMIGIgBQ8IXiE+XMkOn85bN+SqPQ3MF5HCaFt
pGswaTELMAkGA1UEBhMCVVMxEzARBgNVBAgMCkNhbGlmb3JuaWExFDASBgNVBAcM
C1NhbnRhIENsYXJhMQ0wCwYDVQQKDARwa2c1MQwwCgYDVQQDDAN0YTQxEjAQBgkq
hkiG9w0BCQEWA3RhNIIBIzAMBgNVHRMBAf8EAjAAMDsGA1UdHwQ0MDIwMKAuoCyG
Kmh0dHA6Ly9sb2NhbGhvc3Q6MTIwMDEvZmlsZS8wL2V4YW1wbGVfZmlsZTANBgkq
hkiG9w0BAQsFAAOCAQEAcJohoukLTZZo3QfEihAphRYLKhaMkhZUtJDuijy+MCZI
wf4JFhOFE+ATAm3nT/L47RYuf3/dYWQfXwzT2zRh7U1Q7CP/ra+FAwd02kWtUZwZ
WbLWDfR9Uabj5tgaV8NHh6ADAs94Yuz7XSiv37lcLkkREv22enAJ/cQFulnthoPo
RSoJq3i/dB8MaZS3GGtWXRCn0y5h4nXFgds9x7mKTFJHQgFdEDvqTf1MgXCYzkPY
uZw05zWsKAeybxJ9yRVCB0UTJfJ6cF5CmHAjI1OcZKOdCqrt9Dk295bWW2uM3CYz
0ITzBd8ESq2wxT2lF7WMpbky3nPjgUyELL9f19zh2w==
-----END CERTIFICATE-----
