Certificate:
    Data:
        Version: 3 (0x2)
        Serial Number: 18 (0x12)
        Signature Algorithm: sha256WithRSAEncryption
        Issuer: C=US, ST=California, L=Santa Clara, O=pkg5, CN=ch1_ta3/emailAddress=ch1_ta3
        Validity
            Not Before: Oct 22 10:15:11 2021 GMT
            Not After : Jul 18 10:15:11 2024 GMT
        Subject: C=US, ST=California, L=Santa Clara, O=pkg5, CN=cs2_ch1_ta3/emailAddress=cs2_ch1_ta3
        Subject Public Key Info:
            Public Key Algorithm: rsaEncryption
                Public-Key: (2048 bit)
                Modulus:
                    00:af:5a:22:90:fc:69:46:e4:df:18:8f:a0:71:ab:
                    20:23:29:5f:c9:86:2b:2b:c2:23:13:03:1f:3d:f0:
                    a1:e8:65:d7:bf:0e:8d:29:c8:6d:d2:42:7e:01:26:
                    4c:29:22:a5:4e:c4:5f:97:f9:79:67:fb:91:3c:54:
                    fa:35:fd:9b:1a:03:e5:50:59:a5:72:96:7d:eb:60:
                    e1:33:fa:7b:38:70:75:f5:10:97:b4:1a:b9:16:2c:
                    50:8a:a4:04:fb:10:0d:da:ca:6d:15:f1:7f:82:95:
                    50:2a:57:a6:67:0d:80:37:f4:da:12:03:e6:21:13:
                    18:36:ef:1c:a1:00:c8:8c:0c:b9:a6:b5:cf:aa:52:
                    a1:24:b7:57:8f:6a:8c:81:c4:48:21:0f:d7:15:d0:
                    a7:7a:92:3f:2e:77:45:bd:7e:18:30:fe:92:2d:55:
                    ab:bf:15:0a:3a:18:1a:f6:ed:5c:0e:de:fb:8b:85:
                    a4:70:98:9d:60:f3:e4:fa:61:a0:be:67:97:2a:d5:
                    0e:be:2f:6a:63:d4:f9:90:d3:e7:12:cd:ed:26:6e:
                    9c:18:7c:2c:ed:a3:6d:25:6a:a6:26:eb:15:ef:23:
                    a4:73:0c:0e:90:12:f5:bd:d0:a0:25:5f:95:cc:01:
                    02:1b:e0:f7:d4:6b:48:78:f1:31:24:5b:e9:95:95:
                    a5:65
                Exponent: 65537 (0x10001)
        X509v3 extensions:
            X509v3 Basic Constraints: critical
                CA:FALSE
            X509v3 Issuer Alternative Name: critical
                email:ch1_ta3
            X509v3 Subject Key Identifier: 
                ED:55:30:CF:B3:66:76:F9:B5:D4:C3:1E:5B:5C:7C:23:A1:87:69:78
            X509v3 Authority Key Identifier: 
                D5:A6:1E:11:8A:90:CB:66:0F:10:66:77:01:DD:3A:8F:14:F0:85:C0
    Signature Algorithm: sha256WithRSAEncryption
    Signature Value:
        59:32:40:34:4c:38:aa:19:f8:0f:34:12:02:5e:ed:bc:f0:6d:
        46:f0:bd:8e:f2:23:34:a6:82:05:5f:c0:29:ae:15:cb:a3:95:
        4c:75:eb:d6:b4:8a:80:e0:07:e9:37:38:02:49:e4:f1:f8:48:
        c8:c6:2a:f1:bf:91:3b:b2:80:8c:b3:85:80:ed:08:80:07:79:
        25:1a:47:8d:75:a3:9e:ad:71:08:e0:5a:6d:84:2d:2b:3f:b1:
        d0:9b:90:48:a0:ac:ee:21:60:1c:f6:9e:52:8a:25:92:7d:da:
        58:6a:44:d1:df:e6:ab:a9:82:b7:4b:c3:b4:68:44:ea:e5:82:
        a5:39:92:1b:a0:5b:d0:f3:1a:e8:95:6c:ba:3a:15:e5:4b:70:
        b9:94:cd:12:a5:c6:40:0d:18:aa:8f:9b:1d:27:06:ef:46:43:
        51:e3:b1:7f:4a:74:ad:1a:3b:90:60:74:5b:ae:b9:f4:6c:58:
        e0:94:04:c2:41:79:a1:4b:f6:17:2f:d5:3a:24:e9:02:72:c5:
        d5:de:33:86:76:48:79:46:32:d0:8d:9c:98:39:77:bd:98:24:
        2b:0e:a8:e5:16:e2:55:47:95:e8:1a:9a:25:05:92:18:66:30:
        9a:8c:15:57:1f:1d:c1:d5:5f:b3:ac:84:f0:fb:95:0c:15:47:
        23:79:5d:88
-----BEGIN CERTIFICATE-----
MIIDzDCCArSgAwIBAgIBEjANBgkqhkiG9w0BAQsFADBxMQswCQYDVQQGEwJVUzET
MBEGA1UECAwKQ2FsaWZvcm5pYTEUMBIGA1UEBwwLU2FudGEgQ2xhcmExDTALBgNV
BAoMBHBrZzUxEDAOBgNVBAMMB2NoMV90YTMxFjAUBgkqhkiG9w0BCQEWB2NoMV90
YTMwHhcNMjExMDIyMTAxNTExWhcNMjQwNzE4MTAxNTExWjB5MQswCQYDVQQGEwJV
UzETMBEGA1UECAwKQ2FsaWZvcm5pYTEUMBIGA1UEBwwLU2FudGEgQ2xhcmExDTAL
BgNVBAoMBHBrZzUxFDASBgNVBAMMC2NzMl9jaDFfdGEzMRowGAYJKoZIhvcNAQkB
FgtjczJfY2gxX3RhMzCCASIwDQYJKoZIhvcNAQEBBQADggEPADCCAQoCggEBAK9a
IpD8aUbk3xiPoHGrICMpX8mGKyvCIxMDHz3woehl178OjSnIbdJCfgEmTCkipU7E
X5f5eWf7kTxU+jX9mxoD5VBZpXKWfetg4TP6ezhwdfUQl7QauRYsUIqkBPsQDdrK
bRXxf4KVUCpXpmcNgDf02hID5iETGDbvHKEAyIwMuaa1z6pSoSS3V49qjIHESCEP
1xXQp3qSPy53Rb1+GDD+ki1Vq78VCjoYGvbtXA7e+4uFpHCYnWDz5PphoL5nlyrV
Dr4vamPU+ZDT5xLN7SZunBh8LO2jbSVqpibrFe8jpHMMDpAS9b3QoCVflcwBAhvg
99RrSHjxMSRb6ZWVpWUCAwEAAaNnMGUwDAYDVR0TAQH/BAIwADAVBgNVHRIBAf8E
CzAJgQdjaDFfdGEzMB0GA1UdDgQWBBTtVTDPs2Z2+bXUwx5bXHwjoYdpeDAfBgNV
HSMEGDAWgBTVph4RipDLZg8QZncB3TqPFPCFwDANBgkqhkiG9w0BAQsFAAOCAQEA
WTJANEw4qhn4DzQSAl7tvPBtRvC9jvIjNKaCBV/AKa4Vy6OVTHXr1rSKgOAH6Tc4
Aknk8fhIyMYq8b+RO7KAjLOFgO0IgAd5JRpHjXWjnq1xCOBabYQtKz+x0JuQSKCs
7iFgHPaeUoolkn3aWGpE0d/mq6mCt0vDtGhE6uWCpTmSG6Bb0PMa6JVsujoV5Utw
uZTNEqXGQA0Yqo+bHScG70ZDUeOxf0p0rRo7kGB0W6659GxY4JQEwkF5oUv2Fy/V
OiTpAnLF1d4zhnZIeUYy0I2cmDl3vZgkKw6o5RbiVUeV6BqaJQWSGGYwmowVVx8d
wdVfs6yE8PuVDBVHI3ldiA==
-----END CERTIFICATE-----
