Certificate:
    Data:
        Version: 3 (0x2)
        Serial Number: 37 (0x25)
        Signature Algorithm: sha256WithRSAEncryption
        Issuer: C=US, ST=California, L=Santa Clara, O=pkg5, CN=ch1_ta4/emailAddress=ch1_ta4
        Validity
            Not Before: May 23 15:47:21 2024 GMT
            Not After : Feb 17 15:47:21 2027 GMT
        Subject: C=US, ST=California, L=Santa Clara, O=pkg5, CN=cs2_ch1_ta4/emailAddress=cs2_ch1_ta4
        Subject Public Key Info:
            Public Key Algorithm: rsaEncryption
                Public-Key: (2048 bit)
                Modulus:
                    00:96:57:ac:a3:d4:58:79:ab:54:a0:89:8f:e1:c0:
                    8f:9a:32:89:8e:bb:0e:c1:f6:6a:60:87:80:9f:67:
                    ab:6b:d3:c9:a3:94:a6:93:2a:ae:5a:3d:61:a2:20:
                    96:7f:94:b4:8f:79:cc:bc:0d:dc:df:a2:f8:4c:11:
                    1b:e4:69:47:18:d7:96:c5:c8:d5:fa:1d:17:8b:64:
                    47:3b:2e:69:4f:85:61:3a:76:75:df:0e:df:f1:ea:
                    8e:62:9d:b7:32:9d:31:8f:a5:94:53:ed:78:df:79:
                    69:23:b4:9b:0d:63:a8:7f:bf:3f:19:42:e7:50:21:
                    15:0a:b3:42:71:58:b5:9a:d4:2f:63:45:5c:a5:47:
                    33:07:b6:88:0f:c7:19:f1:72:33:47:83:11:dc:37:
                    91:99:62:79:55:d6:51:56:82:5a:46:c4:9a:26:f7:
                    fb:58:91:1f:8a:4b:94:70:65:4e:7d:d5:c0:78:7b:
                    ea:e2:aa:3d:3b:9a:19:b0:45:77:76:e4:b4:7c:11:
                    8b:b0:8f:fb:9f:9f:f4:e1:20:40:0b:e8:72:95:c8:
                    2a:cc:35:2e:f7:1d:9a:c7:1e:72:85:f4:7c:9a:9c:
                    41:9b:7c:86:42:22:65:8e:4e:f7:d9:47:5b:4a:14:
                    a0:63:44:da:06:cf:2c:f5:1a:ec:60:49:b2:6f:51:
                    e4:0d
                Exponent: 65537 (0x10001)
        X509v3 extensions:
            X509v3 Subject Key Identifier: 
                13:7E:86:27:17:FF:D0:44:B4:78:92:78:6F:A0:64:25:1C:3C:1A:6A
            X509v3 Authority Key Identifier: 
                keyid:2B:7C:4F:B9:53:AE:C8:E2:A9:09:D9:F9:BF:4B:7B:29:7B:90:9F:55
                DirName:/C=US/ST=California/L=Santa Clara/O=pkg5/CN=ta4/emailAddress=ta4
                serial:23
            X509v3 Basic Constraints: critical
                CA:FALSE
            X509v3 CRL Distribution Points: 
                Full Name:
                  URI:http://localhost:12001/file/0/example_file
    Signature Algorithm: sha256WithRSAEncryption
    Signature Value:
        5b:45:78:56:fe:cd:90:7e:77:6e:85:66:30:a5:ff:51:47:0d:
        9f:60:fc:25:7c:9c:f6:ac:ee:85:a3:bd:5f:e9:24:ae:8a:5b:
        fd:5b:60:89:8a:b4:da:32:35:6d:e9:62:53:d9:a5:95:d6:34:
        8d:3d:87:b2:b1:79:8d:f1:fb:07:0f:5b:be:c7:99:36:72:a6:
        94:21:f3:85:53:0d:52:92:69:e7:d0:f4:ad:e4:2f:89:f3:36:
        e7:a8:bb:2e:79:4e:c1:87:e6:c0:c4:9c:9b:d4:2a:c2:b0:83:
        02:cb:8e:fc:0c:61:13:df:5d:23:a7:01:23:17:24:17:8f:20:
        bc:c6:02:95:d4:15:2f:bb:af:f1:db:55:5f:c8:5f:18:a2:64:
        d1:4c:de:9f:44:a2:97:e5:8a:5c:8b:23:5f:04:19:d9:30:a5:
        2a:e3:1f:f3:ed:8f:c8:be:61:b2:fd:ff:9b:93:33:69:1a:8a:
        35:2d:2d:3a:04:34:57:85:25:3c:07:06:98:85:32:9e:47:3d:
        bc:42:47:4b:ff:8b:ca:0e:40:37:84:2d:18:84:31:31:a4:0e:
        31:a6:85:ed:5e:8e:82:cb:b6:b7:13:6e:6c:7b:d8:d5:e4:d7:
        d7:82:69:03:b7:ce:e6:b2:e2:3e:ec:e4:cb:ba:6d:05:f7:01:
        72:81:fc:c6
-----BEGIN CERTIFICATE-----
MIIEazCCA1OgAwIBAgIBJTANBgkqhkiG9w0BAQsFADBxMQswCQYDVQQGEwJVUzET
MBEGA1UECAwKQ2FsaWZvcm5pYTEUMBIGA1UEBwwLU2FudGEgQ2xhcmExDTALBgNV
BAoMBHBrZzUxEDAOBgNVBAMMB2NoMV90YTQxFjAUBgkqhkiG9w0BCQEWB2NoMV90
YTQwHhcNMjQwNTIzMTU0NzIxWhcNMjcwMjE3MTU0NzIxWjB5MQswCQYDVQQGEwJV
UzETMBEGA1UECAwKQ2FsaWZvcm5pYTEUMBIGA1UEBwwLU2FudGEgQ2xhcmExDTAL
BgNVBAoMBHBrZzUxFDASBgNVBAMMC2NzMl9jaDFfdGE0MRowGAYJKoZIhvcNAQkB
FgtjczJfY2gxX3RhNDCCASIwDQYJKoZIhvcNAQEBBQADggEPADCCAQoCggEBAJZX
rKPUWHmrVKCJj+HAj5oyiY67DsH2amCHgJ9nq2vTyaOUppMqrlo9YaIgln+UtI95
zLwN3N+i+EwRG+RpRxjXlsXI1fodF4tkRzsuaU+FYTp2dd8O3/HqjmKdtzKdMY+l
lFPteN95aSO0mw1jqH+/PxlC51AhFQqzQnFYtZrUL2NFXKVHMwe2iA/HGfFyM0eD
Edw3kZlieVXWUVaCWkbEmib3+1iRH4pLlHBlTn3VwHh76uKqPTuaGbBFd3bktHwR
i7CP+5+f9OEgQAvocpXIKsw1LvcdmscecoX0fJqcQZt8hkIiZY5O99lHW0oUoGNE
2gbPLPUa7GBJsm9R5A0CAwEAAaOCAQQwggEAMB0GA1UdDgQWBBQTfoYnF//QRLR4
knhvoGQlHDwaajCBkwYDVR0jBIGLMIGIgBQrfE+5U67I4qkJ2fm/S3spe5CfVaFt
pGswaTELMAkGA1UEBhMCVVMxEzARBgNVBAgMCkNhbGlmb3JuaWExFDASBgNVBAcM
C1NhbnRhIENsYXJhMQ0wCwYDVQQKDARwa2c1MQwwCgYDVQQDDAN0YTQxEjAQBgkq
hkiG9w0BCQEWA3RhNIIBIzAMBgNVHRMBAf8EAjAAMDsGA1UdHwQ0MDIwMKAuoCyG
Kmh0dHA6Ly9sb2NhbGhvc3Q6MTIwMDEvZmlsZS8wL2V4YW1wbGVfZmlsZTANBgkq
hkiG9w0BAQsFAAOCAQEAW0V4Vv7NkH53boVmMKX/UUcNn2D8JXyc9qzuhaO9X+kk
ropb/VtgiYq02jI1beliU9mlldY0jT2HsrF5jfH7Bw9bvseZNnKmlCHzhVMNUpJp
59D0reQvifM256i7LnlOwYfmwMScm9QqwrCDAsuO/AxhE99dI6cBIxckF48gvMYC
ldQVL7uv8dtVX8hfGKJk0Uzen0Sil+WKXIsjXwQZ2TClKuMf8+2PyL5hsv3/m5Mz
aRqKNS0tOgQ0V4UlPAcGmIUynkc9vEJHS/+Lyg5AN4QtGIQxMaQOMaaF7V6Ogsu2
txNubHvY1eTX14JpA7fO5rLiPuzky7ptBfcBcoH8xg==
-----END CERTIFICATE-----
