Certificate:
    Data:
        Version: 3 (0x2)
        Serial Number: 36 (0x24)
    Signature Algorithm: sha256WithRSAEncryption
        Issuer: C=US, ST=California, L=Santa Clara, O=pkg5, CN=ch1_ta4/emailAddress=ch1_ta4
        Validity
            Not Before: Nov 28 22:50:57 2016 GMT
            Not After : Aug 25 22:50:57 2019 GMT
        Subject: C=US, ST=California, L=Santa Clara, O=pkg5, CN=cs2_ch1_ta4/emailAddress=cs2_ch1_ta4
        Subject Public Key Info:
            Public Key Algorithm: rsaEncryption
                Public-Key: (1024 bit)
                Modulus:
                    00:be:d4:8c:01:a0:ff:20:18:ba:fb:bd:30:00:bf:
                    c9:12:1b:f6:96:dc:8b:ab:b1:9a:e5:f4:a9:bb:37:
                    ed:34:11:05:54:1b:f2:e0:cd:4a:97:6e:6c:e8:87:
                    5a:4d:9c:8b:f1:8d:8a:7f:15:54:a1:ac:75:1a:60:
                    0c:da:25:d9:e3:4a:eb:f8:f5:4b:af:ee:51:5c:40:
                    07:0d:5d:df:eb:72:78:23:51:6a:b2:4b:c2:14:80:
                    e3:4b:24:42:f9:e9:78:4c:56:5a:34:1d:c0:45:6a:
                    b9:8f:27:54:dc:5e:4b:6c:0f:aa:24:e8:4c:26:d9:
                    3c:f7:86:15:28:b3:3d:5b:c1
                Exponent: 65537 (0x10001)
        X509v3 extensions:
            X509v3 Subject Key Identifier: 
                86:FB:B8:AA:B9:BC:F6:8A:B8:F0:56:54:7B:2C:4B:51:BC:CC:2D:34
            X509v3 Authority Key Identifier: 
                keyid:9C:BA:BB:D8:AF:C4:F2:0A:0B:2C:FB:5A:C4:D5:47:3A:80:C7:D7:9A
                DirName:/C=US/ST=California/L=Santa Clara/O=pkg5/CN=ta4/emailAddress=ta4
                serial:22

            X509v3 Basic Constraints: critical
                CA:FALSE
            X509v3 CRL Distribution Points: 

                Full Name:
                  URI:http://localhost:12001/file/0/example_file

    Signature Algorithm: sha256WithRSAEncryption
         20:36:ea:eb:4b:5a:5f:61:ad:ed:d6:57:e4:45:2a:3e:af:de:
         2b:06:2e:1f:2b:13:22:d0:8e:35:b0:cf:a1:6d:a4:3a:04:f2:
         ae:23:e0:db:6d:18:f6:9e:f8:fc:73:12:e5:19:8b:aa:7a:55:
         14:fa:2e:85:d7:83:71:9b:6e:96:ef:2c:9d:e1:08:92:02:bf:
         e1:58:fa:d5:82:a6:bc:13:01:44:ca:6e:2c:c3:26:a7:5e:a1:
         57:cf:d5:53:0d:3d:44:9a:60:b1:33:a9:da:ce:f5:57:85:dd:
         9a:d5:8d:06:7e:ef:e6:ef:7c:8f:8d:67:88:fb:b8:08:d1:19:
         5a:20:ee:6a:bc:3f:62:41:2e:bd:73:08:29:5c:e6:6e:13:66:
         22:a0:70:48:a3:c8:cb:fa:2f:7d:79:34:b6:a2:cf:e1:2e:97:
         02:87:25:dc:9c:50:ad:b3:d5:71:f9:4e:5a:bd:e9:08:43:16:
         69:e2:59:39:bf:41:e7:ca:9b:3a:db:f0:b8:6d:70:22:72:ff:
         c7:dc:f8:ce:57:ee:95:b0:81:fe:af:fa:75:c5:e8:fd:91:ad:
         d9:7d:f0:0f:cf:0d:e6:b8:90:e5:1a:c9:4e:49:b0:54:f0:d9:
         51:26:e3:21:ae:ef:5a:af:db:bc:cd:fd:d8:f1:cb:76:a6:ca:
         9a:f6:47:36
-----BEGIN CERTIFICATE-----
MIID5zCCAs+gAwIBAgIBJDANBgkqhkiG9w0BAQsFADBxMQswCQYDVQQGEwJVUzET
MBEGA1UECAwKQ2FsaWZvcm5pYTEUMBIGA1UEBwwLU2FudGEgQ2xhcmExDTALBgNV
BAoMBHBrZzUxEDAOBgNVBAMMB2NoMV90YTQxFjAUBgkqhkiG9w0BCQEWB2NoMV90
YTQwHhcNMTYxMTI4MjI1MDU3WhcNMTkwODI1MjI1MDU3WjB5MQswCQYDVQQGEwJV
UzETMBEGA1UECAwKQ2FsaWZvcm5pYTEUMBIGA1UEBwwLU2FudGEgQ2xhcmExDTAL
BgNVBAoMBHBrZzUxFDASBgNVBAMMC2NzMl9jaDFfdGE0MRowGAYJKoZIhvcNAQkB
FgtjczJfY2gxX3RhNDCBnzANBgkqhkiG9w0BAQEFAAOBjQAwgYkCgYEAvtSMAaD/
IBi6+70wAL/JEhv2ltyLq7Ga5fSpuzftNBEFVBvy4M1Kl25s6IdaTZyL8Y2KfxVU
oax1GmAM2iXZ40rr+PVLr+5RXEAHDV3f63J4I1FqskvCFIDjSyRC+el4TFZaNB3A
RWq5jydU3F5LbA+qJOhMJtk894YVKLM9W8ECAwEAAaOCAQQwggEAMB0GA1UdDgQW
BBSG+7iqubz2irjwVlR7LEtRvMwtNDCBkwYDVR0jBIGLMIGIgBScurvYr8TyCgss
+1rE1Uc6gMfXmqFtpGswaTELMAkGA1UEBhMCVVMxEzARBgNVBAgMCkNhbGlmb3Ju
aWExFDASBgNVBAcMC1NhbnRhIENsYXJhMQ0wCwYDVQQKDARwa2c1MQwwCgYDVQQD
DAN0YTQxEjAQBgkqhkiG9w0BCQEWA3RhNIIBIjAMBgNVHRMBAf8EAjAAMDsGA1Ud
HwQ0MDIwMKAuoCyGKmh0dHA6Ly9sb2NhbGhvc3Q6MTIwMDEvZmlsZS8wL2V4YW1w
bGVfZmlsZTANBgkqhkiG9w0BAQsFAAOCAQEAIDbq60taX2Gt7dZX5EUqPq/eKwYu
HysTItCONbDPoW2kOgTyriPg220Y9p74/HMS5RmLqnpVFPouhdeDcZtulu8sneEI
kgK/4Vj61YKmvBMBRMpuLMMmp16hV8/VUw09RJpgsTOp2s71V4XdmtWNBn7v5u98
j41niPu4CNEZWiDuarw/YkEuvXMIKVzmbhNmIqBwSKPIy/ovfXk0tqLP4S6XAocl
3JxQrbPVcflOWr3pCEMWaeJZOb9B58qbOtvwuG1wInL/x9z4zlfulbCB/q/6dcXo
/ZGt2X3wD88N5riQ5RrJTkmwVPDZUSbjIa7vWq/bvM392PHLdqbKmvZHNg==
-----END CERTIFICATE-----
