Certificate:
    Data:
        Version: 3 (0x2)
        Serial Number: 37 (0x25)
        Signature Algorithm: sha256WithRSAEncryption
        Issuer: C=US, ST=California, L=Santa Clara, O=pkg5, CN=ch1_ta4/emailAddress=ch1_ta4
        Validity
            Not Before: Oct 22 10:15:19 2021 GMT
            Not After : Jul 18 10:15:19 2024 GMT
        Subject: C=US, ST=California, L=Santa Clara, O=pkg5, CN=cs2_ch1_ta4/emailAddress=cs2_ch1_ta4
        Subject Public Key Info:
            Public Key Algorithm: rsaEncryption
                Public-Key: (2048 bit)
                Modulus:
                    00:9a:a0:76:e0:d5:01:65:12:da:33:0a:31:6d:e7:
                    25:0c:b0:8c:f4:19:d1:7f:93:88:26:bc:af:b8:aa:
                    5e:4f:7c:3c:f4:4e:94:df:62:dd:9e:72:05:2e:05:
                    a9:18:fe:e1:5b:b4:a6:50:0a:73:4c:f2:e5:b4:16:
                    3d:fa:5f:4b:39:49:7d:5f:76:00:cb:37:99:2e:5f:
                    e4:72:ca:35:74:12:f3:c5:04:12:8a:62:c5:3b:a9:
                    52:07:ee:69:db:56:52:3f:1e:b0:86:4d:b6:43:8c:
                    26:ea:6d:03:9b:57:f7:41:65:72:fb:70:1b:72:4e:
                    7b:0d:1e:84:41:e6:73:58:b9:2f:0b:eb:70:f9:22:
                    dc:6b:e1:7a:b7:c7:4b:f4:1c:ce:1d:e6:24:a9:8a:
                    3a:80:59:c0:16:e6:d6:09:99:1b:e4:d1:3d:97:fa:
                    d7:6f:c2:ce:4e:01:d0:2e:de:54:62:09:b1:aa:01:
                    2b:e0:8f:c0:b4:da:e2:b6:45:dc:08:17:1e:be:7c:
                    53:cc:00:be:0a:95:2e:a3:72:53:ff:43:c2:f9:8a:
                    04:52:80:c9:c3:51:7a:a3:48:95:b4:46:40:75:9a:
                    06:46:73:ba:b3:b6:44:a1:57:d8:0a:1d:b8:01:3c:
                    dc:4b:13:b2:9d:03:39:f4:c2:57:ba:c3:45:c0:34:
                    b1:fb
                Exponent: 65537 (0x10001)
        X509v3 extensions:
            X509v3 Subject Key Identifier: 
                45:89:33:E3:C6:B6:AE:D9:7C:56:73:4F:51:12:D7:E5:71:F2:27:22
            X509v3 Authority Key Identifier: 
                keyid:0E:D1:7E:6A:98:F8:F9:68:97:C8:CC:DA:FE:31:F3:6B:B4:20:E2:01
                DirName:/C=US/ST=California/L=Santa Clara/O=pkg5/CN=ta4/emailAddress=ta4
                serial:23
            X509v3 Basic Constraints: critical
                CA:FALSE
            X509v3 CRL Distribution Points: 
                Full Name:
                  URI:http://localhost:12001/file/0/example_file
    Signature Algorithm: sha256WithRSAEncryption
    Signature Value:
        8b:94:54:9d:65:47:45:31:5f:fc:2b:f6:cd:b8:1e:39:ed:4c:
        68:17:d7:93:6c:47:13:8c:c5:29:1e:13:43:48:20:24:be:ee:
        d6:3b:97:40:cb:7e:1e:a1:d7:36:aa:8d:2d:17:d1:87:dd:fc:
        d0:5d:30:39:c2:6f:8b:31:78:a0:ff:9d:11:a0:0a:f0:8f:07:
        a0:17:f2:7c:b2:96:57:92:b7:b7:96:5f:87:86:7f:1c:09:b1:
        fd:42:35:a9:19:13:2a:0d:50:2c:63:db:44:f1:b8:35:84:0d:
        c2:87:9a:a3:69:7f:e7:62:6a:48:5d:0d:22:98:ea:02:97:63:
        ca:5c:47:1e:56:90:0d:fd:f2:ff:09:e5:84:55:a1:5e:6d:aa:
        2c:78:90:6d:ec:2b:42:3d:96:fd:41:8b:74:eb:03:64:fd:1c:
        39:ad:44:80:75:46:cc:f3:1d:17:d3:34:35:36:cd:f8:2a:a4:
        eb:77:be:da:34:eb:1e:56:b9:81:2a:e2:4a:bc:32:b9:8f:9f:
        5f:da:32:46:b0:a4:56:79:d1:58:58:a4:0f:44:a1:43:3c:1f:
        c4:87:58:25:cb:97:91:c2:98:18:6c:7a:dd:f3:5f:1b:fc:75:
        02:4f:27:ef:c3:8f:c7:b8:ce:11:bb:8a:c4:c7:98:7e:ea:65:
        5c:a5:b7:33
-----BEGIN CERTIFICATE-----
MIIEazCCA1OgAwIBAgIBJTANBgkqhkiG9w0BAQsFADBxMQswCQYDVQQGEwJVUzET
MBEGA1UECAwKQ2FsaWZvcm5pYTEUMBIGA1UEBwwLU2FudGEgQ2xhcmExDTALBgNV
BAoMBHBrZzUxEDAOBgNVBAMMB2NoMV90YTQxFjAUBgkqhkiG9w0BCQEWB2NoMV90
YTQwHhcNMjExMDIyMTAxNTE5WhcNMjQwNzE4MTAxNTE5WjB5MQswCQYDVQQGEwJV
UzETMBEGA1UECAwKQ2FsaWZvcm5pYTEUMBIGA1UEBwwLU2FudGEgQ2xhcmExDTAL
BgNVBAoMBHBrZzUxFDASBgNVBAMMC2NzMl9jaDFfdGE0MRowGAYJKoZIhvcNAQkB
FgtjczJfY2gxX3RhNDCCASIwDQYJKoZIhvcNAQEBBQADggEPADCCAQoCggEBAJqg
duDVAWUS2jMKMW3nJQywjPQZ0X+TiCa8r7iqXk98PPROlN9i3Z5yBS4FqRj+4Vu0
plAKc0zy5bQWPfpfSzlJfV92AMs3mS5f5HLKNXQS88UEEopixTupUgfuadtWUj8e
sIZNtkOMJuptA5tX90FlcvtwG3JOew0ehEHmc1i5LwvrcPki3GvherfHS/Qczh3m
JKmKOoBZwBbm1gmZG+TRPZf612/Czk4B0C7eVGIJsaoBK+CPwLTa4rZF3AgXHr58
U8wAvgqVLqNyU/9DwvmKBFKAycNReqNIlbRGQHWaBkZzurO2RKFX2AoduAE83EsT
sp0DOfTCV7rDRcA0sfsCAwEAAaOCAQQwggEAMB0GA1UdDgQWBBRFiTPjxrau2XxW
c09REtflcfInIjCBkwYDVR0jBIGLMIGIgBQO0X5qmPj5aJfIzNr+MfNrtCDiAaFt
pGswaTELMAkGA1UEBhMCVVMxEzARBgNVBAgMCkNhbGlmb3JuaWExFDASBgNVBAcM
C1NhbnRhIENsYXJhMQ0wCwYDVQQKDARwa2c1MQwwCgYDVQQDDAN0YTQxEjAQBgkq
hkiG9w0BCQEWA3RhNIIBIzAMBgNVHRMBAf8EAjAAMDsGA1UdHwQ0MDIwMKAuoCyG
Kmh0dHA6Ly9sb2NhbGhvc3Q6MTIwMDEvZmlsZS8wL2V4YW1wbGVfZmlsZTANBgkq
hkiG9w0BAQsFAAOCAQEAi5RUnWVHRTFf/Cv2zbgeOe1MaBfXk2xHE4zFKR4TQ0gg
JL7u1juXQMt+HqHXNqqNLRfRh9380F0wOcJvizF4oP+dEaAK8I8HoBfyfLKWV5K3
t5Zfh4Z/HAmx/UI1qRkTKg1QLGPbRPG4NYQNwoeao2l/52JqSF0NIpjqApdjylxH
HlaQDf3y/wnlhFWhXm2qLHiQbewrQj2W/UGLdOsDZP0cOa1EgHVGzPMdF9M0NTbN
+Cqk63e+2jTrHla5gSriSrwyuY+fX9oyRrCkVnnRWFikD0ShQzwfxIdYJcuXkcKY
GGx63fNfG/x1Ak8n78OPx7jOEbuKxMeYfuplXKW3Mw==
-----END CERTIFICATE-----
