Certificate:
    Data:
        Version: 3 (0x2)
        Serial Number: 19 (0x13)
        Signature Algorithm: sha256WithRSAEncryption
        Issuer: C=US, ST=California, L=Santa Clara, O=pkg5, CN=ch1_ta3/emailAddress=ch1_ta3
        Validity
            Not Before: Jan  1 01:01:01 2009 GMT
            Not After : Jan  2 01:01:01 2009 GMT
        Subject: C=US, ST=California, L=Santa Clara, O=pkg5, CN=cs3_ch1_ta3/emailAddress=cs3_ch1_ta3
        Subject Public Key Info:
            Public Key Algorithm: rsaEncryption
                Public-Key: (2048 bit)
                Modulus:
                    00:ad:89:e0:41:aa:78:20:c3:b2:4e:96:87:d2:ba:
                    9c:98:8b:04:54:e4:84:63:a1:e8:fa:97:5a:1e:77:
                    1d:8b:cf:23:34:88:86:d4:32:79:70:a8:5c:f3:4a:
                    9b:68:be:eb:b1:c4:99:14:d9:36:c7:8d:9a:cc:f1:
                    5b:07:61:97:d2:85:9e:19:69:70:e5:65:73:80:59:
                    67:8b:a9:1a:74:c1:59:8b:0f:64:fd:16:30:bc:0e:
                    1d:df:bd:25:42:ea:3a:52:1b:2e:27:06:a0:5c:aa:
                    1b:fd:ad:80:6f:0c:18:45:11:58:e4:8f:0b:59:5f:
                    64:0f:1f:3b:1c:12:45:c2:86:74:c6:03:b7:00:c0:
                    79:c6:30:e1:2f:ee:c9:57:a7:d5:62:cb:4f:f7:27:
                    97:58:06:64:c5:e7:24:ae:74:b0:67:3c:03:4d:b0:
                    e6:40:36:da:0d:fa:a6:8a:bd:43:73:3f:c1:0d:06:
                    b7:e9:8a:cd:65:a4:30:ed:b5:38:55:0f:06:99:a6:
                    a7:f1:06:83:c2:34:c3:da:13:e6:89:13:cc:28:be:
                    29:06:f3:61:a6:3f:c2:03:91:80:1f:df:d0:7f:5a:
                    56:1f:90:b2:f8:72:e8:59:fa:fb:99:fc:04:25:7d:
                    0a:2c:45:4b:aa:4f:15:e4:30:78:6a:87:6e:c4:cf:
                    3e:7d
                Exponent: 65537 (0x10001)
        X509v3 extensions:
            X509v3 Basic Constraints: critical
                CA:FALSE
            X509v3 Key Usage: critical
                Digital Signature
            X509v3 Subject Key Identifier: 
                B5:88:92:05:6F:11:71:2E:D4:F8:D3:8C:D9:41:7B:45:4B:CE:DF:79
            X509v3 Authority Key Identifier: 
                33:56:B5:6A:EF:83:5A:96:29:D5:64:57:A8:29:D0:28:D0:1D:D9:53
    Signature Algorithm: sha256WithRSAEncryption
    Signature Value:
        05:01:58:00:eb:89:7f:35:fe:1e:79:30:f5:78:55:fe:26:61:
        a3:8d:60:5c:5b:1a:c2:e6:80:6c:06:aa:53:05:87:dc:9a:02:
        8c:16:0f:6b:7a:1d:e1:4c:bc:f9:e3:33:eb:d5:29:19:a2:ca:
        15:6a:fe:d4:15:79:5e:27:ae:1f:e2:9f:ab:30:ad:39:30:86:
        aa:16:13:c2:98:00:d0:48:af:ae:48:70:f8:5d:6a:50:e1:4f:
        c3:ca:24:23:f7:55:7b:ad:4e:d5:4e:b8:50:70:cb:80:ec:e1:
        6b:6f:a3:b3:53:2c:c4:5f:85:20:ea:cd:68:f6:25:50:dd:d6:
        ae:ec:3d:b3:cf:7d:a4:4a:90:2f:78:19:00:12:7a:a8:5f:88:
        de:71:60:ca:60:b8:5b:96:ee:40:5e:16:4a:d2:38:6c:92:b1:
        37:a9:b2:f4:1b:b3:12:76:45:74:80:e3:d1:5b:e0:fd:7b:27:
        e7:4d:25:55:d2:21:29:04:4f:f7:96:82:d0:84:89:5b:10:6f:
        99:21:90:90:39:4b:2e:6d:8f:6c:a1:11:fc:ad:06:69:bb:f5:
        76:0f:66:f8:25:cf:ae:77:e6:a1:c7:c7:d4:6c:a5:e7:d1:8e:
        16:9c:9c:24:ab:3c:78:5d:2f:b8:a8:1a:50:10:4d:48:a4:08:
        54:ec:1e:4f
-----BEGIN CERTIFICATE-----
MIIDxTCCAq2gAwIBAgIBEzANBgkqhkiG9w0BAQsFADBxMQswCQYDVQQGEwJVUzET
MBEGA1UECAwKQ2FsaWZvcm5pYTEUMBIGA1UEBwwLU2FudGEgQ2xhcmExDTALBgNV
BAoMBHBrZzUxEDAOBgNVBAMMB2NoMV90YTMxFjAUBgkqhkiG9w0BCQEWB2NoMV90
YTMwHhcNMDkwMTAxMDEwMTAxWhcNMDkwMTAyMDEwMTAxWjB5MQswCQYDVQQGEwJV
UzETMBEGA1UECAwKQ2FsaWZvcm5pYTEUMBIGA1UEBwwLU2FudGEgQ2xhcmExDTAL
BgNVBAoMBHBrZzUxFDASBgNVBAMMC2NzM19jaDFfdGEzMRowGAYJKoZIhvcNAQkB
FgtjczNfY2gxX3RhMzCCASIwDQYJKoZIhvcNAQEBBQADggEPADCCAQoCggEBAK2J
4EGqeCDDsk6Wh9K6nJiLBFTkhGOh6PqXWh53HYvPIzSIhtQyeXCoXPNKm2i+67HE
mRTZNseNmszxWwdhl9KFnhlpcOVlc4BZZ4upGnTBWYsPZP0WMLwOHd+9JULqOlIb
LicGoFyqG/2tgG8MGEURWOSPC1lfZA8fOxwSRcKGdMYDtwDAecYw4S/uyVen1WLL
T/cnl1gGZMXnJK50sGc8A02w5kA22g36poq9Q3M/wQ0Gt+mKzWWkMO21OFUPBpmm
p/EGg8I0w9oT5okTzCi+KQbzYaY/wgORgB/f0H9aVh+Qsvhy6Fn6+5n8BCV9CixF
S6pPFeQweGqHbsTPPn0CAwEAAaNgMF4wDAYDVR0TAQH/BAIwADAOBgNVHQ8BAf8E
BAMCB4AwHQYDVR0OBBYEFLWIkgVvEXEu1PjTjNlBe0VLzt95MB8GA1UdIwQYMBaA
FDNWtWrvg1qWKdVkV6gp0CjQHdlTMA0GCSqGSIb3DQEBCwUAA4IBAQAFAVgA64l/
Nf4eeTD1eFX+JmGjjWBcWxrC5oBsBqpTBYfcmgKMFg9reh3hTLz54zPr1SkZosoV
av7UFXleJ64f4p+rMK05MIaqFhPCmADQSK+uSHD4XWpQ4U/DyiQj91V7rU7VTrhQ
cMuA7OFrb6OzUyzEX4Ug6s1o9iVQ3dau7D2zz32kSpAveBkAEnqoX4jecWDKYLhb
lu5AXhZK0jhskrE3qbL0G7MSdkV0gOPRW+D9eyfnTSVV0iEpBE/3loLQhIlbEG+Z
IZCQOUsubY9soRH8rQZpu/V2D2b4Jc+ud+ahx8fUbKXn0Y4WnJwkqzx4XS+4qBpQ
EE1IpAhU7B5P
-----END CERTIFICATE-----
