Certificate:
    Data:
        Version: 3 (0x2)
        Serial Number: 19 (0x13)
    Signature Algorithm: sha256WithRSAEncryption
        Issuer: C=US, ST=California, L=Santa Clara, O=pkg5, CN=ch1_ta3/emailAddress=ch1_ta3
        Validity
            Not Before: Jan  1 01:01:01 2009 GMT
            Not After : Jan  2 01:01:01 2009 GMT
        Subject: C=US, ST=California, L=Santa Clara, O=pkg5, CN=cs3_ch1_ta3/emailAddress=cs3_ch1_ta3
        Subject Public Key Info:
            Public Key Algorithm: rsaEncryption
                Public-Key: (1024 bit)
                Modulus:
                    00:e2:7a:61:3d:a9:6a:07:ef:56:c8:3f:14:c1:9c:
                    24:79:c0:91:45:5c:79:07:e8:d9:10:fe:cf:16:7c:
                    5a:56:78:35:80:c3:04:4e:c0:4c:f3:41:b0:f1:91:
                    fc:f6:12:1e:c2:e2:a1:37:11:64:9a:e5:4e:a2:88:
                    3b:be:22:8f:07:7d:86:f7:fd:90:70:46:ee:2a:12:
                    7c:40:16:ca:b6:d5:b3:7b:f7:27:3b:aa:4b:8f:ca:
                    00:3b:f3:7d:d4:d2:d0:c9:a8:7e:76:b9:1d:81:4f:
                    8e:d2:85:f7:7e:9f:8d:7b:59:4c:ef:b4:42:cd:a3:
                    a7:16:40:66:9f:c9:41:82:51
                Exponent: 65537 (0x10001)
        X509v3 extensions:
            X509v3 Basic Constraints: critical
                CA:FALSE
            X509v3 Key Usage: critical
                Digital Signature
    Signature Algorithm: sha256WithRSAEncryption
         4d:05:93:6f:5a:5b:69:97:19:06:ff:60:47:b2:0a:71:bc:bf:
         7d:72:6e:e8:dd:23:66:0a:3c:e7:35:1c:7e:c7:de:09:79:23:
         98:8a:03:6a:0e:32:73:5e:48:85:0a:5d:5b:07:0f:9d:8f:59:
         6e:86:10:da:c8:e0:08:67:82:f8:f3:71:0f:9e:c1:d8:38:9b:
         06:f5:23:ef:7b:39:ec:db:24:aa:b3:46:b5:cc:66:d5:24:f4:
         f9:d4:58:13:2b:5c:2c:8b:1d:14:32:b4:c9:d1:88:f6:09:31:
         18:e7:25:a0:74:6f:56:e6:d1:e3:b8:32:92:7d:3a:8a:30:26:
         38:71:36:67:2e:61:98:0f:5f:9b:2b:8c:45:1f:ce:e0:75:62:
         f7:0f:e9:bb:9f:d1:1e:7d:df:c3:4a:ae:b3:9c:17:c0:ec:8f:
         ff:54:1a:77:14:08:04:1e:b7:16:03:9a:b5:68:45:6e:a4:cd:
         d1:3e:e1:b2:fe:61:96:07:59:87:6b:f2:e4:fc:6d:11:c9:a9:
         3d:3e:bc:26:e7:60:5c:22:1b:63:69:a1:36:fc:8a:3a:7d:fa:
         74:ba:06:c9:be:e5:b2:ff:87:54:9d:7e:14:c8:ea:85:c0:ea:
         64:00:a4:55:ca:bf:dc:f7:a4:25:52:9c:24:6e:f9:86:1f:98:
         8f:57:a7:3e
-----BEGIN CERTIFICATE-----
MIIDATCCAemgAwIBAgIBEzANBgkqhkiG9w0BAQsFADBxMQswCQYDVQQGEwJVUzET
MBEGA1UECAwKQ2FsaWZvcm5pYTEUMBIGA1UEBwwLU2FudGEgQ2xhcmExDTALBgNV
BAoMBHBrZzUxEDAOBgNVBAMMB2NoMV90YTMxFjAUBgkqhkiG9w0BCQEWB2NoMV90
YTMwHhcNMDkwMTAxMDEwMTAxWhcNMDkwMTAyMDEwMTAxWjB5MQswCQYDVQQGEwJV
UzETMBEGA1UECAwKQ2FsaWZvcm5pYTEUMBIGA1UEBwwLU2FudGEgQ2xhcmExDTAL
BgNVBAoMBHBrZzUxFDASBgNVBAMMC2NzM19jaDFfdGEzMRowGAYJKoZIhvcNAQkB
FgtjczNfY2gxX3RhMzCBnzANBgkqhkiG9w0BAQEFAAOBjQAwgYkCgYEA4nphPalq
B+9WyD8UwZwkecCRRVx5B+jZEP7PFnxaVng1gMMETsBM80Gw8ZH89hIewuKhNxFk
muVOoog7viKPB32G9/2QcEbuKhJ8QBbKttWze/cnO6pLj8oAO/N91NLQyah+drkd
gU+O0oX3fp+Ne1lM77RCzaOnFkBmn8lBglECAwEAAaMgMB4wDAYDVR0TAQH/BAIw
ADAOBgNVHQ8BAf8EBAMCB4AwDQYJKoZIhvcNAQELBQADggEBAE0Fk29aW2mXGQb/
YEeyCnG8v31ybujdI2YKPOc1HH7H3gl5I5iKA2oOMnNeSIUKXVsHD52PWW6GENrI
4AhngvjzcQ+ewdg4mwb1I+97OezbJKqzRrXMZtUk9PnUWBMrXCyLHRQytMnRiPYJ
MRjnJaB0b1bm0eO4MpJ9OoowJjhxNmcuYZgPX5srjEUfzuB1YvcP6buf0R5938NK
rrOcF8Dsj/9UGncUCAQetxYDmrVoRW6kzdE+4bL+YZYHWYdr8uT8bRHJqT0+vCbn
YFwiG2NpoTb8ijp9+nS6Bsm+5bL/h1SdfhTI6oXA6mQApFXKv9z3pCVSnCRu+YYf
mI9Xpz4=
-----END CERTIFICATE-----
