Certificate:
    Data:
        Version: 3 (0x2)
        Serial Number: 38 (0x26)
        Signature Algorithm: sha256WithRSAEncryption
        Issuer: C=US, ST=California, L=Santa Clara, O=pkg5, CN=ch1_ta4/emailAddress=ch1_ta4
        Validity
            Not Before: Dec 15 15:37:29 2022 GMT
            Not After : Sep 10 15:37:29 2025 GMT
        Subject: C=US, ST=California, L=Santa Clara, O=pkg5, CN=cs3_ch1_ta4/emailAddress=cs3_ch1_ta4
        Subject Public Key Info:
            Public Key Algorithm: rsaEncryption
                Public-Key: (2048 bit)
                Modulus:
                    00:a8:9d:7d:8c:f9:09:3c:86:97:ef:61:fa:b7:9c:
                    cb:9e:5a:f5:8b:e2:e9:ef:ae:24:c3:a5:6a:a1:fe:
                    a3:25:12:0d:bb:18:89:88:0b:37:dd:c4:5a:38:2d:
                    d3:b7:02:bc:2e:cf:d1:7a:f7:26:2b:8a:96:8e:53:
                    0a:a2:12:75:d3:de:6d:02:8d:b0:0f:b6:3c:e0:a9:
                    29:1a:36:b4:a4:63:24:46:4f:22:05:c7:ce:e8:e4:
                    04:a6:98:3c:37:14:cb:0a:af:12:60:24:04:18:84:
                    5b:94:ee:a3:df:17:7d:98:1c:f2:b6:2c:31:cb:63:
                    89:42:d4:af:f5:65:4f:29:e4:7a:ad:4d:30:f3:bb:
                    73:6c:a1:37:3c:d7:9d:72:7a:70:c7:db:8c:35:55:
                    34:59:19:21:0e:d7:6f:ea:59:4f:02:4e:0b:c9:6b:
                    14:2e:60:b1:0d:41:42:31:b0:b6:dd:cc:b8:9d:5e:
                    1c:07:e4:1e:c9:43:bc:a4:87:1e:f4:f8:fc:fc:85:
                    a6:72:c8:53:49:13:bb:9d:39:8a:c3:19:7a:30:9c:
                    22:99:ae:4e:a8:cb:53:6e:5a:ac:88:35:09:85:7b:
                    1c:6f:0d:d2:e4:f9:80:4d:47:cb:58:ab:b9:6b:4f:
                    83:41:c2:ea:1b:33:77:e0:44:6a:ff:a0:19:91:db:
                    51:e7
                Exponent: 65537 (0x10001)
        X509v3 extensions:
            X509v3 Subject Key Identifier: 
                2C:57:F2:CC:BC:40:A7:9C:99:C6:1F:BA:BC:B3:31:19:22:A3:F9:D9
            X509v3 Authority Key Identifier: 
                keyid:BC:89:23:C0:1A:53:7D:34:1E:E8:72:E2:9A:95:BE:39:0D:B5:6B:5D
                DirName:/C=US/ST=California/L=Santa Clara/O=pkg5/CN=ta4/emailAddress=ta4
                serial:23
            X509v3 Basic Constraints: critical
                CA:FALSE
            X509v3 CRL Distribution Points: 
                Full Name:
                  URI:foo://bar/baz
    Signature Algorithm: sha256WithRSAEncryption
    Signature Value:
        87:b8:5e:92:7b:9a:37:33:d4:6e:5d:de:eb:15:02:4b:f9:52:
        9c:60:97:6b:3b:3b:8b:8e:53:68:c2:c4:66:72:e8:2c:b2:4e:
        10:42:d9:21:a9:62:99:ee:a8:aa:bf:9a:a2:3e:db:a4:5f:42:
        af:19:87:ec:16:28:8b:bb:86:8f:2f:1f:67:09:fb:ff:fc:c0:
        83:24:ee:64:77:7a:0b:1e:72:95:6f:9f:4d:ff:e8:cf:17:0e:
        84:0b:3c:87:3e:96:57:1a:34:b7:de:79:bc:cf:be:f2:06:ea:
        31:09:da:7d:5b:f7:2b:19:2d:1c:09:f5:6f:89:d4:d9:a4:e2:
        5f:0c:89:37:d7:71:2e:b3:08:d3:82:92:65:65:b7:d3:ac:61:
        f6:34:d8:f1:49:18:04:d5:99:eb:71:ac:66:bf:01:01:a6:10:
        21:92:1b:51:28:7b:cd:80:98:60:7b:43:6e:8c:1f:92:0d:e0:
        17:5a:22:c0:f7:a4:0f:de:60:2a:77:13:a3:cc:7e:02:c7:ac:
        a8:e8:94:23:ba:f5:ed:02:d5:b5:90:8e:00:3d:3c:23:fb:91:
        a0:8a:da:9d:87:1b:b3:dd:0b:91:4c:b4:d5:a4:82:75:9b:3a:
        a1:62:3e:54:eb:79:e2:a7:f8:9f:20:bc:f8:82:23:70:d2:f5:
        31:9d:6a:48
-----BEGIN CERTIFICATE-----
MIIETDCCAzSgAwIBAgIBJjANBgkqhkiG9w0BAQsFADBxMQswCQYDVQQGEwJVUzET
MBEGA1UECAwKQ2FsaWZvcm5pYTEUMBIGA1UEBwwLU2FudGEgQ2xhcmExDTALBgNV
BAoMBHBrZzUxEDAOBgNVBAMMB2NoMV90YTQxFjAUBgkqhkiG9w0BCQEWB2NoMV90
YTQwHhcNMjIxMjE1MTUzNzI5WhcNMjUwOTEwMTUzNzI5WjB5MQswCQYDVQQGEwJV
UzETMBEGA1UECAwKQ2FsaWZvcm5pYTEUMBIGA1UEBwwLU2FudGEgQ2xhcmExDTAL
BgNVBAoMBHBrZzUxFDASBgNVBAMMC2NzM19jaDFfdGE0MRowGAYJKoZIhvcNAQkB
FgtjczNfY2gxX3RhNDCCASIwDQYJKoZIhvcNAQEBBQADggEPADCCAQoCggEBAKid
fYz5CTyGl+9h+recy55a9Yvi6e+uJMOlaqH+oyUSDbsYiYgLN93EWjgt07cCvC7P
0Xr3JiuKlo5TCqISddPebQKNsA+2POCpKRo2tKRjJEZPIgXHzujkBKaYPDcUywqv
EmAkBBiEW5Tuo98XfZgc8rYsMctjiULUr/VlTynkeq1NMPO7c2yhNzzXnXJ6cMfb
jDVVNFkZIQ7Xb+pZTwJOC8lrFC5gsQ1BQjGwtt3MuJ1eHAfkHslDvKSHHvT4/PyF
pnLIU0kTu505isMZejCcIpmuTqjLU25arIg1CYV7HG8N0uT5gE1Hy1iruWtPg0HC
6hszd+BEav+gGZHbUecCAwEAAaOB5jCB4zAdBgNVHQ4EFgQULFfyzLxAp5yZxh+6
vLMxGSKj+dkwgZMGA1UdIwSBizCBiIAUvIkjwBpTfTQe6HLimpW+OQ21a12hbaRr
MGkxCzAJBgNVBAYTAlVTMRMwEQYDVQQIDApDYWxpZm9ybmlhMRQwEgYDVQQHDAtT
YW50YSBDbGFyYTENMAsGA1UECgwEcGtnNTEMMAoGA1UEAwwDdGE0MRIwEAYJKoZI
hvcNAQkBFgN0YTSCASMwDAYDVR0TAQH/BAIwADAeBgNVHR8EFzAVMBOgEaAPhg1m
b286Ly9iYXIvYmF6MA0GCSqGSIb3DQEBCwUAA4IBAQCHuF6Se5o3M9RuXd7rFQJL
+VKcYJdrOzuLjlNowsRmcugssk4QQtkhqWKZ7qiqv5qiPtukX0KvGYfsFiiLu4aP
Lx9nCfv//MCDJO5kd3oLHnKVb59N/+jPFw6ECzyHPpZXGjS33nm8z77yBuoxCdp9
W/crGS0cCfVvidTZpOJfDIk313EuswjTgpJlZbfTrGH2NNjxSRgE1ZnrcaxmvwEB
phAhkhtRKHvNgJhge0NujB+SDeAXWiLA96QP3mAqdxOjzH4Cx6yo6JQjuvXtAtW1
kI4APTwj+5Ggitqdhxuz3QuRTLTVpIJ1mzqhYj5U63nip/ifILz4giNw0vUxnWpI
-----END CERTIFICATE-----
