Certificate:
    Data:
        Version: 3 (0x2)
        Serial Number: 37 (0x25)
    Signature Algorithm: sha256WithRSAEncryption
        Issuer: C=US, ST=California, L=Santa Clara, O=pkg5, CN=ch1_ta4/emailAddress=ch1_ta4
        Validity
            Not Before: Dec  6 03:06:43 2014 GMT
            Not After : Sep  1 03:06:43 2017 GMT
        Subject: C=US, ST=California, L=Santa Clara, O=pkg5, CN=cs3_ch1_ta4/emailAddress=cs3_ch1_ta4
        Subject Public Key Info:
            Public Key Algorithm: rsaEncryption
                Public-Key: (1024 bit)
                Modulus:
                    00:b3:12:35:7e:7f:71:64:de:f1:58:f1:60:38:f4:
                    3a:3f:12:52:06:d7:c3:b1:67:89:c7:f0:fd:05:ff:
                    2f:30:7f:91:1a:6c:ae:33:a5:f5:85:ab:d2:10:5d:
                    b2:ab:65:67:3d:18:98:62:9a:d5:3b:aa:c9:d9:d4:
                    43:e4:7b:ad:68:91:5c:c5:36:fb:bb:22:7c:0e:ad:
                    e1:37:b7:1f:f3:5e:59:64:ee:51:7d:1a:fd:34:1f:
                    e6:bc:a1:c9:e4:b6:66:82:7d:20:39:5e:4a:ff:84:
                    a1:cc:d2:cb:4c:70:97:eb:77:f2:52:01:52:50:fc:
                    b5:d8:37:e0:e0:0a:7e:71:cf
                Exponent: 65537 (0x10001)
        X509v3 extensions:
            X509v3 Subject Key Identifier: 
                80:DB:31:79:5E:33:0A:70:34:5A:CD:AF:2A:F1:2C:F3:18:F3:2B:3C
            X509v3 Authority Key Identifier: 
                keyid:B7:CD:2E:E3:4E:F8:1F:1C:39:44:2E:36:BD:E6:50:36:3B:96:9D:61
                DirName:/C=US/ST=California/L=Santa Clara/O=pkg5/CN=ta4/emailAddress=ta4
                serial:22

            X509v3 Basic Constraints: critical
                CA:FALSE
            X509v3 CRL Distribution Points: 

                Full Name:
                  URI:foo://bar/baz

    Signature Algorithm: sha256WithRSAEncryption
         98:34:d1:d8:fd:1b:ac:ee:10:79:0b:be:6c:dc:65:86:18:ac:
         17:36:a2:0c:cb:e2:ee:85:fc:5a:6a:38:b4:c3:7f:78:dd:3b:
         5a:f8:05:0b:d2:4b:90:a4:9d:ce:bc:0b:37:b7:02:6d:a1:23:
         86:b6:26:ea:44:fb:09:07:f0:93:58:ff:0f:4c:05:9b:bf:48:
         d0:20:eb:1a:14:63:3c:dc:56:c2:16:69:97:af:c9:ca:9c:9f:
         ff:a6:0c:29:77:34:7b:8b:6b:7f:9f:46:68:1b:be:4d:30:00:
         db:9c:74:e1:84:c5:a1:f3:e3:4b:80:3e:98:20:37:14:f3:b3:
         b4:8a
-----BEGIN CERTIFICATE-----
MIIDRzCCArCgAwIBAgIBJTANBgkqhkiG9w0BAQsFADBxMQswCQYDVQQGEwJVUzET
MBEGA1UECAwKQ2FsaWZvcm5pYTEUMBIGA1UEBwwLU2FudGEgQ2xhcmExDTALBgNV
BAoMBHBrZzUxEDAOBgNVBAMMB2NoMV90YTQxFjAUBgkqhkiG9w0BCQEWB2NoMV90
YTQwHhcNMTQxMjA2MDMwNjQzWhcNMTcwOTAxMDMwNjQzWjB5MQswCQYDVQQGEwJV
UzETMBEGA1UECAwKQ2FsaWZvcm5pYTEUMBIGA1UEBwwLU2FudGEgQ2xhcmExDTAL
BgNVBAoMBHBrZzUxFDASBgNVBAMMC2NzM19jaDFfdGE0MRowGAYJKoZIhvcNAQkB
FgtjczNfY2gxX3RhNDCBnzANBgkqhkiG9w0BAQEFAAOBjQAwgYkCgYEAsxI1fn9x
ZN7xWPFgOPQ6PxJSBtfDsWeJx/D9Bf8vMH+RGmyuM6X1havSEF2yq2VnPRiYYprV
O6rJ2dRD5HutaJFcxTb7uyJ8Dq3hN7cf815ZZO5RfRr9NB/mvKHJ5LZmgn0gOV5K
/4ShzNLLTHCX63fyUgFSUPy12Dfg4Ap+cc8CAwEAAaOB5jCB4zAdBgNVHQ4EFgQU
gNsxeV4zCnA0Ws2vKvEs8xjzKzwwgZMGA1UdIwSBizCBiIAUt80u4074Hxw5RC42
veZQNjuWnWGhbaRrMGkxCzAJBgNVBAYTAlVTMRMwEQYDVQQIDApDYWxpZm9ybmlh
MRQwEgYDVQQHDAtTYW50YSBDbGFyYTENMAsGA1UECgwEcGtnNTEMMAoGA1UEAwwD
dGE0MRIwEAYJKoZIhvcNAQkBFgN0YTSCASIwDAYDVR0TAQH/BAIwADAeBgNVHR8E
FzAVMBOgEaAPhg1mb286Ly9iYXIvYmF6MA0GCSqGSIb3DQEBCwUAA4GBAJg00dj9
G6zuEHkLvmzcZYYYrBc2ogzL4u6F/FpqOLTDf3jdO1r4BQvSS5Cknc68Cze3Am2h
I4a2JupE+wkH8JNY/w9MBZu/SNAg6xoUYzzcVsIWaZevycqcn/+mDCl3NHuLa3+f
Rmgbvk0wANucdOGExaHz40uAPpggNxTzs7SK
-----END CERTIFICATE-----
