Certificate:
    Data:
        Version: 3 (0x2)
        Serial Number: 38 (0x26)
        Signature Algorithm: sha256WithRSAEncryption
        Issuer: C=US, ST=California, L=Santa Clara, O=pkg5, CN=ch1_ta4/emailAddress=ch1_ta4
        Validity
            Not Before: Oct 24 21:43:12 2023 GMT
            Not After : Jul 20 21:43:12 2026 GMT
        Subject: C=US, ST=California, L=Santa Clara, O=pkg5, CN=cs3_ch1_ta4/emailAddress=cs3_ch1_ta4
        Subject Public Key Info:
            Public Key Algorithm: rsaEncryption
                Public-Key: (2048 bit)
                Modulus:
                    00:d5:5a:4f:5d:13:1c:27:64:06:20:e9:31:a0:83:
                    8d:d1:7c:57:95:61:d3:5c:d7:f3:23:31:9d:70:eb:
                    eb:f9:4b:47:b1:e0:21:fd:cf:f8:c6:ad:4c:58:9a:
                    34:ae:ba:42:9f:92:f2:e0:63:0d:c2:18:ed:09:a1:
                    9b:11:6d:8b:6d:3f:e3:c9:9f:17:02:10:53:b6:25:
                    d2:76:21:c6:6f:43:d5:7a:98:61:2c:3f:55:8c:8b:
                    04:19:59:71:9a:85:ad:a4:48:4b:9a:58:45:b1:5c:
                    6b:2c:97:b8:e8:f9:df:d5:2f:7f:d2:ca:42:14:34:
                    52:b3:e6:de:ee:29:4b:f6:d9:09:99:88:a0:20:a3:
                    c5:34:72:b3:10:65:d5:6a:32:26:a6:a3:61:c8:fc:
                    eb:05:75:46:18:7f:90:c1:68:90:b6:8b:84:7f:35:
                    15:2d:56:e8:75:a9:dd:0f:01:10:46:24:fb:62:6b:
                    29:b8:3d:97:97:6f:2a:ad:47:a7:ba:0e:0a:5a:a1:
                    28:cd:36:d0:11:f4:81:e9:17:15:52:3a:e9:5b:75:
                    be:cf:58:3e:6b:9d:6a:fd:12:99:02:93:2c:ee:92:
                    87:9e:4e:bb:6f:3f:9f:22:d6:e9:2d:da:33:64:bb:
                    db:81:cd:31:cb:29:e6:04:ab:e5:bc:3b:a0:b3:7a:
                    ad:7d
                Exponent: 65537 (0x10001)
        X509v3 extensions:
            X509v3 Subject Key Identifier: 
                BC:1C:0D:6F:E3:99:31:3E:66:0D:61:E6:08:F8:B1:28:6E:29:27:BB
            X509v3 Authority Key Identifier: 
                keyid:3C:21:78:84:F9:73:24:3A:7F:39:6C:DF:92:A8:F4:37:30:5E:47:09
                DirName:/C=US/ST=California/L=Santa Clara/O=pkg5/CN=ta4/emailAddress=ta4
                serial:23
            X509v3 Basic Constraints: critical
                CA:FALSE
            X509v3 CRL Distribution Points: 
                Full Name:
                  URI:foo://bar/baz
    Signature Algorithm: sha256WithRSAEncryption
    Signature Value:
        84:28:b4:0f:87:74:4d:b9:05:b0:aa:80:d4:36:c8:a4:13:0d:
        07:9d:6d:c8:32:e0:6e:c7:f2:b9:07:59:6b:ba:7c:f2:22:81:
        fe:ec:c3:e5:8e:3e:61:38:69:5f:1d:f3:86:60:e2:cc:8e:fa:
        2c:5e:e7:91:76:ef:41:4d:e2:bc:4d:c1:19:d5:63:ce:0f:69:
        4b:15:be:a5:79:6f:a4:89:92:5e:66:ad:7e:8d:6b:40:8a:07:
        14:be:ad:c8:09:94:22:e4:9c:66:77:b0:fb:a4:2e:8f:1f:c6:
        34:93:e1:39:82:80:8c:0f:5d:e3:3d:ab:d1:4d:d7:65:be:37:
        76:f2:c8:24:5b:a4:cc:dc:c6:65:4b:b7:e6:7d:8e:83:d8:0f:
        02:54:40:2b:71:27:ed:97:b9:8a:57:2e:b8:12:8f:a7:5a:e4:
        65:52:fa:fe:e1:b0:72:0c:48:ba:82:66:c6:8b:b6:4d:ad:0e:
        1d:09:4c:be:a4:f2:79:a5:de:b2:da:fd:b0:02:f4:2c:a5:9b:
        b5:1f:f5:96:97:1a:1e:6c:c1:3c:0b:e1:fa:6c:51:65:eb:4c:
        e8:28:aa:6d:cd:25:61:3a:15:e8:2b:99:10:37:94:06:cc:d2:
        e7:89:a5:b9:25:be:44:b8:54:d7:8b:61:d7:b2:f6:fb:fa:3d:
        b6:58:7b:91
-----BEGIN CERTIFICATE-----
MIIETDCCAzSgAwIBAgIBJjANBgkqhkiG9w0BAQsFADBxMQswCQYDVQQGEwJVUzET
MBEGA1UECAwKQ2FsaWZvcm5pYTEUMBIGA1UEBwwLU2FudGEgQ2xhcmExDTALBgNV
BAoMBHBrZzUxEDAOBgNVBAMMB2NoMV90YTQxFjAUBgkqhkiG9w0BCQEWB2NoMV90
YTQwHhcNMjMxMDI0MjE0MzEyWhcNMjYwNzIwMjE0MzEyWjB5MQswCQYDVQQGEwJV
UzETMBEGA1UECAwKQ2FsaWZvcm5pYTEUMBIGA1UEBwwLU2FudGEgQ2xhcmExDTAL
BgNVBAoMBHBrZzUxFDASBgNVBAMMC2NzM19jaDFfdGE0MRowGAYJKoZIhvcNAQkB
FgtjczNfY2gxX3RhNDCCASIwDQYJKoZIhvcNAQEBBQADggEPADCCAQoCggEBANVa
T10THCdkBiDpMaCDjdF8V5Vh01zX8yMxnXDr6/lLR7HgIf3P+MatTFiaNK66Qp+S
8uBjDcIY7QmhmxFti20/48mfFwIQU7Yl0nYhxm9D1XqYYSw/VYyLBBlZcZqFraRI
S5pYRbFcayyXuOj539Uvf9LKQhQ0UrPm3u4pS/bZCZmIoCCjxTRysxBl1WoyJqaj
Ycj86wV1Rhh/kMFokLaLhH81FS1W6HWp3Q8BEEYk+2JrKbg9l5dvKq1Hp7oOClqh
KM020BH0gekXFVI66Vt1vs9YPmudav0SmQKTLO6Sh55Ou28/nyLW6S3aM2S724HN
Mcsp5gSr5bw7oLN6rX0CAwEAAaOB5jCB4zAdBgNVHQ4EFgQUvBwNb+OZMT5mDWHm
CPixKG4pJ7swgZMGA1UdIwSBizCBiIAUPCF4hPlzJDp/OWzfkqj0NzBeRwmhbaRr
MGkxCzAJBgNVBAYTAlVTMRMwEQYDVQQIDApDYWxpZm9ybmlhMRQwEgYDVQQHDAtT
YW50YSBDbGFyYTENMAsGA1UECgwEcGtnNTEMMAoGA1UEAwwDdGE0MRIwEAYJKoZI
hvcNAQkBFgN0YTSCASMwDAYDVR0TAQH/BAIwADAeBgNVHR8EFzAVMBOgEaAPhg1m
b286Ly9iYXIvYmF6MA0GCSqGSIb3DQEBCwUAA4IBAQCEKLQPh3RNuQWwqoDUNsik
Ew0HnW3IMuBux/K5B1lrunzyIoH+7MPljj5hOGlfHfOGYOLMjvosXueRdu9BTeK8
TcEZ1WPOD2lLFb6leW+kiZJeZq1+jWtAigcUvq3ICZQi5Jxmd7D7pC6PH8Y0k+E5
goCMD13jPavRTddlvjd28sgkW6TM3MZlS7fmfY6D2A8CVEArcSftl7mKVy64Eo+n
WuRlUvr+4bByDEi6gmbGi7ZNrQ4dCUy+pPJ5pd6y2v2wAvQspZu1H/WWlxoebME8
C+H6bFFl60zoKKptzSVhOhXoK5kQN5QGzNLniaW5Jb5EuFTXi2HXsvb7+j22WHuR
-----END CERTIFICATE-----
