Certificate:
    Data:
        Version: 3 (0x2)
        Serial Number: 38 (0x26)
        Signature Algorithm: sha256WithRSAEncryption
        Issuer: C=US, ST=California, L=Santa Clara, O=pkg5, CN=ch1_ta4/emailAddress=ch1_ta4
        Validity
            Not Before: Oct 22 10:15:19 2021 GMT
            Not After : Jul 18 10:15:19 2024 GMT
        Subject: C=US, ST=California, L=Santa Clara, O=pkg5, CN=cs3_ch1_ta4/emailAddress=cs3_ch1_ta4
        Subject Public Key Info:
            Public Key Algorithm: rsaEncryption
                Public-Key: (2048 bit)
                Modulus:
                    00:b4:f7:9b:9e:d8:54:d7:a9:87:bc:4e:3a:f2:a1:
                    12:11:67:b1:da:a3:3a:4c:0b:91:89:b1:1c:00:ba:
                    04:54:68:bb:a4:95:39:a9:bd:fa:25:a9:d0:47:6d:
                    5b:ce:fd:ce:b3:8f:73:19:e5:b0:29:48:b8:ef:08:
                    50:43:04:90:3f:d6:6d:67:e2:9d:d4:c5:ff:a6:f3:
                    02:13:69:74:12:5c:ed:1b:f7:95:6e:07:72:64:a3:
                    5a:2c:62:b1:bb:aa:e9:18:31:86:e4:d2:c4:6c:22:
                    1f:60:75:d4:7f:cb:a9:32:9e:64:a7:5f:16:66:3d:
                    fe:47:5a:34:0a:14:ed:c3:b4:fa:b3:5c:17:72:e9:
                    79:15:eb:4c:31:aa:ea:e7:58:e9:af:13:41:11:e3:
                    89:54:e4:e9:15:b9:c1:c9:a5:ee:d1:4a:65:b1:71:
                    64:38:e2:bf:70:4e:3a:f0:f3:ff:f4:b5:db:d6:f1:
                    b4:be:92:50:75:64:e0:23:65:ef:b4:f5:8e:76:7f:
                    18:69:82:8b:15:03:b8:ae:a8:19:8f:e7:a6:66:52:
                    b1:51:df:5c:6b:1d:cc:3f:6c:75:1b:91:47:25:ea:
                    4f:9e:67:45:ae:94:7c:a0:62:5f:35:c1:8c:24:e5:
                    1a:90:11:1b:fa:9c:b9:e7:10:5f:e8:1e:b5:fb:cc:
                    4b:fd
                Exponent: 65537 (0x10001)
        X509v3 extensions:
            X509v3 Subject Key Identifier: 
                F9:93:AD:0E:23:6F:A4:E7:E1:CD:D4:E3:74:FB:E2:10:C5:B9:3E:A4
            X509v3 Authority Key Identifier: 
                keyid:0E:D1:7E:6A:98:F8:F9:68:97:C8:CC:DA:FE:31:F3:6B:B4:20:E2:01
                DirName:/C=US/ST=California/L=Santa Clara/O=pkg5/CN=ta4/emailAddress=ta4
                serial:23
            X509v3 Basic Constraints: critical
                CA:FALSE
            X509v3 CRL Distribution Points: 
                Full Name:
                  URI:foo://bar/baz
    Signature Algorithm: sha256WithRSAEncryption
    Signature Value:
        ae:55:20:46:b4:1a:e0:75:a9:cb:51:11:a4:79:3f:b9:ec:98:
        56:12:c9:f1:82:94:4f:b5:e7:55:14:c9:c0:27:4c:eb:cf:71:
        30:e1:2c:3c:b7:7f:6d:5b:85:d6:15:b4:b3:1f:ee:75:ec:bb:
        b8:45:44:87:c0:22:fc:7b:0e:5d:05:7a:6d:c4:29:e3:b4:88:
        ff:33:96:14:af:c2:e2:21:13:df:a1:a7:b7:3b:c4:03:bb:4d:
        a8:55:a8:5e:11:2d:e7:f5:ae:27:0d:cc:4f:ba:74:01:78:c8:
        d2:ac:38:68:34:df:13:bc:5d:9f:87:6a:2a:c7:0f:08:52:c0:
        5e:d3:86:75:ef:90:65:81:cd:24:a9:1d:4a:e5:5e:d2:e1:9f:
        23:a2:5d:c7:bd:93:51:d5:87:66:4b:27:de:bf:78:e1:37:33:
        95:5f:ac:b1:a6:f7:4f:9e:df:0c:78:8a:1c:a0:3a:d1:58:7b:
        82:85:7c:98:4e:e6:d6:7e:87:0d:75:4f:9d:92:8c:69:fc:85:
        c9:59:9a:90:d3:2e:58:c3:25:f1:15:e8:68:32:29:9e:ed:d5:
        04:1f:55:3b:5b:52:8d:56:fc:9d:9d:de:59:b2:d4:3f:9b:d3:
        7e:6d:ec:2c:ed:ff:a2:2c:80:36:80:6b:b6:0d:04:c2:83:40:
        09:c6:e6:c0
-----BEGIN CERTIFICATE-----
MIIETDCCAzSgAwIBAgIBJjANBgkqhkiG9w0BAQsFADBxMQswCQYDVQQGEwJVUzET
MBEGA1UECAwKQ2FsaWZvcm5pYTEUMBIGA1UEBwwLU2FudGEgQ2xhcmExDTALBgNV
BAoMBHBrZzUxEDAOBgNVBAMMB2NoMV90YTQxFjAUBgkqhkiG9w0BCQEWB2NoMV90
YTQwHhcNMjExMDIyMTAxNTE5WhcNMjQwNzE4MTAxNTE5WjB5MQswCQYDVQQGEwJV
UzETMBEGA1UECAwKQ2FsaWZvcm5pYTEUMBIGA1UEBwwLU2FudGEgQ2xhcmExDTAL
BgNVBAoMBHBrZzUxFDASBgNVBAMMC2NzM19jaDFfdGE0MRowGAYJKoZIhvcNAQkB
FgtjczNfY2gxX3RhNDCCASIwDQYJKoZIhvcNAQEBBQADggEPADCCAQoCggEBALT3
m57YVNeph7xOOvKhEhFnsdqjOkwLkYmxHAC6BFRou6SVOam9+iWp0EdtW879zrOP
cxnlsClIuO8IUEMEkD/WbWfindTF/6bzAhNpdBJc7Rv3lW4HcmSjWixisbuq6Rgx
huTSxGwiH2B11H/LqTKeZKdfFmY9/kdaNAoU7cO0+rNcF3LpeRXrTDGq6udY6a8T
QRHjiVTk6RW5wcml7tFKZbFxZDjiv3BOOvDz//S129bxtL6SUHVk4CNl77T1jnZ/
GGmCixUDuK6oGY/npmZSsVHfXGsdzD9sdRuRRyXqT55nRa6UfKBiXzXBjCTlGpAR
G/qcuecQX+getfvMS/0CAwEAAaOB5jCB4zAdBgNVHQ4EFgQU+ZOtDiNvpOfhzdTj
dPviEMW5PqQwgZMGA1UdIwSBizCBiIAUDtF+apj4+WiXyMza/jHza7Qg4gGhbaRr
MGkxCzAJBgNVBAYTAlVTMRMwEQYDVQQIDApDYWxpZm9ybmlhMRQwEgYDVQQHDAtT
YW50YSBDbGFyYTENMAsGA1UECgwEcGtnNTEMMAoGA1UEAwwDdGE0MRIwEAYJKoZI
hvcNAQkBFgN0YTSCASMwDAYDVR0TAQH/BAIwADAeBgNVHR8EFzAVMBOgEaAPhg1m
b286Ly9iYXIvYmF6MA0GCSqGSIb3DQEBCwUAA4IBAQCuVSBGtBrgdanLURGkeT+5
7JhWEsnxgpRPtedVFMnAJ0zrz3Ew4Sw8t39tW4XWFbSzH+517Lu4RUSHwCL8ew5d
BXptxCnjtIj/M5YUr8LiIRPfoae3O8QDu02oVaheES3n9a4nDcxPunQBeMjSrDho
NN8TvF2fh2oqxw8IUsBe04Z175Blgc0kqR1K5V7S4Z8jol3HvZNR1YdmSyfev3jh
NzOVX6yxpvdPnt8MeIocoDrRWHuChXyYTubWfocNdU+dkoxp/IXJWZqQ0y5YwyXx
FehoMime7dUEH1U7W1KNVvydnd5ZstQ/m9N+bews7f+iLIA2gGu2DQTCg0AJxubA
-----END CERTIFICATE-----
