Certificate:
    Data:
        Version: 3 (0x2)
        Serial Number: 19 (0x13)
        Signature Algorithm: sha256WithRSAEncryption
        Issuer: C=US, ST=California, L=Santa Clara, O=pkg5, CN=ch1_ta3/emailAddress=ch1_ta3
        Validity
            Not Before: Jan  1 01:01:01 2009 GMT
            Not After : Jan  2 01:01:01 2009 GMT
        Subject: C=US, ST=California, L=Santa Clara, O=pkg5, CN=cs3_ch1_ta3/emailAddress=cs3_ch1_ta3
        Subject Public Key Info:
            Public Key Algorithm: rsaEncryption
                Public-Key: (2048 bit)
                Modulus:
                    00:ab:28:5c:40:8d:b5:8d:0f:88:2a:5c:ae:6a:bd:
                    47:0d:77:cd:d7:b8:0c:35:e6:11:08:1a:98:1f:c3:
                    cb:f1:44:05:54:59:1d:d1:2c:61:65:78:a0:68:f9:
                    9e:98:d8:05:a7:a6:3e:cb:51:6a:d3:73:d5:8f:f5:
                    1a:ac:75:47:50:b5:9e:6a:4b:3b:79:b7:47:41:8b:
                    6f:ef:b4:db:15:9e:6e:93:34:79:49:7b:17:99:f9:
                    65:67:4f:6b:fb:86:f1:5a:f9:85:c0:44:b2:b6:cf:
                    9d:a1:6a:0b:83:cc:15:32:1f:3e:29:07:02:d8:7f:
                    db:d7:ca:6b:24:32:d6:11:83:bc:63:47:24:d4:11:
                    ff:bb:1f:5c:4f:43:1f:4c:a9:d4:16:48:23:c9:5d:
                    c1:be:0b:b0:20:88:d8:0b:ac:b4:b4:12:cb:5a:5e:
                    1b:2a:e9:5f:a0:68:bf:9e:fb:d5:ee:10:59:08:b6:
                    5b:ef:c0:3b:b8:d1:8f:84:ef:71:0d:ec:eb:cf:a7:
                    e2:e8:48:c2:3d:d4:ea:70:e3:3e:2a:74:c8:9c:ab:
                    01:7c:33:2d:ab:5a:e6:1a:87:50:6c:82:8a:23:0f:
                    0d:94:38:f9:6c:41:3a:9d:68:ce:9e:e2:2c:52:55:
                    bf:e8:eb:32:1c:ec:7c:f9:16:5c:92:d1:34:b6:ed:
                    5d:e5
                Exponent: 65537 (0x10001)
        X509v3 extensions:
            X509v3 Basic Constraints: critical
                CA:FALSE
            X509v3 Key Usage: critical
                Digital Signature
            X509v3 Subject Key Identifier: 
                8B:72:D4:20:F1:38:DE:2C:60:56:80:B6:A7:78:F7:C5:56:F5:50:47
            X509v3 Authority Key Identifier: 
                D5:A6:1E:11:8A:90:CB:66:0F:10:66:77:01:DD:3A:8F:14:F0:85:C0
    Signature Algorithm: sha256WithRSAEncryption
    Signature Value:
        20:eb:09:ee:2d:c2:77:4e:00:9a:91:54:30:2e:1b:67:ff:e6:
        5b:5b:69:a4:9b:e9:95:65:4b:78:33:ba:8f:f6:43:b1:c1:18:
        9d:2e:c1:ad:2e:a0:83:ad:f2:3b:d1:5a:4e:03:33:36:4d:3f:
        ec:dc:68:ae:cc:0a:d9:a2:23:9b:1c:e6:8e:cd:a8:f2:c2:9a:
        e8:88:90:7a:2b:e6:4a:cd:c9:8c:7f:44:dc:5b:f3:69:01:33:
        0d:89:f7:00:54:b0:56:07:e8:ca:76:76:cf:81:c0:92:e1:42:
        ba:bd:18:22:fd:90:31:45:5b:89:99:b7:51:35:c2:77:c0:45:
        59:74:9c:d6:87:b1:4f:50:56:8a:3e:21:19:db:57:45:c0:d0:
        74:b4:48:d3:4e:0b:b2:5d:2b:a0:fd:d1:76:e2:94:7b:28:61:
        6b:40:b3:fb:27:86:36:ab:32:75:c5:ef:c6:6f:cf:cd:fe:85:
        9f:7b:5c:c3:ac:ab:94:1d:52:49:bf:66:95:33:2d:5f:0c:3f:
        4e:91:10:3c:cd:5e:4e:1b:2a:84:ac:91:9a:e6:d3:3e:d6:ca:
        fd:59:c4:bc:ca:08:31:e0:78:e9:1a:e7:dd:7e:30:81:45:a4:
        c4:44:65:91:87:81:f5:70:e2:23:08:d4:53:98:ad:cc:e5:cd:
        18:fc:5a:a9
-----BEGIN CERTIFICATE-----
MIIDxTCCAq2gAwIBAgIBEzANBgkqhkiG9w0BAQsFADBxMQswCQYDVQQGEwJVUzET
MBEGA1UECAwKQ2FsaWZvcm5pYTEUMBIGA1UEBwwLU2FudGEgQ2xhcmExDTALBgNV
BAoMBHBrZzUxEDAOBgNVBAMMB2NoMV90YTMxFjAUBgkqhkiG9w0BCQEWB2NoMV90
YTMwHhcNMDkwMTAxMDEwMTAxWhcNMDkwMTAyMDEwMTAxWjB5MQswCQYDVQQGEwJV
UzETMBEGA1UECAwKQ2FsaWZvcm5pYTEUMBIGA1UEBwwLU2FudGEgQ2xhcmExDTAL
BgNVBAoMBHBrZzUxFDASBgNVBAMMC2NzM19jaDFfdGEzMRowGAYJKoZIhvcNAQkB
FgtjczNfY2gxX3RhMzCCASIwDQYJKoZIhvcNAQEBBQADggEPADCCAQoCggEBAKso
XECNtY0PiCpcrmq9Rw13zde4DDXmEQgamB/Dy/FEBVRZHdEsYWV4oGj5npjYBaem
PstRatNz1Y/1Gqx1R1C1nmpLO3m3R0GLb++02xWebpM0eUl7F5n5ZWdPa/uG8Vr5
hcBEsrbPnaFqC4PMFTIfPikHAth/29fKayQy1hGDvGNHJNQR/7sfXE9DH0yp1BZI
I8ldwb4LsCCI2AustLQSy1peGyrpX6Bov5771e4QWQi2W+/AO7jRj4TvcQ3s68+n
4uhIwj3U6nDjPip0yJyrAXwzLata5hqHUGyCiiMPDZQ4+WxBOp1ozp7iLFJVv+jr
MhzsfPkWXJLRNLbtXeUCAwEAAaNgMF4wDAYDVR0TAQH/BAIwADAOBgNVHQ8BAf8E
BAMCB4AwHQYDVR0OBBYEFIty1CDxON4sYFaAtqd498VW9VBHMB8GA1UdIwQYMBaA
FNWmHhGKkMtmDxBmdwHdOo8U8IXAMA0GCSqGSIb3DQEBCwUAA4IBAQAg6wnuLcJ3
TgCakVQwLhtn/+ZbW2mkm+mVZUt4M7qP9kOxwRidLsGtLqCDrfI70VpOAzM2TT/s
3GiuzArZoiObHOaOzajywproiJB6K+ZKzcmMf0TcW/NpATMNifcAVLBWB+jKdnbP
gcCS4UK6vRgi/ZAxRVuJmbdRNcJ3wEVZdJzWh7FPUFaKPiEZ21dFwNB0tEjTTguy
XSug/dF24pR7KGFrQLP7J4Y2qzJ1xe/Gb8/N/oWfe1zDrKuUHVJJv2aVMy1fDD9O
kRA8zV5OGyqErJGa5tM+1sr9WcS8yggx4HjpGufdfjCBRaTERGWRh4H1cOIjCNRT
mK3M5c0Y/Fqp
-----END CERTIFICATE-----
