Certificate:
    Data:
        Version: 3 (0x2)
        Serial Number: 38 (0x26)
    Signature Algorithm: sha256WithRSAEncryption
        Issuer: C=US, ST=California, L=Santa Clara, O=pkg5, CN=ch1_ta4/emailAddress=ch1_ta4
        Validity
            Not Before: Mar 20 10:20:55 2018 GMT
            Not After : Dec 14 10:20:55 2020 GMT
        Subject: C=US, ST=California, L=Santa Clara, O=pkg5, CN=cs3_ch1_ta4/emailAddress=cs3_ch1_ta4
        Subject Public Key Info:
            Public Key Algorithm: rsaEncryption
                Public-Key: (1024 bit)
                Modulus:
                    00:c2:d7:6c:e4:71:42:77:67:19:a0:c5:77:b2:6a:
                    b8:14:54:bf:68:6c:03:89:4c:58:d0:86:db:79:1c:
                    98:37:ee:16:6b:f5:3b:0e:d2:c6:a1:83:69:37:15:
                    6b:a4:6a:11:9e:86:d7:69:db:b8:a3:64:8c:d1:17:
                    99:ed:f4:79:a4:f7:5b:ca:25:2a:a9:b6:7c:9d:c0:
                    c1:10:a3:96:41:e1:c9:96:c0:24:9f:97:2a:99:c8:
                    38:da:39:0b:da:76:44:76:78:1f:87:be:f5:36:2c:
                    79:0d:ed:b0:3f:b9:dd:3e:d5:a6:24:2d:f3:89:e7:
                    70:92:3c:e2:66:a0:a0:16:bb
                Exponent: 65537 (0x10001)
        X509v3 extensions:
            X509v3 Subject Key Identifier: 
                CE:5A:A5:06:AB:38:A3:CB:98:16:FE:67:A9:33:61:DF:8C:D2:3C:AD
            X509v3 Authority Key Identifier: 
                keyid:1F:C3:17:35:AF:BC:CF:C0:2B:13:96:F2:E2:D7:10:4A:9E:07:25:96
                DirName:/C=US/ST=California/L=Santa Clara/O=pkg5/CN=ta4/emailAddress=ta4
                serial:23

            X509v3 Basic Constraints: critical
                CA:FALSE
            X509v3 CRL Distribution Points: 

                Full Name:
                  URI:foo://bar/baz

    Signature Algorithm: sha256WithRSAEncryption
         8d:b0:63:10:af:29:00:c9:e1:c5:a9:f7:ed:c9:2a:b7:c8:c3:
         27:40:f4:57:ad:48:ed:56:9e:6b:74:0f:d7:4d:57:89:df:f2:
         08:c0:7f:81:36:20:1b:99:c3:c8:24:e7:f7:03:c2:1a:c3:50:
         4d:0e:fc:4f:b6:c8:ea:4c:39:d5:b4:3a:b6:11:34:02:12:bf:
         d8:56:6a:ee:1d:42:d8:99:5f:15:44:b6:f1:38:43:f3:f8:bb:
         fd:fc:6c:4f:09:89:5f:09:06:bd:5b:07:d8:56:88:ff:81:07:
         d7:44:8d:f8:d4:d7:09:b5:85:2b:d6:f4:98:3d:a8:50:0f:b7:
         63:d5:cd:8d:bf:34:d8:29:f7:b6:03:4f:82:a3:4f:c3:8a:5f:
         31:75:1b:95:31:f0:62:e0:32:a1:4c:7d:74:75:35:c1:b4:e3:
         0d:22:f1:28:9f:a9:53:0e:64:a4:08:ce:a5:91:3b:12:f7:50:
         5c:3e:fc:a0:50:f5:2b:8a:cb:cf:55:71:47:af:ac:af:13:f3:
         fa:0e:d6:68:2f:60:60:30:6d:5e:81:65:17:4c:65:76:43:ad:
         a0:a5:ba:60:a9:90:33:ba:d3:c3:15:94:58:f2:5a:35:d6:5b:
         34:e0:7a:ca:00:c9:61:6f:ef:7f:c4:3a:f0:2e:e9:03:90:d4:
         f6:5f:aa:d4
-----BEGIN CERTIFICATE-----
MIIDyDCCArCgAwIBAgIBJjANBgkqhkiG9w0BAQsFADBxMQswCQYDVQQGEwJVUzET
MBEGA1UECAwKQ2FsaWZvcm5pYTEUMBIGA1UEBwwLU2FudGEgQ2xhcmExDTALBgNV
BAoMBHBrZzUxEDAOBgNVBAMMB2NoMV90YTQxFjAUBgkqhkiG9w0BCQEWB2NoMV90
YTQwHhcNMTgwMzIwMTAyMDU1WhcNMjAxMjE0MTAyMDU1WjB5MQswCQYDVQQGEwJV
UzETMBEGA1UECAwKQ2FsaWZvcm5pYTEUMBIGA1UEBwwLU2FudGEgQ2xhcmExDTAL
BgNVBAoMBHBrZzUxFDASBgNVBAMMC2NzM19jaDFfdGE0MRowGAYJKoZIhvcNAQkB
FgtjczNfY2gxX3RhNDCBnzANBgkqhkiG9w0BAQEFAAOBjQAwgYkCgYEAwtds5HFC
d2cZoMV3smq4FFS/aGwDiUxY0IbbeRyYN+4Wa/U7DtLGoYNpNxVrpGoRnobXadu4
o2SM0ReZ7fR5pPdbyiUqqbZ8ncDBEKOWQeHJlsAkn5cqmcg42jkL2nZEdngfh771
Nix5De2wP7ndPtWmJC3ziedwkjziZqCgFrsCAwEAAaOB5jCB4zAdBgNVHQ4EFgQU
zlqlBqs4o8uYFv5nqTNh34zSPK0wgZMGA1UdIwSBizCBiIAUH8MXNa+8z8ArE5by
4tcQSp4HJZahbaRrMGkxCzAJBgNVBAYTAlVTMRMwEQYDVQQIDApDYWxpZm9ybmlh
MRQwEgYDVQQHDAtTYW50YSBDbGFyYTENMAsGA1UECgwEcGtnNTEMMAoGA1UEAwwD
dGE0MRIwEAYJKoZIhvcNAQkBFgN0YTSCASMwDAYDVR0TAQH/BAIwADAeBgNVHR8E
FzAVMBOgEaAPhg1mb286Ly9iYXIvYmF6MA0GCSqGSIb3DQEBCwUAA4IBAQCNsGMQ
rykAyeHFqfftySq3yMMnQPRXrUjtVp5rdA/XTVeJ3/IIwH+BNiAbmcPIJOf3A8Ia
w1BNDvxPtsjqTDnVtDq2ETQCEr/YVmruHULYmV8VRLbxOEPz+Lv9/GxPCYlfCQa9
WwfYVoj/gQfXRI341NcJtYUr1vSYPahQD7dj1c2NvzTYKfe2A0+Co0/Dil8xdRuV
MfBi4DKhTH10dTXBtOMNIvEon6lTDmSkCM6lkTsS91BcPvygUPUrisvPVXFHr6yv
E/P6DtZoL2BgMG1egWUXTGV2Q62gpbpgqZAzutPDFZRY8lo11ls04HrKAMlhb+9/
xDrwLukDkNT2X6rU
-----END CERTIFICATE-----
