Certificate:
    Data:
        Version: 3 (0x2)
        Serial Number: 37 (0x25)
    Signature Algorithm: sha256WithRSAEncryption
        Issuer: C=US, ST=California, L=Santa Clara, O=pkg5, CN=ch1_ta4/emailAddress=ch1_ta4
        Validity
            Not Before: Nov 28 22:50:57 2016 GMT
            Not After : Aug 25 22:50:57 2019 GMT
        Subject: C=US, ST=California, L=Santa Clara, O=pkg5, CN=cs3_ch1_ta4/emailAddress=cs3_ch1_ta4
        Subject Public Key Info:
            Public Key Algorithm: rsaEncryption
                Public-Key: (1024 bit)
                Modulus:
                    00:9b:a4:1b:3e:0d:27:8c:27:45:89:1a:93:fc:7a:
                    03:8d:cc:1d:19:39:46:b7:20:88:96:7b:7b:23:bd:
                    bc:ff:af:65:d8:b8:31:7a:e1:69:c0:23:78:21:0f:
                    b6:e2:02:eb:b6:87:c8:b2:10:1c:dc:50:13:f4:61:
                    7b:7e:d3:f7:47:22:04:45:bc:d2:21:2b:c0:77:3f:
                    93:32:a8:68:b0:65:5e:2f:3b:7d:b1:09:cc:66:ac:
                    22:13:cf:2f:b5:cf:f6:d7:05:e9:fe:c3:20:66:68:
                    81:7b:5b:59:f6:5c:70:91:f3:4a:b5:98:ce:fc:4c:
                    f6:3d:74:31:98:30:72:6f:bf
                Exponent: 65537 (0x10001)
        X509v3 extensions:
            X509v3 Subject Key Identifier: 
                7E:2F:FE:41:53:FA:94:29:19:57:FF:EF:45:94:89:44:A7:80:76:98
            X509v3 Authority Key Identifier: 
                keyid:9C:BA:BB:D8:AF:C4:F2:0A:0B:2C:FB:5A:C4:D5:47:3A:80:C7:D7:9A
                DirName:/C=US/ST=California/L=Santa Clara/O=pkg5/CN=ta4/emailAddress=ta4
                serial:22

            X509v3 Basic Constraints: critical
                CA:FALSE
            X509v3 CRL Distribution Points: 

                Full Name:
                  URI:foo://bar/baz

    Signature Algorithm: sha256WithRSAEncryption
         3d:49:2d:af:de:60:c1:6d:62:ac:02:2f:c8:c7:60:d0:8e:76:
         89:69:50:6a:88:06:71:a0:53:fb:6a:2f:99:99:f8:33:6b:95:
         53:41:9a:9b:fe:02:ab:df:2a:20:b2:97:70:72:ed:e8:ca:00:
         34:d3:4b:64:79:cb:bd:93:19:85:87:f7:44:09:41:4a:ba:f1:
         18:b1:a0:6b:27:02:80:c1:d4:e4:a5:a5:37:c7:d0:e4:24:84:
         c9:ac:b2:6f:d5:a4:e3:b8:a0:13:dd:bb:4a:d2:28:66:9b:df:
         0f:82:21:4f:e5:ed:b4:a7:88:96:7b:cd:26:2d:82:8a:c4:8e:
         9e:a8:a9:2a:79:ca:08:88:58:f5:29:0c:fa:e2:eb:33:67:2b:
         0a:70:a8:c7:f9:23:c5:17:49:73:34:63:ff:8c:28:04:18:85:
         97:ed:3d:e7:55:66:62:14:c8:ff:b5:5a:c1:2c:69:98:ef:3f:
         68:7c:ae:9e:55:bd:d8:26:a9:ae:eb:cf:b0:5b:89:55:95:36:
         17:58:75:8f:96:42:0d:2d:9b:ed:2d:7a:eb:56:65:3c:02:b2:
         15:a0:7f:1f:5d:f6:87:04:ba:ca:9b:03:ce:82:b9:ab:f9:ce:
         97:ae:cd:22:d8:ed:89:41:e4:f1:25:1c:c0:3e:83:e3:78:85:
         df:07:47:34
-----BEGIN CERTIFICATE-----
MIIDyDCCArCgAwIBAgIBJTANBgkqhkiG9w0BAQsFADBxMQswCQYDVQQGEwJVUzET
MBEGA1UECAwKQ2FsaWZvcm5pYTEUMBIGA1UEBwwLU2FudGEgQ2xhcmExDTALBgNV
BAoMBHBrZzUxEDAOBgNVBAMMB2NoMV90YTQxFjAUBgkqhkiG9w0BCQEWB2NoMV90
YTQwHhcNMTYxMTI4MjI1MDU3WhcNMTkwODI1MjI1MDU3WjB5MQswCQYDVQQGEwJV
UzETMBEGA1UECAwKQ2FsaWZvcm5pYTEUMBIGA1UEBwwLU2FudGEgQ2xhcmExDTAL
BgNVBAoMBHBrZzUxFDASBgNVBAMMC2NzM19jaDFfdGE0MRowGAYJKoZIhvcNAQkB
FgtjczNfY2gxX3RhNDCBnzANBgkqhkiG9w0BAQEFAAOBjQAwgYkCgYEAm6QbPg0n
jCdFiRqT/HoDjcwdGTlGtyCIlnt7I728/69l2LgxeuFpwCN4IQ+24gLrtofIshAc
3FAT9GF7ftP3RyIERbzSISvAdz+TMqhosGVeLzt9sQnMZqwiE88vtc/21wXp/sMg
ZmiBe1tZ9lxwkfNKtZjO/Ez2PXQxmDByb78CAwEAAaOB5jCB4zAdBgNVHQ4EFgQU
fi/+QVP6lCkZV//vRZSJRKeAdpgwgZMGA1UdIwSBizCBiIAUnLq72K/E8goLLPta
xNVHOoDH15qhbaRrMGkxCzAJBgNVBAYTAlVTMRMwEQYDVQQIDApDYWxpZm9ybmlh
MRQwEgYDVQQHDAtTYW50YSBDbGFyYTENMAsGA1UECgwEcGtnNTEMMAoGA1UEAwwD
dGE0MRIwEAYJKoZIhvcNAQkBFgN0YTSCASIwDAYDVR0TAQH/BAIwADAeBgNVHR8E
FzAVMBOgEaAPhg1mb286Ly9iYXIvYmF6MA0GCSqGSIb3DQEBCwUAA4IBAQA9SS2v
3mDBbWKsAi/Ix2DQjnaJaVBqiAZxoFP7ai+Zmfgza5VTQZqb/gKr3yogspdwcu3o
ygA000tkecu9kxmFh/dECUFKuvEYsaBrJwKAwdTkpaU3x9DkJITJrLJv1aTjuKAT
3btK0ihmm98PgiFP5e20p4iWe80mLYKKxI6eqKkqecoIiFj1KQz64uszZysKcKjH
+SPFF0lzNGP/jCgEGIWX7T3nVWZiFMj/tVrBLGmY7z9ofK6eVb3YJqmu68+wW4lV
lTYXWHWPlkINLZvtLXrrVmU8ArIVoH8fXfaHBLrKmwPOgrmr+c6Xrs0i2O2JQeTx
JRzAPoPjeIXfB0c0
-----END CERTIFICATE-----
