Certificate:
    Data:
        Version: 3 (0x2)
        Serial Number: 19 (0x13)
    Signature Algorithm: sha256WithRSAEncryption
        Issuer: C=US, ST=California, L=Santa Clara, O=pkg5, CN=ch1_ta3/emailAddress=ch1_ta3
        Validity
            Not Before: Jan  1 01:01:01 2009 GMT
            Not After : Jan  2 01:01:01 2009 GMT
        Subject: C=US, ST=California, L=Santa Clara, O=pkg5, CN=cs3_ch1_ta3/emailAddress=cs3_ch1_ta3
        Subject Public Key Info:
            Public Key Algorithm: rsaEncryption
                Public-Key: (1024 bit)
                Modulus:
                    00:df:01:cc:10:4a:b2:51:bf:1a:95:65:29:fe:f6:
                    b1:7d:93:e6:cd:03:3b:24:8f:e9:b6:46:40:9e:22:
                    49:8e:9d:1a:61:f1:aa:54:49:a1:aa:7b:8d:f6:ac:
                    6d:f3:b7:c6:75:3c:e6:b7:56:67:2e:0b:00:26:70:
                    18:e0:9a:a5:af:95:ab:c2:e6:c0:06:e3:57:30:a7:
                    66:d3:25:99:1b:ed:54:88:16:80:b3:c6:9c:47:ef:
                    62:7b:37:ee:ae:ef:c1:d0:99:ba:3b:ce:71:fb:1a:
                    62:51:e8:4b:2f:9b:09:b0:e8:12:6b:bb:40:ab:a7:
                    59:2b:c8:e8:6b:2f:f5:bd:5b
                Exponent: 65537 (0x10001)
        X509v3 extensions:
            X509v3 Basic Constraints: critical
                CA:FALSE
            X509v3 Key Usage: critical
                Digital Signature
    Signature Algorithm: sha256WithRSAEncryption
         54:64:02:a4:42:a1:86:3b:d2:09:a9:53:e3:f6:5e:76:67:a5:
         af:51:c9:71:b7:af:55:26:d0:51:0c:d8:c1:03:22:b8:bc:8d:
         e1:24:1d:35:54:0b:e0:ad:c4:a4:07:a0:6c:33:f3:44:a8:9e:
         df:25:b2:a5:0b:b3:ab:e7:4c:ab:72:44:c2:64:80:a3:46:57:
         5e:bc:46:79:f0:44:fa:f3:aa:76:8d:66:6d:70:e9:fd:31:91:
         9a:b8:12:38:11:93:eb:da:d1:61:87:8e:65:a8:57:7f:df:f6:
         e1:55:8e:d1:5c:28:49:79:03:c9:ff:d1:d3:a5:0a:aa:d4:cb:
         a8:b9
-----BEGIN CERTIFICATE-----
MIICgDCCAemgAwIBAgIBEzANBgkqhkiG9w0BAQsFADBxMQswCQYDVQQGEwJVUzET
MBEGA1UECAwKQ2FsaWZvcm5pYTEUMBIGA1UEBwwLU2FudGEgQ2xhcmExDTALBgNV
BAoMBHBrZzUxEDAOBgNVBAMMB2NoMV90YTMxFjAUBgkqhkiG9w0BCQEWB2NoMV90
YTMwHhcNMDkwMTAxMDEwMTAxWhcNMDkwMTAyMDEwMTAxWjB5MQswCQYDVQQGEwJV
UzETMBEGA1UECAwKQ2FsaWZvcm5pYTEUMBIGA1UEBwwLU2FudGEgQ2xhcmExDTAL
BgNVBAoMBHBrZzUxFDASBgNVBAMMC2NzM19jaDFfdGEzMRowGAYJKoZIhvcNAQkB
FgtjczNfY2gxX3RhMzCBnzANBgkqhkiG9w0BAQEFAAOBjQAwgYkCgYEA3wHMEEqy
Ub8alWUp/vaxfZPmzQM7JI/ptkZAniJJjp0aYfGqVEmhqnuN9qxt87fGdTzmt1Zn
LgsAJnAY4Jqlr5WrwubABuNXMKdm0yWZG+1UiBaAs8acR+9iezfuru/B0Jm6O85x
+xpiUehLL5sJsOgSa7tAq6dZK8joay/1vVsCAwEAAaMgMB4wDAYDVR0TAQH/BAIw
ADAOBgNVHQ8BAf8EBAMCB4AwDQYJKoZIhvcNAQELBQADgYEAVGQCpEKhhjvSCalT
4/Zedmelr1HJcbevVSbQUQzYwQMiuLyN4SQdNVQL4K3EpAegbDPzRKie3yWypQuz
q+dMq3JEwmSAo0ZXXrxGefBE+vOqdo1mbXDp/TGRmrgSOBGT69rRYYeOZahXf9/2
4VWO0VwoSXkDyf/R06UKqtTLqLk=
-----END CERTIFICATE-----
