Certificate:
    Data:
        Version: 3 (0x2)
        Serial Number: 20 (0x14)
    Signature Algorithm: sha256WithRSAEncryption
        Issuer: C=US, ST=California, L=Santa Clara, O=pkg5, CN=ch1_ta3/emailAddress=ch1_ta3
        Validity
            Not Before: Jan  1 01:01:01 2035 GMT
            Not After : Jan  2 01:01:01 2035 GMT
        Subject: C=US, ST=California, L=Santa Clara, O=pkg5, CN=cs4_ch1_ta3/emailAddress=cs4_ch1_ta3
        Subject Public Key Info:
            Public Key Algorithm: rsaEncryption
                Public-Key: (1024 bit)
                Modulus:
                    00:c5:d1:01:3a:ed:7b:c8:90:25:d6:76:d6:12:6d:
                    ae:62:ed:e0:44:1f:78:81:2d:e5:45:cc:ac:e0:34:
                    26:ea:38:9f:e9:4f:5c:c6:4c:da:91:f0:b6:68:c5:
                    3a:2e:dd:29:46:d5:34:e5:1e:f2:0f:92:9d:dc:fa:
                    bc:77:fc:6f:69:38:fe:0d:97:59:f5:06:d8:27:04:
                    03:c3:16:45:54:fe:da:86:80:0b:44:3e:56:95:e9:
                    b0:47:70:2d:7c:19:01:78:90:49:35:6c:a2:a4:70:
                    d1:34:8b:c1:3d:5a:a0:83:57:64:0d:ef:9d:87:85:
                    57:60:bb:f2:90:23:16:c1:31
                Exponent: 65537 (0x10001)
        X509v3 extensions:
            X509v3 Basic Constraints: critical
                CA:FALSE
            X509v3 Key Usage: critical
                Digital Signature
    Signature Algorithm: sha256WithRSAEncryption
         47:3e:9d:24:20:58:1b:68:2d:ca:b0:1d:ce:45:76:0e:9e:d2:
         65:57:7e:a7:7a:dc:2e:d9:cb:1a:95:fe:6f:06:bd:44:85:1f:
         e2:6e:c5:5e:0f:f5:13:3d:1a:6c:aa:c2:74:da:62:9f:f9:49:
         a0:f0:8d:48:ca:80:43:2e:37:11:dd:5a:0e:19:44:d1:e7:af:
         1b:f0:94:0a:a4:0c:1e:5f:af:c2:31:a9:be:24:ca:77:88:14:
         c8:9e:e9:71:70:7e:c1:4d:02:f5:cc:77:e0:e1:96:01:2b:e7:
         92:83:75:fd:67:fe:6d:15:36:91:c6:a5:fe:3a:b4:ff:1c:d6:
         97:15
-----BEGIN CERTIFICATE-----
MIICgDCCAemgAwIBAgIBFDANBgkqhkiG9w0BAQsFADBxMQswCQYDVQQGEwJVUzET
MBEGA1UECAwKQ2FsaWZvcm5pYTEUMBIGA1UEBwwLU2FudGEgQ2xhcmExDTALBgNV
BAoMBHBrZzUxEDAOBgNVBAMMB2NoMV90YTMxFjAUBgkqhkiG9w0BCQEWB2NoMV90
YTMwHhcNMzUwMTAxMDEwMTAxWhcNMzUwMTAyMDEwMTAxWjB5MQswCQYDVQQGEwJV
UzETMBEGA1UECAwKQ2FsaWZvcm5pYTEUMBIGA1UEBwwLU2FudGEgQ2xhcmExDTAL
BgNVBAoMBHBrZzUxFDASBgNVBAMMC2NzNF9jaDFfdGEzMRowGAYJKoZIhvcNAQkB
FgtjczRfY2gxX3RhMzCBnzANBgkqhkiG9w0BAQEFAAOBjQAwgYkCgYEAxdEBOu17
yJAl1nbWEm2uYu3gRB94gS3lRcys4DQm6jif6U9cxkzakfC2aMU6Lt0pRtU05R7y
D5Kd3Pq8d/xvaTj+DZdZ9QbYJwQDwxZFVP7ahoALRD5WlemwR3AtfBkBeJBJNWyi
pHDRNIvBPVqgg1dkDe+dh4VXYLvykCMWwTECAwEAAaMgMB4wDAYDVR0TAQH/BAIw
ADAOBgNVHQ8BAf8EBAMCB4AwDQYJKoZIhvcNAQELBQADgYEARz6dJCBYG2gtyrAd
zkV2Dp7SZVd+p3rcLtnLGpX+bwa9RIUf4m7FXg/1Ez0abKrCdNpin/lJoPCNSMqA
Qy43Ed1aDhlE0eevG/CUCqQMHl+vwjGpviTKd4gUyJ7pcXB+wU0C9cx34OGWASvn
koN1/Wf+bRU2kcal/jq0/xzWlxU=
-----END CERTIFICATE-----
