Certificate:
    Data:
        Version: 3 (0x2)
        Serial Number: 20 (0x14)
    Signature Algorithm: sha256WithRSAEncryption
        Issuer: C=US, ST=California, L=Santa Clara, O=pkg5, CN=ch1_ta3/emailAddress=ch1_ta3
        Validity
            Not Before: Jan  1 01:01:01 2035 GMT
            Not After : Jan  2 01:01:01 2035 GMT
        Subject: C=US, ST=California, L=Santa Clara, O=pkg5, CN=cs4_ch1_ta3/emailAddress=cs4_ch1_ta3
        Subject Public Key Info:
            Public Key Algorithm: rsaEncryption
                Public-Key: (1024 bit)
                Modulus:
                    00:cc:94:64:7d:91:8c:70:0b:28:8e:0f:62:45:7c:
                    a7:c6:98:a0:4a:d8:7b:22:c3:d3:ce:e4:ab:57:2c:
                    e0:9e:e2:46:22:49:0f:9d:dc:fe:bc:0c:a7:f5:13:
                    94:23:94:17:37:22:db:7b:84:49:97:16:57:50:e2:
                    e2:67:02:b4:e3:c3:d5:17:42:2f:3f:28:25:c8:fb:
                    cd:03:23:de:0c:32:75:1a:a5:0d:c7:e8:65:09:f2:
                    20:ef:69:10:ad:89:16:7a:7d:f4:97:55:72:07:a5:
                    f6:9b:4d:17:f5:df:fc:f7:54:85:c8:f3:92:a1:c8:
                    66:69:6b:19:3a:17:e3:6c:69
                Exponent: 65537 (0x10001)
        X509v3 extensions:
            X509v3 Basic Constraints: critical
                CA:FALSE
            X509v3 Key Usage: critical
                Digital Signature
    Signature Algorithm: sha256WithRSAEncryption
         5a:0c:51:93:09:fe:16:b8:fa:5c:82:b5:06:43:98:c9:e3:c9:
         05:0c:76:5b:61:47:ca:e8:d1:a2:f9:f2:d6:d5:c2:a7:05:5e:
         31:35:3e:b1:6b:21:4c:30:f9:eb:de:b7:2c:a8:74:48:65:bc:
         c7:6c:61:40:e1:d2:c3:01:ac:46:8c:ce:bc:d2:57:db:d4:cc:
         2c:57:d0:6d:37:32:b3:ce:96:fb:f3:0c:e6:48:fa:e6:03:d8:
         bc:fb:5f:8b:8c:4a:71:c6:ab:bd:06:58:42:47:d0:a0:13:0f:
         b4:d9:fc:2f:cb:96:61:88:f9:ae:51:a1:b4:2d:38:ce:5d:ae:
         46:33:3a:f3:b1:e8:7a:a1:9d:cd:7b:7c:55:a8:8a:7e:14:0b:
         e7:cc:2a:a4:a5:84:e7:55:53:60:0b:62:a8:96:df:4f:35:c6:
         c8:23:4b:f9:aa:01:3a:55:e3:c6:58:25:98:59:2a:59:f3:9a:
         1a:74:24:98:63:59:3e:ea:7a:98:5a:00:ca:c2:a0:f6:7e:4a:
         bb:11:48:6d:90:b3:05:ea:e8:61:00:35:01:d3:04:eb:25:19:
         e2:f6:17:37:25:0a:fd:53:ef:49:6d:c4:ef:79:08:4e:29:aa:
         f7:f7:d8:f7:f6:d3:65:c2:dc:e0:7d:5f:40:7c:8c:0f:f0:b6:
         73:aa:fe:3e
-----BEGIN CERTIFICATE-----
MIIDATCCAemgAwIBAgIBFDANBgkqhkiG9w0BAQsFADBxMQswCQYDVQQGEwJVUzET
MBEGA1UECAwKQ2FsaWZvcm5pYTEUMBIGA1UEBwwLU2FudGEgQ2xhcmExDTALBgNV
BAoMBHBrZzUxEDAOBgNVBAMMB2NoMV90YTMxFjAUBgkqhkiG9w0BCQEWB2NoMV90
YTMwHhcNMzUwMTAxMDEwMTAxWhcNMzUwMTAyMDEwMTAxWjB5MQswCQYDVQQGEwJV
UzETMBEGA1UECAwKQ2FsaWZvcm5pYTEUMBIGA1UEBwwLU2FudGEgQ2xhcmExDTAL
BgNVBAoMBHBrZzUxFDASBgNVBAMMC2NzNF9jaDFfdGEzMRowGAYJKoZIhvcNAQkB
FgtjczRfY2gxX3RhMzCBnzANBgkqhkiG9w0BAQEFAAOBjQAwgYkCgYEAzJRkfZGM
cAsojg9iRXynxpigSth7IsPTzuSrVyzgnuJGIkkPndz+vAyn9ROUI5QXNyLbe4RJ
lxZXUOLiZwK048PVF0IvPyglyPvNAyPeDDJ1GqUNx+hlCfIg72kQrYkWen30l1Vy
B6X2m00X9d/891SFyPOSochmaWsZOhfjbGkCAwEAAaMgMB4wDAYDVR0TAQH/BAIw
ADAOBgNVHQ8BAf8EBAMCB4AwDQYJKoZIhvcNAQELBQADggEBAFoMUZMJ/ha4+lyC
tQZDmMnjyQUMdlthR8ro0aL58tbVwqcFXjE1PrFrIUww+evetyyodEhlvMdsYUDh
0sMBrEaMzrzSV9vUzCxX0G03MrPOlvvzDOZI+uYD2Lz7X4uMSnHGq70GWEJH0KAT
D7TZ/C/LlmGI+a5RobQtOM5drkYzOvOx6Hqhnc17fFWoin4UC+fMKqSlhOdVU2AL
YqiW3081xsgjS/mqATpV48ZYJZhZKlnzmhp0JJhjWT7qephaAMrCoPZ+SrsRSG2Q
swXq6GEANQHTBOslGeL2FzclCv1T70ltxO95CE4pqvf32Pf202XC3OB9X0B8jA/w
tnOq/j4=
-----END CERTIFICATE-----
