Certificate:
    Data:
        Version: 3 (0x2)
        Serial Number: 20 (0x14)
    Signature Algorithm: sha256WithRSAEncryption
        Issuer: C=US, ST=California, L=Santa Clara, O=pkg5, CN=ch1_ta3/emailAddress=ch1_ta3
        Validity
            Not Before: Jan  1 01:01:01 2035 GMT
            Not After : Jan  2 01:01:01 2035 GMT
        Subject: C=US, ST=California, L=Santa Clara, O=pkg5, CN=cs4_ch1_ta3/emailAddress=cs4_ch1_ta3
        Subject Public Key Info:
            Public Key Algorithm: rsaEncryption
                Public-Key: (1024 bit)
                Modulus:
                    00:ac:50:04:9b:fd:b0:3b:1d:69:b1:29:87:bf:61:
                    bc:74:c0:93:f8:d7:23:ac:ca:e2:70:b6:d5:9d:12:
                    3e:d6:2c:5f:34:9c:2d:21:05:d4:2a:15:5d:74:a0:
                    46:31:e7:ff:bd:09:ce:63:a0:47:3e:be:b5:f9:dd:
                    04:43:b2:d1:c8:31:f7:22:36:ea:15:d7:5d:9e:69:
                    b1:b4:3d:e4:ae:3a:b4:54:a0:33:88:bb:2c:74:d5:
                    5e:f0:5d:3a:da:29:74:5b:91:e6:43:77:82:4e:f4:
                    ec:80:c6:50:fe:3b:7a:67:8d:30:50:0f:1e:78:1f:
                    6f:54:ee:2f:b3:57:d1:d7:59
                Exponent: 65537 (0x10001)
        X509v3 extensions:
            X509v3 Basic Constraints: critical
                CA:FALSE
            X509v3 Key Usage: critical
                Digital Signature
    Signature Algorithm: sha256WithRSAEncryption
         2d:80:90:cb:25:f7:98:68:77:87:3c:7b:ef:19:36:39:e1:79:
         55:79:46:95:f5:52:0b:9a:83:75:53:45:32:c1:f5:c7:c1:77:
         56:b8:41:6a:3d:95:fe:b4:70:94:84:d4:03:9e:a9:26:dd:cb:
         54:3d:13:c6:af:27:bc:82:5f:98:bd:0c:b7:33:27:54:e7:f7:
         99:4e:24:44:8e:a4:91:30:74:96:bd:05:2b:e7:3d:1e:ab:d4:
         63:de:b6:72:c8:c9:68:67:d5:a8:2d:33:81:a0:bb:3c:bb:f6:
         a8:b8:5b:b3:ce:45:13:e2:ca:cb:d2:6f:d1:fe:c7:89:5e:27:
         50:b0:6b:b2:49:6c:6f:3d:cf:3f:e1:b0:6a:6f:f6:ba:26:76:
         b3:01:58:67:81:a0:27:1e:04:54:64:fc:11:4f:e8:43:4d:2d:
         19:d2:11:24:6b:11:b3:80:21:d2:62:38:ec:8f:73:d9:9c:ad:
         2e:e7:eb:cc:57:1b:df:d0:8c:15:38:96:b3:64:3e:23:7b:85:
         99:f1:4d:1f:cd:31:b9:88:c2:54:98:ce:60:a8:bf:f3:ad:7c:
         70:90:37:99:d6:d2:91:bd:36:be:f2:04:9e:d0:d7:4c:9a:07:
         a0:4e:c1:2e:d3:d5:6e:36:55:1a:ae:90:3b:a3:ec:c5:8a:97:
         87:69:88:be
-----BEGIN CERTIFICATE-----
MIIDATCCAemgAwIBAgIBFDANBgkqhkiG9w0BAQsFADBxMQswCQYDVQQGEwJVUzET
MBEGA1UECAwKQ2FsaWZvcm5pYTEUMBIGA1UEBwwLU2FudGEgQ2xhcmExDTALBgNV
BAoMBHBrZzUxEDAOBgNVBAMMB2NoMV90YTMxFjAUBgkqhkiG9w0BCQEWB2NoMV90
YTMwHhcNMzUwMTAxMDEwMTAxWhcNMzUwMTAyMDEwMTAxWjB5MQswCQYDVQQGEwJV
UzETMBEGA1UECAwKQ2FsaWZvcm5pYTEUMBIGA1UEBwwLU2FudGEgQ2xhcmExDTAL
BgNVBAoMBHBrZzUxFDASBgNVBAMMC2NzNF9jaDFfdGEzMRowGAYJKoZIhvcNAQkB
FgtjczRfY2gxX3RhMzCBnzANBgkqhkiG9w0BAQEFAAOBjQAwgYkCgYEArFAEm/2w
Ox1psSmHv2G8dMCT+NcjrMricLbVnRI+1ixfNJwtIQXUKhVddKBGMef/vQnOY6BH
Pr61+d0EQ7LRyDH3IjbqFdddnmmxtD3krjq0VKAziLssdNVe8F062il0W5HmQ3eC
TvTsgMZQ/jt6Z40wUA8eeB9vVO4vs1fR11kCAwEAAaMgMB4wDAYDVR0TAQH/BAIw
ADAOBgNVHQ8BAf8EBAMCB4AwDQYJKoZIhvcNAQELBQADggEBAC2AkMsl95hod4c8
e+8ZNjnheVV5RpX1Uguag3VTRTLB9cfBd1a4QWo9lf60cJSE1AOeqSbdy1Q9E8av
J7yCX5i9DLczJ1Tn95lOJESOpJEwdJa9BSvnPR6r1GPetnLIyWhn1agtM4Gguzy7
9qi4W7PORRPiysvSb9H+x4leJ1Cwa7JJbG89zz/hsGpv9romdrMBWGeBoCceBFRk
/BFP6ENNLRnSESRrEbOAIdJiOOyPc9mcrS7n68xXG9/QjBU4lrNkPiN7hZnxTR/N
MbmIwlSYzmCov/OtfHCQN5nW0pG9Nr7yBJ7Q10yaB6BOwS7T1W42VRqukDuj7MWK
l4dpiL4=
-----END CERTIFICATE-----
