Certificate:
    Data:
        Version: 3 (0x2)
        Serial Number: 20 (0x14)
        Signature Algorithm: sha256WithRSAEncryption
        Issuer: C=US, ST=California, L=Santa Clara, O=pkg5, CN=ch1_ta3/emailAddress=ch1_ta3
        Validity
            Not Before: Jan  1 01:01:01 2035 GMT
            Not After : Jan  2 01:01:01 2035 GMT
        Subject: C=US, ST=California, L=Santa Clara, O=pkg5, CN=cs4_ch1_ta3/emailAddress=cs4_ch1_ta3
        Subject Public Key Info:
            Public Key Algorithm: rsaEncryption
                Public-Key: (2048 bit)
                Modulus:
                    00:b4:28:33:00:ca:f5:c6:d7:ad:98:53:cf:a8:cf:
                    3b:2c:66:11:52:65:d9:f9:75:88:08:94:8a:54:77:
                    90:1a:83:b3:7c:13:de:2c:ad:46:0e:6f:5f:11:4d:
                    4e:d3:1a:f8:be:26:35:84:09:9b:9b:6f:71:7d:8c:
                    cf:2c:75:75:a2:8c:a8:0e:9d:b2:52:af:ee:6d:ce:
                    13:09:0b:76:c8:83:e6:62:ef:65:86:d9:e7:73:22:
                    d5:b4:b3:28:b5:12:87:41:5f:53:25:13:73:0d:32:
                    62:d5:e9:b7:13:0d:69:49:d8:67:1b:17:4e:ce:93:
                    10:0c:29:75:f4:a9:ba:ea:ed:74:99:c4:74:68:32:
                    01:5b:75:3c:dc:12:39:d1:19:31:f4:b5:79:a4:1a:
                    74:38:dc:c3:db:ea:31:af:84:76:86:94:e8:d1:1f:
                    cf:af:70:f0:63:85:1a:3c:55:a1:fc:1a:73:b4:90:
                    af:02:b5:d2:52:fe:02:78:cd:89:fa:b1:88:34:04:
                    df:ec:11:da:97:ec:ad:31:f0:c1:9f:10:98:5f:e1:
                    99:df:9d:b4:14:9e:17:1a:b5:74:52:26:c7:e0:63:
                    ef:75:a9:ae:c3:2d:78:cb:3e:c0:57:7d:8f:b5:64:
                    85:60:4e:2d:c0:1f:16:80:8b:8f:20:96:0f:b2:a0:
                    8c:0b
                Exponent: 65537 (0x10001)
        X509v3 extensions:
            X509v3 Basic Constraints: critical
                CA:FALSE
            X509v3 Key Usage: critical
                Digital Signature
            X509v3 Subject Key Identifier: 
                AD:43:65:40:44:88:3C:95:7B:EB:67:BD:3C:D5:9F:1A:8A:0A:BB:13
            X509v3 Authority Key Identifier: 
                69:A7:F1:E4:B7:F3:AC:28:7C:E9:9A:78:E3:CC:EF:00:89:C5:A4:C5
    Signature Algorithm: sha256WithRSAEncryption
    Signature Value:
        a4:d8:d4:0e:13:ea:10:e8:95:9c:10:33:32:5d:df:1b:6b:56:
        40:a7:c6:50:47:50:86:da:be:1f:d2:6a:80:22:1a:34:45:4d:
        a4:71:bc:a8:55:2c:2f:56:cc:22:4d:a7:71:e1:38:f1:11:c0:
        ad:d8:d7:da:fb:c2:d4:35:4d:c1:98:4f:11:61:0f:2d:41:27:
        7c:1f:41:95:a1:50:3e:ae:33:42:c0:24:05:5f:4f:9f:89:a0:
        d5:57:11:35:7b:94:c9:89:4c:ab:03:48:95:76:ab:ad:a8:76:
        22:cd:e0:6b:f5:32:d0:08:8c:58:fb:ed:f7:27:19:00:f3:b8:
        86:74:48:b1:96:07:29:a9:4d:3a:1a:39:84:b8:ae:7e:54:c4:
        17:9d:fb:88:c2:91:5b:da:3d:97:0a:da:52:ab:90:f6:b4:45:
        60:de:a8:b1:4f:58:19:49:f1:b4:65:8d:f9:5b:91:09:26:c0:
        72:c0:c9:80:46:ee:89:ed:ab:53:c1:ea:38:9b:e6:0f:b1:a8:
        45:b9:d9:ee:09:e6:bc:f7:1d:a1:1b:ff:cd:9d:01:4f:c1:fd:
        6e:b6:69:85:7d:55:62:97:4e:74:48:54:02:74:07:82:8b:40:
        c4:d8:05:b8:91:c5:02:e5:c4:1c:d8:5e:d7:bd:ff:8d:6e:d9:
        c0:95:a5:21
-----BEGIN CERTIFICATE-----
MIIDxTCCAq2gAwIBAgIBFDANBgkqhkiG9w0BAQsFADBxMQswCQYDVQQGEwJVUzET
MBEGA1UECAwKQ2FsaWZvcm5pYTEUMBIGA1UEBwwLU2FudGEgQ2xhcmExDTALBgNV
BAoMBHBrZzUxEDAOBgNVBAMMB2NoMV90YTMxFjAUBgkqhkiG9w0BCQEWB2NoMV90
YTMwHhcNMzUwMTAxMDEwMTAxWhcNMzUwMTAyMDEwMTAxWjB5MQswCQYDVQQGEwJV
UzETMBEGA1UECAwKQ2FsaWZvcm5pYTEUMBIGA1UEBwwLU2FudGEgQ2xhcmExDTAL
BgNVBAoMBHBrZzUxFDASBgNVBAMMC2NzNF9jaDFfdGEzMRowGAYJKoZIhvcNAQkB
FgtjczRfY2gxX3RhMzCCASIwDQYJKoZIhvcNAQEBBQADggEPADCCAQoCggEBALQo
MwDK9cbXrZhTz6jPOyxmEVJl2fl1iAiUilR3kBqDs3wT3iytRg5vXxFNTtMa+L4m
NYQJm5tvcX2Mzyx1daKMqA6dslKv7m3OEwkLdsiD5mLvZYbZ53Mi1bSzKLUSh0Ff
UyUTcw0yYtXptxMNaUnYZxsXTs6TEAwpdfSpuurtdJnEdGgyAVt1PNwSOdEZMfS1
eaQadDjcw9vqMa+EdoaU6NEfz69w8GOFGjxVofwac7SQrwK10lL+AnjNifqxiDQE
3+wR2pfsrTHwwZ8QmF/hmd+dtBSeFxq1dFImx+Bj73WprsMteMs+wFd9j7VkhWBO
LcAfFoCLjyCWD7KgjAsCAwEAAaNgMF4wDAYDVR0TAQH/BAIwADAOBgNVHQ8BAf8E
BAMCB4AwHQYDVR0OBBYEFK1DZUBEiDyVe+tnvTzVnxqKCrsTMB8GA1UdIwQYMBaA
FGmn8eS386wofOmaeOPM7wCJxaTFMA0GCSqGSIb3DQEBCwUAA4IBAQCk2NQOE+oQ
6JWcEDMyXd8ba1ZAp8ZQR1CG2r4f0mqAIho0RU2kcbyoVSwvVswiTadx4TjxEcCt
2Nfa+8LUNU3BmE8RYQ8tQSd8H0GVoVA+rjNCwCQFX0+fiaDVVxE1e5TJiUyrA0iV
dqutqHYizeBr9TLQCIxY++33JxkA87iGdEixlgcpqU06GjmEuK5+VMQXnfuIwpFb
2j2XCtpSq5D2tEVg3qixT1gZSfG0ZY35W5EJJsBywMmARu6J7atTweo4m+YPsahF
udnuCea89x2hG//NnQFPwf1utmmFfVVil050SFQCdAeCi0DE2AW4kcUC5cQc2F7X
vf+NbtnAlaUh
-----END CERTIFICATE-----
