Certificate:
    Data:
        Version: 3 (0x2)
        Serial Number: 20 (0x14)
        Signature Algorithm: sha256WithRSAEncryption
        Issuer: C=US, ST=California, L=Santa Clara, O=pkg5, CN=ch1_ta3/emailAddress=ch1_ta3
        Validity
            Not Before: Jan  1 01:01:01 2035 GMT
            Not After : Jan  2 01:01:01 2035 GMT
        Subject: C=US, ST=California, L=Santa Clara, O=pkg5, CN=cs4_ch1_ta3/emailAddress=cs4_ch1_ta3
        Subject Public Key Info:
            Public Key Algorithm: rsaEncryption
                Public-Key: (2048 bit)
                Modulus:
                    00:b0:e5:93:b1:0a:85:5f:5d:bb:4a:d5:f7:49:48:
                    29:66:60:fa:d0:e2:a6:ae:0e:93:28:44:3a:aa:57:
                    56:70:ee:36:6c:80:b0:02:8f:75:5d:63:2e:97:32:
                    41:c7:db:a8:c0:3b:b5:8d:c8:53:44:24:bd:05:76:
                    f3:0e:24:1a:9e:45:87:e2:3b:52:05:11:58:f4:74:
                    60:66:11:a7:0f:90:15:13:50:82:16:41:a2:79:14:
                    4e:d2:8a:fb:0d:a3:a9:38:f6:16:f4:c7:4f:04:d1:
                    08:cb:8a:1d:64:9f:d9:ce:50:a4:2b:f8:b0:cc:75:
                    b6:fd:33:e9:5c:f0:47:c9:60:ea:3d:85:03:43:66:
                    f6:36:d8:76:39:ae:e5:b8:35:9e:b6:39:2e:b7:53:
                    a9:70:47:80:13:94:ff:cc:c3:c3:0d:c6:71:82:6b:
                    fa:f9:d4:ee:24:f2:ec:e1:bf:91:ba:fc:5a:78:1d:
                    35:d9:d8:94:f7:36:d0:78:8c:b4:ec:a3:93:a7:52:
                    81:05:f8:c5:e0:40:c2:ec:10:cc:0b:df:25:13:cc:
                    3d:38:5f:b7:f5:4b:6d:f6:2a:f9:7a:cf:c8:02:0e:
                    0d:0a:cc:db:4c:bc:2e:ad:69:85:c6:1f:7a:4c:50:
                    59:16:5f:54:14:a5:c0:60:5f:82:89:a5:36:85:fa:
                    38:07
                Exponent: 65537 (0x10001)
        X509v3 extensions:
            X509v3 Basic Constraints: critical
                CA:FALSE
            X509v3 Key Usage: critical
                Digital Signature
            X509v3 Subject Key Identifier: 
                28:D4:9B:0F:0C:FA:85:39:7F:4F:0A:05:BC:3D:7F:22:38:0A:BA:EF
            X509v3 Authority Key Identifier: 
                D5:A6:1E:11:8A:90:CB:66:0F:10:66:77:01:DD:3A:8F:14:F0:85:C0
    Signature Algorithm: sha256WithRSAEncryption
    Signature Value:
        84:54:eb:4a:34:ba:31:ce:68:a3:c4:2e:a5:1c:01:03:26:25:
        c2:02:60:c1:28:cd:d1:41:ef:f3:d9:fd:3c:d1:e6:19:f8:8d:
        f0:1a:ba:3c:11:e2:07:24:65:b9:12:f3:60:5d:84:15:b4:59:
        ba:3c:50:ef:8c:4a:84:c7:4b:11:3d:43:56:cb:e6:dd:ea:c2:
        ff:f1:66:4a:6c:ab:3c:09:ee:87:b2:ae:9c:af:7a:43:56:cd:
        50:48:86:ee:53:c4:b7:46:cb:bf:b2:19:5d:e2:10:c9:a0:21:
        03:cd:09:0b:fd:d8:79:ae:93:34:8a:c3:dc:0e:56:46:ee:7e:
        6e:7a:51:c7:3b:7c:75:0e:78:77:20:64:e6:b5:ab:30:a2:59:
        ec:12:d7:12:92:6c:7d:bf:c4:d2:d2:19:9d:05:be:bb:13:c8:
        8b:aa:62:6f:98:bc:e6:62:84:39:f7:7f:21:b7:ed:cd:29:c4:
        c7:23:f9:42:fb:a3:0d:7c:94:e0:2d:33:53:10:8e:76:f5:6a:
        06:f5:33:bc:da:ee:53:bb:3b:93:e2:0b:1f:de:53:6e:59:9c:
        c0:3c:1b:b6:97:20:2b:5b:ce:45:14:28:ed:61:05:ff:06:9b:
        a9:c4:3a:a5:08:9e:5f:8d:5f:06:e1:2e:f5:6e:9c:42:a9:6c:
        80:36:9f:8d
-----BEGIN CERTIFICATE-----
MIIDxTCCAq2gAwIBAgIBFDANBgkqhkiG9w0BAQsFADBxMQswCQYDVQQGEwJVUzET
MBEGA1UECAwKQ2FsaWZvcm5pYTEUMBIGA1UEBwwLU2FudGEgQ2xhcmExDTALBgNV
BAoMBHBrZzUxEDAOBgNVBAMMB2NoMV90YTMxFjAUBgkqhkiG9w0BCQEWB2NoMV90
YTMwHhcNMzUwMTAxMDEwMTAxWhcNMzUwMTAyMDEwMTAxWjB5MQswCQYDVQQGEwJV
UzETMBEGA1UECAwKQ2FsaWZvcm5pYTEUMBIGA1UEBwwLU2FudGEgQ2xhcmExDTAL
BgNVBAoMBHBrZzUxFDASBgNVBAMMC2NzNF9jaDFfdGEzMRowGAYJKoZIhvcNAQkB
FgtjczRfY2gxX3RhMzCCASIwDQYJKoZIhvcNAQEBBQADggEPADCCAQoCggEBALDl
k7EKhV9du0rV90lIKWZg+tDipq4OkyhEOqpXVnDuNmyAsAKPdV1jLpcyQcfbqMA7
tY3IU0QkvQV28w4kGp5Fh+I7UgURWPR0YGYRpw+QFRNQghZBonkUTtKK+w2jqTj2
FvTHTwTRCMuKHWSf2c5QpCv4sMx1tv0z6VzwR8lg6j2FA0Nm9jbYdjmu5bg1nrY5
LrdTqXBHgBOU/8zDww3GcYJr+vnU7iTy7OG/kbr8WngdNdnYlPc20HiMtOyjk6dS
gQX4xeBAwuwQzAvfJRPMPThft/VLbfYq+XrPyAIODQrM20y8Lq1phcYfekxQWRZf
VBSlwGBfgomlNoX6OAcCAwEAAaNgMF4wDAYDVR0TAQH/BAIwADAOBgNVHQ8BAf8E
BAMCB4AwHQYDVR0OBBYEFCjUmw8M+oU5f08KBbw9fyI4CrrvMB8GA1UdIwQYMBaA
FNWmHhGKkMtmDxBmdwHdOo8U8IXAMA0GCSqGSIb3DQEBCwUAA4IBAQCEVOtKNLox
zmijxC6lHAEDJiXCAmDBKM3RQe/z2f080eYZ+I3wGro8EeIHJGW5EvNgXYQVtFm6
PFDvjEqEx0sRPUNWy+bd6sL/8WZKbKs8Ce6Hsq6cr3pDVs1QSIbuU8S3Rsu/shld
4hDJoCEDzQkL/dh5rpM0isPcDlZG7n5uelHHO3x1Dnh3IGTmtaswolnsEtcSkmx9
v8TS0hmdBb67E8iLqmJvmLzmYoQ5938ht+3NKcTHI/lC+6MNfJTgLTNTEI529WoG
9TO82u5TuzuT4gsf3lNuWZzAPBu2lyArW85FFCjtYQX/BpupxDqlCJ5fjV8G4S71
bpxCqWyANp+N
-----END CERTIFICATE-----
