Certificate:
    Data:
        Version: 3 (0x2)
        Serial Number: 21 (0x15)
        Signature Algorithm: sha256WithRSAEncryption
        Issuer: C=US, ST=California, L=Santa Clara, O=pkg5, CN=ch1_ta3/emailAddress=ch1_ta3
        Validity
            Not Before: Oct 22 10:15:13 2021 GMT
            Not After : Jul 18 10:15:13 2024 GMT
        Subject: C=US, ST=California, L=Santa Clara, O=pkg5, CN=cs5_ch1_ta3/emailAddress=cs5_ch1_ta3
        Subject Public Key Info:
            Public Key Algorithm: rsaEncryption
                Public-Key: (2048 bit)
                Modulus:
                    00:f3:7b:c8:46:4d:29:64:00:7c:08:1d:5b:66:c3:
                    ef:48:91:30:a2:a2:57:5d:05:41:1d:6f:ba:9a:b8:
                    54:c6:15:c9:1a:e3:0f:53:82:e3:45:13:4f:10:92:
                    c2:ab:6c:d0:cb:ed:34:da:80:57:5e:e3:6e:91:6b:
                    2b:48:3e:ca:6d:0e:e9:d4:d1:ce:fb:09:a7:fa:94:
                    38:72:f9:a8:90:82:dc:de:fb:33:b7:50:03:cc:b1:
                    31:f3:6a:22:7d:ef:2b:b7:41:3a:52:59:17:e7:ce:
                    8f:f1:e3:17:e8:46:5b:fa:10:1d:dc:9d:1e:29:91:
                    d5:bd:b0:77:53:8c:62:87:a6:69:6d:c9:76:5e:31:
                    57:03:fd:c2:82:ee:3a:f7:e8:fa:d5:3c:e8:ad:aa:
                    07:ac:5a:d7:27:96:af:25:cd:23:56:47:3b:36:bd:
                    3c:1c:26:59:78:f8:91:2c:ce:5f:21:cb:ee:ff:34:
                    19:3b:66:69:40:79:90:a8:1b:a5:77:68:1e:c3:35:
                    d1:56:c2:f1:9f:da:bb:a2:84:1d:5e:d6:cd:39:fb:
                    9a:01:78:bd:70:3c:15:1d:13:ff:45:6a:42:36:05:
                    5c:38:79:8f:e4:5c:af:56:3b:36:c0:c8:f7:70:ad:
                    c2:09:2e:cf:0a:29:d2:2a:23:d7:4d:82:d6:0a:4d:
                    52:4d
                Exponent: 65537 (0x10001)
        X509v3 extensions:
            X509v3 Basic Constraints: critical
                CA:FALSE
            X509v3 Key Usage: 
                Key Agreement
            X509v3 Subject Key Identifier: 
                AE:CE:32:36:6E:27:0F:38:E5:0E:05:62:C7:DB:07:1F:BA:8F:CB:0D
            X509v3 Authority Key Identifier: 
                D5:A6:1E:11:8A:90:CB:66:0F:10:66:77:01:DD:3A:8F:14:F0:85:C0
    Signature Algorithm: sha256WithRSAEncryption
    Signature Value:
        46:ee:97:13:cc:c7:92:4b:0a:1e:b3:86:00:14:5b:b7:be:0b:
        2f:d5:54:f9:33:d9:fa:7e:1b:fe:bd:24:81:86:fb:a2:f2:a4:
        bf:1e:17:be:fe:6a:4b:08:0b:93:b6:11:aa:2f:f1:ad:10:95:
        cc:dc:5e:2a:3d:b0:09:e8:06:38:87:6a:35:09:08:14:51:9d:
        04:46:29:22:18:65:89:f5:73:52:4d:b9:bd:30:37:53:23:50:
        a3:2b:23:1f:df:bc:4f:bb:4f:d8:87:81:f4:ec:09:60:a4:05:
        86:65:1f:bc:d8:c9:3f:fd:43:c6:b5:ff:7b:c3:70:47:8e:b4:
        b6:53:cb:da:1f:a9:42:d8:67:72:39:b4:07:ab:ff:5c:f7:b1:
        de:64:9e:92:50:27:3f:21:d1:a3:50:06:1e:f1:15:df:32:06:
        ca:19:b8:12:bc:d1:07:e3:a5:e1:19:4a:54:e2:3e:41:e4:f8:
        e3:62:08:04:53:77:0d:9e:b8:aa:03:68:93:4d:0f:21:5f:15:
        60:a2:84:7c:97:cd:80:1f:46:2b:45:36:95:c1:e9:b9:05:19:
        ec:13:7a:80:02:9b:14:1f:94:ba:fc:3d:0b:89:04:88:5a:57:
        c4:2d:63:98:59:a0:ff:28:a9:21:c2:0d:bf:d9:d5:9d:6d:d2:
        87:0f:f4:2d
-----BEGIN CERTIFICATE-----
MIIDwjCCAqqgAwIBAgIBFTANBgkqhkiG9w0BAQsFADBxMQswCQYDVQQGEwJVUzET
MBEGA1UECAwKQ2FsaWZvcm5pYTEUMBIGA1UEBwwLU2FudGEgQ2xhcmExDTALBgNV
BAoMBHBrZzUxEDAOBgNVBAMMB2NoMV90YTMxFjAUBgkqhkiG9w0BCQEWB2NoMV90
YTMwHhcNMjExMDIyMTAxNTEzWhcNMjQwNzE4MTAxNTEzWjB5MQswCQYDVQQGEwJV
UzETMBEGA1UECAwKQ2FsaWZvcm5pYTEUMBIGA1UEBwwLU2FudGEgQ2xhcmExDTAL
BgNVBAoMBHBrZzUxFDASBgNVBAMMC2NzNV9jaDFfdGEzMRowGAYJKoZIhvcNAQkB
FgtjczVfY2gxX3RhMzCCASIwDQYJKoZIhvcNAQEBBQADggEPADCCAQoCggEBAPN7
yEZNKWQAfAgdW2bD70iRMKKiV10FQR1vupq4VMYVyRrjD1OC40UTTxCSwqts0Mvt
NNqAV17jbpFrK0g+ym0O6dTRzvsJp/qUOHL5qJCC3N77M7dQA8yxMfNqIn3vK7dB
OlJZF+fOj/HjF+hGW/oQHdydHimR1b2wd1OMYoemaW3Jdl4xVwP9woLuOvfo+tU8
6K2qB6xa1yeWryXNI1ZHOza9PBwmWXj4kSzOXyHL7v80GTtmaUB5kKgbpXdoHsM1
0VbC8Z/au6KEHV7WzTn7mgF4vXA8FR0T/0VqQjYFXDh5j+Rcr1Y7NsDI93Ctwgku
zwop0ioj102C1gpNUk0CAwEAAaNdMFswDAYDVR0TAQH/BAIwADALBgNVHQ8EBAMC
AwgwHQYDVR0OBBYEFK7OMjZuJw845Q4FYsfbBx+6j8sNMB8GA1UdIwQYMBaAFNWm
HhGKkMtmDxBmdwHdOo8U8IXAMA0GCSqGSIb3DQEBCwUAA4IBAQBG7pcTzMeSSwoe
s4YAFFu3vgsv1VT5M9n6fhv+vSSBhvui8qS/Hhe+/mpLCAuTthGqL/GtEJXM3F4q
PbAJ6AY4h2o1CQgUUZ0ERikiGGWJ9XNSTbm9MDdTI1CjKyMf37xPu0/Yh4H07Alg
pAWGZR+82Mk//UPGtf97w3BHjrS2U8vaH6lC2GdyObQHq/9c97HeZJ6SUCc/IdGj
UAYe8RXfMgbKGbgSvNEH46XhGUpU4j5B5PjjYggEU3cNnriqA2iTTQ8hXxVgooR8
l82AH0YrRTaVwem5BRnsE3qAApsUH5S6/D0LiQSIWlfELWOYWaD/KKkhwg2/2dWd
bdKHD/Qt
-----END CERTIFICATE-----
