Certificate:
    Data:
        Version: 3 (0x2)
        Serial Number: 21 (0x15)
        Signature Algorithm: sha256WithRSAEncryption
        Issuer: C=US, ST=California, L=Santa Clara, O=pkg5, CN=ch1_ta3/emailAddress=ch1_ta3
        Validity
            Not Before: May 23 15:47:18 2024 GMT
            Not After : Feb 17 15:47:18 2027 GMT
        Subject: C=US, ST=California, L=Santa Clara, O=pkg5, CN=cs5_ch1_ta3/emailAddress=cs5_ch1_ta3
        Subject Public Key Info:
            Public Key Algorithm: rsaEncryption
                Public-Key: (2048 bit)
                Modulus:
                    00:e7:63:db:f9:89:0b:46:28:ca:66:34:7c:8d:14:
                    38:79:0e:d0:1d:7a:8a:b9:66:bf:da:36:e0:5e:9a:
                    a4:0c:2d:af:63:49:48:fb:38:85:d3:b3:c9:25:6a:
                    9d:3e:a8:b1:c5:14:4f:57:6d:c3:b5:e1:4e:2b:b8:
                    61:72:a1:3a:76:d5:3d:a0:f7:33:51:95:51:68:37:
                    c7:9b:ae:d0:c2:58:68:c5:18:9c:92:0e:8e:7a:52:
                    99:cd:e9:30:e9:38:b1:8f:52:74:a3:47:e3:3e:54:
                    33:15:91:31:11:67:79:ff:a0:bc:27:09:7c:8b:82:
                    4e:a3:ca:e1:cd:c9:4d:55:78:1c:c3:69:56:61:ce:
                    05:ce:dd:c8:8a:ba:9e:70:3b:1e:93:1e:1b:90:f1:
                    61:59:d5:2e:5c:4b:9c:22:eb:0e:de:f6:9a:cb:cb:
                    55:a3:b9:a4:d3:36:df:55:8c:7f:47:05:9d:63:78:
                    2c:53:6c:b2:02:b9:be:0f:ff:f3:73:67:9b:f8:94:
                    b1:72:a7:ef:04:85:8c:cb:72:a8:2c:22:79:13:63:
                    d5:12:16:09:ee:16:72:7f:d3:8b:aa:91:6f:4d:33:
                    3a:b5:30:10:e7:85:0c:ce:b4:bc:59:c4:15:35:30:
                    64:5e:c1:a7:00:e9:f6:23:62:a1:b2:4c:60:0d:e2:
                    5c:e5
                Exponent: 65537 (0x10001)
        X509v3 extensions:
            X509v3 Basic Constraints: critical
                CA:FALSE
            X509v3 Key Usage: 
                Key Agreement
            X509v3 Subject Key Identifier: 
                17:92:F5:EA:67:4D:7E:2B:E3:13:4D:31:32:7C:3A:FE:CB:1A:BB:2F
            X509v3 Authority Key Identifier: 
                69:A7:F1:E4:B7:F3:AC:28:7C:E9:9A:78:E3:CC:EF:00:89:C5:A4:C5
    Signature Algorithm: sha256WithRSAEncryption
    Signature Value:
        4b:98:3f:3f:b7:15:36:be:c6:8e:c9:4c:ff:f4:c9:b1:a1:95:
        d0:55:e3:c5:96:d3:2d:6c:14:bf:0b:38:fc:06:65:c9:e9:bf:
        38:d6:63:c1:bf:ae:1b:a1:34:61:33:9d:e1:b1:68:4f:6b:b6:
        b6:08:15:f6:77:fb:c9:5c:bc:8c:38:a4:c8:ab:50:96:a0:b9:
        6f:7a:02:c6:ed:f5:61:16:80:cc:6f:73:55:e5:23:b5:44:8f:
        48:01:42:8e:36:dd:cb:65:c7:65:c1:05:bb:59:dd:61:8d:d2:
        96:0c:49:c0:74:de:99:3c:45:f3:29:aa:ee:c6:7d:2c:4e:ee:
        2c:e6:9e:b5:d0:62:ee:00:84:82:14:8e:95:aa:a3:8f:cb:3d:
        55:45:8f:c9:63:7f:a1:0d:f2:1d:e9:49:e2:91:83:03:d7:16:
        ad:f1:97:3d:31:50:02:97:ac:13:3a:5e:98:e4:70:d4:b2:d5:
        db:f0:92:59:75:13:fe:96:75:2c:dc:2b:55:e9:bf:46:e0:2f:
        83:27:ba:02:89:5e:13:8d:1c:f2:ca:cd:da:8b:c2:bd:5d:a3:
        f1:56:38:4e:88:60:03:fb:77:ed:4b:b3:31:be:ec:ef:db:3a:
        76:14:60:b7:b2:13:26:5b:55:c0:a8:c5:d6:9d:0a:ca:4f:07:
        4b:0e:ee:9a
-----BEGIN CERTIFICATE-----
MIIDwjCCAqqgAwIBAgIBFTANBgkqhkiG9w0BAQsFADBxMQswCQYDVQQGEwJVUzET
MBEGA1UECAwKQ2FsaWZvcm5pYTEUMBIGA1UEBwwLU2FudGEgQ2xhcmExDTALBgNV
BAoMBHBrZzUxEDAOBgNVBAMMB2NoMV90YTMxFjAUBgkqhkiG9w0BCQEWB2NoMV90
YTMwHhcNMjQwNTIzMTU0NzE4WhcNMjcwMjE3MTU0NzE4WjB5MQswCQYDVQQGEwJV
UzETMBEGA1UECAwKQ2FsaWZvcm5pYTEUMBIGA1UEBwwLU2FudGEgQ2xhcmExDTAL
BgNVBAoMBHBrZzUxFDASBgNVBAMMC2NzNV9jaDFfdGEzMRowGAYJKoZIhvcNAQkB
FgtjczVfY2gxX3RhMzCCASIwDQYJKoZIhvcNAQEBBQADggEPADCCAQoCggEBAOdj
2/mJC0YoymY0fI0UOHkO0B16irlmv9o24F6apAwtr2NJSPs4hdOzySVqnT6oscUU
T1dtw7XhTiu4YXKhOnbVPaD3M1GVUWg3x5uu0MJYaMUYnJIOjnpSmc3pMOk4sY9S
dKNH4z5UMxWRMRFnef+gvCcJfIuCTqPK4c3JTVV4HMNpVmHOBc7dyIq6nnA7HpMe
G5DxYVnVLlxLnCLrDt72msvLVaO5pNM231WMf0cFnWN4LFNssgK5vg//83Nnm/iU
sXKn7wSFjMtyqCwieRNj1RIWCe4Wcn/Ti6qRb00zOrUwEOeFDM60vFnEFTUwZF7B
pwDp9iNiobJMYA3iXOUCAwEAAaNdMFswDAYDVR0TAQH/BAIwADALBgNVHQ8EBAMC
AwgwHQYDVR0OBBYEFBeS9epnTX4r4xNNMTJ8Ov7LGrsvMB8GA1UdIwQYMBaAFGmn
8eS386wofOmaeOPM7wCJxaTFMA0GCSqGSIb3DQEBCwUAA4IBAQBLmD8/txU2vsaO
yUz/9MmxoZXQVePFltMtbBS/Czj8BmXJ6b841mPBv64boTRhM53hsWhPa7a2CBX2
d/vJXLyMOKTIq1CWoLlvegLG7fVhFoDMb3NV5SO1RI9IAUKONt3LZcdlwQW7Wd1h
jdKWDEnAdN6ZPEXzKaruxn0sTu4s5p610GLuAISCFI6VqqOPyz1VRY/JY3+hDfId
6UnikYMD1xat8Zc9MVACl6wTOl6Y5HDUstXb8JJZdRP+lnUs3CtV6b9G4C+DJ7oC
iV4TjRzyys3ai8K9XaPxVjhOiGAD+3ftS7Mxvuzv2zp2FGC3shMmW1XAqMXWnQrK
TwdLDu6a
-----END CERTIFICATE-----
