Certificate:
    Data:
        Version: 3 (0x2)
        Serial Number: 21 (0x15)
        Signature Algorithm: sha256WithRSAEncryption
        Issuer: C=US, ST=California, L=Santa Clara, O=pkg5, CN=ch1_ta3/emailAddress=ch1_ta3
        Validity
            Not Before: Oct 24 21:43:06 2023 GMT
            Not After : Jul 20 21:43:06 2026 GMT
        Subject: C=US, ST=California, L=Santa Clara, O=pkg5, CN=cs5_ch1_ta3/emailAddress=cs5_ch1_ta3
        Subject Public Key Info:
            Public Key Algorithm: rsaEncryption
                Public-Key: (2048 bit)
                Modulus:
                    00:ab:d7:8c:ee:57:da:2c:94:fb:29:18:98:cf:08:
                    15:a3:be:32:64:fd:c9:dc:fc:98:32:da:30:9d:5d:
                    db:b8:dd:50:2e:9d:83:81:03:f3:5c:9e:01:9e:20:
                    50:dc:48:e3:8c:06:7e:6e:da:a8:77:3d:0a:3f:97:
                    fb:4a:12:84:79:70:a4:66:09:8f:5b:a6:f3:6b:b8:
                    89:b6:09:d8:cc:e0:48:72:fd:71:7e:89:e2:31:c6:
                    02:73:37:ae:cd:d9:e4:6f:65:8b:46:aa:df:e5:bc:
                    db:54:42:29:c9:84:04:b0:09:46:d6:5b:4d:b4:0f:
                    83:ea:c3:e1:4c:4c:7f:a3:f2:6c:9d:46:8a:0f:09:
                    11:a5:18:53:8f:15:2c:29:48:0b:54:c3:eb:90:5a:
                    d5:1d:e7:20:98:93:2b:b3:1a:de:5b:e3:5c:62:d5:
                    90:b5:9c:2e:22:f1:68:54:b2:58:57:84:73:a2:eb:
                    21:e8:6e:ee:17:db:3f:af:9a:e7:90:ac:70:72:d3:
                    37:df:8b:0a:df:ec:ac:bc:f5:d1:f1:f3:69:8e:fb:
                    62:13:d0:cd:e4:28:02:35:e9:b0:25:79:bf:72:5f:
                    78:92:98:3b:5f:5e:ef:de:7b:6f:8a:d8:ec:b8:0e:
                    e4:1e:dd:9b:e6:02:2e:d4:de:0e:64:d0:bc:b0:fe:
                    58:cb
                Exponent: 65537 (0x10001)
        X509v3 extensions:
            X509v3 Basic Constraints: critical
                CA:FALSE
            X509v3 Key Usage: 
                Key Agreement
            X509v3 Subject Key Identifier: 
                F5:FF:8C:E4:6D:3F:AC:FD:17:6B:1B:90:27:32:D8:E6:52:A0:EB:A7
            X509v3 Authority Key Identifier: 
                EC:04:9D:52:42:13:3C:0B:DA:EF:1D:7E:FD:8C:02:F4:74:FA:24:6D
    Signature Algorithm: sha256WithRSAEncryption
    Signature Value:
        53:85:f0:5c:eb:ea:5b:16:66:e7:5d:30:83:07:87:1a:d0:56:
        dc:25:ba:eb:7f:21:af:60:1a:b8:09:ec:b9:3f:7e:7e:03:1b:
        c1:88:a3:5d:a9:30:db:3b:87:90:dd:cb:01:4d:0e:c8:16:21:
        69:63:40:d5:28:db:2c:a0:14:23:2c:f1:19:bb:71:e7:29:fc:
        f6:23:b1:d4:1e:dc:b5:7b:23:6f:02:a8:57:7a:7e:70:0c:a8:
        04:70:ab:87:8d:5e:07:2d:16:cb:04:f4:9c:fa:23:60:a1:38:
        46:73:13:d4:6f:0b:00:af:17:4b:2f:31:ff:20:a5:b6:69:00:
        01:61:da:0a:a4:05:93:14:e0:f5:32:23:37:2f:14:25:4a:53:
        fe:97:bd:84:30:c2:7c:96:2e:04:71:7c:05:ca:57:03:72:07:
        81:20:e2:dd:b5:58:80:00:6e:dc:5d:6c:9f:82:92:ed:0b:1c:
        b6:72:e3:af:1e:c5:20:c9:00:93:43:5a:1f:56:67:75:dd:f1:
        ec:1f:fe:b7:1a:df:2c:b3:28:32:9c:7e:28:32:99:db:9e:a0:
        5f:bb:4d:f8:b3:46:69:a6:9c:5f:5b:ae:78:64:84:e6:05:92:
        26:64:e9:a2:e6:b3:2e:00:09:29:b6:8c:34:60:7b:18:94:f3:
        9e:18:02:0d
-----BEGIN CERTIFICATE-----
MIIDwjCCAqqgAwIBAgIBFTANBgkqhkiG9w0BAQsFADBxMQswCQYDVQQGEwJVUzET
MBEGA1UECAwKQ2FsaWZvcm5pYTEUMBIGA1UEBwwLU2FudGEgQ2xhcmExDTALBgNV
BAoMBHBrZzUxEDAOBgNVBAMMB2NoMV90YTMxFjAUBgkqhkiG9w0BCQEWB2NoMV90
YTMwHhcNMjMxMDI0MjE0MzA2WhcNMjYwNzIwMjE0MzA2WjB5MQswCQYDVQQGEwJV
UzETMBEGA1UECAwKQ2FsaWZvcm5pYTEUMBIGA1UEBwwLU2FudGEgQ2xhcmExDTAL
BgNVBAoMBHBrZzUxFDASBgNVBAMMC2NzNV9jaDFfdGEzMRowGAYJKoZIhvcNAQkB
FgtjczVfY2gxX3RhMzCCASIwDQYJKoZIhvcNAQEBBQADggEPADCCAQoCggEBAKvX
jO5X2iyU+ykYmM8IFaO+MmT9ydz8mDLaMJ1d27jdUC6dg4ED81yeAZ4gUNxI44wG
fm7aqHc9Cj+X+0oShHlwpGYJj1um82u4ibYJ2MzgSHL9cX6J4jHGAnM3rs3Z5G9l
i0aq3+W821RCKcmEBLAJRtZbTbQPg+rD4UxMf6PybJ1Gig8JEaUYU48VLClIC1TD
65Ba1R3nIJiTK7Ma3lvjXGLVkLWcLiLxaFSyWFeEc6LrIehu7hfbP6+a55CscHLT
N9+LCt/srLz10fHzaY77YhPQzeQoAjXpsCV5v3JfeJKYO19e7957b4rY7LgO5B7d
m+YCLtTeDmTQvLD+WMsCAwEAAaNdMFswDAYDVR0TAQH/BAIwADALBgNVHQ8EBAMC
AwgwHQYDVR0OBBYEFPX/jORtP6z9F2sbkCcy2OZSoOunMB8GA1UdIwQYMBaAFOwE
nVJCEzwL2u8dfv2MAvR0+iRtMA0GCSqGSIb3DQEBCwUAA4IBAQBThfBc6+pbFmbn
XTCDB4ca0FbcJbrrfyGvYBq4Cey5P35+AxvBiKNdqTDbO4eQ3csBTQ7IFiFpY0DV
KNssoBQjLPEZu3HnKfz2I7HUHty1eyNvAqhXen5wDKgEcKuHjV4HLRbLBPSc+iNg
oThGcxPUbwsArxdLLzH/IKW2aQABYdoKpAWTFOD1MiM3LxQlSlP+l72EMMJ8li4E
cXwFylcDcgeBIOLdtViAAG7cXWyfgpLtCxy2cuOvHsUgyQCTQ1ofVmd13fHsH/63
Gt8ssygynH4oMpnbnqBfu034s0ZpppxfW654ZITmBZImZOmi5rMuAAkptow0YHsY
lPOeGAIN
-----END CERTIFICATE-----
