Certificate:
    Data:
        Version: 3 (0x2)
        Serial Number: 21 (0x15)
        Signature Algorithm: sha256WithRSAEncryption
        Issuer: C=US, ST=California, L=Santa Clara, O=pkg5, CN=ch1_ta3/emailAddress=ch1_ta3
        Validity
            Not Before: Dec 15 15:37:22 2022 GMT
            Not After : Sep 10 15:37:22 2025 GMT
        Subject: C=US, ST=California, L=Santa Clara, O=pkg5, CN=cs5_ch1_ta3/emailAddress=cs5_ch1_ta3
        Subject Public Key Info:
            Public Key Algorithm: rsaEncryption
                Public-Key: (2048 bit)
                Modulus:
                    00:a2:bd:71:69:d7:0a:9e:66:79:79:03:5e:28:79:
                    7d:37:90:03:83:60:cf:6d:c7:ba:79:59:22:36:6a:
                    8b:79:6e:7b:46:b9:46:5f:70:6c:3f:c0:3e:5c:c4:
                    8f:b9:61:03:f9:16:e8:53:86:ed:56:dd:28:99:65:
                    88:c1:5d:31:77:34:bd:7f:3e:c8:bc:71:50:c1:b3:
                    ae:86:aa:0e:e3:27:83:1e:d5:f0:38:35:7c:d7:48:
                    ee:ab:0e:5a:25:1a:fe:45:be:1b:c6:be:92:18:71:
                    b0:8f:84:b5:4a:56:1d:45:e9:96:fc:6b:0a:52:9a:
                    13:27:59:98:55:9a:e8:97:c0:33:41:ad:d7:f1:f9:
                    e4:04:05:a0:b4:c6:95:00:ef:40:75:f7:0c:17:d7:
                    37:49:be:51:22:35:65:c5:1a:76:a5:6c:a3:c6:a5:
                    ee:59:21:6f:c2:d6:e1:42:c4:6e:86:9c:f3:f3:06:
                    e2:24:47:2c:bf:07:8c:3b:cc:fd:b5:ad:f4:d9:13:
                    b5:d7:81:05:0d:d6:a1:49:ce:5e:c3:33:9e:41:35:
                    8b:b3:34:dd:ae:b4:8d:29:77:bf:e8:ae:7b:2a:67:
                    9f:db:20:e3:e4:4e:44:fd:fa:c7:ef:d6:8e:4f:e5:
                    e7:b0:4c:ad:51:9b:4c:ab:09:35:23:17:37:88:4c:
                    be:7f
                Exponent: 65537 (0x10001)
        X509v3 extensions:
            X509v3 Basic Constraints: critical
                CA:FALSE
            X509v3 Key Usage: 
                Key Agreement
            X509v3 Subject Key Identifier: 
                F3:11:76:96:F4:DB:D9:5A:79:C8:F5:A0:5E:45:76:B0:CD:26:91:F6
            X509v3 Authority Key Identifier: 
                33:56:B5:6A:EF:83:5A:96:29:D5:64:57:A8:29:D0:28:D0:1D:D9:53
    Signature Algorithm: sha256WithRSAEncryption
    Signature Value:
        70:2d:8a:d3:48:be:e7:af:53:93:00:a0:5f:f1:b3:63:40:7a:
        df:6d:e9:f6:1f:bb:aa:52:d0:0e:f0:18:a7:d3:34:91:31:e3:
        fe:11:a3:f3:60:5e:dc:1c:6b:6b:da:12:c9:85:06:c2:98:05:
        67:b2:36:0a:2f:12:01:c1:a6:da:d0:e0:0e:24:8f:c7:df:e0:
        48:70:89:a7:b4:7f:5f:92:28:14:7e:11:57:ee:32:7d:59:bc:
        4c:57:f3:5a:b2:44:e4:2d:45:1c:d0:ef:a7:0e:7d:d6:71:2e:
        ef:2c:08:29:91:ff:3b:bc:d1:0b:7a:f5:57:db:6e:af:8e:5d:
        07:69:2a:3d:c4:16:02:ec:6d:c7:fa:2c:54:02:b1:0c:77:f6:
        b5:54:32:49:bf:79:ae:cc:43:34:e5:20:11:1e:f4:a9:26:70:
        33:6d:82:38:b6:a6:c6:2f:c1:9b:73:05:a5:0b:9d:5c:f0:ae:
        cc:7b:68:fa:54:27:69:9b:bf:d9:8e:28:f5:b1:65:a1:b2:3b:
        1e:76:3e:fa:9a:42:39:01:06:c2:97:74:23:62:90:cb:9a:d6:
        b0:a2:b1:19:00:bf:e0:96:bb:db:44:59:58:31:9a:5d:83:e0:
        e3:0a:46:5a:4f:2e:0c:3d:cf:c0:e3:e1:d0:e6:d8:eb:16:a7:
        b7:df:60:71
-----BEGIN CERTIFICATE-----
MIIDwjCCAqqgAwIBAgIBFTANBgkqhkiG9w0BAQsFADBxMQswCQYDVQQGEwJVUzET
MBEGA1UECAwKQ2FsaWZvcm5pYTEUMBIGA1UEBwwLU2FudGEgQ2xhcmExDTALBgNV
BAoMBHBrZzUxEDAOBgNVBAMMB2NoMV90YTMxFjAUBgkqhkiG9w0BCQEWB2NoMV90
YTMwHhcNMjIxMjE1MTUzNzIyWhcNMjUwOTEwMTUzNzIyWjB5MQswCQYDVQQGEwJV
UzETMBEGA1UECAwKQ2FsaWZvcm5pYTEUMBIGA1UEBwwLU2FudGEgQ2xhcmExDTAL
BgNVBAoMBHBrZzUxFDASBgNVBAMMC2NzNV9jaDFfdGEzMRowGAYJKoZIhvcNAQkB
FgtjczVfY2gxX3RhMzCCASIwDQYJKoZIhvcNAQEBBQADggEPADCCAQoCggEBAKK9
cWnXCp5meXkDXih5fTeQA4Ngz23HunlZIjZqi3lue0a5Rl9wbD/APlzEj7lhA/kW
6FOG7VbdKJlliMFdMXc0vX8+yLxxUMGzroaqDuMngx7V8Dg1fNdI7qsOWiUa/kW+
G8a+khhxsI+EtUpWHUXplvxrClKaEydZmFWa6JfAM0Gt1/H55AQFoLTGlQDvQHX3
DBfXN0m+USI1ZcUadqVso8al7lkhb8LW4ULEboac8/MG4iRHLL8HjDvM/bWt9NkT
tdeBBQ3WoUnOXsMznkE1i7M03a60jSl3v+iueypnn9sg4+RORP36x+/Wjk/l57BM
rVGbTKsJNSMXN4hMvn8CAwEAAaNdMFswDAYDVR0TAQH/BAIwADALBgNVHQ8EBAMC
AwgwHQYDVR0OBBYEFPMRdpb029laecj1oF5FdrDNJpH2MB8GA1UdIwQYMBaAFDNW
tWrvg1qWKdVkV6gp0CjQHdlTMA0GCSqGSIb3DQEBCwUAA4IBAQBwLYrTSL7nr1OT
AKBf8bNjQHrfben2H7uqUtAO8Bin0zSRMeP+EaPzYF7cHGtr2hLJhQbCmAVnsjYK
LxIBwaba0OAOJI/H3+BIcImntH9fkigUfhFX7jJ9WbxMV/NaskTkLUUc0O+nDn3W
cS7vLAgpkf87vNELevVX226vjl0HaSo9xBYC7G3H+ixUArEMd/a1VDJJv3muzEM0
5SARHvSpJnAzbYI4tqbGL8GbcwWlC51c8K7Me2j6VCdpm7/Zjij1sWWhsjsedj76
mkI5AQbCl3QjYpDLmtaworEZAL/glrvbRFlYMZpdg+DjCkZaTy4MPc/A4+HQ5tjr
Fqe332Bx
-----END CERTIFICATE-----
