Certificate:
    Data:
        Version: 3 (0x2)
        Serial Number: 21 (0x15)
    Signature Algorithm: sha256WithRSAEncryption
        Issuer: C=US, ST=California, L=Santa Clara, O=pkg5, CN=ch1_ta3/emailAddress=ch1_ta3
        Validity
            Not Before: Nov 16 10:58:49 2017 GMT
            Not After : Aug 12 10:58:49 2020 GMT
        Subject: C=US, ST=California, L=Santa Clara, O=pkg5, CN=cs5_ch1_ta3/emailAddress=cs5_ch1_ta3
        Subject Public Key Info:
            Public Key Algorithm: rsaEncryption
                Public-Key: (1024 bit)
                Modulus:
                    00:cb:01:37:44:c0:b0:1a:8c:88:32:90:cd:12:61:
                    87:b9:64:5f:f1:e9:5b:6e:57:67:c7:dc:20:72:ac:
                    fe:61:f4:1f:94:a3:55:4d:b8:fc:15:c2:ff:b3:ef:
                    d7:9e:a1:81:24:b2:f2:7e:63:61:77:ff:6f:a5:68:
                    d5:03:e6:a8:9d:6d:3b:36:11:43:37:fc:85:e1:de:
                    a7:18:28:96:4e:10:2d:98:05:71:59:d5:9f:ef:5f:
                    06:1f:12:b0:dd:6c:97:6f:26:22:0c:1f:52:2b:b9:
                    d8:1a:6e:81:fd:cf:77:86:62:7e:57:91:b2:35:d0:
                    a6:ea:7e:db:2b:74:42:f2:a1
                Exponent: 65537 (0x10001)
        X509v3 extensions:
            X509v3 Basic Constraints: critical
                CA:FALSE
            X509v3 Key Usage: 
                Key Agreement
    Signature Algorithm: sha256WithRSAEncryption
         17:0d:0d:76:92:49:44:55:10:c0:cd:32:62:4e:8a:5b:ef:02:
         6d:6d:1f:b8:d0:40:26:8e:42:13:ea:7b:a6:d6:72:3a:9a:47:
         40:97:36:40:a9:44:44:25:f7:72:1d:fc:d8:7c:86:23:ec:9a:
         07:a0:02:2b:e8:3b:50:97:27:ff:a3:ed:3e:4f:02:5e:ca:88:
         f3:a1:33:d0:02:d8:1d:cb:68:6f:80:25:9b:0c:f1:35:01:73:
         56:db:a0:3a:c5:61:66:b8:ac:5f:c4:70:56:ec:9a:34:4a:b7:
         41:c0:6d:3e:2e:8d:05:ba:d9:cd:e6:2a:47:55:a9:14:c8:6f:
         52:80:52:77:ae:0d:52:92:cd:ea:25:12:21:58:fd:dc:90:c1:
         6d:48:0a:90:34:d1:fa:72:c9:80:41:91:49:95:e5:b3:83:59:
         57:71:13:64:a6:6a:4e:98:0c:ba:e4:b7:d0:4e:30:f6:ce:0e:
         a7:94:25:f4:9f:c6:f2:f8:cb:14:39:3b:0e:d4:2d:34:3c:24:
         70:61:c3:f7:86:e8:77:df:1e:5a:61:68:f9:2c:d1:82:1c:8f:
         98:fe:57:c3:12:6b:b9:7a:72:ae:f0:f6:0d:07:bf:9f:34:1e:
         5b:b2:4c:b7:b8:62:4a:2f:c2:0d:ad:12:2e:bf:a2:1b:21:c5:
         35:0c:4a:dc
-----BEGIN CERTIFICATE-----
MIIC/jCCAeagAwIBAgIBFTANBgkqhkiG9w0BAQsFADBxMQswCQYDVQQGEwJVUzET
MBEGA1UECAwKQ2FsaWZvcm5pYTEUMBIGA1UEBwwLU2FudGEgQ2xhcmExDTALBgNV
BAoMBHBrZzUxEDAOBgNVBAMMB2NoMV90YTMxFjAUBgkqhkiG9w0BCQEWB2NoMV90
YTMwHhcNMTcxMTE2MTA1ODQ5WhcNMjAwODEyMTA1ODQ5WjB5MQswCQYDVQQGEwJV
UzETMBEGA1UECAwKQ2FsaWZvcm5pYTEUMBIGA1UEBwwLU2FudGEgQ2xhcmExDTAL
BgNVBAoMBHBrZzUxFDASBgNVBAMMC2NzNV9jaDFfdGEzMRowGAYJKoZIhvcNAQkB
FgtjczVfY2gxX3RhMzCBnzANBgkqhkiG9w0BAQEFAAOBjQAwgYkCgYEAywE3RMCw
GoyIMpDNEmGHuWRf8elbbldnx9wgcqz+YfQflKNVTbj8FcL/s+/XnqGBJLLyfmNh
d/9vpWjVA+aonW07NhFDN/yF4d6nGCiWThAtmAVxWdWf718GHxKw3WyXbyYiDB9S
K7nYGm6B/c93hmJ+V5GyNdCm6n7bK3RC8qECAwEAAaMdMBswDAYDVR0TAQH/BAIw
ADALBgNVHQ8EBAMCAwgwDQYJKoZIhvcNAQELBQADggEBABcNDXaSSURVEMDNMmJO
ilvvAm1tH7jQQCaOQhPqe6bWcjqaR0CXNkCpREQl93Id/Nh8hiPsmgegAivoO1CX
J/+j7T5PAl7KiPOhM9AC2B3LaG+AJZsM8TUBc1bboDrFYWa4rF/EcFbsmjRKt0HA
bT4ujQW62c3mKkdVqRTIb1KAUneuDVKSzeolEiFY/dyQwW1ICpA00fpyyYBBkUmV
5bODWVdxE2Smak6YDLrkt9BOMPbODqeUJfSfxvL4yxQ5Ow7ULTQ8JHBhw/eG6Hff
HlphaPks0YIcj5j+V8MSa7l6cq7w9g0Hv580HluyTLe4Ykovwg2tEi6/ohshxTUM
Stw=
-----END CERTIFICATE-----
