Certificate:
    Data:
        Version: 3 (0x2)
        Serial Number: 21 (0x15)
    Signature Algorithm: sha256WithRSAEncryption
        Issuer: C=US, ST=California, L=Santa Clara, O=pkg5, CN=ch1_ta3/emailAddress=ch1_ta3
        Validity
            Not Before: Dec  6 03:06:43 2014 GMT
            Not After : Sep  1 03:06:43 2017 GMT
        Subject: C=US, ST=California, L=Santa Clara, O=pkg5, CN=cs5_ch1_ta3/emailAddress=cs5_ch1_ta3
        Subject Public Key Info:
            Public Key Algorithm: rsaEncryption
                Public-Key: (1024 bit)
                Modulus:
                    00:ce:67:94:30:f2:57:ca:55:34:78:cd:fe:3e:7d:
                    b9:8e:6c:bc:60:1f:ee:49:f0:60:6c:ea:8f:7e:38:
                    2d:39:ec:cb:88:71:5e:40:4f:79:65:27:9e:72:9e:
                    bc:18:1a:84:25:6f:ad:37:4b:0f:4c:8a:aa:c3:a9:
                    99:fd:ad:1c:f7:e8:98:f7:06:92:c9:db:77:31:1a:
                    fe:5d:71:be:85:d7:5b:cd:28:1e:b8:ef:79:31:12:
                    4a:99:a9:69:25:29:bf:39:17:9a:a4:5e:e4:1f:cf:
                    b7:3e:ac:83:fa:41:14:d0:7a:7f:28:e7:ab:29:4d:
                    d6:13:88:9a:2d:f8:c4:78:e7
                Exponent: 65537 (0x10001)
        X509v3 extensions:
            X509v3 Basic Constraints: critical
                CA:FALSE
            X509v3 Key Usage: 
                Encipher Only
    Signature Algorithm: sha256WithRSAEncryption
         a9:98:da:12:89:57:c2:63:f1:0a:f5:25:09:50:c4:10:d3:f8:
         45:9f:e4:79:f6:82:f7:68:de:67:a5:34:90:9f:f1:f6:82:e9:
         b9:af:3d:f1:e5:a0:d4:7a:42:3d:01:87:2d:a7:ad:b8:a7:f2:
         e9:7a:9e:a1:73:18:ce:50:8d:88:31:53:46:e6:c3:e0:db:00:
         e5:82:64:b1:4a:24:6d:23:73:4e:0a:16:9f:82:25:15:2f:a9:
         e5:14:e9:bb:e4:d6:21:29:d1:b5:5c:37:48:bb:91:a1:ea:45:
         e4:98:b3:6f:22:6a:7d:5e:f1:b1:3d:c3:7a:cf:7a:73:48:d7:
         91:b1
-----BEGIN CERTIFICATE-----
MIICfTCCAeagAwIBAgIBFTANBgkqhkiG9w0BAQsFADBxMQswCQYDVQQGEwJVUzET
MBEGA1UECAwKQ2FsaWZvcm5pYTEUMBIGA1UEBwwLU2FudGEgQ2xhcmExDTALBgNV
BAoMBHBrZzUxEDAOBgNVBAMMB2NoMV90YTMxFjAUBgkqhkiG9w0BCQEWB2NoMV90
YTMwHhcNMTQxMjA2MDMwNjQzWhcNMTcwOTAxMDMwNjQzWjB5MQswCQYDVQQGEwJV
UzETMBEGA1UECAwKQ2FsaWZvcm5pYTEUMBIGA1UEBwwLU2FudGEgQ2xhcmExDTAL
BgNVBAoMBHBrZzUxFDASBgNVBAMMC2NzNV9jaDFfdGEzMRowGAYJKoZIhvcNAQkB
FgtjczVfY2gxX3RhMzCBnzANBgkqhkiG9w0BAQEFAAOBjQAwgYkCgYEAzmeUMPJX
ylU0eM3+Pn25jmy8YB/uSfBgbOqPfjgtOezLiHFeQE95ZSeecp68GBqEJW+tN0sP
TIqqw6mZ/a0c9+iY9waSydt3MRr+XXG+hddbzSgeuO95MRJKmalpJSm/OReapF7k
H8+3PqyD+kEU0Hp/KOerKU3WE4iaLfjEeOcCAwEAAaMdMBswDAYDVR0TAQH/BAIw
ADALBgNVHQ8EBAMCAAEwDQYJKoZIhvcNAQELBQADgYEAqZjaEolXwmPxCvUlCVDE
ENP4RZ/kefaC92jeZ6U0kJ/x9oLpua898eWg1HpCPQGHLaetuKfy6XqeoXMYzlCN
iDFTRubD4NsA5YJksUokbSNzTgoWn4IlFS+p5RTpu+TWISnRtVw3SLuRoepF5Jiz
byJqfV7xsT3Des96c0jXkbE=
-----END CERTIFICATE-----
