Certificate:
    Data:
        Version: 3 (0x2)
        Serial Number: 22 (0x16)
        Signature Algorithm: sha256WithRSAEncryption
        Issuer: C=US, ST=California, L=Santa Clara, O=pkg5, CN=ch1_ta3/emailAddress=ch1_ta3
        Validity
            Not Before: Nov 14 14:26:54 2024 GMT
            Not After : Aug 11 14:26:54 2027 GMT
        Subject: C=US, ST=California, L=Santa Clara, O=pkg5, CN=cs6_ch1_ta3/emailAddress=cs6_ch1_ta3
        Subject Public Key Info:
            Public Key Algorithm: rsaEncryption
                Public-Key: (2048 bit)
                Modulus:
                    00:99:fd:29:7f:12:69:f4:18:63:11:f8:77:8a:33:
                    78:f8:e0:c9:9a:e1:e0:a6:98:57:dc:4e:a6:51:87:
                    c3:18:ce:14:a1:bc:de:4b:81:da:50:46:db:77:69:
                    be:ad:4c:97:9f:0e:d3:71:2c:67:18:04:19:69:f4:
                    f9:06:6d:39:28:37:a5:39:7c:19:8b:c6:0c:56:95:
                    53:dc:4a:98:08:87:0d:06:31:cf:ad:0a:4c:a8:dc:
                    79:dd:b5:fe:d2:3b:ce:2f:3c:5c:7a:fb:04:ec:ee:
                    6c:4d:e2:6a:98:1f:33:6f:95:41:6f:50:70:01:71:
                    8d:3a:8c:23:3e:a9:f3:39:f6:d6:db:b8:cb:83:08:
                    14:e3:ea:94:c0:92:41:1f:fd:bc:5c:28:24:96:b3:
                    12:76:88:6f:b6:c4:dd:94:1c:f2:5a:df:f8:d5:35:
                    ba:74:7e:1e:03:6c:7b:fc:f4:00:23:9c:23:0d:d5:
                    74:8e:7b:5a:c0:08:bc:30:2f:11:08:b0:db:d4:e4:
                    af:10:dd:69:91:6d:4a:76:5d:99:cd:f2:1a:17:d1:
                    fb:03:ad:19:2e:a5:ff:e9:06:61:2f:79:23:e1:c7:
                    c5:2f:64:0e:32:f3:e2:67:ee:42:19:c4:e3:75:4c:
                    5c:af:cc:bf:ed:f3:8f:90:47:90:b7:0d:41:89:5b:
                    a5:8b
                Exponent: 65537 (0x10001)
        X509v3 extensions:
            X509v3 Basic Constraints: critical
                CA:FALSE
            X509v3 Key Usage: critical
                Key Agreement, Encipher Only
            X509v3 Subject Key Identifier: 
                5D:D9:69:49:40:D8:08:F4:FD:E9:6D:A6:EF:AA:08:A1:5A:A9:12:9F
            X509v3 Authority Key Identifier: 
                AD:BE:5E:36:0D:CA:1F:58:96:99:52:1F:30:4B:F4:16:7A:8D:9E:7F
    Signature Algorithm: sha256WithRSAEncryption
    Signature Value:
        b4:c0:86:9b:44:bb:ad:5d:2d:ff:bc:95:42:8b:f0:22:8b:44:
        1a:59:31:a4:c1:92:fe:1f:53:ca:ee:a3:ea:4a:72:28:6f:c9:
        d6:ba:b4:b5:9e:fb:d6:6e:e5:a6:54:97:e5:79:1e:2d:35:e8:
        48:ee:28:e9:1e:2c:1f:8a:9b:80:ed:b9:5d:c7:13:01:a0:46:
        13:01:93:49:d0:8a:9d:1f:70:6f:17:71:be:aa:ff:e9:80:95:
        f5:ed:66:b0:b3:2c:a8:41:f1:06:d5:cb:58:1e:f4:17:80:75:
        f7:14:be:dc:20:da:37:df:d9:83:6d:c2:48:ef:e3:5a:9c:51:
        7c:b0:7a:c9:f8:dd:89:7e:8b:b0:2f:64:30:e7:7a:89:f3:70:
        90:ef:06:8e:8e:3a:8f:c2:23:a4:3f:8d:e4:14:4c:51:75:bc:
        f9:46:e6:49:00:b6:a3:6a:62:be:77:c2:e0:7f:52:b1:16:a6:
        1f:2c:72:e3:ed:95:02:2f:7c:8e:b7:06:12:a9:b3:4b:79:d6:
        d7:1b:63:5f:a3:84:40:a1:63:38:f9:f1:18:cb:01:6c:b6:ab:
        45:7a:70:f5:94:cb:e1:38:98:65:5b:15:ab:c0:38:47:04:41:
        3e:da:e8:8b:87:fb:f8:39:75:e1:68:6e:ba:55:d4:a3:39:ad:
        4e:bd:a3:7b
-----BEGIN CERTIFICATE-----
MIIDxTCCAq2gAwIBAgIBFjANBgkqhkiG9w0BAQsFADBxMQswCQYDVQQGEwJVUzET
MBEGA1UECAwKQ2FsaWZvcm5pYTEUMBIGA1UEBwwLU2FudGEgQ2xhcmExDTALBgNV
BAoMBHBrZzUxEDAOBgNVBAMMB2NoMV90YTMxFjAUBgkqhkiG9w0BCQEWB2NoMV90
YTMwHhcNMjQxMTE0MTQyNjU0WhcNMjcwODExMTQyNjU0WjB5MQswCQYDVQQGEwJV
UzETMBEGA1UECAwKQ2FsaWZvcm5pYTEUMBIGA1UEBwwLU2FudGEgQ2xhcmExDTAL
BgNVBAoMBHBrZzUxFDASBgNVBAMMC2NzNl9jaDFfdGEzMRowGAYJKoZIhvcNAQkB
FgtjczZfY2gxX3RhMzCCASIwDQYJKoZIhvcNAQEBBQADggEPADCCAQoCggEBAJn9
KX8SafQYYxH4d4ozePjgyZrh4KaYV9xOplGHwxjOFKG83kuB2lBG23dpvq1Ml58O
03EsZxgEGWn0+QZtOSg3pTl8GYvGDFaVU9xKmAiHDQYxz60KTKjced21/tI7zi88
XHr7BOzubE3iapgfM2+VQW9QcAFxjTqMIz6p8zn21tu4y4MIFOPqlMCSQR/9vFwo
JJazEnaIb7bE3ZQc8lrf+NU1unR+HgNse/z0ACOcIw3VdI57WsAIvDAvEQiw29Tk
rxDdaZFtSnZdmc3yGhfR+wOtGS6l/+kGYS95I+HHxS9kDjLz4mfuQhnE43VMXK/M
v+3zj5BHkLcNQYlbpYsCAwEAAaNgMF4wDAYDVR0TAQH/BAIwADAOBgNVHQ8BAf8E
BAMCAAkwHQYDVR0OBBYEFF3ZaUlA2Aj0/eltpu+qCKFaqRKfMB8GA1UdIwQYMBaA
FK2+XjYNyh9YlplSHzBL9BZ6jZ5/MA0GCSqGSIb3DQEBCwUAA4IBAQC0wIabRLut
XS3/vJVCi/Aii0QaWTGkwZL+H1PK7qPqSnIob8nWurS1nvvWbuWmVJfleR4tNehI
7ijpHiwfipuA7bldxxMBoEYTAZNJ0IqdH3BvF3G+qv/pgJX17WawsyyoQfEG1ctY
HvQXgHX3FL7cINo339mDbcJI7+NanFF8sHrJ+N2JfouwL2Qw53qJ83CQ7waOjjqP
wiOkP43kFExRdbz5RuZJALajamK+d8Lgf1KxFqYfLHLj7ZUCL3yOtwYSqbNLedbX
G2Nfo4RAoWM4+fEYywFstqtFenD1lMvhOJhlWxWrwDhHBEE+2uiLh/v4OXXhaG66
VdSjOa1OvaN7
-----END CERTIFICATE-----
