Certificate:
    Data:
        Version: 3 (0x2)
        Serial Number: 22 (0x16)
    Signature Algorithm: sha256WithRSAEncryption
        Issuer: C=US, ST=California, L=Santa Clara, O=pkg5, CN=ch1_ta3/emailAddress=ch1_ta3
        Validity
            Not Before: Nov 16 10:58:49 2017 GMT
            Not After : Aug 12 10:58:49 2020 GMT
        Subject: C=US, ST=California, L=Santa Clara, O=pkg5, CN=cs6_ch1_ta3/emailAddress=cs6_ch1_ta3
        Subject Public Key Info:
            Public Key Algorithm: rsaEncryption
                Public-Key: (1024 bit)
                Modulus:
                    00:e2:db:bc:a7:16:f5:72:d5:d7:74:4c:15:27:51:
                    e9:c7:f6:9d:bf:e7:b3:5d:d0:a2:d7:30:1a:64:b7:
                    88:42:8f:1a:49:a0:5f:fd:e1:1c:03:90:bc:01:5e:
                    7b:3c:54:03:d5:b5:5f:e1:66:61:4c:10:0a:bc:05:
                    9e:e6:b2:11:1b:3a:34:05:56:9c:b4:7e:ed:2e:bd:
                    d1:7c:4f:b2:37:2e:48:b4:37:b0:54:d4:60:06:75:
                    0e:cb:f5:e3:71:f9:34:61:8f:0f:6a:9c:43:82:5a:
                    1b:ff:7a:b8:81:bb:0e:39:be:c4:82:37:18:49:dc:
                    e1:d9:a5:ea:19:df:c3:89:05
                Exponent: 65537 (0x10001)
        X509v3 extensions:
            X509v3 Basic Constraints: critical
                CA:FALSE
            X509v3 Key Usage: critical
                Key Agreement, Encipher Only
    Signature Algorithm: sha256WithRSAEncryption
         62:f6:ad:e4:90:ec:a5:0e:0d:71:ae:60:06:f3:84:21:6e:56:
         92:66:45:74:4a:a4:7c:7c:d2:bf:5b:e5:92:59:b7:ba:52:5b:
         d6:66:74:fd:51:fa:87:fb:e0:6d:11:82:69:5c:52:e5:23:23:
         dd:73:5c:80:35:09:cd:6d:30:2b:16:c9:ad:43:ed:ac:78:3b:
         e1:80:aa:54:a3:e8:17:3f:48:f2:e5:1c:93:7e:b7:99:a2:d2:
         95:a2:ff:de:0c:b1:de:59:f4:8a:37:90:ed:f6:f2:80:23:28:
         0f:55:66:e1:6c:44:8b:3e:ce:82:10:93:32:24:59:b1:45:d2:
         f5:41:a8:54:00:3a:5c:5f:ea:d8:9f:ab:4e:7b:8a:26:cf:d7:
         cc:1c:d0:8d:53:71:d2:19:29:5f:71:b9:b8:94:96:17:4f:c1:
         f8:8a:b8:14:ed:4f:6b:49:20:5b:3e:10:db:c8:c3:76:91:df:
         a7:8a:ad:95:eb:f5:b9:ca:b7:9e:5c:60:24:82:e1:08:68:84:
         6a:46:48:72:eb:2f:44:33:35:2d:eb:ab:7c:ed:2b:f8:d4:5b:
         da:d3:da:1b:da:15:8f:0d:f7:a7:8b:7e:30:12:c0:01:3b:4f:
         62:1a:a5:7d:9b:af:83:f9:4c:c9:32:75:bb:6d:ae:07:2a:07:
         fa:5b:9f:61
-----BEGIN CERTIFICATE-----
MIIDATCCAemgAwIBAgIBFjANBgkqhkiG9w0BAQsFADBxMQswCQYDVQQGEwJVUzET
MBEGA1UECAwKQ2FsaWZvcm5pYTEUMBIGA1UEBwwLU2FudGEgQ2xhcmExDTALBgNV
BAoMBHBrZzUxEDAOBgNVBAMMB2NoMV90YTMxFjAUBgkqhkiG9w0BCQEWB2NoMV90
YTMwHhcNMTcxMTE2MTA1ODQ5WhcNMjAwODEyMTA1ODQ5WjB5MQswCQYDVQQGEwJV
UzETMBEGA1UECAwKQ2FsaWZvcm5pYTEUMBIGA1UEBwwLU2FudGEgQ2xhcmExDTAL
BgNVBAoMBHBrZzUxFDASBgNVBAMMC2NzNl9jaDFfdGEzMRowGAYJKoZIhvcNAQkB
FgtjczZfY2gxX3RhMzCBnzANBgkqhkiG9w0BAQEFAAOBjQAwgYkCgYEA4tu8pxb1
ctXXdEwVJ1Hpx/adv+ezXdCi1zAaZLeIQo8aSaBf/eEcA5C8AV57PFQD1bVf4WZh
TBAKvAWe5rIRGzo0BVactH7tLr3RfE+yNy5ItDewVNRgBnUOy/Xjcfk0YY8PapxD
glob/3q4gbsOOb7EgjcYSdzh2aXqGd/DiQUCAwEAAaMgMB4wDAYDVR0TAQH/BAIw
ADAOBgNVHQ8BAf8EBAMCAAkwDQYJKoZIhvcNAQELBQADggEBAGL2reSQ7KUODXGu
YAbzhCFuVpJmRXRKpHx80r9b5ZJZt7pSW9ZmdP1R+of74G0RgmlcUuUjI91zXIA1
Cc1tMCsWya1D7ax4O+GAqlSj6Bc/SPLlHJN+t5mi0pWi/94Msd5Z9Io3kO328oAj
KA9VZuFsRIs+zoIQkzIkWbFF0vVBqFQAOlxf6tifq057iibP18wc0I1TcdIZKV9x
ubiUlhdPwfiKuBTtT2tJIFs+ENvIw3aR36eKrZXr9bnKt55cYCSC4QhohGpGSHLr
L0QzNS3rq3ztK/jUW9rT2hvaFY8N96eLfjASwAE7T2IapX2br4P5TMkydbttrgcq
B/pbn2E=
-----END CERTIFICATE-----
