Certificate:
    Data:
        Version: 3 (0x2)
        Serial Number: 23 (0x17)
        Signature Algorithm: sha256WithRSAEncryption
        Issuer: C=US, ST=California, L=Santa Clara, O=pkg5, CN=ch1_ta3/emailAddress=ch1_ta3
        Validity
            Not Before: Nov 17 23:01:30 2020 GMT
            Not After : Aug 14 23:01:30 2023 GMT
        Subject: C=US, ST=California, L=Santa Clara, O=pkg5, CN=cs7_ch1_ta3/emailAddress=cs7_ch1_ta3
        Subject Public Key Info:
            Public Key Algorithm: rsaEncryption
                RSA Public-Key: (1024 bit)
                Modulus:
                    00:b4:63:01:bc:b0:0a:26:d9:9a:06:d6:66:06:78:
                    14:90:47:e6:e9:c8:12:f6:f5:e5:cc:ad:5b:f7:04:
                    f2:75:6d:db:81:18:0b:57:2c:f3:39:3c:14:e4:94:
                    71:7b:1f:3b:8d:fb:1c:17:97:7e:63:7d:77:6e:12:
                    76:b2:b3:1a:32:8a:49:2d:51:a5:7d:cd:28:02:2d:
                    3d:d4:e9:a8:bd:08:76:6f:08:70:44:98:46:67:de:
                    5f:35:48:0c:a5:50:d5:ef:29:35:c2:6e:49:71:5d:
                    41:c0:65:30:03:1d:b1:a5:10:24:7b:2e:83:9d:5b:
                    fa:97:23:87:14:a7:0b:84:85
                Exponent: 65537 (0x10001)
        X509v3 extensions:
            X509v3 Basic Constraints: critical
                CA:FALSE
    Signature Algorithm: sha256WithRSAEncryption
         5f:65:cc:35:4b:4b:93:5e:7f:c4:74:7c:d2:0b:f3:15:70:8a:
         37:9f:e5:68:81:2a:41:fb:fc:47:8e:e7:e2:29:32:ca:16:55:
         5a:27:68:83:4c:b4:54:dd:f1:7c:0b:e1:e4:cc:ec:0d:c5:27:
         a9:65:56:84:63:33:18:c5:79:71:d7:aa:ca:7f:df:5f:f1:44:
         56:b0:38:57:f1:10:d8:ce:35:6b:bb:70:62:52:df:64:90:b1:
         c6:a5:d4:92:94:a0:d7:ef:83:76:bb:fb:d4:43:3a:69:da:22:
         33:cb:78:e2:80:5c:54:f8:1b:3b:e1:71:e6:b3:6f:6b:25:76:
         df:21:93:99:37:4b:de:8c:68:9d:8e:54:7a:70:5c:69:66:ac:
         2f:39:89:e2:3b:b5:be:7a:55:86:cd:c3:2d:6b:ab:c7:5a:2c:
         b4:8a:63:31:57:c1:6f:08:7b:16:ea:ba:35:f5:21:04:71:eb:
         db:c7:7d:ae:ee:e0:ef:8b:05:e2:a3:b1:39:1e:c5:e6:e8:d8:
         cb:eb:8e:ce:88:cd:5d:88:a7:e8:46:c8:fd:7b:37:2c:9d:2c:
         93:20:c3:2c:38:89:53:ef:e6:57:8b:37:a5:8f:1d:5e:a5:36:
         a6:8f:0a:19:e1:46:08:66:86:83:d2:11:00:63:83:8e:d2:0f:
         8a:d5:aa:1f
-----BEGIN CERTIFICATE-----
MIIC8TCCAdmgAwIBAgIBFzANBgkqhkiG9w0BAQsFADBxMQswCQYDVQQGEwJVUzET
MBEGA1UECAwKQ2FsaWZvcm5pYTEUMBIGA1UEBwwLU2FudGEgQ2xhcmExDTALBgNV
BAoMBHBrZzUxEDAOBgNVBAMMB2NoMV90YTMxFjAUBgkqhkiG9w0BCQEWB2NoMV90
YTMwHhcNMjAxMTE3MjMwMTMwWhcNMjMwODE0MjMwMTMwWjB5MQswCQYDVQQGEwJV
UzETMBEGA1UECAwKQ2FsaWZvcm5pYTEUMBIGA1UEBwwLU2FudGEgQ2xhcmExDTAL
BgNVBAoMBHBrZzUxFDASBgNVBAMMC2NzN19jaDFfdGEzMRowGAYJKoZIhvcNAQkB
FgtjczdfY2gxX3RhMzCBnzANBgkqhkiG9w0BAQEFAAOBjQAwgYkCgYEAtGMBvLAK
JtmaBtZmBngUkEfm6cgS9vXlzK1b9wTydW3bgRgLVyzzOTwU5JRxex87jfscF5d+
Y313bhJ2srMaMopJLVGlfc0oAi091OmovQh2bwhwRJhGZ95fNUgMpVDV7yk1wm5J
cV1BwGUwAx2xpRAkey6DnVv6lyOHFKcLhIUCAwEAAaMQMA4wDAYDVR0TAQH/BAIw
ADANBgkqhkiG9w0BAQsFAAOCAQEAX2XMNUtLk15/xHR80gvzFXCKN5/laIEqQfv8
R47n4ikyyhZVWidog0y0VN3xfAvh5MzsDcUnqWVWhGMzGMV5cdeqyn/fX/FEVrA4
V/EQ2M41a7twYlLfZJCxxqXUkpSg1++Ddrv71EM6adoiM8t44oBcVPgbO+Fx5rNv
ayV23yGTmTdL3oxonY5UenBcaWasLzmJ4ju1vnpVhs3DLWurx1ostIpjMVfBbwh7
Fuq6NfUhBHHr28d9ru7g74sF4qOxOR7F5ujYy+uOzojNXYin6EbI/Xs3LJ0skyDD
LDiJU+/mV4s3pY8dXqU2po8KGeFGCGaGg9IRAGODjtIPitWqHw==
-----END CERTIFICATE-----
