Certificate:
    Data:
        Version: 3 (0x2)
        Serial Number: 23 (0x17)
        Signature Algorithm: sha256WithRSAEncryption
        Issuer: C=US, ST=California, L=Santa Clara, O=pkg5, CN=ch1_ta3/emailAddress=ch1_ta3
        Validity
            Not Before: Oct 24 21:43:07 2023 GMT
            Not After : Jul 20 21:43:07 2026 GMT
        Subject: C=US, ST=California, L=Santa Clara, O=pkg5, CN=cs7_ch1_ta3/emailAddress=cs7_ch1_ta3
        Subject Public Key Info:
            Public Key Algorithm: rsaEncryption
                Public-Key: (2048 bit)
                Modulus:
                    00:a4:f1:e1:67:ae:b6:d1:30:a5:a6:56:1f:10:79:
                    13:c4:32:63:79:16:73:d3:01:46:48:c6:a7:fd:83:
                    8e:42:b2:16:99:52:34:90:ea:a4:cf:1e:1a:4d:f4:
                    38:41:56:79:c0:22:99:f6:74:6c:45:72:80:85:6c:
                    56:8d:5e:36:9c:0b:90:43:83:f9:2b:77:eb:d0:3a:
                    c4:e9:54:cc:f4:f1:a6:55:79:75:e4:93:50:e3:cb:
                    f7:44:71:c3:d9:a0:5d:de:db:b5:8e:ae:d6:73:8f:
                    c3:b7:5b:ff:16:70:61:3f:63:c0:d7:5c:8b:ea:cd:
                    e9:30:bf:00:40:a2:28:f6:af:8e:d4:27:e4:4c:bb:
                    79:71:95:6e:8f:ac:2e:03:07:45:02:bb:4f:37:7b:
                    d0:16:a5:1d:81:d6:44:a9:45:12:fa:f3:46:69:df:
                    d3:bc:e6:bc:f6:9e:bb:27:ac:17:8f:4f:57:64:a6:
                    e2:c2:3b:68:40:db:d0:ab:23:08:ea:27:1a:60:cf:
                    78:e0:64:3f:e0:8c:f7:42:d8:37:18:67:5d:34:23:
                    2b:e6:e0:01:c8:8b:3e:80:1f:fa:fe:3c:2f:54:7c:
                    e6:9e:23:08:df:c5:8e:32:44:7f:cb:75:e4:98:5c:
                    70:1d:a1:45:ec:fa:8d:b3:4f:22:31:80:67:22:fa:
                    40:ff
                Exponent: 65537 (0x10001)
        X509v3 extensions:
            X509v3 Basic Constraints: critical
                CA:FALSE
            X509v3 Subject Key Identifier: 
                F5:E6:F4:1C:FE:C6:E7:BE:6B:7D:20:BA:12:23:B5:E2:54:A9:DB:43
            X509v3 Authority Key Identifier: 
                EC:04:9D:52:42:13:3C:0B:DA:EF:1D:7E:FD:8C:02:F4:74:FA:24:6D
    Signature Algorithm: sha256WithRSAEncryption
    Signature Value:
        8c:1f:75:b3:20:33:12:07:9c:32:41:48:70:e0:41:04:26:96:
        7c:5a:3a:fa:86:6f:b9:a7:12:ce:ab:3e:cd:57:99:cb:86:7e:
        5d:f5:55:44:b3:aa:43:5f:16:52:e8:9e:56:a5:c3:1b:d3:dc:
        73:ee:1c:4c:44:7b:64:02:5c:b8:63:3a:2c:32:5f:59:7b:b2:
        fe:86:12:e6:9c:80:11:3e:86:76:4f:65:7d:93:25:ab:12:2e:
        ba:69:04:19:01:be:fb:25:ca:0a:ef:6c:89:e2:44:f9:8e:c9:
        02:88:5b:81:4d:bc:f7:38:96:1b:8b:0f:be:82:3b:24:89:96:
        5a:70:96:c1:af:ec:a5:ab:fd:61:01:99:dd:c8:8b:be:d0:d7:
        70:98:ea:72:08:0e:3a:60:7f:d8:34:85:ff:13:37:41:0b:85:
        a6:25:42:0a:ed:94:20:4b:91:0c:25:8b:f5:e1:65:79:53:cf:
        00:01:b8:25:df:88:45:75:6a:05:a9:39:6e:ae:db:83:c7:5b:
        37:9c:dd:7f:0f:b3:d1:37:b9:3d:43:50:7b:b3:f0:62:df:f4:
        51:8e:8f:4a:04:40:38:25:a8:f6:05:5a:20:dc:2d:70:a0:f1:
        af:d3:c1:f8:0b:9f:38:44:9d:1a:bd:ce:47:6f:21:15:50:b9:
        19:4e:60:89
-----BEGIN CERTIFICATE-----
MIIDtTCCAp2gAwIBAgIBFzANBgkqhkiG9w0BAQsFADBxMQswCQYDVQQGEwJVUzET
MBEGA1UECAwKQ2FsaWZvcm5pYTEUMBIGA1UEBwwLU2FudGEgQ2xhcmExDTALBgNV
BAoMBHBrZzUxEDAOBgNVBAMMB2NoMV90YTMxFjAUBgkqhkiG9w0BCQEWB2NoMV90
YTMwHhcNMjMxMDI0MjE0MzA3WhcNMjYwNzIwMjE0MzA3WjB5MQswCQYDVQQGEwJV
UzETMBEGA1UECAwKQ2FsaWZvcm5pYTEUMBIGA1UEBwwLU2FudGEgQ2xhcmExDTAL
BgNVBAoMBHBrZzUxFDASBgNVBAMMC2NzN19jaDFfdGEzMRowGAYJKoZIhvcNAQkB
FgtjczdfY2gxX3RhMzCCASIwDQYJKoZIhvcNAQEBBQADggEPADCCAQoCggEBAKTx
4WeuttEwpaZWHxB5E8QyY3kWc9MBRkjGp/2DjkKyFplSNJDqpM8eGk30OEFWecAi
mfZ0bEVygIVsVo1eNpwLkEOD+St369A6xOlUzPTxplV5deSTUOPL90Rxw9mgXd7b
tY6u1nOPw7db/xZwYT9jwNdci+rN6TC/AECiKPavjtQn5Ey7eXGVbo+sLgMHRQK7
Tzd70BalHYHWRKlFEvrzRmnf07zmvPaeuyesF49PV2Sm4sI7aEDb0KsjCOonGmDP
eOBkP+CM90LYNxhnXTQjK+bgAciLPoAf+v48L1R85p4jCN/FjjJEf8t15JhccB2h
Rez6jbNPIjGAZyL6QP8CAwEAAaNQME4wDAYDVR0TAQH/BAIwADAdBgNVHQ4EFgQU
9eb0HP7G575rfSC6EiO14lSp20MwHwYDVR0jBBgwFoAU7ASdUkITPAva7x1+/YwC
9HT6JG0wDQYJKoZIhvcNAQELBQADggEBAIwfdbMgMxIHnDJBSHDgQQQmlnxaOvqG
b7mnEs6rPs1XmcuGfl31VUSzqkNfFlLonlalwxvT3HPuHExEe2QCXLhjOiwyX1l7
sv6GEuacgBE+hnZPZX2TJasSLrppBBkBvvslygrvbIniRPmOyQKIW4FNvPc4lhuL
D76COySJllpwlsGv7KWr/WEBmd3Ii77Q13CY6nIIDjpgf9g0hf8TN0ELhaYlQgrt
lCBLkQwli/XhZXlTzwABuCXfiEV1agWpOW6u24PHWzec3X8Ps9E3uT1DUHuz8GLf
9FGOj0oEQDglqPYFWiDcLXCg8a/TwfgLnzhEnRq9zkdvIRVQuRlOYIk=
-----END CERTIFICATE-----
