Certificate:
    Data:
        Version: 3 (0x2)
        Serial Number: 23 (0x17)
    Signature Algorithm: sha256WithRSAEncryption
        Issuer: C=US, ST=California, L=Santa Clara, O=pkg5, CN=ch1_ta3/emailAddress=ch1_ta3
        Validity
            Not Before: Dec  6 03:06:43 2014 GMT
            Not After : Sep  1 03:06:43 2017 GMT
        Subject: C=US, ST=California, L=Santa Clara, O=pkg5, CN=cs7_ch1_ta3/emailAddress=cs7_ch1_ta3
        Subject Public Key Info:
            Public Key Algorithm: rsaEncryption
                Public-Key: (1024 bit)
                Modulus:
                    00:b6:38:3a:55:b1:4f:ad:8b:3c:1a:66:b7:ca:de:
                    9d:47:aa:0e:93:b7:c9:b5:6e:91:33:02:ec:93:75:
                    3b:7e:32:b8:3f:83:23:c4:cc:68:18:9d:dd:04:04:
                    a8:9e:d6:2f:4c:a3:28:66:8b:ea:7e:de:db:2d:8b:
                    28:7e:c2:7f:97:37:41:18:b5:bc:a6:86:32:18:88:
                    a6:86:4b:c2:a9:14:c9:fe:76:be:1b:9a:2b:0a:b6:
                    a9:21:32:eb:3a:a4:6e:c0:d4:ee:f1:6c:ca:c9:8f:
                    97:02:d2:fa:db:16:1c:9f:0e:6a:fc:3b:8a:c7:ba:
                    ce:1a:54:3d:e3:c4:81:2c:63
                Exponent: 65537 (0x10001)
        X509v3 extensions:
            X509v3 Basic Constraints: critical
                CA:FALSE
    Signature Algorithm: sha256WithRSAEncryption
         34:f9:d4:b5:06:85:aa:c4:16:50:c0:a7:5d:2d:b8:e9:50:1b:
         5f:a1:0d:d6:cc:0f:6f:75:cc:7e:31:96:64:61:62:b1:99:53:
         76:f9:00:ec:ef:b2:48:77:89:d4:85:fb:ba:00:77:b5:95:92:
         c6:a2:31:e9:13:c6:34:07:32:54:15:d5:b0:32:5a:5a:e1:de:
         5b:75:b6:87:da:27:46:a5:52:5d:c8:69:e7:eb:f4:b3:11:29:
         ad:0c:ec:ae:6d:40:90:91:70:71:4d:ae:0a:cc:67:b5:59:b7:
         6b:ca:61:5d:8d:df:a0:ea:63:f8:33:d2:fa:8c:b3:0d:97:41:
         35:52
-----BEGIN CERTIFICATE-----
MIICcDCCAdmgAwIBAgIBFzANBgkqhkiG9w0BAQsFADBxMQswCQYDVQQGEwJVUzET
MBEGA1UECAwKQ2FsaWZvcm5pYTEUMBIGA1UEBwwLU2FudGEgQ2xhcmExDTALBgNV
BAoMBHBrZzUxEDAOBgNVBAMMB2NoMV90YTMxFjAUBgkqhkiG9w0BCQEWB2NoMV90
YTMwHhcNMTQxMjA2MDMwNjQzWhcNMTcwOTAxMDMwNjQzWjB5MQswCQYDVQQGEwJV
UzETMBEGA1UECAwKQ2FsaWZvcm5pYTEUMBIGA1UEBwwLU2FudGEgQ2xhcmExDTAL
BgNVBAoMBHBrZzUxFDASBgNVBAMMC2NzN19jaDFfdGEzMRowGAYJKoZIhvcNAQkB
FgtjczdfY2gxX3RhMzCBnzANBgkqhkiG9w0BAQEFAAOBjQAwgYkCgYEAtjg6VbFP
rYs8Gma3yt6dR6oOk7fJtW6RMwLsk3U7fjK4P4MjxMxoGJ3dBASontYvTKMoZovq
ft7bLYsofsJ/lzdBGLW8poYyGIimhkvCqRTJ/na+G5orCrapITLrOqRuwNTu8WzK
yY+XAtL62xYcnw5q/DuKx7rOGlQ948SBLGMCAwEAAaMQMA4wDAYDVR0TAQH/BAIw
ADANBgkqhkiG9w0BAQsFAAOBgQA0+dS1BoWqxBZQwKddLbjpUBtfoQ3WzA9vdcx+
MZZkYWKxmVN2+QDs77JId4nUhfu6AHe1lZLGojHpE8Y0BzJUFdWwMlpa4d5bdbaH
2idGpVJdyGnn6/SzESmtDOyubUCQkXBxTa4KzGe1WbdrymFdjd+g6mP4M9L6jLMN
l0E1Ug==
-----END CERTIFICATE-----
