Certificate:
    Data:
        Version: 3 (0x2)
        Serial Number: 23 (0x17)
        Signature Algorithm: sha256WithRSAEncryption
        Issuer: C=US, ST=California, L=Santa Clara, O=pkg5, CN=ch1_ta3/emailAddress=ch1_ta3
        Validity
            Not Before: Nov 14 14:26:55 2024 GMT
            Not After : Aug 11 14:26:55 2027 GMT
        Subject: C=US, ST=California, L=Santa Clara, O=pkg5, CN=cs7_ch1_ta3/emailAddress=cs7_ch1_ta3
        Subject Public Key Info:
            Public Key Algorithm: rsaEncryption
                Public-Key: (2048 bit)
                Modulus:
                    00:c8:06:a8:d0:14:e1:03:2e:05:4f:9f:b1:61:bd:
                    13:23:c7:3e:3c:5d:ba:a4:86:33:4e:8a:0d:40:62:
                    82:88:b9:d8:fd:2b:ab:c8:a0:7b:6d:cc:e2:d5:7c:
                    80:5e:0b:e6:2c:9d:ef:39:30:bb:7d:ed:88:61:d7:
                    98:c5:3d:fd:ed:f4:9a:12:60:e9:8d:de:38:2c:1d:
                    f3:ac:9d:c1:dd:38:c1:fe:d1:e1:79:5d:84:6b:75:
                    95:4b:16:ae:f4:f0:9e:56:e6:2b:90:15:ed:3e:3e:
                    d2:8b:34:21:ce:fa:f0:ce:f2:58:c8:2a:8c:db:ae:
                    c5:ee:85:a7:c8:3f:f7:85:9e:0e:82:ec:07:fc:cc:
                    3b:ee:9e:f8:98:0d:92:05:94:62:a1:a8:94:bd:a3:
                    b9:e2:79:77:72:47:d0:d4:d8:b4:5b:5e:fd:3b:c2:
                    54:f0:82:97:43:c0:13:1b:37:85:40:25:f7:4a:fa:
                    60:22:36:a2:8f:74:73:18:5a:2d:f2:da:4b:11:fe:
                    8c:4b:60:78:26:2d:f4:e6:c6:ec:1f:06:fd:7c:50:
                    6c:a8:cd:28:86:73:c1:54:f9:35:b2:35:48:f0:19:
                    b3:16:9d:79:73:64:ce:88:c2:76:aa:1c:bb:d2:d8:
                    49:49:21:ce:92:6e:fe:cd:a4:36:3f:7b:75:b9:1b:
                    b2:9b
                Exponent: 65537 (0x10001)
        X509v3 extensions:
            X509v3 Basic Constraints: critical
                CA:FALSE
            X509v3 Subject Key Identifier: 
                8E:7F:2A:52:03:46:A2:8F:2A:40:27:2A:0E:8A:62:3C:A2:5A:6B:C9
            X509v3 Authority Key Identifier: 
                AD:BE:5E:36:0D:CA:1F:58:96:99:52:1F:30:4B:F4:16:7A:8D:9E:7F
    Signature Algorithm: sha256WithRSAEncryption
    Signature Value:
        ab:d1:fc:c6:b7:ad:25:fe:29:55:a1:82:79:b2:8d:13:ce:67:
        84:80:2e:13:5e:5a:9e:b5:db:9a:f8:08:75:cb:e5:bb:59:bf:
        e3:ba:5a:af:6b:94:31:83:68:19:1a:93:33:0a:b3:1d:e0:bc:
        6f:72:5a:c2:e4:28:a6:68:76:c4:ed:a0:ec:54:6b:59:2f:f9:
        fd:f3:16:56:b7:a1:6d:19:37:1d:10:5f:9a:4e:f5:96:b0:b7:
        3f:af:47:ea:1b:ce:ed:2a:4e:4e:83:5e:b0:3b:c9:5d:61:b7:
        c3:d0:75:26:4b:00:6c:da:42:21:41:79:d1:a4:9f:6c:a3:76:
        f5:d2:b4:74:db:ac:5b:94:ef:d5:10:fd:2c:80:9b:23:93:0d:
        03:9f:89:d4:d8:d8:bb:54:6d:48:66:87:d1:7c:f3:13:b2:52:
        8b:75:a0:03:2b:1e:7f:3e:2f:77:e3:a5:4f:a7:5b:e3:d5:41:
        78:5d:09:08:12:da:e5:21:9c:31:25:12:6e:eb:81:d5:32:af:
        68:1f:66:79:ae:b9:e3:17:e8:05:47:8b:2c:22:66:31:b5:82:
        cb:6f:8d:6a:3d:5f:0d:6a:78:9d:3a:0f:63:77:10:8d:d5:94:
        2d:27:ee:ff:98:01:ab:e5:2f:51:f5:c2:2e:86:8b:f8:0f:fc:
        60:6f:30:d4
-----BEGIN CERTIFICATE-----
MIIDtTCCAp2gAwIBAgIBFzANBgkqhkiG9w0BAQsFADBxMQswCQYDVQQGEwJVUzET
MBEGA1UECAwKQ2FsaWZvcm5pYTEUMBIGA1UEBwwLU2FudGEgQ2xhcmExDTALBgNV
BAoMBHBrZzUxEDAOBgNVBAMMB2NoMV90YTMxFjAUBgkqhkiG9w0BCQEWB2NoMV90
YTMwHhcNMjQxMTE0MTQyNjU1WhcNMjcwODExMTQyNjU1WjB5MQswCQYDVQQGEwJV
UzETMBEGA1UECAwKQ2FsaWZvcm5pYTEUMBIGA1UEBwwLU2FudGEgQ2xhcmExDTAL
BgNVBAoMBHBrZzUxFDASBgNVBAMMC2NzN19jaDFfdGEzMRowGAYJKoZIhvcNAQkB
FgtjczdfY2gxX3RhMzCCASIwDQYJKoZIhvcNAQEBBQADggEPADCCAQoCggEBAMgG
qNAU4QMuBU+fsWG9EyPHPjxduqSGM06KDUBigoi52P0rq8ige23M4tV8gF4L5iyd
7zkwu33tiGHXmMU9/e30mhJg6Y3eOCwd86ydwd04wf7R4XldhGt1lUsWrvTwnlbm
K5AV7T4+0os0Ic768M7yWMgqjNuuxe6Fp8g/94WeDoLsB/zMO+6e+JgNkgWUYqGo
lL2jueJ5d3JH0NTYtFte/TvCVPCCl0PAExs3hUAl90r6YCI2oo90cxhaLfLaSxH+
jEtgeCYt9ObG7B8G/XxQbKjNKIZzwVT5NbI1SPAZsxadeXNkzojCdqocu9LYSUkh
zpJu/s2kNj97dbkbspsCAwEAAaNQME4wDAYDVR0TAQH/BAIwADAdBgNVHQ4EFgQU
jn8qUgNGoo8qQCcqDopiPKJaa8kwHwYDVR0jBBgwFoAUrb5eNg3KH1iWmVIfMEv0
FnqNnn8wDQYJKoZIhvcNAQELBQADggEBAKvR/Ma3rSX+KVWhgnmyjRPOZ4SALhNe
Wp6125r4CHXL5btZv+O6Wq9rlDGDaBkakzMKsx3gvG9yWsLkKKZodsTtoOxUa1kv
+f3zFla3oW0ZNx0QX5pO9Zawtz+vR+obzu0qTk6DXrA7yV1ht8PQdSZLAGzaQiFB
edGkn2yjdvXStHTbrFuU79UQ/SyAmyOTDQOfidTY2LtUbUhmh9F88xOyUot1oAMr
Hn8+L3fjpU+nW+PVQXhdCQgS2uUhnDElEm7rgdUyr2gfZnmuueMX6AVHiywiZjG1
gstvjWo9Xw1qeJ06D2N3EI3VlC0n7v+YAavlL1H1wi6Gi/gP/GBvMNQ=
-----END CERTIFICATE-----
