Certificate:
    Data:
        Version: 3 (0x2)
        Serial Number: 23 (0x17)
        Signature Algorithm: sha256WithRSAEncryption
        Issuer: C=US, ST=California, L=Santa Clara, O=pkg5, CN=ch1_ta3/emailAddress=ch1_ta3
        Validity
            Not Before: May 23 15:47:18 2024 GMT
            Not After : Feb 17 15:47:18 2027 GMT
        Subject: C=US, ST=California, L=Santa Clara, O=pkg5, CN=cs7_ch1_ta3/emailAddress=cs7_ch1_ta3
        Subject Public Key Info:
            Public Key Algorithm: rsaEncryption
                Public-Key: (2048 bit)
                Modulus:
                    00:a6:1f:40:06:8d:c8:f0:a5:31:12:26:1a:36:c1:
                    cc:33:a2:35:9a:d6:bb:11:b9:b6:40:14:6a:dc:37:
                    9e:d6:4b:68:57:47:81:a7:70:1b:03:89:f8:b0:e1:
                    f5:9c:bb:c3:8c:96:1a:76:88:97:c0:b4:95:60:78:
                    29:62:2a:0f:27:44:d6:59:40:49:54:f5:d8:d7:7f:
                    75:ef:c9:3f:0b:e1:97:da:b9:aa:0e:35:6a:c7:31:
                    f3:65:0c:1e:e8:c5:2a:5d:54:51:2a:84:9a:9b:d5:
                    1d:cd:09:62:0b:81:1f:d2:6c:a0:bd:0f:0a:33:d0:
                    73:80:04:8f:5c:43:62:a8:df:56:69:c1:81:71:d7:
                    00:6d:dd:1c:e6:d7:02:4c:4e:da:bb:eb:a3:44:e7:
                    8f:d7:b3:36:95:90:84:b1:a1:2c:c2:84:92:19:32:
                    17:b9:47:87:13:5d:22:04:76:69:a3:b2:ef:9f:39:
                    b6:e5:8f:37:a9:3f:88:a5:1d:8c:58:7a:cc:bc:3b:
                    fc:64:6d:a0:b5:fe:11:eb:9d:37:27:15:15:13:11:
                    2e:e8:de:c9:d8:2d:49:d7:cb:44:01:28:c5:a5:d9:
                    c8:32:74:7e:04:39:d7:a0:d3:b6:e8:e0:4c:d5:e3:
                    80:e4:cb:78:c6:ac:1d:5d:7d:76:88:fa:ac:fb:87:
                    7b:39
                Exponent: 65537 (0x10001)
        X509v3 extensions:
            X509v3 Basic Constraints: critical
                CA:FALSE
            X509v3 Subject Key Identifier: 
                C5:C9:1B:E2:38:E7:E1:35:87:C0:75:45:78:43:40:EC:65:41:75:C6
            X509v3 Authority Key Identifier: 
                69:A7:F1:E4:B7:F3:AC:28:7C:E9:9A:78:E3:CC:EF:00:89:C5:A4:C5
    Signature Algorithm: sha256WithRSAEncryption
    Signature Value:
        98:98:af:a6:67:8f:a4:31:af:36:00:5e:51:23:22:0b:17:ae:
        8c:ec:cd:b9:4b:c2:b6:d7:c6:d2:55:a8:75:f5:72:97:a9:0d:
        a9:c5:db:39:e3:24:5a:1e:02:50:73:37:ba:3e:98:03:05:3c:
        d7:dc:be:ad:c9:84:21:6d:fd:20:14:b3:14:20:d8:4e:57:3f:
        77:02:de:91:68:31:b1:bc:07:4a:28:c3:8c:2b:17:86:41:cf:
        6a:32:27:d9:b4:30:97:f8:c9:e4:19:11:ab:b5:46:08:da:98:
        e4:2f:c8:df:bb:04:74:54:94:aa:51:dc:9c:75:d5:23:48:85:
        e5:6f:68:71:bc:b9:7d:c1:54:f6:32:7d:cc:9a:d7:25:07:d6:
        d0:d5:7f:3a:39:c2:75:9b:06:b4:a7:0f:9e:f4:a7:1f:e4:b5:
        e1:65:3d:f6:ff:db:99:26:09:71:5c:69:5b:0a:3a:9b:c4:de:
        e0:40:ce:7c:54:eb:8b:1e:33:b8:48:57:79:71:b5:00:7e:c5:
        ce:c6:a5:fb:9a:7e:65:89:f6:ce:b0:87:5f:e3:80:30:d8:a5:
        dd:13:3f:a5:9c:19:ab:35:fe:6d:14:85:c1:78:b9:1c:aa:ee:
        7e:27:25:de:7c:c6:10:2c:63:72:65:24:7c:9b:eb:fc:da:6f:
        be:54:ef:cc
-----BEGIN CERTIFICATE-----
MIIDtTCCAp2gAwIBAgIBFzANBgkqhkiG9w0BAQsFADBxMQswCQYDVQQGEwJVUzET
MBEGA1UECAwKQ2FsaWZvcm5pYTEUMBIGA1UEBwwLU2FudGEgQ2xhcmExDTALBgNV
BAoMBHBrZzUxEDAOBgNVBAMMB2NoMV90YTMxFjAUBgkqhkiG9w0BCQEWB2NoMV90
YTMwHhcNMjQwNTIzMTU0NzE4WhcNMjcwMjE3MTU0NzE4WjB5MQswCQYDVQQGEwJV
UzETMBEGA1UECAwKQ2FsaWZvcm5pYTEUMBIGA1UEBwwLU2FudGEgQ2xhcmExDTAL
BgNVBAoMBHBrZzUxFDASBgNVBAMMC2NzN19jaDFfdGEzMRowGAYJKoZIhvcNAQkB
FgtjczdfY2gxX3RhMzCCASIwDQYJKoZIhvcNAQEBBQADggEPADCCAQoCggEBAKYf
QAaNyPClMRImGjbBzDOiNZrWuxG5tkAUatw3ntZLaFdHgadwGwOJ+LDh9Zy7w4yW
GnaIl8C0lWB4KWIqDydE1llASVT12Nd/de/JPwvhl9q5qg41ascx82UMHujFKl1U
USqEmpvVHc0JYguBH9JsoL0PCjPQc4AEj1xDYqjfVmnBgXHXAG3dHObXAkxO2rvr
o0Tnj9ezNpWQhLGhLMKEkhkyF7lHhxNdIgR2aaOy7585tuWPN6k/iKUdjFh6zLw7
/GRtoLX+EeudNycVFRMRLujeydgtSdfLRAEoxaXZyDJ0fgQ516DTtujgTNXjgOTL
eMasHV19doj6rPuHezkCAwEAAaNQME4wDAYDVR0TAQH/BAIwADAdBgNVHQ4EFgQU
xckb4jjn4TWHwHVFeENA7GVBdcYwHwYDVR0jBBgwFoAUaafx5LfzrCh86Zp448zv
AInFpMUwDQYJKoZIhvcNAQELBQADggEBAJiYr6Znj6QxrzYAXlEjIgsXrozszblL
wrbXxtJVqHX1cpepDanF2znjJFoeAlBzN7o+mAMFPNfcvq3JhCFt/SAUsxQg2E5X
P3cC3pFoMbG8B0oow4wrF4ZBz2oyJ9m0MJf4yeQZEau1RgjamOQvyN+7BHRUlKpR
3Jx11SNIheVvaHG8uX3BVPYyfcya1yUH1tDVfzo5wnWbBrSnD570px/kteFlPfb/
25kmCXFcaVsKOpvE3uBAznxU64seM7hIV3lxtQB+xc7GpfuafmWJ9s6wh1/jgDDY
pd0TP6WcGas1/m0UhcF4uRyq7n4nJd58xhAsY3JlJHyb6/zab75U78w=
-----END CERTIFICATE-----
