Certificate:
    Data:
        Version: 3 (0x2)
        Serial Number: 23 (0x17)
        Signature Algorithm: sha256WithRSAEncryption
        Issuer: C=US, ST=California, L=Santa Clara, O=pkg5, CN=ch1_ta3/emailAddress=ch1_ta3
        Validity
            Not Before: Oct 22 10:15:13 2021 GMT
            Not After : Jul 18 10:15:13 2024 GMT
        Subject: C=US, ST=California, L=Santa Clara, O=pkg5, CN=cs7_ch1_ta3/emailAddress=cs7_ch1_ta3
        Subject Public Key Info:
            Public Key Algorithm: rsaEncryption
                Public-Key: (2048 bit)
                Modulus:
                    00:aa:cf:2e:4e:ee:1f:46:ef:1e:a1:19:41:39:89:
                    df:28:ad:7e:71:0d:2b:70:ee:cd:1b:d6:f7:bd:15:
                    d4:5a:f2:bf:dd:97:8e:8b:57:c0:7f:27:70:ac:e9:
                    5a:cd:92:03:52:ee:5a:53:ff:0c:53:45:d3:3a:eb:
                    bf:1c:66:2a:e6:4c:0a:e6:ca:29:bf:24:de:e5:1b:
                    a7:84:70:02:f9:6e:b6:4e:2a:1c:46:5c:6d:eb:3f:
                    db:9f:f2:e2:5e:26:b3:70:29:a5:9b:3b:05:d9:44:
                    f8:72:9c:64:5d:8f:3c:56:5c:82:55:0c:98:74:36:
                    cc:1a:74:54:2c:fd:cc:5a:5f:6a:8e:2d:19:71:ac:
                    f1:4a:8d:1f:be:f5:45:9b:19:9a:a3:78:a7:52:0a:
                    20:52:08:24:14:f1:4f:b3:6c:43:72:19:2a:fe:4b:
                    6e:a0:33:4a:eb:e0:c9:d1:84:c5:0e:b1:49:9a:97:
                    8e:66:d1:11:b2:11:ff:57:41:06:27:94:df:58:d8:
                    66:c3:6d:a3:d4:c6:c3:b2:1b:81:bb:f8:9e:33:87:
                    7d:bd:9a:a2:59:91:b1:f7:e4:95:0d:6d:16:99:dc:
                    9b:ca:d2:85:6d:03:70:e0:5d:91:5f:61:81:b4:52:
                    d0:4d:ab:04:87:5c:7f:3c:e2:c6:3c:30:9d:37:11:
                    5e:a1
                Exponent: 65537 (0x10001)
        X509v3 extensions:
            X509v3 Basic Constraints: critical
                CA:FALSE
            X509v3 Subject Key Identifier: 
                4A:CE:C5:DD:79:41:E1:7A:D2:A3:B6:6C:9C:BF:1A:0D:FC:2A:8D:6D
            X509v3 Authority Key Identifier: 
                D5:A6:1E:11:8A:90:CB:66:0F:10:66:77:01:DD:3A:8F:14:F0:85:C0
    Signature Algorithm: sha256WithRSAEncryption
    Signature Value:
        43:a1:3e:de:60:ba:bb:eb:61:49:ec:79:0c:3c:ab:dc:37:ba:
        6f:d3:56:1c:28:09:a0:2c:1f:76:f7:00:d1:15:eb:40:9d:85:
        8d:41:89:6f:17:bf:26:63:1e:13:ea:4f:2e:7b:1f:33:55:b6:
        c1:1c:f6:4a:de:ab:bc:9b:86:a5:f5:52:b8:36:22:d6:a5:be:
        0a:c2:fa:96:10:91:73:9b:75:ef:e9:1b:d2:dc:6f:69:13:24:
        8e:c9:89:81:17:d6:aa:8a:fb:41:d3:90:49:f5:22:b0:b4:40:
        ae:10:a2:0a:5d:48:f7:32:7b:fd:2f:46:03:3b:b6:90:a9:40:
        75:27:b4:97:5f:23:63:3d:6d:4b:6c:37:52:f9:7b:f4:01:7f:
        89:96:19:ab:10:59:66:37:5c:68:9e:78:c6:27:47:d0:51:4f:
        52:69:6c:9c:99:dd:06:50:e7:16:74:a1:de:24:f6:f2:e2:c1:
        ce:99:f1:5a:b4:3f:0e:b6:20:5f:ab:d8:df:4d:4e:52:9b:f5:
        88:cf:7e:2c:d1:13:93:14:1f:87:b0:c0:23:6a:9e:d4:dc:ff:
        db:1f:2c:27:80:49:5c:07:bd:72:df:04:44:71:27:ed:d5:47:
        44:67:00:24:db:48:ee:65:fe:ff:71:94:9d:2b:e9:9b:5d:7b:
        17:c6:64:d3
-----BEGIN CERTIFICATE-----
MIIDtTCCAp2gAwIBAgIBFzANBgkqhkiG9w0BAQsFADBxMQswCQYDVQQGEwJVUzET
MBEGA1UECAwKQ2FsaWZvcm5pYTEUMBIGA1UEBwwLU2FudGEgQ2xhcmExDTALBgNV
BAoMBHBrZzUxEDAOBgNVBAMMB2NoMV90YTMxFjAUBgkqhkiG9w0BCQEWB2NoMV90
YTMwHhcNMjExMDIyMTAxNTEzWhcNMjQwNzE4MTAxNTEzWjB5MQswCQYDVQQGEwJV
UzETMBEGA1UECAwKQ2FsaWZvcm5pYTEUMBIGA1UEBwwLU2FudGEgQ2xhcmExDTAL
BgNVBAoMBHBrZzUxFDASBgNVBAMMC2NzN19jaDFfdGEzMRowGAYJKoZIhvcNAQkB
FgtjczdfY2gxX3RhMzCCASIwDQYJKoZIhvcNAQEBBQADggEPADCCAQoCggEBAKrP
Lk7uH0bvHqEZQTmJ3yitfnENK3DuzRvW970V1Fryv92XjotXwH8ncKzpWs2SA1Lu
WlP/DFNF0zrrvxxmKuZMCubKKb8k3uUbp4RwAvlutk4qHEZcbes/25/y4l4ms3Ap
pZs7BdlE+HKcZF2PPFZcglUMmHQ2zBp0VCz9zFpfao4tGXGs8UqNH771RZsZmqN4
p1IKIFIIJBTxT7NsQ3IZKv5LbqAzSuvgydGExQ6xSZqXjmbREbIR/1dBBieU31jY
ZsNto9TGw7Ibgbv4njOHfb2aolmRsffklQ1tFpncm8rShW0DcOBdkV9hgbRS0E2r
BIdcfzzixjwwnTcRXqECAwEAAaNQME4wDAYDVR0TAQH/BAIwADAdBgNVHQ4EFgQU
Ss7F3XlB4XrSo7ZsnL8aDfwqjW0wHwYDVR0jBBgwFoAU1aYeEYqQy2YPEGZ3Ad06
jxTwhcAwDQYJKoZIhvcNAQELBQADggEBAEOhPt5gurvrYUnseQw8q9w3um/TVhwo
CaAsH3b3ANEV60CdhY1BiW8XvyZjHhPqTy57HzNVtsEc9kreq7ybhqX1Urg2Ital
vgrC+pYQkXObde/pG9Lcb2kTJI7JiYEX1qqK+0HTkEn1IrC0QK4QogpdSPcye/0v
RgM7tpCpQHUntJdfI2M9bUtsN1L5e/QBf4mWGasQWWY3XGieeMYnR9BRT1JpbJyZ
3QZQ5xZ0od4k9vLiwc6Z8Vq0Pw62IF+r2N9NTlKb9YjPfizRE5MUH4ewwCNqntTc
/9sfLCeASVwHvXLfBERxJ+3VR0RnACTbSO5l/v9xlJ0r6ZtdexfGZNM=
-----END CERTIFICATE-----
