Certificate:
    Data:
        Version: 3 (0x2)
        Serial Number: 24 (0x18)
        Signature Algorithm: sha256WithRSAEncryption
        Issuer: C=US, ST=California, L=Santa Clara, O=pkg5, CN=ch1_ta3/emailAddress=ch1_ta3
        Validity
            Not Before: Nov 14 14:26:55 2024 GMT
            Not After : Aug 11 14:26:55 2027 GMT
        Subject: C=US, ST=California, L=Santa Clara, O=pkg5, CN=cs8_ch1_ta3/emailAddress=cs8_ch1_ta3
        Subject Public Key Info:
            Public Key Algorithm: rsaEncryption
                Public-Key: (2048 bit)
                Modulus:
                    00:95:35:83:e9:96:5e:94:00:5f:b0:de:f2:7d:a5:
                    c0:7a:1c:38:10:2e:ae:cd:68:fa:1d:36:c0:7b:40:
                    4e:17:50:5e:fa:14:3f:62:6e:f2:2b:57:d9:bf:dc:
                    e0:bd:b4:fa:b3:f1:a4:d0:90:41:86:ad:e6:70:af:
                    cd:1f:b1:f2:6b:cf:46:74:e0:b8:93:50:d9:be:2e:
                    ed:a0:f6:b4:53:2a:d4:2b:2d:35:a9:80:be:43:6b:
                    45:c3:85:c0:cb:8d:65:4e:41:70:94:49:c9:22:ea:
                    9a:c5:25:0e:a7:a8:bd:b3:3f:28:e7:ca:a1:53:09:
                    fd:ed:19:1e:75:53:59:0d:fd:f3:57:7f:27:30:42:
                    b2:78:13:12:27:ec:e1:c5:36:bd:a3:ba:83:8e:03:
                    71:fd:84:c1:4a:20:d0:49:11:5e:44:60:98:e2:b2:
                    91:06:f9:9f:fa:a7:2a:57:e8:bc:b4:70:e8:92:77:
                    a3:65:c9:6e:5d:a7:f2:83:3c:06:c3:65:55:b9:22:
                    83:cf:50:31:f4:eb:13:ff:9b:34:b7:2c:29:27:6d:
                    e1:38:d0:05:20:5e:e1:5a:0d:11:96:52:99:90:b9:
                    48:78:d5:55:82:3d:d0:34:8e:d0:7d:4a:3e:29:e6:
                    ab:5f:44:7c:11:b2:d4:2d:19:ed:0f:f5:92:68:51:
                    f7:33
                Exponent: 65537 (0x10001)
        X509v3 extensions:
            X509v3 Basic Constraints: critical
                CA:TRUE
            X509v3 Key Usage: critical
                Digital Signature
            X509v3 Subject Key Identifier: 
                13:61:2E:3B:AB:A7:07:FB:C7:D2:15:94:01:39:7C:44:E2:DC:52:6A
            X509v3 Authority Key Identifier: 
                AD:BE:5E:36:0D:CA:1F:58:96:99:52:1F:30:4B:F4:16:7A:8D:9E:7F
    Signature Algorithm: sha256WithRSAEncryption
    Signature Value:
        39:a8:36:ce:bd:ea:61:01:bf:f0:4f:8f:98:c9:a6:ae:4c:ed:
        70:d8:65:90:f3:14:2e:f4:f7:e8:aa:d6:7a:af:e0:bb:6c:d9:
        0f:13:26:b7:bf:ba:e3:44:c9:ae:42:06:32:6f:2a:2f:c5:9f:
        42:f0:ef:ee:13:5a:a9:ef:a4:b3:60:c4:3e:e1:58:b6:10:b5:
        12:ce:45:bf:f1:d8:36:7b:ba:da:9c:6f:e4:de:68:ca:bd:9c:
        3a:72:63:7e:2a:8b:ba:dd:26:85:73:90:46:b0:25:00:d9:86:
        8b:c0:ec:2f:c4:bc:f8:7e:5a:55:f9:10:14:ca:da:6a:57:39:
        ca:d9:ee:29:43:f6:39:1f:ec:fa:56:f6:a7:ca:eb:86:1c:5c:
        b7:2a:61:20:d0:5f:e4:81:ee:4f:d1:dd:e8:ab:7c:d0:3b:60:
        d3:51:c2:c4:cb:ea:5e:21:b4:8c:ce:81:51:0d:1b:c9:19:e4:
        c0:48:92:6f:04:83:ba:95:87:ce:bb:1a:7b:1e:02:9b:2b:5b:
        06:30:eb:31:3a:28:03:2b:13:1e:8d:aa:25:1c:15:c3:f4:35:
        ad:0d:c0:54:d1:65:b0:9e:00:37:6d:bc:42:c5:58:f8:29:69:
        c6:f9:a3:74:44:88:a1:df:45:45:57:8f:a8:67:41:65:99:43:
        3d:71:2a:2e
-----BEGIN CERTIFICATE-----
MIIDyDCCArCgAwIBAgIBGDANBgkqhkiG9w0BAQsFADBxMQswCQYDVQQGEwJVUzET
MBEGA1UECAwKQ2FsaWZvcm5pYTEUMBIGA1UEBwwLU2FudGEgQ2xhcmExDTALBgNV
BAoMBHBrZzUxEDAOBgNVBAMMB2NoMV90YTMxFjAUBgkqhkiG9w0BCQEWB2NoMV90
YTMwHhcNMjQxMTE0MTQyNjU1WhcNMjcwODExMTQyNjU1WjB5MQswCQYDVQQGEwJV
UzETMBEGA1UECAwKQ2FsaWZvcm5pYTEUMBIGA1UEBwwLU2FudGEgQ2xhcmExDTAL
BgNVBAoMBHBrZzUxFDASBgNVBAMMC2NzOF9jaDFfdGEzMRowGAYJKoZIhvcNAQkB
FgtjczhfY2gxX3RhMzCCASIwDQYJKoZIhvcNAQEBBQADggEPADCCAQoCggEBAJU1
g+mWXpQAX7De8n2lwHocOBAurs1o+h02wHtAThdQXvoUP2Ju8itX2b/c4L20+rPx
pNCQQYat5nCvzR+x8mvPRnTguJNQ2b4u7aD2tFMq1CstNamAvkNrRcOFwMuNZU5B
cJRJySLqmsUlDqeovbM/KOfKoVMJ/e0ZHnVTWQ3981d/JzBCsngTEifs4cU2vaO6
g44Dcf2EwUog0EkRXkRgmOKykQb5n/qnKlfovLRw6JJ3o2XJbl2n8oM8BsNlVbki
g89QMfTrE/+bNLcsKSdt4TjQBSBe4VoNEZZSmZC5SHjVVYI90DSO0H1KPinmq19E
fBGy1C0Z7Q/1kmhR9zMCAwEAAaNjMGEwDwYDVR0TAQH/BAUwAwEB/zAOBgNVHQ8B
Af8EBAMCB4AwHQYDVR0OBBYEFBNhLjurpwf7x9IVlAE5fETi3FJqMB8GA1UdIwQY
MBaAFK2+XjYNyh9YlplSHzBL9BZ6jZ5/MA0GCSqGSIb3DQEBCwUAA4IBAQA5qDbO
vephAb/wT4+YyaauTO1w2GWQ8xQu9PfoqtZ6r+C7bNkPEya3v7rjRMmuQgYybyov
xZ9C8O/uE1qp76SzYMQ+4Vi2ELUSzkW/8dg2e7ranG/k3mjKvZw6cmN+Kou63SaF
c5BGsCUA2YaLwOwvxLz4flpV+RAUytpqVznK2e4pQ/Y5H+z6VvanyuuGHFy3KmEg
0F/kge5P0d3oq3zQO2DTUcLEy+peIbSMzoFRDRvJGeTASJJvBIO6lYfOuxp7HgKb
K1sGMOsxOigDKxMejaolHBXD9DWtDcBU0WWwngA3bbxCxVj4KWnG+aN0RIih30VF
V4+oZ0FlmUM9cSou
-----END CERTIFICATE-----
