Certificate:
    Data:
        Version: 3 (0x2)
        Serial Number: 24 (0x18)
    Signature Algorithm: sha256WithRSAEncryption
        Issuer: C=US, ST=California, L=Santa Clara, O=pkg5, CN=ch1_ta3/emailAddress=ch1_ta3
        Validity
            Not Before: Nov 28 22:50:56 2016 GMT
            Not After : Aug 25 22:50:56 2019 GMT
        Subject: C=US, ST=California, L=Santa Clara, O=pkg5, CN=cs8_ch1_ta3/emailAddress=cs8_ch1_ta3
        Subject Public Key Info:
            Public Key Algorithm: rsaEncryption
                Public-Key: (1024 bit)
                Modulus:
                    00:b7:6e:5d:9a:1f:b9:d4:fe:0d:c3:8f:bf:80:2f:
                    0b:7f:f9:8c:22:92:4a:0a:dc:1d:20:4c:31:d1:9d:
                    a3:0b:31:c5:73:b3:de:f9:df:66:06:f9:8c:eb:b1:
                    0b:d5:32:1c:48:d6:d4:05:e9:d3:69:c7:d1:71:e7:
                    6c:b5:a5:3b:2c:fa:76:80:70:e5:e1:fa:5a:7f:16:
                    e1:07:3f:18:e0:a8:70:cf:ea:73:e7:37:8a:17:a8:
                    97:fa:fc:aa:64:96:f0:d7:5d:3b:96:78:27:b5:77:
                    95:25:07:d7:c7:ba:7c:16:32:c8:7c:e4:67:27:d0:
                    13:e8:1b:56:c8:fc:64:03:8f
                Exponent: 65537 (0x10001)
        X509v3 extensions:
            X509v3 Basic Constraints: critical
                CA:TRUE
            X509v3 Key Usage: critical
                Digital Signature
    Signature Algorithm: sha256WithRSAEncryption
         27:60:8a:37:a2:26:84:7c:38:0d:2e:c7:3c:dc:c1:34:0c:0d:
         ef:e2:f1:23:10:6c:b8:34:41:37:76:e4:89:9e:3b:c1:a0:96:
         5b:50:92:ae:8f:7a:66:ee:bc:ab:48:ab:d5:c2:a9:e4:80:ec:
         3c:0a:da:06:19:29:9a:9c:d7:73:de:fb:0f:41:c1:fb:98:7c:
         15:de:18:18:b1:c3:6f:fe:e5:db:09:85:d0:1b:90:c8:f6:6b:
         41:b3:0d:7e:57:a2:20:d1:90:51:76:fe:74:bc:ac:e3:e3:16:
         a6:48:34:96:48:73:bf:6a:92:1e:61:05:f8:ca:26:68:2f:5f:
         b8:b4:3a:dc:53:77:ba:b8:94:73:e6:fd:fd:fa:ce:3a:9f:52:
         86:27:b0:e8:89:43:fb:29:57:b6:37:6e:5b:de:7e:a4:4d:73:
         ad:b9:6a:52:bc:52:ca:77:28:3d:8b:9e:1e:45:0a:09:57:72:
         35:e3:62:d0:7b:61:76:58:f6:ee:35:dd:55:f7:e4:bf:68:11:
         ff:ff:bc:3f:c1:c7:12:03:4f:c2:25:ba:89:16:cb:8d:ed:b8:
         d6:76:e7:60:b8:15:4f:ce:38:8f:b1:e3:c8:6d:55:d1:33:60:
         af:25:78:ef:96:2c:70:b4:61:ee:d6:f2:04:cb:78:58:0e:8b:
         4e:d8:71:94
-----BEGIN CERTIFICATE-----
MIIDBDCCAeygAwIBAgIBGDANBgkqhkiG9w0BAQsFADBxMQswCQYDVQQGEwJVUzET
MBEGA1UECAwKQ2FsaWZvcm5pYTEUMBIGA1UEBwwLU2FudGEgQ2xhcmExDTALBgNV
BAoMBHBrZzUxEDAOBgNVBAMMB2NoMV90YTMxFjAUBgkqhkiG9w0BCQEWB2NoMV90
YTMwHhcNMTYxMTI4MjI1MDU2WhcNMTkwODI1MjI1MDU2WjB5MQswCQYDVQQGEwJV
UzETMBEGA1UECAwKQ2FsaWZvcm5pYTEUMBIGA1UEBwwLU2FudGEgQ2xhcmExDTAL
BgNVBAoMBHBrZzUxFDASBgNVBAMMC2NzOF9jaDFfdGEzMRowGAYJKoZIhvcNAQkB
FgtjczhfY2gxX3RhMzCBnzANBgkqhkiG9w0BAQEFAAOBjQAwgYkCgYEAt25dmh+5
1P4Nw4+/gC8Lf/mMIpJKCtwdIEwx0Z2jCzHFc7Pe+d9mBvmM67EL1TIcSNbUBenT
acfRcedstaU7LPp2gHDl4fpafxbhBz8Y4Khwz+pz5zeKF6iX+vyqZJbw1107lngn
tXeVJQfXx7p8FjLIfORnJ9AT6BtWyPxkA48CAwEAAaMjMCEwDwYDVR0TAQH/BAUw
AwEB/zAOBgNVHQ8BAf8EBAMCB4AwDQYJKoZIhvcNAQELBQADggEBACdgijeiJoR8
OA0uxzzcwTQMDe/i8SMQbLg0QTd25ImeO8GglltQkq6PembuvKtIq9XCqeSA7DwK
2gYZKZqc13Pe+w9BwfuYfBXeGBixw2/+5dsJhdAbkMj2a0GzDX5XoiDRkFF2/nS8
rOPjFqZINJZIc79qkh5hBfjKJmgvX7i0OtxTd7q4lHPm/f36zjqfUoYnsOiJQ/sp
V7Y3blvefqRNc625alK8Usp3KD2Lnh5FCglXcjXjYtB7YXZY9u413VX35L9oEf//
vD/BxxIDT8IluokWy43tuNZ252C4FU/OOI+x48htVdEzYK8leO+WLHC0Ye7W8gTL
eFgOi07YcZQ=
-----END CERTIFICATE-----
