Certificate:
    Data:
        Version: 3 (0x2)
        Serial Number: 24 (0x18)
    Signature Algorithm: sha256WithRSAEncryption
        Issuer: C=US, ST=California, L=Santa Clara, O=pkg5, CN=ch1_ta3/emailAddress=ch1_ta3
        Validity
            Not Before: Mar 20 10:20:54 2018 GMT
            Not After : Dec 14 10:20:54 2020 GMT
        Subject: C=US, ST=California, L=Santa Clara, O=pkg5, CN=cs8_ch1_ta3/emailAddress=cs8_ch1_ta3
        Subject Public Key Info:
            Public Key Algorithm: rsaEncryption
                Public-Key: (1024 bit)
                Modulus:
                    00:b8:9b:f9:b0:4e:36:ba:0a:cd:b7:35:1a:9d:f1:
                    f5:a3:6c:df:0a:c5:32:eb:fa:ec:5b:fd:18:de:0e:
                    d5:76:80:95:d4:6c:b7:9c:78:1b:f1:8e:02:8b:84:
                    b5:56:d7:58:f6:fc:3d:5b:60:28:5a:fb:6e:df:0b:
                    eb:cf:43:52:76:62:0e:70:71:ab:2b:73:27:69:32:
                    8d:cf:17:b0:bd:e5:b7:6a:24:9c:72:bc:4d:4b:90:
                    7c:68:55:d0:1a:c1:ba:94:69:02:67:c5:c7:25:96:
                    7a:23:06:29:c8:07:2e:2b:63:3f:a1:b5:b9:f3:b2:
                    4b:7f:2a:4c:f5:5e:f6:51:7b
                Exponent: 65537 (0x10001)
        X509v3 extensions:
            X509v3 Basic Constraints: critical
                CA:TRUE
            X509v3 Key Usage: critical
                Digital Signature
    Signature Algorithm: sha256WithRSAEncryption
         88:b5:ca:c0:78:b9:a4:31:fe:45:9b:ba:19:03:8c:7c:39:f2:
         15:cf:a6:90:9d:27:22:22:41:bc:1f:be:ea:7e:b4:cf:ad:07:
         0e:8e:a0:c7:e4:2b:a8:27:39:1d:3a:ea:10:07:77:0b:f4:0f:
         8f:3d:77:3b:6d:f2:80:d3:77:c3:9e:24:03:67:5b:29:e2:fe:
         cf:c9:d6:33:5e:b6:00:31:0a:94:8c:11:7e:d2:33:55:95:b2:
         73:bb:7d:c9:11:d1:09:ad:ad:e4:8d:fd:28:f7:7d:a7:fd:39:
         f6:b5:0e:e7:4f:22:7c:9c:f6:ac:d1:34:89:cb:b6:e8:da:1e:
         e0:2d:3b:60:2d:90:0d:f3:52:10:48:9f:03:0f:e6:b1:d4:f3:
         31:3f:7e:84:2f:92:ca:db:29:5b:50:58:07:56:34:b7:4a:54:
         cb:cf:03:41:75:a8:4f:c4:ad:16:dd:56:27:d6:d5:df:3d:ae:
         f2:58:37:6f:1f:e2:c4:fe:5a:b5:66:53:85:fe:5a:e7:f2:f9:
         fa:20:e6:1c:54:0a:0c:7a:8d:01:01:9e:0e:61:bc:3a:88:a6:
         42:ac:35:6f:84:50:2e:70:d3:1c:25:0c:05:e1:ab:a6:10:36:
         e0:0d:69:a5:b7:40:7e:d1:3a:66:28:d8:ab:5d:c0:fd:0d:6d:
         aa:19:3e:50
-----BEGIN CERTIFICATE-----
MIIDBDCCAeygAwIBAgIBGDANBgkqhkiG9w0BAQsFADBxMQswCQYDVQQGEwJVUzET
MBEGA1UECAwKQ2FsaWZvcm5pYTEUMBIGA1UEBwwLU2FudGEgQ2xhcmExDTALBgNV
BAoMBHBrZzUxEDAOBgNVBAMMB2NoMV90YTMxFjAUBgkqhkiG9w0BCQEWB2NoMV90
YTMwHhcNMTgwMzIwMTAyMDU0WhcNMjAxMjE0MTAyMDU0WjB5MQswCQYDVQQGEwJV
UzETMBEGA1UECAwKQ2FsaWZvcm5pYTEUMBIGA1UEBwwLU2FudGEgQ2xhcmExDTAL
BgNVBAoMBHBrZzUxFDASBgNVBAMMC2NzOF9jaDFfdGEzMRowGAYJKoZIhvcNAQkB
FgtjczhfY2gxX3RhMzCBnzANBgkqhkiG9w0BAQEFAAOBjQAwgYkCgYEAuJv5sE42
ugrNtzUanfH1o2zfCsUy6/rsW/0Y3g7VdoCV1Gy3nHgb8Y4Ci4S1VtdY9vw9W2Ao
Wvtu3wvrz0NSdmIOcHGrK3MnaTKNzxewveW3aiSccrxNS5B8aFXQGsG6lGkCZ8XH
JZZ6IwYpyAcuK2M/obW587JLfypM9V72UXsCAwEAAaMjMCEwDwYDVR0TAQH/BAUw
AwEB/zAOBgNVHQ8BAf8EBAMCB4AwDQYJKoZIhvcNAQELBQADggEBAIi1ysB4uaQx
/kWbuhkDjHw58hXPppCdJyIiQbwfvup+tM+tBw6OoMfkK6gnOR066hAHdwv0D489
dztt8oDTd8OeJANnWyni/s/J1jNetgAxCpSMEX7SM1WVsnO7fckR0QmtreSN/Sj3
faf9Ofa1DudPInyc9qzRNInLtujaHuAtO2AtkA3zUhBInwMP5rHU8zE/foQvksrb
KVtQWAdWNLdKVMvPA0F1qE/ErRbdVifW1d89rvJYN28f4sT+WrVmU4X+Wufy+fog
5hxUCgx6jQEBng5hvDqIpkKsNW+EUC5w0xwlDAXhq6YQNuANaaW3QH7ROmYo2Ktd
wP0NbaoZPlA=
-----END CERTIFICATE-----
