Certificate:
    Data:
        Version: 3 (0x2)
        Serial Number: 24 (0x18)
    Signature Algorithm: sha256WithRSAEncryption
        Issuer: C=US, ST=California, L=Santa Clara, O=pkg5, CN=ch1_ta3/emailAddress=ch1_ta3
        Validity
            Not Before: Nov 16 10:58:49 2017 GMT
            Not After : Aug 12 10:58:49 2020 GMT
        Subject: C=US, ST=California, L=Santa Clara, O=pkg5, CN=cs8_ch1_ta3/emailAddress=cs8_ch1_ta3
        Subject Public Key Info:
            Public Key Algorithm: rsaEncryption
                Public-Key: (1024 bit)
                Modulus:
                    00:d5:aa:fe:51:0e:27:52:2e:d4:9f:d1:3f:9c:a0:
                    3d:4d:aa:4c:e4:2e:9d:4e:c3:8c:b8:19:92:76:db:
                    61:69:93:00:86:80:5d:6a:dc:5e:38:47:82:99:70:
                    1d:5e:22:2b:58:27:6c:32:8b:4f:43:20:16:5b:53:
                    38:0a:90:aa:8c:09:0b:b6:bf:ed:a9:10:36:a6:de:
                    56:76:bb:52:c9:6e:1b:b0:ab:aa:37:4a:88:7c:12:
                    8e:0e:99:a5:d0:3a:24:b0:56:55:5e:ad:7e:f9:5d:
                    b2:60:09:e7:ac:38:25:a2:d4:56:38:8f:36:e9:d2:
                    06:df:55:44:90:b6:b6:15:45
                Exponent: 65537 (0x10001)
        X509v3 extensions:
            X509v3 Basic Constraints: critical
                CA:TRUE
            X509v3 Key Usage: critical
                Digital Signature
    Signature Algorithm: sha256WithRSAEncryption
         c0:48:f4:12:7f:a8:6a:f0:42:5c:08:de:14:e7:69:12:35:82:
         bb:b5:5f:6b:5f:36:ae:a9:ea:a2:b7:fe:8b:00:8b:ad:af:96:
         b8:93:2e:54:8d:cd:d3:6c:ba:42:87:75:e1:d0:6e:97:82:e9:
         3c:10:f8:9d:27:cf:51:61:0c:6b:03:9a:ec:16:8a:4e:d7:2c:
         34:a6:1a:5f:37:fa:a3:ea:73:40:62:67:ef:c3:fa:27:ad:f3:
         56:3e:89:e3:df:8c:6a:ae:50:6d:f0:d7:9e:66:24:6f:e7:70:
         c0:69:59:f4:f8:2b:93:cd:71:3a:20:b2:71:6a:52:a9:08:a1:
         f5:00:47:10:a0:14:dc:ae:ac:6e:b0:7e:cd:5f:23:42:f0:81:
         d0:57:60:fe:c1:dd:54:5d:e3:56:f4:73:85:c3:dc:ed:70:87:
         91:57:99:34:0d:ab:59:a2:57:e3:11:f7:c1:f8:fe:36:94:26:
         c2:3a:e7:ed:3a:07:80:82:0a:e1:fe:e4:cb:69:e5:54:46:60:
         ec:5b:9d:79:87:c9:63:03:9b:0d:42:c9:38:eb:ed:3e:b4:42:
         18:f3:8c:b4:f2:be:a0:87:c7:d6:98:68:5a:08:ce:7b:4b:42:
         10:3b:a5:52:43:af:28:f9:8f:22:e7:f4:fa:6c:4e:d9:cd:11:
         ec:8e:a1:06
-----BEGIN CERTIFICATE-----
MIIDBDCCAeygAwIBAgIBGDANBgkqhkiG9w0BAQsFADBxMQswCQYDVQQGEwJVUzET
MBEGA1UECAwKQ2FsaWZvcm5pYTEUMBIGA1UEBwwLU2FudGEgQ2xhcmExDTALBgNV
BAoMBHBrZzUxEDAOBgNVBAMMB2NoMV90YTMxFjAUBgkqhkiG9w0BCQEWB2NoMV90
YTMwHhcNMTcxMTE2MTA1ODQ5WhcNMjAwODEyMTA1ODQ5WjB5MQswCQYDVQQGEwJV
UzETMBEGA1UECAwKQ2FsaWZvcm5pYTEUMBIGA1UEBwwLU2FudGEgQ2xhcmExDTAL
BgNVBAoMBHBrZzUxFDASBgNVBAMMC2NzOF9jaDFfdGEzMRowGAYJKoZIhvcNAQkB
FgtjczhfY2gxX3RhMzCBnzANBgkqhkiG9w0BAQEFAAOBjQAwgYkCgYEA1ar+UQ4n
Ui7Un9E/nKA9TapM5C6dTsOMuBmSdtthaZMAhoBdatxeOEeCmXAdXiIrWCdsMotP
QyAWW1M4CpCqjAkLtr/tqRA2pt5WdrtSyW4bsKuqN0qIfBKODpml0DoksFZVXq1+
+V2yYAnnrDglotRWOI826dIG31VEkLa2FUUCAwEAAaMjMCEwDwYDVR0TAQH/BAUw
AwEB/zAOBgNVHQ8BAf8EBAMCB4AwDQYJKoZIhvcNAQELBQADggEBAMBI9BJ/qGrw
QlwI3hTnaRI1gru1X2tfNq6p6qK3/osAi62vlriTLlSNzdNsukKHdeHQbpeC6TwQ
+J0nz1FhDGsDmuwWik7XLDSmGl83+qPqc0BiZ+/D+iet81Y+iePfjGquUG3w155m
JG/ncMBpWfT4K5PNcTogsnFqUqkIofUARxCgFNyurG6wfs1fI0LwgdBXYP7B3VRd
41b0c4XD3O1wh5FXmTQNq1miV+MR98H4/jaUJsI65+06B4CCCuH+5Mtp5VRGYOxb
nXmHyWMDmw1CyTjr7T60QhjzjLTyvqCHx9aYaFoIzntLQhA7pVJDryj5jyLn9Pps
TtnNEeyOoQY=
-----END CERTIFICATE-----
