Certificate:
    Data:
        Version: 3 (0x2)
        Serial Number: 24 (0x18)
        Signature Algorithm: sha256WithRSAEncryption
        Issuer: C=US, ST=California, L=Santa Clara, O=pkg5, CN=ch1_ta3/emailAddress=ch1_ta3
        Validity
            Not Before: Oct 22 10:15:13 2021 GMT
            Not After : Jul 18 10:15:13 2024 GMT
        Subject: C=US, ST=California, L=Santa Clara, O=pkg5, CN=cs8_ch1_ta3/emailAddress=cs8_ch1_ta3
        Subject Public Key Info:
            Public Key Algorithm: rsaEncryption
                Public-Key: (2048 bit)
                Modulus:
                    00:93:96:cc:98:90:6a:a2:d4:10:4e:19:0f:5d:20:
                    db:1c:45:65:52:f5:0e:20:ee:b1:02:79:58:0f:44:
                    17:6e:40:be:ce:0a:42:99:9d:cf:82:19:9d:0e:72:
                    a0:cf:5b:db:66:43:fa:10:1a:23:ab:7a:a1:c4:45:
                    44:64:1b:02:ff:eb:d7:75:1b:76:a9:f7:1f:29:13:
                    79:9a:89:09:de:a7:93:a5:df:a3:97:ad:89:a8:26:
                    70:40:3d:82:87:5c:96:cf:1b:df:de:49:92:25:41:
                    b6:d4:82:f7:e5:71:e1:b4:80:d6:93:c6:92:18:62:
                    11:28:13:66:70:9b:c2:ae:74:db:6c:f8:d9:7f:a5:
                    73:3b:f2:5a:4e:83:51:90:d3:9e:d0:0a:8a:b6:30:
                    c1:83:9e:33:ac:02:92:d3:a0:52:f3:21:d5:f0:8f:
                    cd:1a:c8:4d:e1:f1:93:2c:89:cd:a0:cf:85:a2:c4:
                    3b:2a:28:0d:f7:c1:ba:bb:91:61:c3:b3:e4:c8:0f:
                    41:c8:90:c2:ad:1c:77:6a:0f:4e:46:45:ad:3a:e6:
                    25:0e:36:6c:f4:5c:2d:05:f3:20:14:df:75:f5:18:
                    54:34:a8:4c:01:15:01:5a:71:97:30:58:32:f3:03:
                    67:56:4a:7d:a7:bb:ae:eb:6e:ee:3c:4c:36:5d:8c:
                    f8:11
                Exponent: 65537 (0x10001)
        X509v3 extensions:
            X509v3 Basic Constraints: critical
                CA:TRUE
            X509v3 Key Usage: critical
                Digital Signature
            X509v3 Subject Key Identifier: 
                2E:EC:3D:1A:AD:E9:9B:2A:54:75:BE:52:4A:FA:AA:03:F1:05:6D:4F
            X509v3 Authority Key Identifier: 
                D5:A6:1E:11:8A:90:CB:66:0F:10:66:77:01:DD:3A:8F:14:F0:85:C0
    Signature Algorithm: sha256WithRSAEncryption
    Signature Value:
        85:0c:68:5f:17:51:78:e4:e4:c8:7e:86:14:29:29:5f:77:7f:
        7c:0e:ae:6c:2a:09:1f:16:68:9f:b4:6f:c7:95:0f:50:58:9d:
        a6:e5:98:d6:11:95:4b:9c:54:6d:dc:f2:01:47:15:28:11:89:
        22:f0:df:7d:0e:f1:aa:9c:44:6e:e8:1b:9f:a2:24:b1:57:44:
        94:2b:2c:a6:44:c0:1c:c6:78:ca:8b:f8:6e:20:8c:5a:85:52:
        dc:df:61:f7:f4:bd:a8:ea:2c:f9:a5:55:d2:32:40:d3:e0:5a:
        1b:e8:a6:81:08:f5:ee:0b:50:14:6a:57:3d:00:60:d5:8f:d2:
        07:60:42:9f:65:ce:b5:5d:5c:43:13:9b:c6:b1:ed:3a:fd:db:
        9e:ff:fa:04:6d:d8:c7:2f:ab:da:a6:e4:41:06:8b:f4:36:bd:
        63:7a:99:fb:23:22:21:ca:f6:2d:78:44:e0:31:d8:05:55:df:
        91:b0:74:e0:a2:e3:4d:3c:f3:4e:36:38:23:9d:f8:14:0c:e3:
        8b:33:f5:ab:df:a5:86:d2:de:5c:af:b4:35:75:ab:c7:0f:70:
        ff:1a:e7:ee:27:3f:6c:64:5c:bf:99:88:9b:29:9a:6b:02:3c:
        d2:aa:07:f4:53:3a:53:9c:69:69:06:48:be:1c:67:13:a5:2d:
        ad:88:28:82
-----BEGIN CERTIFICATE-----
MIIDyDCCArCgAwIBAgIBGDANBgkqhkiG9w0BAQsFADBxMQswCQYDVQQGEwJVUzET
MBEGA1UECAwKQ2FsaWZvcm5pYTEUMBIGA1UEBwwLU2FudGEgQ2xhcmExDTALBgNV
BAoMBHBrZzUxEDAOBgNVBAMMB2NoMV90YTMxFjAUBgkqhkiG9w0BCQEWB2NoMV90
YTMwHhcNMjExMDIyMTAxNTEzWhcNMjQwNzE4MTAxNTEzWjB5MQswCQYDVQQGEwJV
UzETMBEGA1UECAwKQ2FsaWZvcm5pYTEUMBIGA1UEBwwLU2FudGEgQ2xhcmExDTAL
BgNVBAoMBHBrZzUxFDASBgNVBAMMC2NzOF9jaDFfdGEzMRowGAYJKoZIhvcNAQkB
FgtjczhfY2gxX3RhMzCCASIwDQYJKoZIhvcNAQEBBQADggEPADCCAQoCggEBAJOW
zJiQaqLUEE4ZD10g2xxFZVL1DiDusQJ5WA9EF25Avs4KQpmdz4IZnQ5yoM9b22ZD
+hAaI6t6ocRFRGQbAv/r13Ubdqn3HykTeZqJCd6nk6Xfo5etiagmcEA9godcls8b
395JkiVBttSC9+Vx4bSA1pPGkhhiESgTZnCbwq5022z42X+lczvyWk6DUZDTntAK
irYwwYOeM6wCktOgUvMh1fCPzRrITeHxkyyJzaDPhaLEOyooDffBuruRYcOz5MgP
QciQwq0cd2oPTkZFrTrmJQ42bPRcLQXzIBTfdfUYVDSoTAEVAVpxlzBYMvMDZ1ZK
fae7rutu7jxMNl2M+BECAwEAAaNjMGEwDwYDVR0TAQH/BAUwAwEB/zAOBgNVHQ8B
Af8EBAMCB4AwHQYDVR0OBBYEFC7sPRqt6ZsqVHW+Ukr6qgPxBW1PMB8GA1UdIwQY
MBaAFNWmHhGKkMtmDxBmdwHdOo8U8IXAMA0GCSqGSIb3DQEBCwUAA4IBAQCFDGhf
F1F45OTIfoYUKSlfd398Dq5sKgkfFmiftG/HlQ9QWJ2m5ZjWEZVLnFRt3PIBRxUo
EYki8N99DvGqnERu6BufoiSxV0SUKyymRMAcxnjKi/huIIxahVLc32H39L2o6iz5
pVXSMkDT4Fob6KaBCPXuC1AUalc9AGDVj9IHYEKfZc61XVxDE5vGse06/due//oE
bdjHL6vapuRBBov0Nr1jepn7IyIhyvYteETgMdgFVd+RsHTgouNNPPNONjgjnfgU
DOOLM/Wr36WG0t5cr7Q1davHD3D/GufuJz9sZFy/mYibKZprAjzSqgf0UzpTnGlp
Bki+HGcTpS2tiCiC
-----END CERTIFICATE-----
