Certificate:
    Data:
        Version: 3 (0x2)
        Serial Number: 24 (0x18)
        Signature Algorithm: sha256WithRSAEncryption
        Issuer: C=US, ST=California, L=Santa Clara, O=pkg5, CN=ch1_ta3/emailAddress=ch1_ta3
        Validity
            Not Before: Nov 17 23:01:31 2020 GMT
            Not After : Aug 14 23:01:31 2023 GMT
        Subject: C=US, ST=California, L=Santa Clara, O=pkg5, CN=cs8_ch1_ta3/emailAddress=cs8_ch1_ta3
        Subject Public Key Info:
            Public Key Algorithm: rsaEncryption
                RSA Public-Key: (1024 bit)
                Modulus:
                    00:ab:98:bb:fd:9c:a0:cc:ae:be:9f:91:ce:fd:76:
                    93:9e:8c:4c:09:f2:54:2b:df:08:dc:b7:4a:dc:d7:
                    ad:28:27:5c:cf:9e:d5:ac:ec:ff:1c:67:8f:6d:a7:
                    a9:a2:43:7e:aa:08:85:ad:be:c4:db:31:9c:eb:d7:
                    a8:f1:53:16:8f:9d:5f:a3:0a:75:9c:51:f5:ac:28:
                    c1:b1:3a:d7:87:5f:82:60:b5:3d:d2:5b:ff:9e:f1:
                    b4:bd:43:86:05:13:42:d1:10:17:62:5c:c2:a9:70:
                    fc:ca:a9:4c:34:e7:ca:11:d7:ba:9d:7a:0a:da:99:
                    72:71:6f:fd:88:ae:8c:48:27
                Exponent: 65537 (0x10001)
        X509v3 extensions:
            X509v3 Basic Constraints: critical
                CA:TRUE
            X509v3 Key Usage: critical
                Digital Signature
    Signature Algorithm: sha256WithRSAEncryption
         a0:f1:9d:b2:79:35:13:9f:61:c2:e2:06:23:c6:b1:fb:d1:ba:
         90:7f:de:81:1a:05:64:e7:14:73:40:9a:95:5a:c2:85:59:3c:
         26:fd:c8:d0:6a:2b:cd:82:5f:77:dc:40:ee:13:b5:35:b3:f7:
         1f:a7:30:7d:0d:1e:51:cd:a5:df:dd:9a:2a:27:01:89:e7:1e:
         54:9d:64:60:d6:9c:e6:9e:9f:0f:75:ba:e1:ea:15:ba:55:78:
         17:a6:bf:1f:72:f2:f0:12:d5:e5:4f:cd:66:29:1d:8c:d2:86:
         d4:4f:14:75:5c:49:da:4c:64:d4:17:3a:98:5c:cf:76:bf:b5:
         f1:fc:9b:c4:ff:57:25:48:db:01:dd:82:33:5c:93:49:55:38:
         39:28:1e:05:08:07:4f:f3:64:d2:00:a9:c8:2c:3f:35:b7:01:
         81:35:c0:3e:f8:e9:b7:3e:4e:f5:cd:42:32:10:70:65:43:4f:
         49:7a:f1:20:e1:71:d8:fb:93:d4:8a:c9:19:24:59:c5:3e:1b:
         aa:30:24:3d:cd:4f:88:0f:cd:ad:97:82:3b:b5:5d:91:a4:9a:
         63:28:3a:14:06:2f:b8:d4:2b:05:7e:9c:a7:83:95:dd:fd:16:
         0e:d6:e2:28:7a:41:af:aa:65:00:1b:cf:33:e0:0d:4b:d3:f5:
         8e:30:b2:22
-----BEGIN CERTIFICATE-----
MIIDBDCCAeygAwIBAgIBGDANBgkqhkiG9w0BAQsFADBxMQswCQYDVQQGEwJVUzET
MBEGA1UECAwKQ2FsaWZvcm5pYTEUMBIGA1UEBwwLU2FudGEgQ2xhcmExDTALBgNV
BAoMBHBrZzUxEDAOBgNVBAMMB2NoMV90YTMxFjAUBgkqhkiG9w0BCQEWB2NoMV90
YTMwHhcNMjAxMTE3MjMwMTMxWhcNMjMwODE0MjMwMTMxWjB5MQswCQYDVQQGEwJV
UzETMBEGA1UECAwKQ2FsaWZvcm5pYTEUMBIGA1UEBwwLU2FudGEgQ2xhcmExDTAL
BgNVBAoMBHBrZzUxFDASBgNVBAMMC2NzOF9jaDFfdGEzMRowGAYJKoZIhvcNAQkB
FgtjczhfY2gxX3RhMzCBnzANBgkqhkiG9w0BAQEFAAOBjQAwgYkCgYEAq5i7/Zyg
zK6+n5HO/XaTnoxMCfJUK98I3LdK3NetKCdcz57VrOz/HGePbaepokN+qgiFrb7E
2zGc69eo8VMWj51fowp1nFH1rCjBsTrXh1+CYLU90lv/nvG0vUOGBRNC0RAXYlzC
qXD8yqlMNOfKEde6nXoK2plycW/9iK6MSCcCAwEAAaMjMCEwDwYDVR0TAQH/BAUw
AwEB/zAOBgNVHQ8BAf8EBAMCB4AwDQYJKoZIhvcNAQELBQADggEBAKDxnbJ5NROf
YcLiBiPGsfvRupB/3oEaBWTnFHNAmpVawoVZPCb9yNBqK82CX3fcQO4TtTWz9x+n
MH0NHlHNpd/dmionAYnnHlSdZGDWnOaenw91uuHqFbpVeBemvx9y8vAS1eVPzWYp
HYzShtRPFHVcSdpMZNQXOphcz3a/tfH8m8T/VyVI2wHdgjNck0lVODkoHgUIB0/z
ZNIAqcgsPzW3AYE1wD746bc+TvXNQjIQcGVDT0l68SDhcdj7k9SKyRkkWcU+G6ow
JD3NT4gPza2Xgju1XZGkmmMoOhQGL7jUKwV+nKeDld39Fg7W4ih6Qa+qZQAbzzPg
DUvT9Y4wsiI=
-----END CERTIFICATE-----
