Certificate:
    Data:
        Version: 3 (0x2)
        Serial Number: 24 (0x18)
        Signature Algorithm: sha256WithRSAEncryption
        Issuer: C=US, ST=California, L=Santa Clara, O=pkg5, CN=ch1_ta3/emailAddress=ch1_ta3
        Validity
            Not Before: May 23 15:47:18 2024 GMT
            Not After : Feb 17 15:47:18 2027 GMT
        Subject: C=US, ST=California, L=Santa Clara, O=pkg5, CN=cs8_ch1_ta3/emailAddress=cs8_ch1_ta3
        Subject Public Key Info:
            Public Key Algorithm: rsaEncryption
                Public-Key: (2048 bit)
                Modulus:
                    00:ec:2f:7c:27:66:a6:11:a2:c2:e4:28:ca:2b:cd:
                    b3:23:18:3f:df:2d:b4:b6:c0:4a:c9:7b:1a:2b:fe:
                    2d:49:93:d6:c2:58:f1:0a:49:9e:20:a4:18:ae:50:
                    35:4c:6b:c0:09:92:2c:39:f9:6e:cc:6b:df:83:ab:
                    7c:67:f9:6c:a5:42:89:93:54:b8:28:bb:e0:6f:c2:
                    43:6b:af:9b:6c:b2:af:c6:4a:a9:9c:78:44:23:ae:
                    b5:89:32:29:82:8b:a8:25:e7:e2:c7:e7:8a:4b:7f:
                    a3:58:c6:e9:b2:de:6b:aa:6a:ce:64:a3:34:44:0f:
                    d4:4d:cd:58:88:da:5f:90:c7:9a:80:c2:14:b5:94:
                    ba:e0:c8:16:28:dc:49:05:cb:a1:93:79:8a:bc:86:
                    7b:b1:d8:2f:58:3e:c1:d6:db:7a:94:9f:32:14:c8:
                    0e:99:10:ad:c6:c6:23:a1:bc:30:5e:f1:e9:4a:a7:
                    ab:1c:1d:2b:35:23:82:d0:d3:e0:79:1a:8b:66:d2:
                    9d:91:a7:e2:2d:bd:92:dd:34:18:23:a0:4e:3e:70:
                    93:bc:76:e1:23:de:96:eb:a2:fe:67:66:bf:b3:21:
                    fb:5c:40:5a:95:3e:f6:af:ba:b9:7b:c0:f2:c5:aa:
                    99:9d:e0:bc:d3:36:b2:be:ad:e4:5e:55:be:83:1c:
                    f7:6b
                Exponent: 65537 (0x10001)
        X509v3 extensions:
            X509v3 Basic Constraints: critical
                CA:TRUE
            X509v3 Key Usage: critical
                Digital Signature
            X509v3 Subject Key Identifier: 
                E5:28:3A:0E:D9:50:10:3C:79:32:F0:AB:A0:60:BD:66:23:5B:34:EC
            X509v3 Authority Key Identifier: 
                69:A7:F1:E4:B7:F3:AC:28:7C:E9:9A:78:E3:CC:EF:00:89:C5:A4:C5
    Signature Algorithm: sha256WithRSAEncryption
    Signature Value:
        5c:8e:1e:2a:a3:df:ef:8e:9f:1f:f0:f6:05:3a:e9:b2:ad:0d:
        5c:14:1d:1e:1c:b3:36:35:eb:3f:05:79:e0:bc:04:ba:9b:bf:
        5d:8d:57:99:f9:01:3c:06:43:09:2b:e7:7e:2f:dc:d8:e1:d6:
        4f:10:78:36:b4:33:29:4e:37:2f:fd:0e:ce:6d:26:d2:f4:51:
        26:80:eb:fe:49:29:ed:75:95:8d:a2:90:a0:a8:03:98:3e:d7:
        57:15:3c:18:ee:cc:3e:55:45:95:61:b5:e8:ed:fb:ce:19:30:
        84:68:d5:94:27:46:1a:f3:c5:3b:4e:70:ae:98:fb:41:5c:ee:
        74:0c:94:c2:de:f1:92:b4:64:32:1c:58:f0:cf:f9:31:3b:70:
        db:90:df:13:89:af:43:15:4b:04:0f:15:69:62:84:48:a8:f2:
        ab:24:bb:ec:e2:aa:64:1a:de:df:d0:45:d0:15:86:7d:70:84:
        77:ac:6d:1f:b1:4f:d9:35:9b:bf:c4:ea:23:35:82:f2:8d:6c:
        ee:28:bb:19:30:38:e8:0f:e8:40:fa:63:19:26:77:d9:b9:ea:
        62:f7:f8:ad:10:c6:c4:ca:fc:ac:31:b3:15:9a:be:1b:a8:08:
        2e:43:87:72:3a:20:02:fe:12:8a:7a:e1:11:38:ae:82:97:42:
        5f:8b:92:14
-----BEGIN CERTIFICATE-----
MIIDyDCCArCgAwIBAgIBGDANBgkqhkiG9w0BAQsFADBxMQswCQYDVQQGEwJVUzET
MBEGA1UECAwKQ2FsaWZvcm5pYTEUMBIGA1UEBwwLU2FudGEgQ2xhcmExDTALBgNV
BAoMBHBrZzUxEDAOBgNVBAMMB2NoMV90YTMxFjAUBgkqhkiG9w0BCQEWB2NoMV90
YTMwHhcNMjQwNTIzMTU0NzE4WhcNMjcwMjE3MTU0NzE4WjB5MQswCQYDVQQGEwJV
UzETMBEGA1UECAwKQ2FsaWZvcm5pYTEUMBIGA1UEBwwLU2FudGEgQ2xhcmExDTAL
BgNVBAoMBHBrZzUxFDASBgNVBAMMC2NzOF9jaDFfdGEzMRowGAYJKoZIhvcNAQkB
FgtjczhfY2gxX3RhMzCCASIwDQYJKoZIhvcNAQEBBQADggEPADCCAQoCggEBAOwv
fCdmphGiwuQoyivNsyMYP98ttLbASsl7Giv+LUmT1sJY8QpJniCkGK5QNUxrwAmS
LDn5bsxr34OrfGf5bKVCiZNUuCi74G/CQ2uvm2yyr8ZKqZx4RCOutYkyKYKLqCXn
4sfnikt/o1jG6bLea6pqzmSjNEQP1E3NWIjaX5DHmoDCFLWUuuDIFijcSQXLoZN5
iryGe7HYL1g+wdbbepSfMhTIDpkQrcbGI6G8MF7x6UqnqxwdKzUjgtDT4Hkai2bS
nZGn4i29kt00GCOgTj5wk7x24SPeluui/mdmv7Mh+1xAWpU+9q+6uXvA8sWqmZ3g
vNM2sr6t5F5VvoMc92sCAwEAAaNjMGEwDwYDVR0TAQH/BAUwAwEB/zAOBgNVHQ8B
Af8EBAMCB4AwHQYDVR0OBBYEFOUoOg7ZUBA8eTLwq6BgvWYjWzTsMB8GA1UdIwQY
MBaAFGmn8eS386wofOmaeOPM7wCJxaTFMA0GCSqGSIb3DQEBCwUAA4IBAQBcjh4q
o9/vjp8f8PYFOumyrQ1cFB0eHLM2Nes/BXngvAS6m79djVeZ+QE8BkMJK+d+L9zY
4dZPEHg2tDMpTjcv/Q7ObSbS9FEmgOv+SSntdZWNopCgqAOYPtdXFTwY7sw+VUWV
YbXo7fvOGTCEaNWUJ0Ya88U7TnCumPtBXO50DJTC3vGStGQyHFjwz/kxO3DbkN8T
ia9DFUsEDxVpYoRIqPKrJLvs4qpkGt7f0EXQFYZ9cIR3rG0fsU/ZNZu/xOojNYLy
jWzuKLsZMDjoD+hA+mMZJnfZuepi9/itEMbEyvysMbMVmr4bqAguQ4dyOiAC/hKK
euEROK6Cl0Jfi5IU
-----END CERTIFICATE-----
