Certificate:
    Data:
        Version: 3 (0x2)
        Serial Number: 24 (0x18)
        Signature Algorithm: sha256WithRSAEncryption
        Issuer: C=US, ST=California, L=Santa Clara, O=pkg5, CN=ch1_ta3/emailAddress=ch1_ta3
        Validity
            Not Before: Dec 15 15:37:24 2022 GMT
            Not After : Sep 10 15:37:24 2025 GMT
        Subject: C=US, ST=California, L=Santa Clara, O=pkg5, CN=cs8_ch1_ta3/emailAddress=cs8_ch1_ta3
        Subject Public Key Info:
            Public Key Algorithm: rsaEncryption
                Public-Key: (2048 bit)
                Modulus:
                    00:b8:74:d4:82:63:9b:ec:a4:ce:c0:13:08:b4:20:
                    02:f7:3b:7d:cb:aa:21:1d:b4:2b:59:41:54:5e:1b:
                    ce:27:fe:c4:aa:be:d3:6e:cd:49:96:66:99:9f:10:
                    7b:42:1a:14:56:2c:5d:a4:c9:8b:39:40:b3:47:89:
                    99:f9:71:99:9b:d4:cd:9d:b2:be:f7:15:7e:ab:e7:
                    3e:e9:1f:c4:ba:33:41:e0:22:69:da:1a:50:ca:9b:
                    79:47:05:fb:a0:f7:a8:9f:f2:d1:0d:4f:7a:78:68:
                    2c:44:56:81:76:a7:fe:d9:19:90:10:78:20:08:9c:
                    a0:40:af:b1:3f:c4:46:a3:1d:83:16:df:f4:f0:f9:
                    54:18:c8:70:a7:35:04:e1:33:dc:7c:f6:b5:ae:bd:
                    7f:c5:48:c6:f3:62:89:01:58:be:0f:e3:c2:d5:c4:
                    51:b4:fb:81:d5:e6:a6:83:fb:22:9c:11:f1:a7:f1:
                    5b:c7:b1:32:65:4d:85:1a:71:77:ac:be:d7:54:0d:
                    c0:11:1e:b0:d3:1e:7a:b3:69:3f:33:ba:35:5e:c5:
                    f0:c3:18:34:56:73:71:35:48:63:54:b4:d0:8b:7e:
                    38:e1:e6:9f:f8:11:ff:f0:92:1a:2e:92:4d:70:a6:
                    55:01:96:ab:cd:cb:2a:19:62:7e:15:60:0d:fa:50:
                    43:5d
                Exponent: 65537 (0x10001)
        X509v3 extensions:
            X509v3 Basic Constraints: critical
                CA:TRUE
            X509v3 Key Usage: critical
                Digital Signature
            X509v3 Subject Key Identifier: 
                0D:7C:D6:0B:F5:3A:BC:1E:68:A9:4B:A2:C1:50:1D:18:5F:EA:90:80
            X509v3 Authority Key Identifier: 
                33:56:B5:6A:EF:83:5A:96:29:D5:64:57:A8:29:D0:28:D0:1D:D9:53
    Signature Algorithm: sha256WithRSAEncryption
    Signature Value:
        4d:e3:20:6b:d6:74:80:f8:d3:c2:44:e9:84:93:9a:7a:16:4e:
        6f:5b:85:ec:bb:a2:d6:2d:78:6c:b1:67:ec:84:57:ce:b1:9d:
        d0:b2:16:8c:98:e6:09:be:e5:f9:22:1c:80:9e:7d:da:47:8d:
        42:b0:76:10:7e:a6:86:cd:06:fd:1e:a6:be:32:6e:9b:0d:3c:
        5c:a7:05:f6:53:ab:cc:ad:29:20:51:5e:3d:ce:cb:ff:45:70:
        70:22:a8:07:40:e0:24:b2:c6:73:70:e1:d7:b8:99:6b:c1:35:
        eb:5d:f6:9f:3b:85:c7:aa:a9:a3:24:1a:10:19:bc:91:89:55:
        d6:6a:37:4f:d5:86:6f:24:59:08:c8:f2:fd:00:a4:7a:3f:6f:
        d1:94:88:15:41:cf:95:d2:07:b9:2a:08:fa:78:71:59:d2:38:
        19:18:ac:f3:e3:ec:66:7c:02:ed:a4:17:9c:6b:18:bc:a8:37:
        ae:87:f0:35:f0:52:ae:d1:13:62:08:ca:2c:f2:27:32:74:da:
        49:e8:90:cc:26:ab:bf:40:7f:2a:5a:50:37:dc:82:7e:c4:75:
        b6:61:50:06:da:19:6a:dd:d2:ee:fb:42:5a:3f:3d:2c:15:1c:
        08:1b:52:84:76:12:9f:28:3c:1d:f8:e6:17:60:40:76:83:87:
        db:1f:9c:63
-----BEGIN CERTIFICATE-----
MIIDyDCCArCgAwIBAgIBGDANBgkqhkiG9w0BAQsFADBxMQswCQYDVQQGEwJVUzET
MBEGA1UECAwKQ2FsaWZvcm5pYTEUMBIGA1UEBwwLU2FudGEgQ2xhcmExDTALBgNV
BAoMBHBrZzUxEDAOBgNVBAMMB2NoMV90YTMxFjAUBgkqhkiG9w0BCQEWB2NoMV90
YTMwHhcNMjIxMjE1MTUzNzI0WhcNMjUwOTEwMTUzNzI0WjB5MQswCQYDVQQGEwJV
UzETMBEGA1UECAwKQ2FsaWZvcm5pYTEUMBIGA1UEBwwLU2FudGEgQ2xhcmExDTAL
BgNVBAoMBHBrZzUxFDASBgNVBAMMC2NzOF9jaDFfdGEzMRowGAYJKoZIhvcNAQkB
FgtjczhfY2gxX3RhMzCCASIwDQYJKoZIhvcNAQEBBQADggEPADCCAQoCggEBALh0
1IJjm+ykzsATCLQgAvc7fcuqIR20K1lBVF4bzif+xKq+027NSZZmmZ8Qe0IaFFYs
XaTJizlAs0eJmflxmZvUzZ2yvvcVfqvnPukfxLozQeAiadoaUMqbeUcF+6D3qJ/y
0Q1PenhoLERWgXan/tkZkBB4IAicoECvsT/ERqMdgxbf9PD5VBjIcKc1BOEz3Hz2
ta69f8VIxvNiiQFYvg/jwtXEUbT7gdXmpoP7IpwR8afxW8exMmVNhRpxd6y+11QN
wBEesNMeerNpPzO6NV7F8MMYNFZzcTVIY1S00It+OOHmn/gR//CSGi6STXCmVQGW
q83LKhlifhVgDfpQQ10CAwEAAaNjMGEwDwYDVR0TAQH/BAUwAwEB/zAOBgNVHQ8B
Af8EBAMCB4AwHQYDVR0OBBYEFA181gv1OrweaKlLosFQHRhf6pCAMB8GA1UdIwQY
MBaAFDNWtWrvg1qWKdVkV6gp0CjQHdlTMA0GCSqGSIb3DQEBCwUAA4IBAQBN4yBr
1nSA+NPCROmEk5p6Fk5vW4Xsu6LWLXhssWfshFfOsZ3QshaMmOYJvuX5IhyAnn3a
R41CsHYQfqaGzQb9Hqa+Mm6bDTxcpwX2U6vMrSkgUV49zsv/RXBwIqgHQOAkssZz
cOHXuJlrwTXrXfafO4XHqqmjJBoQGbyRiVXWajdP1YZvJFkIyPL9AKR6P2/RlIgV
Qc+V0ge5Kgj6eHFZ0jgZGKzz4+xmfALtpBecaxi8qDeuh/A18FKu0RNiCMos8icy
dNpJ6JDMJqu/QH8qWlA33IJ+xHW2YVAG2hlq3dLu+0JaPz0sFRwIG1KEdhKfKDwd
+OYXYEB2g4fbH5xj
-----END CERTIFICATE-----
