Certificate:
    Data:
        Version: 3 (0x2)
        Serial Number: 26 (0x1a)
        Signature Algorithm: sha256WithRSAEncryption
        Issuer: C=US, ST=California, L=Santa Clara, O=pkg5, CN=ch1_ta3/emailAddress=ch1_ta3
        Validity
            Not Before: May 23 15:47:19 2024 GMT
            Not After : Feb 17 15:47:19 2027 GMT
        Subject: C=US, ST=California, L=Santa Clara, O=pkg5, CN=cs9_ch1_ta3/emailAddress=cs9_ch1_ta3
        Subject Public Key Info:
            Public Key Algorithm: rsaEncryption
                Public-Key: (2048 bit)
                Modulus:
                    00:9f:68:19:b3:b7:17:1e:dc:a8:5a:e2:25:29:30:
                    a2:70:25:02:32:7b:bf:11:4d:6d:e6:a4:c8:86:ed:
                    fd:3e:e4:b2:17:19:09:a5:7c:33:e9:b5:89:60:aa:
                    1d:80:32:93:7a:87:d6:40:a6:0b:99:b0:8d:ef:7a:
                    ab:5f:af:81:db:45:18:73:3c:2d:63:c0:3c:ec:aa:
                    48:b0:2d:77:25:98:8d:17:68:80:08:46:ae:70:8d:
                    f5:4a:cf:6d:92:f4:08:3e:2d:aa:a9:d2:08:ce:cc:
                    70:0f:c7:9e:80:67:07:30:4f:ea:d4:54:cc:a3:2c:
                    46:d1:1d:15:98:a9:6f:24:c8:2c:e4:84:45:94:17:
                    51:90:69:f7:e3:58:b7:31:79:49:56:56:77:90:33:
                    de:3c:3a:61:34:61:b4:30:7c:10:be:b8:42:1e:ee:
                    03:78:a9:26:c3:52:0a:f8:46:f2:ef:bc:9b:90:24:
                    ce:6f:66:22:4d:51:83:f7:5f:85:97:97:84:19:a5:
                    32:a7:c0:7d:fe:07:e8:c1:06:10:c9:c2:f8:c6:f6:
                    0d:5d:b2:19:d1:e3:31:1f:e7:5b:1d:19:95:76:39:
                    14:ae:4f:4d:b9:a2:5c:52:e8:6b:a9:cb:3f:da:92:
                    1c:10:ab:c4:e8:ad:85:a7:75:22:8d:8c:46:db:12:
                    54:2d
                Exponent: 65537 (0x10001)
        X509v3 extensions:
            X509v3 Basic Constraints: critical
                CA:FALSE
            X509v3 Key Usage: 
                Encipher Only
            X509v3 Subject Key Identifier: 
                DB:DB:C3:66:D8:BF:B2:F9:06:A0:8A:F4:EF:B3:12:2A:17:A9:78:98
            X509v3 Authority Key Identifier: 
                69:A7:F1:E4:B7:F3:AC:28:7C:E9:9A:78:E3:CC:EF:00:89:C5:A4:C5
    Signature Algorithm: sha256WithRSAEncryption
    Signature Value:
        6b:92:96:6c:ed:b0:1d:51:97:50:e1:7f:9f:e3:17:8a:5c:61:
        b5:89:fd:c7:f6:67:6a:18:1c:a8:e3:21:56:e9:90:63:77:e3:
        c4:c0:f2:78:02:ae:0e:74:40:d6:a4:a7:4e:3e:b0:39:38:a1:
        f2:d4:5c:63:e0:c7:9b:86:39:ca:ac:cc:14:d1:1e:45:74:eb:
        f9:ef:f3:fb:6f:e7:7c:7e:51:e0:eb:95:10:94:49:db:ab:49:
        75:26:f6:e0:1f:23:86:2f:79:80:0e:e0:f3:5e:26:f8:52:b4:
        19:ae:ae:fd:b6:ad:28:5b:33:dd:91:8a:9c:f3:2a:5c:f3:48:
        35:60:e3:3a:dd:f0:56:84:7e:d9:d0:50:73:0f:a0:55:35:c9:
        5d:fd:a5:d3:91:a3:7f:a6:67:ed:ed:fe:81:a0:f1:c0:8e:18:
        db:5e:34:ca:de:97:b7:c7:90:93:8b:2c:2d:7c:65:4f:15:c5:
        95:6f:e2:93:76:3a:21:62:c6:d3:3c:1d:c9:cd:dc:6f:ed:87:
        a7:b7:e8:b9:58:e4:5f:08:72:d0:48:c8:2e:79:c2:8c:11:a9:
        e2:78:1d:dd:e8:5e:95:f9:14:0e:48:2c:4c:37:8f:de:46:98:
        79:13:eb:b5:e0:7c:1d:34:9b:20:75:f8:e9:54:73:3c:56:34:
        62:16:d1:9f
-----BEGIN CERTIFICATE-----
MIIDwjCCAqqgAwIBAgIBGjANBgkqhkiG9w0BAQsFADBxMQswCQYDVQQGEwJVUzET
MBEGA1UECAwKQ2FsaWZvcm5pYTEUMBIGA1UEBwwLU2FudGEgQ2xhcmExDTALBgNV
BAoMBHBrZzUxEDAOBgNVBAMMB2NoMV90YTMxFjAUBgkqhkiG9w0BCQEWB2NoMV90
YTMwHhcNMjQwNTIzMTU0NzE5WhcNMjcwMjE3MTU0NzE5WjB5MQswCQYDVQQGEwJV
UzETMBEGA1UECAwKQ2FsaWZvcm5pYTEUMBIGA1UEBwwLU2FudGEgQ2xhcmExDTAL
BgNVBAoMBHBrZzUxFDASBgNVBAMMC2NzOV9jaDFfdGEzMRowGAYJKoZIhvcNAQkB
FgtjczlfY2gxX3RhMzCCASIwDQYJKoZIhvcNAQEBBQADggEPADCCAQoCggEBAJ9o
GbO3Fx7cqFriJSkwonAlAjJ7vxFNbeakyIbt/T7kshcZCaV8M+m1iWCqHYAyk3qH
1kCmC5mwje96q1+vgdtFGHM8LWPAPOyqSLAtdyWYjRdogAhGrnCN9UrPbZL0CD4t
qqnSCM7McA/HnoBnBzBP6tRUzKMsRtEdFZipbyTILOSERZQXUZBp9+NYtzF5SVZW
d5Az3jw6YTRhtDB8EL64Qh7uA3ipJsNSCvhG8u+8m5Akzm9mIk1Rg/dfhZeXhBml
MqfAff4H6MEGEMnC+Mb2DV2yGdHjMR/nWx0ZlXY5FK5PTbmiXFLoa6nLP9qSHBCr
xOithad1Io2MRtsSVC0CAwEAAaNdMFswDAYDVR0TAQH/BAIwADALBgNVHQ8EBAMC
AAEwHQYDVR0OBBYEFNvbw2bYv7L5BqCK9O+zEioXqXiYMB8GA1UdIwQYMBaAFGmn
8eS386wofOmaeOPM7wCJxaTFMA0GCSqGSIb3DQEBCwUAA4IBAQBrkpZs7bAdUZdQ
4X+f4xeKXGG1if3H9mdqGByo4yFW6ZBjd+PEwPJ4Aq4OdEDWpKdOPrA5OKHy1Fxj
4MebhjnKrMwU0R5FdOv57/P7b+d8flHg65UQlEnbq0l1JvbgHyOGL3mADuDzXib4
UrQZrq79tq0oWzPdkYqc8ypc80g1YOM63fBWhH7Z0FBzD6BVNcld/aXTkaN/pmft
7f6BoPHAjhjbXjTK3pe3x5CTiywtfGVPFcWVb+KTdjohYsbTPB3Jzdxv7Yent+i5
WORfCHLQSMguecKMEanieB3d6F6V+RQOSCxMN4/eRph5E+u14HwdNJsgdfjpVHM8
VjRiFtGf
-----END CERTIFICATE-----
