Certificate:
    Data:
        Version: 3 (0x2)
        Serial Number: 26 (0x1a)
        Signature Algorithm: sha256WithRSAEncryption
        Issuer: C=US, ST=California, L=Santa Clara, O=pkg5, CN=ch1_ta3/emailAddress=ch1_ta3
        Validity
            Not Before: Nov 17 23:01:31 2020 GMT
            Not After : Aug 14 23:01:31 2023 GMT
        Subject: C=US, ST=California, L=Santa Clara, O=pkg5, CN=cs9_ch1_ta3/emailAddress=cs9_ch1_ta3
        Subject Public Key Info:
            Public Key Algorithm: rsaEncryption
                RSA Public-Key: (1024 bit)
                Modulus:
                    00:be:a9:16:4f:20:c6:8b:94:8f:7d:25:d1:fd:23:
                    09:54:f9:b2:39:41:c0:88:1a:c1:13:33:be:00:c4:
                    03:d4:79:05:de:bd:3c:4a:27:ec:b4:74:3a:43:73:
                    29:2f:43:cd:ac:b7:4f:91:70:93:49:54:14:41:3a:
                    d1:dd:4c:c6:19:c3:5f:00:11:a8:66:35:25:54:f8:
                    13:ab:dd:3b:46:44:cf:53:e1:82:70:61:be:90:57:
                    ef:9d:90:87:dd:da:72:d6:39:d8:e6:2c:01:2f:41:
                    c4:df:15:8d:35:0e:12:5d:d1:66:0c:b1:fe:32:63:
                    6f:6a:4b:78:31:ae:28:50:e1
                Exponent: 65537 (0x10001)
        X509v3 extensions:
            X509v3 Basic Constraints: critical
                CA:FALSE
            X509v3 Key Usage: 
                Encipher Only
    Signature Algorithm: sha256WithRSAEncryption
         6d:ba:f6:a5:ca:da:7d:42:74:f7:f1:94:9e:ed:cc:df:2c:30:
         4f:9e:0e:1b:9d:73:48:58:10:27:02:4a:11:3a:e1:9b:87:84:
         b1:d4:24:f9:6f:01:35:41:64:50:14:da:f5:3e:92:d6:1c:98:
         03:1c:20:b9:28:1f:50:1b:54:30:71:c5:81:ef:fa:39:93:e2:
         dd:94:b3:2b:ac:fb:48:54:a0:92:94:14:f3:b6:91:71:a7:20:
         67:13:b0:04:7a:31:4e:f2:9a:83:4b:b4:04:33:cf:d4:ed:d4:
         40:2b:a6:5d:9d:28:34:c4:71:a8:31:30:84:fe:03:9a:7b:19:
         ba:d9:c4:fc:f1:1c:41:db:5d:b6:03:67:11:38:b2:69:8e:c3:
         ff:c7:bb:36:89:05:ab:85:b4:b7:7a:5f:b9:c6:e7:9c:be:b3:
         b0:43:15:78:c0:4d:20:f9:06:07:7a:45:e2:81:7c:b7:91:7d:
         0f:1d:43:d6:f3:c7:3a:c7:81:05:ac:bd:69:d5:37:eb:d0:cc:
         97:bb:61:eb:7d:89:9a:16:fa:2f:67:93:78:0d:2c:df:c0:93:
         78:b9:21:23:d3:d7:4c:c1:df:85:cb:1b:95:26:71:14:bc:ca:
         e2:c2:bd:68:09:46:72:b8:3a:8a:07:0d:70:45:3f:85:ca:ca:
         8f:50:f1:c9
-----BEGIN CERTIFICATE-----
MIIC/jCCAeagAwIBAgIBGjANBgkqhkiG9w0BAQsFADBxMQswCQYDVQQGEwJVUzET
MBEGA1UECAwKQ2FsaWZvcm5pYTEUMBIGA1UEBwwLU2FudGEgQ2xhcmExDTALBgNV
BAoMBHBrZzUxEDAOBgNVBAMMB2NoMV90YTMxFjAUBgkqhkiG9w0BCQEWB2NoMV90
YTMwHhcNMjAxMTE3MjMwMTMxWhcNMjMwODE0MjMwMTMxWjB5MQswCQYDVQQGEwJV
UzETMBEGA1UECAwKQ2FsaWZvcm5pYTEUMBIGA1UEBwwLU2FudGEgQ2xhcmExDTAL
BgNVBAoMBHBrZzUxFDASBgNVBAMMC2NzOV9jaDFfdGEzMRowGAYJKoZIhvcNAQkB
FgtjczlfY2gxX3RhMzCBnzANBgkqhkiG9w0BAQEFAAOBjQAwgYkCgYEAvqkWTyDG
i5SPfSXR/SMJVPmyOUHAiBrBEzO+AMQD1HkF3r08SifstHQ6Q3MpL0PNrLdPkXCT
SVQUQTrR3UzGGcNfABGoZjUlVPgTq907RkTPU+GCcGG+kFfvnZCH3dpy1jnY5iwB
L0HE3xWNNQ4SXdFmDLH+MmNvakt4Ma4oUOECAwEAAaMdMBswDAYDVR0TAQH/BAIw
ADALBgNVHQ8EBAMCAAEwDQYJKoZIhvcNAQELBQADggEBAG269qXK2n1CdPfxlJ7t
zN8sME+eDhudc0hYECcCShE64ZuHhLHUJPlvATVBZFAU2vU+ktYcmAMcILkoH1Ab
VDBxxYHv+jmT4t2Usyus+0hUoJKUFPO2kXGnIGcTsAR6MU7ymoNLtAQzz9Tt1EAr
pl2dKDTEcagxMIT+A5p7GbrZxPzxHEHbXbYDZxE4smmOw//HuzaJBauFtLd6X7nG
55y+s7BDFXjATSD5Bgd6ReKBfLeRfQ8dQ9bzxzrHgQWsvWnVN+vQzJe7Yet9iZoW
+i9nk3gNLN/Ak3i5ISPT10zB34XLG5UmcRS8yuLCvWgJRnK4OooHDXBFP4XKyo9Q
8ck=
-----END CERTIFICATE-----
