Certificate:
    Data:
        Version: 3 (0x2)
        Serial Number: 26 (0x1a)
    Signature Algorithm: sha256WithRSAEncryption
        Issuer: C=US, ST=California, L=Santa Clara, O=pkg5, CN=ch1_ta3/emailAddress=ch1_ta3
        Validity
            Not Before: Mar 20 10:20:54 2018 GMT
            Not After : Dec 14 10:20:54 2020 GMT
        Subject: C=US, ST=California, L=Santa Clara, O=pkg5, CN=cs9_ch1_ta3/emailAddress=cs9_ch1_ta3
        Subject Public Key Info:
            Public Key Algorithm: rsaEncryption
                Public-Key: (1024 bit)
                Modulus:
                    00:da:58:b2:95:73:34:3a:bc:a3:4d:b1:d2:ad:7f:
                    82:47:83:d2:f3:31:f4:32:43:12:f5:c2:6e:d7:9b:
                    dc:86:c0:1a:2b:a8:ca:78:da:a6:11:6b:c1:73:c0:
                    51:db:50:cd:62:7e:43:ff:e6:72:8b:82:ff:32:72:
                    8a:20:92:54:d6:f3:60:84:fb:d1:21:5b:67:63:f9:
                    80:6e:ae:2a:a3:6d:bd:c9:70:a0:11:ba:1a:57:de:
                    26:f9:b6:59:5a:16:17:b7:ff:65:e7:51:5f:e2:26:
                    b2:85:00:bf:e8:79:79:92:46:6e:d2:94:8f:97:76:
                    c3:e5:15:d9:ac:11:ce:73:bb
                Exponent: 65537 (0x10001)
        X509v3 extensions:
            X509v3 Basic Constraints: critical
                CA:FALSE
            X509v3 Key Usage: 
                Encipher Only
    Signature Algorithm: sha256WithRSAEncryption
         57:7e:d5:b7:1b:32:95:a4:80:e8:b2:74:be:05:62:ff:21:78:
         ce:32:54:9f:50:11:0e:c6:b3:25:fe:d4:f0:78:33:71:61:6b:
         bf:c8:7e:af:ba:94:ba:1a:b4:4f:f3:45:23:ae:83:87:4e:32:
         e2:1e:24:86:7f:ed:7d:bf:83:d3:b3:cc:6d:a3:6c:02:ae:a3:
         61:c2:1e:c6:86:0b:b6:a5:29:13:df:56:89:f7:00:7b:59:af:
         67:87:8c:7a:d9:7f:48:38:fa:10:ba:cf:05:65:24:b4:80:95:
         3b:b5:a5:98:c7:16:c9:a5:99:00:63:db:a5:4a:16:51:79:74:
         e2:65:f1:d6:b8:11:5a:c7:b2:84:4e:32:5c:1a:06:82:da:84:
         1d:17:d3:28:1f:d4:cc:14:7b:94:77:6b:1c:af:38:a4:6d:e3:
         66:8f:6d:d6:48:28:5b:1c:a7:5f:fe:48:48:98:4f:9f:c9:4b:
         b0:d4:72:41:a2:08:b1:d9:2a:9f:3e:29:38:4a:18:a5:c0:78:
         fa:0b:33:fd:14:3b:f9:cf:16:65:c0:b8:5c:ef:1b:61:c1:e0:
         45:c2:51:4c:a9:81:e6:5b:3a:6a:af:d1:2d:b5:0c:f7:3f:89:
         7a:67:b8:13:57:33:0d:6e:c3:38:3f:b8:28:4a:55:ed:63:af:
         d7:84:79:0d
-----BEGIN CERTIFICATE-----
MIIC/jCCAeagAwIBAgIBGjANBgkqhkiG9w0BAQsFADBxMQswCQYDVQQGEwJVUzET
MBEGA1UECAwKQ2FsaWZvcm5pYTEUMBIGA1UEBwwLU2FudGEgQ2xhcmExDTALBgNV
BAoMBHBrZzUxEDAOBgNVBAMMB2NoMV90YTMxFjAUBgkqhkiG9w0BCQEWB2NoMV90
YTMwHhcNMTgwMzIwMTAyMDU0WhcNMjAxMjE0MTAyMDU0WjB5MQswCQYDVQQGEwJV
UzETMBEGA1UECAwKQ2FsaWZvcm5pYTEUMBIGA1UEBwwLU2FudGEgQ2xhcmExDTAL
BgNVBAoMBHBrZzUxFDASBgNVBAMMC2NzOV9jaDFfdGEzMRowGAYJKoZIhvcNAQkB
FgtjczlfY2gxX3RhMzCBnzANBgkqhkiG9w0BAQEFAAOBjQAwgYkCgYEA2liylXM0
OryjTbHSrX+CR4PS8zH0MkMS9cJu15vchsAaK6jKeNqmEWvBc8BR21DNYn5D/+Zy
i4L/MnKKIJJU1vNghPvRIVtnY/mAbq4qo229yXCgEboaV94m+bZZWhYXt/9l51Ff
4iayhQC/6Hl5kkZu0pSPl3bD5RXZrBHOc7sCAwEAAaMdMBswDAYDVR0TAQH/BAIw
ADALBgNVHQ8EBAMCAAEwDQYJKoZIhvcNAQELBQADggEBAFd+1bcbMpWkgOiydL4F
Yv8heM4yVJ9QEQ7GsyX+1PB4M3Fha7/Ifq+6lLoatE/zRSOug4dOMuIeJIZ/7X2/
g9OzzG2jbAKuo2HCHsaGC7alKRPfVon3AHtZr2eHjHrZf0g4+hC6zwVlJLSAlTu1
pZjHFsmlmQBj26VKFlF5dOJl8da4EVrHsoROMlwaBoLahB0X0ygf1MwUe5R3axyv
OKRt42aPbdZIKFscp1/+SEiYT5/JS7DUckGiCLHZKp8+KThKGKXAePoLM/0UO/nP
FmXAuFzvG2HB4EXCUUypgeZbOmqv0S21DPc/iXpnuBNXMw1uwzg/uChKVe1jr9eE
eQ0=
-----END CERTIFICATE-----
