Certificate:
    Data:
        Version: 3 (0x2)
        Serial Number:
            bc:25:11:79:da:ab:0b:e1
    Signature Algorithm: sha256WithRSAEncryption
        Issuer: C=US, ST=California, L=Santa Clara, O=pkg5, OU=ta7, CN=localhost/emailAddress=ta7
        Validity
            Not Before: Nov 16 10:58:51 2017 GMT
            Not After : Aug 12 10:58:51 2020 GMT
        Subject: C=US, ST=California, L=Santa Clara, O=pkg5, OU=ta7, CN=localhost/emailAddress=ta7
        Subject Public Key Info:
            Public Key Algorithm: rsaEncryption
                Public-Key: (2048 bit)
                Modulus:
                    00:b0:a4:b7:89:2f:19:15:f0:6c:32:80:aa:67:d4:
                    53:8e:a1:3c:08:6b:b7:2b:68:ba:c7:83:6b:a5:dc:
                    c1:82:d7:80:61:f5:b3:46:57:d6:26:ed:c6:55:23:
                    ef:b0:91:34:6e:92:9b:98:3b:a9:74:41:a7:e8:3f:
                    c4:3c:1a:4c:47:80:64:7a:e3:f6:d9:a6:d5:a9:a5:
                    df:4a:ab:83:00:40:b6:a3:7d:56:69:65:5e:32:4b:
                    46:42:94:5e:25:3f:13:9d:19:d9:0c:a4:ad:52:d7:
                    a7:30:7b:91:aa:ca:65:02:76:cb:64:88:16:bf:1f:
                    f5:41:44:85:6d:dc:95:37:27:32:37:16:82:cc:19:
                    e9:1e:62:3e:de:5d:30:a9:62:b8:bb:1c:d0:5f:32:
                    aa:6b:25:ab:09:b6:c1:f0:db:41:35:ca:11:4e:3e:
                    14:2d:1d:35:42:9d:29:7b:90:5a:1f:09:fe:74:75:
                    b3:53:1f:e0:ed:62:ca:00:f7:f8:30:2e:bf:50:60:
                    b6:36:55:cb:65:29:b5:28:b2:14:af:e2:38:4b:6c:
                    6a:cd:36:b1:b5:e7:11:24:9a:b6:79:51:f8:d8:27:
                    dc:9b:8b:91:ff:b4:06:b1:00:96:98:6f:b5:82:ad:
                    0d:72:c9:f7:b1:0e:9e:f9:09:d2:70:cd:e3:99:b1:
                    d3:47
                Exponent: 65537 (0x10001)
        X509v3 extensions:
            X509v3 Subject Key Identifier: 
                C5:8F:A6:C5:B5:4E:F7:C9:C8:7A:77:16:E6:E9:36:47:EB:27:6D:50
            X509v3 Authority Key Identifier: 
                keyid:C5:8F:A6:C5:B5:4E:F7:C9:C8:7A:77:16:E6:E9:36:47:EB:27:6D:50

            X509v3 Basic Constraints: 
                CA:TRUE
    Signature Algorithm: sha256WithRSAEncryption
         4c:33:98:23:8e:30:ec:40:bb:0f:22:18:5d:b1:b3:f1:1e:cd:
         59:2e:3c:a6:37:2a:35:75:73:02:e1:1e:ce:45:73:2c:d2:0f:
         83:5b:1b:e3:03:8e:4e:ef:ca:89:2d:1f:70:22:43:92:f1:d4:
         3f:04:84:22:82:6d:95:52:d8:4f:a5:7a:91:64:cc:9d:f8:77:
         3c:9f:19:c2:51:84:1f:02:68:c5:67:8a:57:de:3a:87:b9:4d:
         aa:49:29:67:d5:f4:3c:a7:57:6e:cf:ef:3d:18:e9:75:52:ae:
         0b:9d:b9:37:a5:97:c9:13:ce:16:0f:ce:cd:71:32:ea:d5:53:
         3b:6b:fe:82:49:aa:9e:51:f0:4d:d2:83:6f:2a:a3:77:20:41:
         49:8f:51:fe:5d:b0:92:f4:16:a3:9a:17:40:83:97:71:a7:c6:
         36:af:c4:5d:76:b0:78:02:6d:07:e4:a2:1a:08:87:22:b9:d3:
         00:99:7f:0a:70:a2:ec:60:ee:88:96:15:ec:e0:48:e3:ba:f1:
         37:15:49:77:bd:67:36:93:2d:d5:dd:8e:f8:fd:7a:8b:98:b8:
         b4:8b:e0:91:9d:23:e3:c5:86:ed:a9:86:05:ff:c3:40:02:a8:
         0b:47:26:39:0f:16:8f:80:48:89:62:da:d7:8a:34:8f:e0:78:
         43:33:4a:8e
-----BEGIN CERTIFICATE-----
MIIDzTCCArWgAwIBAgIJALwlEXnaqwvhMA0GCSqGSIb3DQEBCwUAMH0xCzAJBgNV
BAYTAlVTMRMwEQYDVQQIDApDYWxpZm9ybmlhMRQwEgYDVQQHDAtTYW50YSBDbGFy
YTENMAsGA1UECgwEcGtnNTEMMAoGA1UECwwDdGE3MRIwEAYDVQQDDAlsb2NhbGhv
c3QxEjAQBgkqhkiG9w0BCQEWA3RhNzAeFw0xNzExMTYxMDU4NTFaFw0yMDA4MTIx
MDU4NTFaMH0xCzAJBgNVBAYTAlVTMRMwEQYDVQQIDApDYWxpZm9ybmlhMRQwEgYD
VQQHDAtTYW50YSBDbGFyYTENMAsGA1UECgwEcGtnNTEMMAoGA1UECwwDdGE3MRIw
EAYDVQQDDAlsb2NhbGhvc3QxEjAQBgkqhkiG9w0BCQEWA3RhNzCCASIwDQYJKoZI
hvcNAQEBBQADggEPADCCAQoCggEBALCkt4kvGRXwbDKAqmfUU46hPAhrtytouseD
a6XcwYLXgGH1s0ZX1ibtxlUj77CRNG6Sm5g7qXRBp+g/xDwaTEeAZHrj9tmm1aml
30qrgwBAtqN9VmllXjJLRkKUXiU/E50Z2QykrVLXpzB7karKZQJ2y2SIFr8f9UFE
hW3clTcnMjcWgswZ6R5iPt5dMKliuLsc0F8yqmslqwm2wfDbQTXKEU4+FC0dNUKd
KXuQWh8J/nR1s1Mf4O1iygD3+DAuv1BgtjZVy2UptSiyFK/iOEtsas02sbXnESSa
tnlR+Ngn3JuLkf+0BrEAlphvtYKtDXLJ97EOnvkJ0nDN45mx00cCAwEAAaNQME4w
HQYDVR0OBBYEFMWPpsW1TvfJyHp3FubpNkfrJ21QMB8GA1UdIwQYMBaAFMWPpsW1
TvfJyHp3FubpNkfrJ21QMAwGA1UdEwQFMAMBAf8wDQYJKoZIhvcNAQELBQADggEB
AEwzmCOOMOxAuw8iGF2xs/EezVkuPKY3KjV1cwLhHs5FcyzSD4NbG+MDjk7vyokt
H3AiQ5Lx1D8EhCKCbZVS2E+lepFkzJ34dzyfGcJRhB8CaMVnilfeOoe5TapJKWfV
9DynV27P7z0Y6XVSrguduTell8kTzhYPzs1xMurVUztr/oJJqp5R8E3Sg28qo3cg
QUmPUf5dsJL0FqOaF0CDl3GnxjavxF12sHgCbQfkohoIhyK50wCZfwpwouxg7oiW
FezgSOO68TcVSXe9ZzaTLdXdjvj9eouYuLSL4JGdI+PFhu2phgX/w0ACqAtHJjkP
Fo+ASIli2teKNI/geEMzSo4=
-----END CERTIFICATE-----
