Certificate:
    Data:
        Version: 3 (0x2)
        Serial Number:
            60:92:1a:32:8b:5b:ec:f3:92:2e:fa:e4:8e:5d:44:0f:cd:d8:cf:d1
        Signature Algorithm: sha256WithRSAEncryption
        Issuer: C = US, ST = California, L = Santa Clara, O = pkg5, OU = ta7, CN = localhost, emailAddress = ta7
        Validity
            Not Before: Oct 22 10:15:22 2021 GMT
            Not After : Jul 18 10:15:22 2024 GMT
        Subject: C = US, ST = California, L = Santa Clara, O = pkg5, OU = ta7, CN = localhost, emailAddress = ta7
        Subject Public Key Info:
            Public Key Algorithm: rsaEncryption
                Public-Key: (2048 bit)
                Modulus:
                    00:ab:de:fe:bd:78:ee:c8:34:eb:97:bf:16:16:24:
                    66:54:48:4c:f6:e5:b8:6a:d7:17:03:59:ab:49:ad:
                    c9:6d:54:9d:94:af:bb:ca:fa:78:6a:fd:7a:48:37:
                    cb:59:58:b3:28:b7:f7:ea:ec:e3:ad:57:5f:03:db:
                    e1:87:c5:07:d4:77:27:b1:f5:97:b7:ce:1f:71:0d:
                    91:a9:ac:70:cd:48:ba:21:d4:9d:3e:c2:4a:2a:1d:
                    47:ed:20:22:d8:5c:56:99:80:92:13:af:da:17:96:
                    f5:86:f3:61:c7:23:58:76:68:52:4f:f2:ac:c8:d0:
                    f9:92:b8:09:1b:02:35:5a:ca:4c:f9:1d:5d:4b:e9:
                    54:49:9b:6d:85:8a:61:0c:c2:d9:a6:ff:39:8b:2d:
                    01:c7:0d:84:a7:e4:55:d7:36:b3:b7:c5:52:a0:b3:
                    95:8c:27:46:5b:82:f5:82:14:c2:56:81:0e:9e:74:
                    48:f3:c2:4e:fe:dd:0c:ae:57:00:1f:45:dd:b4:33:
                    da:f1:f4:5e:09:ce:aa:70:f4:a2:09:65:a6:c4:e5:
                    db:99:87:31:0a:4c:4b:f5:5b:01:42:e5:81:35:48:
                    82:e3:ec:16:d1:a1:be:39:11:f4:98:8f:9f:8a:74:
                    5e:21:19:b5:c7:4e:a7:1d:d3:c8:7e:79:82:a3:1f:
                    6a:77
                Exponent: 65537 (0x10001)
        X509v3 extensions:
            X509v3 Subject Key Identifier: 
                37:DE:BD:2D:98:B6:EA:07:41:61:0A:E4:17:FA:6E:EF:9A:EE:96:22
            X509v3 Authority Key Identifier: 
                37:DE:BD:2D:98:B6:EA:07:41:61:0A:E4:17:FA:6E:EF:9A:EE:96:22
            X509v3 Basic Constraints: critical
                CA:TRUE
    Signature Algorithm: sha256WithRSAEncryption
    Signature Value:
        9c:5c:cd:bc:73:1e:63:17:dd:6c:25:64:05:f2:42:b7:3b:f6:
        a6:48:23:88:6b:93:65:cf:bc:ed:80:7a:0f:a5:61:55:84:60:
        e5:ce:35:c8:16:a3:f7:34:d9:38:e3:45:d3:59:79:46:08:21:
        2a:f5:5d:2e:6c:a4:2c:9c:79:0c:1c:2c:41:f6:5d:02:7e:49:
        70:9d:8b:48:3a:03:a3:26:8b:cb:1c:42:70:34:fb:5f:e0:46:
        7f:ec:88:fc:a1:d5:0a:bd:51:35:bf:cc:16:b0:0e:18:ff:bd:
        e0:d0:ac:ee:20:82:fb:5c:44:fe:3f:42:f6:0b:70:ff:4d:0e:
        86:60:78:6d:62:8d:28:3c:de:01:64:fd:48:70:56:06:25:2b:
        8a:a9:e9:6a:be:0b:00:65:e6:e3:b7:0d:ca:8b:1f:37:45:51:
        6e:4b:42:48:9b:c8:fe:75:90:a8:ad:35:ce:d1:fa:d8:a7:ac:
        32:d0:90:ef:6b:1e:fe:58:06:1e:c5:28:9b:82:2a:37:f5:d0:
        ae:f3:0e:46:ab:27:ae:a7:c9:a0:8b:b0:27:6b:25:3d:30:86:
        05:37:77:9f:29:11:9e:c8:ea:af:ff:f0:a2:da:ba:65:09:d5:
        ef:f1:fe:61:c0:fa:8a:7d:2f:fa:37:10:80:83:48:0b:73:41:
        df:95:0a:16
-----BEGIN CERTIFICATE-----
MIID2zCCAsOgAwIBAgIUYJIaMotb7POSLvrkjl1ED83Yz9EwDQYJKoZIhvcNAQEL
BQAwfTELMAkGA1UEBhMCVVMxEzARBgNVBAgMCkNhbGlmb3JuaWExFDASBgNVBAcM
C1NhbnRhIENsYXJhMQ0wCwYDVQQKDARwa2c1MQwwCgYDVQQLDAN0YTcxEjAQBgNV
BAMMCWxvY2FsaG9zdDESMBAGCSqGSIb3DQEJARYDdGE3MB4XDTIxMTAyMjEwMTUy
MloXDTI0MDcxODEwMTUyMlowfTELMAkGA1UEBhMCVVMxEzARBgNVBAgMCkNhbGlm
b3JuaWExFDASBgNVBAcMC1NhbnRhIENsYXJhMQ0wCwYDVQQKDARwa2c1MQwwCgYD
VQQLDAN0YTcxEjAQBgNVBAMMCWxvY2FsaG9zdDESMBAGCSqGSIb3DQEJARYDdGE3
MIIBIjANBgkqhkiG9w0BAQEFAAOCAQ8AMIIBCgKCAQEAq97+vXjuyDTrl78WFiRm
VEhM9uW4atcXA1mrSa3JbVSdlK+7yvp4av16SDfLWVizKLf36uzjrVdfA9vhh8UH
1HcnsfWXt84fcQ2RqaxwzUi6IdSdPsJKKh1H7SAi2FxWmYCSE6/aF5b1hvNhxyNY
dmhST/KsyND5krgJGwI1WspM+R1dS+lUSZtthYphDMLZpv85iy0Bxw2Ep+RV1zaz
t8VSoLOVjCdGW4L1ghTCVoEOnnRI88JO/t0MrlcAH0XdtDPa8fReCc6qcPSiCWWm
xOXbmYcxCkxL9VsBQuWBNUiC4+wW0aG+ORH0mI+finReIRm1x06nHdPIfnmCox9q
dwIDAQABo1MwUTAdBgNVHQ4EFgQUN969LZi26gdBYQrkF/pu75ruliIwHwYDVR0j
BBgwFoAUN969LZi26gdBYQrkF/pu75ruliIwDwYDVR0TAQH/BAUwAwEB/zANBgkq
hkiG9w0BAQsFAAOCAQEAnFzNvHMeYxfdbCVkBfJCtzv2pkgjiGuTZc+87YB6D6Vh
VYRg5c41yBaj9zTZOONF01l5RgghKvVdLmykLJx5DBwsQfZdAn5JcJ2LSDoDoyaL
yxxCcDT7X+BGf+yI/KHVCr1RNb/MFrAOGP+94NCs7iCC+1xE/j9C9gtw/00OhmB4
bWKNKDzeAWT9SHBWBiUriqnpar4LAGXm47cNyosfN0VRbktCSJvI/nWQqK01ztH6
2KesMtCQ72se/lgGHsUom4IqN/XQrvMORqsnrqfJoIuwJ2slPTCGBTd3nykRnsjq
r//wotq6ZQnV7/H+YcD6in0v+jcQgINIC3NB35UKFg==
-----END CERTIFICATE-----
