Certificate:
    Data:
        Version: 3 (0x2)
        Serial Number:
            3b:74:28:0a:6b:20:e8:1e:fc:76:3d:56:79:b3:3a:1b:13:3c:fb:3d
        Signature Algorithm: sha256WithRSAEncryption
        Issuer: C=US, ST=California, L=Santa Clara, O=pkg5, OU=ta7, CN=localhost, emailAddress=ta7
        Validity
            Not Before: Nov 14 14:26:58 2024 GMT
            Not After : Aug 11 14:26:58 2027 GMT
        Subject: C=US, ST=California, L=Santa Clara, O=pkg5, OU=ta7, CN=localhost, emailAddress=ta7
        Subject Public Key Info:
            Public Key Algorithm: rsaEncryption
                Public-Key: (2048 bit)
                Modulus:
                    00:96:d3:d0:0c:f8:a5:c9:03:42:b3:f3:a5:fe:e5:
                    03:b4:c1:7a:a2:3e:b7:a1:e6:a4:d8:4c:14:55:a0:
                    39:b4:56:e1:f0:44:83:1c:e9:4e:ed:66:67:16:05:
                    f1:82:56:84:c3:35:eb:96:a3:44:46:e5:c9:34:99:
                    16:10:47:7a:92:fa:70:cb:56:2e:08:4c:45:c9:30:
                    87:25:55:cc:c9:64:29:9c:6e:f1:b1:d4:c7:d1:ca:
                    54:11:26:57:b4:4b:9a:13:70:a9:78:5a:a2:10:f1:
                    31:0d:3f:8f:66:25:96:39:df:54:fd:4b:de:0f:64:
                    fd:8e:fa:f5:1e:b1:17:39:c7:54:6f:54:ee:1a:49:
                    6a:38:3d:ef:f5:f3:8e:85:5f:38:2d:cc:b4:54:b0:
                    26:4a:53:b3:41:79:70:c7:a2:f3:fe:94:5f:9d:06:
                    b5:77:a8:20:24:5d:d7:75:86:6e:56:c5:a1:de:5b:
                    22:9e:fa:8a:d1:e1:cc:d2:4e:42:22:79:fa:06:fb:
                    1a:4b:9f:c3:96:a7:e5:cf:0e:ec:62:a7:82:55:0f:
                    c4:29:dc:68:87:2f:6c:39:a4:ac:a3:cf:3a:70:33:
                    f1:62:e0:73:32:ca:50:66:ad:b0:a3:09:b3:6b:35:
                    b4:df:35:d4:4e:2b:83:40:69:85:c5:bf:f3:17:e6:
                    41:5f
                Exponent: 65537 (0x10001)
        X509v3 extensions:
            X509v3 Subject Key Identifier: 
                39:33:DE:C2:5D:60:BC:EE:C1:E3:43:BC:D7:32:46:07:4F:B7:1C:40
            X509v3 Authority Key Identifier: 
                39:33:DE:C2:5D:60:BC:EE:C1:E3:43:BC:D7:32:46:07:4F:B7:1C:40
            X509v3 Basic Constraints: critical
                CA:TRUE
    Signature Algorithm: sha256WithRSAEncryption
    Signature Value:
        75:54:67:fd:47:46:bd:be:03:31:7b:39:20:29:2f:e4:2f:f9:
        46:fe:69:b5:db:e6:7e:50:93:43:8f:85:85:db:f9:bc:80:d6:
        e1:82:fa:20:30:67:ee:6e:c9:e9:80:a0:82:67:fd:94:68:ac:
        0d:f8:d9:71:4d:aa:89:0c:67:39:3c:65:2e:67:b5:af:3a:09:
        06:ec:cd:f8:0f:c4:10:b5:a1:88:12:9d:ec:33:c2:0d:86:8d:
        e3:67:db:4d:6c:06:df:a7:f2:33:ba:35:f5:70:ce:4c:d3:65:
        ae:4d:61:6b:e9:19:67:98:0a:1c:88:e4:5d:31:5d:21:de:92:
        d9:c0:61:73:a7:62:f9:ea:ed:83:51:2e:74:28:0f:d7:91:c4:
        e1:c7:63:62:d4:e9:65:cd:de:1e:4b:80:f7:9d:6f:31:60:15:
        bc:c6:e9:36:47:27:ac:93:35:2f:bc:91:e8:01:cb:ef:fe:84:
        09:89:ba:94:63:ba:23:18:3c:d9:04:0f:7d:9b:e3:eb:37:ad:
        17:de:2e:97:53:4c:1f:27:83:25:95:55:3c:97:cf:65:d6:dd:
        32:29:02:cc:56:cf:41:57:ef:2f:5f:6f:42:9d:d4:1d:bd:a1:
        ef:20:dc:95:e6:aa:07:74:03:79:0a:ee:97:f6:80:96:1a:c9:
        c7:0c:41:3c
-----BEGIN CERTIFICATE-----
MIID2zCCAsOgAwIBAgIUO3QoCmsg6B78dj1WebM6GxM8+z0wDQYJKoZIhvcNAQEL
BQAwfTELMAkGA1UEBhMCVVMxEzARBgNVBAgMCkNhbGlmb3JuaWExFDASBgNVBAcM
C1NhbnRhIENsYXJhMQ0wCwYDVQQKDARwa2c1MQwwCgYDVQQLDAN0YTcxEjAQBgNV
BAMMCWxvY2FsaG9zdDESMBAGCSqGSIb3DQEJARYDdGE3MB4XDTI0MTExNDE0MjY1
OFoXDTI3MDgxMTE0MjY1OFowfTELMAkGA1UEBhMCVVMxEzARBgNVBAgMCkNhbGlm
b3JuaWExFDASBgNVBAcMC1NhbnRhIENsYXJhMQ0wCwYDVQQKDARwa2c1MQwwCgYD
VQQLDAN0YTcxEjAQBgNVBAMMCWxvY2FsaG9zdDESMBAGCSqGSIb3DQEJARYDdGE3
MIIBIjANBgkqhkiG9w0BAQEFAAOCAQ8AMIIBCgKCAQEAltPQDPilyQNCs/Ol/uUD
tMF6oj63oeak2EwUVaA5tFbh8ESDHOlO7WZnFgXxglaEwzXrlqNERuXJNJkWEEd6
kvpwy1YuCExFyTCHJVXMyWQpnG7xsdTH0cpUESZXtEuaE3CpeFqiEPExDT+PZiWW
Od9U/UveD2T9jvr1HrEXOcdUb1TuGklqOD3v9fOOhV84Lcy0VLAmSlOzQXlwx6Lz
/pRfnQa1d6ggJF3XdYZuVsWh3lsinvqK0eHM0k5CInn6BvsaS5/Dlqflzw7sYqeC
VQ/EKdxohy9sOaSso886cDPxYuBzMspQZq2wowmzazW03zXUTiuDQGmFxb/zF+ZB
XwIDAQABo1MwUTAdBgNVHQ4EFgQUOTPewl1gvO7B40O81zJGB0+3HEAwHwYDVR0j
BBgwFoAUOTPewl1gvO7B40O81zJGB0+3HEAwDwYDVR0TAQH/BAUwAwEB/zANBgkq
hkiG9w0BAQsFAAOCAQEAdVRn/UdGvb4DMXs5ICkv5C/5Rv5ptdvmflCTQ4+Fhdv5
vIDW4YL6IDBn7m7J6YCggmf9lGisDfjZcU2qiQxnOTxlLme1rzoJBuzN+A/EELWh
iBKd7DPCDYaN42fbTWwG36fyM7o19XDOTNNlrk1ha+kZZ5gKHIjkXTFdId6S2cBh
c6di+ertg1EudCgP15HE4cdjYtTpZc3eHkuA951vMWAVvMbpNkcnrJM1L7yR6AHL
7/6ECYm6lGO6Ixg82QQPfZvj6zetF94ul1NMHyeDJZVVPJfPZdbdMikCzFbPQVfv
L19vQp3UHb2h7yDcleaqB3QDeQrul/aAlhrJxwxBPA==
-----END CERTIFICATE-----
