Certificate:
    Data:
        Version: 3 (0x2)
        Serial Number:
            75:60:f8:be:42:f2:c6:de:b3:dd:a6:fd:a0:df:8d:84:bf:bf:cd:15
        Signature Algorithm: sha256WithRSAEncryption
        Issuer: C = US, ST = California, L = Santa Clara, O = pkg5, OU = ta7, CN = localhost, emailAddress = ta7
        Validity
            Not Before: Nov 17 23:01:34 2020 GMT
            Not After : Aug 14 23:01:34 2023 GMT
        Subject: C = US, ST = California, L = Santa Clara, O = pkg5, OU = ta7, CN = localhost, emailAddress = ta7
        Subject Public Key Info:
            Public Key Algorithm: rsaEncryption
                RSA Public-Key: (2048 bit)
                Modulus:
                    00:b4:2e:06:a1:ba:b0:a6:dd:a9:b0:fa:4b:4c:8e:
                    44:fb:a0:54:d5:fc:a8:55:e2:60:7b:b7:fa:3f:17:
                    4c:28:9f:9c:48:aa:a8:75:ee:46:5e:7e:4d:8c:90:
                    c8:da:0a:7b:37:b9:a8:fa:54:e2:c9:28:91:ca:8e:
                    31:be:3e:15:47:29:fa:3f:dd:b1:d3:d5:ce:3c:51:
                    93:62:b7:d5:ef:08:db:a0:63:af:3f:56:54:af:92:
                    7f:bf:bd:e6:83:b2:b4:45:f5:17:79:8d:95:17:52:
                    e4:20:9f:e0:58:12:41:73:60:9a:2f:b1:b6:be:6c:
                    d5:01:ae:72:7d:1c:61:4b:f4:e9:a3:3b:5f:b7:0a:
                    2c:a8:dc:00:46:fa:8c:80:b8:99:e3:68:65:95:b4:
                    2b:c9:d4:b3:c4:ad:f2:de:f8:74:9e:83:2a:7b:38:
                    4e:42:97:ef:8a:63:37:9e:be:2b:26:a2:39:4b:3e:
                    ae:e3:b8:10:bb:1a:bc:01:ec:4a:88:4e:fb:35:11:
                    e2:c3:af:7e:76:07:50:8b:93:ec:e1:00:88:19:0d:
                    61:2a:3e:db:1c:3d:de:f3:eb:4b:56:75:3b:6f:ea:
                    df:dc:4d:cd:29:09:1e:d6:2c:b7:d5:2b:37:00:66:
                    2d:32:eb:fb:67:59:09:30:ae:d5:95:56:a6:68:62:
                    95:b9
                Exponent: 65537 (0x10001)
        X509v3 extensions:
            X509v3 Subject Key Identifier: 
                C0:43:DD:21:4F:7F:1C:44:43:EE:7D:28:42:E8:9E:BB:93:6B:76:39
            X509v3 Authority Key Identifier: 
                keyid:C0:43:DD:21:4F:7F:1C:44:43:EE:7D:28:42:E8:9E:BB:93:6B:76:39

            X509v3 Basic Constraints: critical
                CA:TRUE
    Signature Algorithm: sha256WithRSAEncryption
         86:8f:3d:f8:16:e8:9a:43:4f:40:71:e4:2b:81:99:dc:b8:e3:
         2f:4a:96:15:d8:8f:f5:d7:8d:1d:f9:0a:84:1f:3b:45:23:c9:
         48:89:c1:aa:01:73:f6:3b:51:58:21:7d:90:dc:ad:e5:c1:48:
         82:27:06:bd:09:91:cc:b1:86:02:25:9f:7b:90:ac:5c:50:14:
         44:61:d3:18:52:58:cf:78:1c:3f:66:3d:0b:09:3c:75:53:35:
         58:0e:d4:b0:98:0a:82:dc:42:01:ab:eb:0e:3f:e0:f8:0d:76:
         7c:c9:80:bc:f8:b7:0b:a1:7d:8a:3b:fb:99:a7:20:dc:6e:f0:
         da:f1:c3:24:65:04:c1:22:35:59:d9:c4:13:85:de:19:37:6e:
         f4:2a:be:11:24:cc:8a:2b:0e:3f:61:58:46:a8:20:dd:64:72:
         67:b6:6f:60:31:45:31:db:7f:dc:f2:6c:b8:62:92:75:f2:99:
         14:39:f2:75:51:36:e6:11:73:68:91:0c:b2:df:16:2b:26:32:
         ad:32:b3:91:d4:c7:69:be:7d:43:97:10:fe:6d:20:f8:08:0c:
         67:6d:c1:58:19:fe:a3:7c:1e:f2:7d:a7:0b:37:ab:32:7e:a8:
         58:d8:50:31:64:d7:be:9f:01:dd:37:3c:4f:92:4d:cd:1c:9b:
         c9:71:02:d3
-----BEGIN CERTIFICATE-----
MIID2zCCAsOgAwIBAgIUdWD4vkLyxt6z3ab9oN+NhL+/zRUwDQYJKoZIhvcNAQEL
BQAwfTELMAkGA1UEBhMCVVMxEzARBgNVBAgMCkNhbGlmb3JuaWExFDASBgNVBAcM
C1NhbnRhIENsYXJhMQ0wCwYDVQQKDARwa2c1MQwwCgYDVQQLDAN0YTcxEjAQBgNV
BAMMCWxvY2FsaG9zdDESMBAGCSqGSIb3DQEJARYDdGE3MB4XDTIwMTExNzIzMDEz
NFoXDTIzMDgxNDIzMDEzNFowfTELMAkGA1UEBhMCVVMxEzARBgNVBAgMCkNhbGlm
b3JuaWExFDASBgNVBAcMC1NhbnRhIENsYXJhMQ0wCwYDVQQKDARwa2c1MQwwCgYD
VQQLDAN0YTcxEjAQBgNVBAMMCWxvY2FsaG9zdDESMBAGCSqGSIb3DQEJARYDdGE3
MIIBIjANBgkqhkiG9w0BAQEFAAOCAQ8AMIIBCgKCAQEAtC4Gobqwpt2psPpLTI5E
+6BU1fyoVeJge7f6PxdMKJ+cSKqode5GXn5NjJDI2gp7N7mo+lTiySiRyo4xvj4V
Ryn6P92x09XOPFGTYrfV7wjboGOvP1ZUr5J/v73mg7K0RfUXeY2VF1LkIJ/gWBJB
c2CaL7G2vmzVAa5yfRxhS/TpoztftwosqNwARvqMgLiZ42hllbQrydSzxK3y3vh0
noMqezhOQpfvimM3nr4rJqI5Sz6u47gQuxq8AexKiE77NRHiw69+dgdQi5Ps4QCI
GQ1hKj7bHD3e8+tLVnU7b+rf3E3NKQke1iy31Ss3AGYtMuv7Z1kJMK7VlVamaGKV
uQIDAQABo1MwUTAdBgNVHQ4EFgQUwEPdIU9/HERD7n0oQuieu5NrdjkwHwYDVR0j
BBgwFoAUwEPdIU9/HERD7n0oQuieu5NrdjkwDwYDVR0TAQH/BAUwAwEB/zANBgkq
hkiG9w0BAQsFAAOCAQEAho89+BbomkNPQHHkK4GZ3LjjL0qWFdiP9deNHfkKhB87
RSPJSInBqgFz9jtRWCF9kNyt5cFIgicGvQmRzLGGAiWfe5CsXFAURGHTGFJYz3gc
P2Y9Cwk8dVM1WA7UsJgKgtxCAavrDj/g+A12fMmAvPi3C6F9ijv7macg3G7w2vHD
JGUEwSI1WdnEE4XeGTdu9Cq+ESTMiisOP2FYRqgg3WRyZ7ZvYDFFMdt/3PJsuGKS
dfKZFDnydVE25hFzaJEMst8WKyYyrTKzkdTHab59Q5cQ/m0g+AgMZ23BWBn+o3we
8n2nCzerMn6oWNhQMWTXvp8B3Tc8T5JNzRybyXEC0w==
-----END CERTIFICATE-----
