Certificate:
    Data:
        Version: 3 (0x2)
        Serial Number:
            4a:11:9f:ba:6f:21:d6:53:46:78:80:e9:dc:76:aa:96:96:22:fc:30
        Signature Algorithm: sha256WithRSAEncryption
        Issuer: C=US, ST=California, L=Santa Clara, O=pkg5, CN=ta1, emailAddress=ta1
        Validity
            Not Before: Nov 14 14:26:51 2024 GMT
            Not After : Aug 11 14:26:51 2027 GMT
        Subject: C=US, ST=California, L=Santa Clara, O=pkg5, CN=ta1, emailAddress=ta1
        Subject Public Key Info:
            Public Key Algorithm: rsaEncryption
                Public-Key: (2048 bit)
                Modulus:
                    00:b8:40:92:b3:54:75:a4:8c:42:a2:09:e4:67:7c:
                    39:b6:d3:f8:43:57:59:6f:0e:91:cd:5c:24:ee:bc:
                    58:e9:e2:03:c9:bd:5a:bd:a8:cd:9c:32:63:d4:f6:
                    56:79:a6:26:e2:3e:e9:15:aa:0d:ef:a5:d6:f0:d5:
                    33:4a:df:97:98:ed:94:bc:20:f7:77:01:83:67:d3:
                    57:7a:40:45:54:b2:7c:8b:f9:72:e0:7d:ed:c3:7b:
                    21:61:83:24:2b:fc:f8:c3:ba:58:08:ea:ee:e8:1a:
                    f8:a5:24:26:58:a5:00:d0:36:39:b7:73:bf:a2:e7:
                    bb:4d:96:2e:3f:d2:3e:f5:0d:9b:ea:cb:2f:0d:6f:
                    18:24:3a:14:9e:d2:dd:31:dd:06:b4:94:4a:2c:f7:
                    c2:38:18:d1:18:19:2e:3c:4b:bb:0c:cd:e6:9f:f1:
                    d6:19:e6:7e:6c:19:62:4e:bb:c8:d2:e7:82:cd:ab:
                    ad:2b:a5:e9:36:98:83:e6:b9:4a:a1:1b:70:4b:dd:
                    0c:6a:97:24:c7:2d:86:2f:09:96:5d:0f:70:ea:ea:
                    17:14:7f:d3:52:4f:ff:47:db:ab:2c:44:f6:57:3a:
                    f3:4a:23:eb:19:e7:69:95:fe:1d:38:db:e2:85:c7:
                    8e:f6:d3:d2:3e:46:0a:55:dc:38:ba:85:f1:62:60:
                    43:87
                Exponent: 65537 (0x10001)
        X509v3 extensions:
            X509v3 Subject Key Identifier: 
                BA:5A:E3:B8:0D:82:4E:D0:C9:B2:91:CA:5B:37:1D:65:14:73:F9:F4
            X509v3 Authority Key Identifier: 
                BA:5A:E3:B8:0D:82:4E:D0:C9:B2:91:CA:5B:37:1D:65:14:73:F9:F4
            X509v3 Basic Constraints: critical
                CA:TRUE
    Signature Algorithm: sha256WithRSAEncryption
    Signature Value:
        10:20:0d:11:5c:93:f6:b5:39:ce:46:29:1f:17:5f:f4:7c:1a:
        35:02:f0:05:12:6e:23:80:e0:64:f7:af:76:e5:73:9e:0b:3d:
        b1:12:23:4c:d6:ab:cc:cb:d2:48:91:73:02:31:ab:44:92:44:
        6b:10:71:ad:94:78:a1:db:65:91:6e:2f:d3:2b:4a:c8:7b:ae:
        59:9a:0a:37:a8:1b:86:2a:af:d6:cc:c5:50:22:02:76:57:ef:
        51:5a:d3:72:6b:cf:9e:0a:45:56:19:9c:37:47:e4:89:fe:9a:
        52:47:2b:c1:a4:c7:94:5f:c4:93:42:28:74:47:77:79:b4:12:
        25:cd:24:84:dd:79:7d:a4:23:11:0c:70:b9:ac:e1:d8:98:80:
        36:8b:d2:04:60:dd:a0:b6:f4:f8:f4:ce:09:d2:54:ea:5f:78:
        95:b2:9c:3d:99:f5:b2:65:72:03:b6:8c:cd:61:74:a9:f8:36:
        17:6e:98:67:3e:7c:6e:39:4f:c7:dc:e3:f9:19:24:c1:9a:5d:
        34:4f:f1:06:60:d7:42:2b:d4:c8:a8:53:bb:38:65:c7:13:81:
        ad:67:f6:9c:48:b8:a8:2b:b3:e5:9d:23:2a:6b:f6:a9:22:67:
        b8:d9:2d:dc:8c:b5:7c:71:f5:ae:12:6b:23:57:43:3a:2c:75:
        56:d0:f8:fc
-----BEGIN CERTIFICATE-----
MIIDszCCApugAwIBAgIUShGfum8h1lNGeIDp3HaqlpYi/DAwDQYJKoZIhvcNAQEL
BQAwaTELMAkGA1UEBhMCVVMxEzARBgNVBAgMCkNhbGlmb3JuaWExFDASBgNVBAcM
C1NhbnRhIENsYXJhMQ0wCwYDVQQKDARwa2c1MQwwCgYDVQQDDAN0YTExEjAQBgkq
hkiG9w0BCQEWA3RhMTAeFw0yNDExMTQxNDI2NTFaFw0yNzA4MTExNDI2NTFaMGkx
CzAJBgNVBAYTAlVTMRMwEQYDVQQIDApDYWxpZm9ybmlhMRQwEgYDVQQHDAtTYW50
YSBDbGFyYTENMAsGA1UECgwEcGtnNTEMMAoGA1UEAwwDdGExMRIwEAYJKoZIhvcN
AQkBFgN0YTEwggEiMA0GCSqGSIb3DQEBAQUAA4IBDwAwggEKAoIBAQC4QJKzVHWk
jEKiCeRnfDm20/hDV1lvDpHNXCTuvFjp4gPJvVq9qM2cMmPU9lZ5pibiPukVqg3v
pdbw1TNK35eY7ZS8IPd3AYNn01d6QEVUsnyL+XLgfe3DeyFhgyQr/PjDulgI6u7o
GvilJCZYpQDQNjm3c7+i57tNli4/0j71DZvqyy8NbxgkOhSe0t0x3Qa0lEos98I4
GNEYGS48S7sMzeaf8dYZ5n5sGWJOu8jS54LNq60rpek2mIPmuUqhG3BL3QxqlyTH
LYYvCZZdD3Dq6hcUf9NST/9H26ssRPZXOvNKI+sZ52mV/h042+KFx47209I+RgpV
3Di6hfFiYEOHAgMBAAGjUzBRMB0GA1UdDgQWBBS6WuO4DYJO0MmykcpbNx1lFHP5
9DAfBgNVHSMEGDAWgBS6WuO4DYJO0MmykcpbNx1lFHP59DAPBgNVHRMBAf8EBTAD
AQH/MA0GCSqGSIb3DQEBCwUAA4IBAQAQIA0RXJP2tTnORikfF1/0fBo1AvAFEm4j
gOBk96925XOeCz2xEiNM1qvMy9JIkXMCMatEkkRrEHGtlHih22WRbi/TK0rIe65Z
mgo3qBuGKq/WzMVQIgJ2V+9RWtNya8+eCkVWGZw3R+SJ/ppSRyvBpMeUX8STQih0
R3d5tBIlzSSE3Xl9pCMRDHC5rOHYmIA2i9IEYN2gtvT49M4J0lTqX3iVspw9mfWy
ZXIDtozNYXSp+DYXbphnPnxuOU/H3OP5GSTBml00T/EGYNdCK9TIqFO7OGXHE4Gt
Z/acSLioK7PlnSMqa/apIme42S3cjLV8cfWuEmsjV0M6LHVW0Pj8
-----END CERTIFICATE-----
