Certificate:
    Data:
        Version: 3 (0x2)
        Serial Number:
            fa:a5:2c:fb:09:28:0e:3b
    Signature Algorithm: sha256WithRSAEncryption
        Issuer: C=US, ST=California, L=Santa Clara, O=pkg5, CN=ta1/emailAddress=ta1
        Validity
            Not Before: Mar 20 10:20:51 2018 GMT
            Not After : Dec 14 10:20:51 2020 GMT
        Subject: C=US, ST=California, L=Santa Clara, O=pkg5, CN=ta1/emailAddress=ta1
        Subject Public Key Info:
            Public Key Algorithm: rsaEncryption
                Public-Key: (2048 bit)
                Modulus:
                    00:b9:bf:c4:a5:41:4f:bc:26:d7:bb:ff:a5:6f:0b:
                    f8:5c:11:18:0a:47:be:9c:76:31:1c:6a:c6:ec:e7:
                    4d:d8:bb:83:0d:b4:07:3a:5a:6d:f1:80:1a:4d:35:
                    0a:9b:40:0b:86:cd:7f:ca:8c:72:3a:3e:83:7a:b4:
                    da:de:f3:f6:69:8c:31:c7:90:04:cf:a7:e9:18:56:
                    6b:9d:41:59:a0:c9:8b:2a:fc:db:a6:08:b2:6b:0b:
                    e2:ab:5f:d2:b5:a8:b0:dc:b9:29:3d:58:a7:a4:c0:
                    13:01:b7:8b:cc:4d:f1:47:22:a7:53:51:7b:8d:61:
                    1d:7c:67:81:35:b8:ee:26:e8:2f:44:3d:0c:5f:9f:
                    2d:da:a7:98:52:bc:ca:b4:5e:80:0a:e7:22:9b:ea:
                    44:7a:38:0d:9e:f6:d5:bb:f0:c2:55:ff:01:ae:89:
                    ba:61:0f:4d:d5:9a:4a:fb:0b:5d:60:c2:89:d0:9a:
                    ac:9e:03:89:a4:7f:1b:b5:8c:54:d0:68:e4:ec:e8:
                    c9:74:74:8e:02:04:9e:10:10:41:c4:e5:e2:36:79:
                    40:4a:87:a1:01:0e:07:76:5e:8d:f3:dc:0b:e6:86:
                    c7:e5:7d:2e:6f:62:ce:a9:9b:75:2f:fe:d2:57:c8:
                    07:b5:0e:97:41:fe:a2:a5:03:18:3e:e1:ee:c9:4a:
                    39:59
                Exponent: 65537 (0x10001)
        X509v3 extensions:
            X509v3 Subject Key Identifier: 
                64:46:51:16:02:A9:CE:D5:85:37:9B:78:93:DB:8B:27:27:AA:5D:FF
            X509v3 Authority Key Identifier: 
                keyid:64:46:51:16:02:A9:CE:D5:85:37:9B:78:93:DB:8B:27:27:AA:5D:FF

            X509v3 Basic Constraints: 
                CA:TRUE
    Signature Algorithm: sha256WithRSAEncryption
         82:7b:6d:ab:93:8a:d8:ea:bd:c7:07:68:b6:e2:11:75:fe:19:
         3b:7c:25:19:fd:70:f9:a3:54:3b:43:6a:4d:f6:d8:41:1d:c5:
         4d:ad:5f:43:d2:39:53:38:9e:bf:94:e0:32:46:13:f9:ce:a0:
         77:62:f9:a9:12:fe:08:ef:24:f9:53:c1:85:98:ff:b1:7b:05:
         54:ab:dd:29:d9:36:0a:a5:a7:7e:62:3d:35:30:0e:1e:03:10:
         c7:84:05:ea:dc:ad:54:9d:42:2c:aa:71:03:c8:f4:2e:ec:9c:
         71:5a:44:b9:6c:08:5f:b8:56:16:e7:f3:29:d4:19:7a:45:be:
         29:69:04:1e:73:31:bb:31:97:1a:18:c6:2d:31:c2:26:50:29:
         6b:4b:c7:ad:84:5b:a2:b5:f4:1e:41:ff:6c:35:31:b0:ab:00:
         58:fa:c6:eb:b3:1e:7a:26:f7:6a:f5:3e:8d:15:01:e8:f6:ab:
         cf:70:f1:ef:9c:60:80:02:fa:43:db:47:0b:69:b0:c4:f0:04:
         70:e1:0c:40:f1:a7:35:bd:e9:33:d6:4c:a4:93:5f:15:9d:1c:
         b8:de:e8:98:a5:52:34:52:07:1b:2d:b7:db:ec:9f:9a:26:e8:
         da:3e:b1:3b:78:7f:0d:5a:13:5e:3c:d1:59:ae:dc:7e:48:b7:
         b9:2f:a8:5e
-----BEGIN CERTIFICATE-----
MIIDpTCCAo2gAwIBAgIJAPqlLPsJKA47MA0GCSqGSIb3DQEBCwUAMGkxCzAJBgNV
BAYTAlVTMRMwEQYDVQQIDApDYWxpZm9ybmlhMRQwEgYDVQQHDAtTYW50YSBDbGFy
YTENMAsGA1UECgwEcGtnNTEMMAoGA1UEAwwDdGExMRIwEAYJKoZIhvcNAQkBFgN0
YTEwHhcNMTgwMzIwMTAyMDUxWhcNMjAxMjE0MTAyMDUxWjBpMQswCQYDVQQGEwJV
UzETMBEGA1UECAwKQ2FsaWZvcm5pYTEUMBIGA1UEBwwLU2FudGEgQ2xhcmExDTAL
BgNVBAoMBHBrZzUxDDAKBgNVBAMMA3RhMTESMBAGCSqGSIb3DQEJARYDdGExMIIB
IjANBgkqhkiG9w0BAQEFAAOCAQ8AMIIBCgKCAQEAub/EpUFPvCbXu/+lbwv4XBEY
Cke+nHYxHGrG7OdN2LuDDbQHOlpt8YAaTTUKm0ALhs1/yoxyOj6DerTa3vP2aYwx
x5AEz6fpGFZrnUFZoMmLKvzbpgiyawviq1/Staiw3LkpPVinpMATAbeLzE3xRyKn
U1F7jWEdfGeBNbjuJugvRD0MX58t2qeYUrzKtF6ACucim+pEejgNnvbVu/DCVf8B
rom6YQ9N1ZpK+wtdYMKJ0JqsngOJpH8btYxU0Gjk7OjJdHSOAgSeEBBBxOXiNnlA
SoehAQ4Hdl6N89wL5obH5X0ub2LOqZt1L/7SV8gHtQ6XQf6ipQMYPuHuyUo5WQID
AQABo1AwTjAdBgNVHQ4EFgQUZEZRFgKpztWFN5t4k9uLJyeqXf8wHwYDVR0jBBgw
FoAUZEZRFgKpztWFN5t4k9uLJyeqXf8wDAYDVR0TBAUwAwEB/zANBgkqhkiG9w0B
AQsFAAOCAQEAgnttq5OK2Oq9xwdotuIRdf4ZO3wlGf1w+aNUO0NqTfbYQR3FTa1f
Q9I5Uziev5TgMkYT+c6gd2L5qRL+CO8k+VPBhZj/sXsFVKvdKdk2CqWnfmI9NTAO
HgMQx4QF6tytVJ1CLKpxA8j0LuyccVpEuWwIX7hWFufzKdQZekW+KWkEHnMxuzGX
GhjGLTHCJlApa0vHrYRborX0HkH/bDUxsKsAWPrG67Meeib3avU+jRUB6Parz3Dx
75xggAL6Q9tHC2mwxPAEcOEMQPGnNb3pM9ZMpJNfFZ0cuN7omKVSNFIHGy232+yf
mibo2j6xO3h/DVoTXjzRWa7cfki3uS+oXg==
-----END CERTIFICATE-----
