Certificate:
    Data:
        Version: 3 (0x2)
        Serial Number:
            79:46:cf:d3:e1:7a:80:6f:dd:14:55:1c:89:5f:06:09:6c:a3:4c:44
        Signature Algorithm: sha256WithRSAEncryption
        Issuer: C = US, ST = California, L = Santa Clara, O = pkg5, CN = ta1, emailAddress = ta1
        Validity
            Not Before: Nov 17 23:01:27 2020 GMT
            Not After : Aug 14 23:01:27 2023 GMT
        Subject: C = US, ST = California, L = Santa Clara, O = pkg5, CN = ta1, emailAddress = ta1
        Subject Public Key Info:
            Public Key Algorithm: rsaEncryption
                RSA Public-Key: (2048 bit)
                Modulus:
                    00:b1:ea:a7:e8:db:37:b7:21:2b:39:91:e2:c5:a5:
                    0c:6e:9b:2e:78:e6:5b:a8:ef:ca:9c:35:32:26:96:
                    5f:ec:1c:87:a4:ef:16:8f:e6:5a:38:64:de:08:d7:
                    d0:a9:d4:c4:3f:8b:a8:cd:db:1a:1f:76:41:ab:01:
                    1e:2c:fa:4f:25:20:00:37:5a:71:02:59:b6:69:fc:
                    5a:59:e1:6b:ed:38:66:e7:e7:a2:05:b1:01:5f:14:
                    14:ca:e6:a3:72:d7:77:d2:1f:6a:6b:f2:be:70:df:
                    0a:58:d3:91:5e:44:15:22:cf:7e:55:a6:cf:0b:0d:
                    46:2a:58:4c:3b:87:0f:c1:44:56:90:ae:25:93:38:
                    c7:dc:78:e1:f5:89:c5:56:d8:ef:c6:d1:fb:5b:b9:
                    f4:26:0a:75:b2:72:c8:e9:e5:57:94:96:97:76:3e:
                    f8:fc:2f:59:20:bb:cc:d5:f2:1e:8a:24:94:0f:4f:
                    e1:f8:a3:c6:a7:ea:99:81:87:23:92:da:2a:54:d2:
                    34:10:3d:14:25:79:bf:18:16:46:3f:69:9f:6c:e8:
                    d6:5c:64:40:33:9b:07:59:38:75:41:75:77:df:13:
                    0e:5a:0f:a9:7a:9b:90:79:cb:4a:9a:64:8f:72:86:
                    76:9b:8e:f1:86:86:12:61:06:3a:b1:ba:67:4f:29:
                    df:f9
                Exponent: 65537 (0x10001)
        X509v3 extensions:
            X509v3 Subject Key Identifier: 
                23:4C:14:6A:21:11:6E:27:31:DF:89:2F:6F:0B:C3:92:A1:89:65:A9
            X509v3 Authority Key Identifier: 
                keyid:23:4C:14:6A:21:11:6E:27:31:DF:89:2F:6F:0B:C3:92:A1:89:65:A9

            X509v3 Basic Constraints: critical
                CA:TRUE
    Signature Algorithm: sha256WithRSAEncryption
         8c:94:26:ff:51:1a:d4:34:ac:4f:40:e4:bc:3f:12:4b:b2:56:
         1e:f4:09:48:2f:ed:0f:d0:3b:ae:cc:b3:9d:12:ff:0b:2e:f8:
         42:d8:5c:8c:4b:86:8b:77:33:9b:48:d0:55:98:2a:20:21:a7:
         79:fe:21:34:b3:e9:4e:6c:17:b8:70:e0:4b:cc:82:a2:61:25:
         ad:cf:46:86:42:c8:bd:75:2a:a5:04:5c:4f:e2:d9:a7:6f:8e:
         57:74:40:48:3e:fa:22:10:0f:1d:ab:72:06:8f:96:59:49:a6:
         ca:24:62:08:ae:6f:cf:fb:9d:73:ea:48:42:ad:95:5c:4b:0c:
         01:a9:8d:2c:81:74:e9:5b:22:8a:28:3c:e7:67:78:88:9b:95:
         18:80:ef:9a:87:31:54:70:69:a3:52:6a:0b:c8:a0:fc:dc:73:
         2b:1e:bc:0b:21:f4:7b:ae:87:1c:98:53:8c:41:43:e0:a7:00:
         64:72:3e:f4:15:24:69:38:cb:46:4e:fc:be:05:b8:56:51:85:
         50:5e:d9:41:76:38:dc:33:77:ad:b6:d9:df:78:4f:36:5b:1e:
         35:41:97:84:e0:f1:16:10:cf:ed:c3:40:3c:d2:bd:ea:02:1d:
         44:1a:60:c8:e9:bf:17:0a:fc:de:5c:c0:91:a8:b8:11:63:02:
         7a:07:08:d2
-----BEGIN CERTIFICATE-----
MIIDszCCApugAwIBAgIUeUbP0+F6gG/dFFUciV8GCWyjTEQwDQYJKoZIhvcNAQEL
BQAwaTELMAkGA1UEBhMCVVMxEzARBgNVBAgMCkNhbGlmb3JuaWExFDASBgNVBAcM
C1NhbnRhIENsYXJhMQ0wCwYDVQQKDARwa2c1MQwwCgYDVQQDDAN0YTExEjAQBgkq
hkiG9w0BCQEWA3RhMTAeFw0yMDExMTcyMzAxMjdaFw0yMzA4MTQyMzAxMjdaMGkx
CzAJBgNVBAYTAlVTMRMwEQYDVQQIDApDYWxpZm9ybmlhMRQwEgYDVQQHDAtTYW50
YSBDbGFyYTENMAsGA1UECgwEcGtnNTEMMAoGA1UEAwwDdGExMRIwEAYJKoZIhvcN
AQkBFgN0YTEwggEiMA0GCSqGSIb3DQEBAQUAA4IBDwAwggEKAoIBAQCx6qfo2ze3
ISs5keLFpQxumy545luo78qcNTImll/sHIek7xaP5lo4ZN4I19Cp1MQ/i6jN2xof
dkGrAR4s+k8lIAA3WnECWbZp/FpZ4WvtOGbn56IFsQFfFBTK5qNy13fSH2pr8r5w
3wpY05FeRBUiz35Vps8LDUYqWEw7hw/BRFaQriWTOMfceOH1icVW2O/G0ftbufQm
CnWycsjp5VeUlpd2Pvj8L1kgu8zV8h6KJJQPT+H4o8an6pmBhyOS2ipU0jQQPRQl
eb8YFkY/aZ9s6NZcZEAzmwdZOHVBdXffEw5aD6l6m5B5y0qaZI9yhnabjvGGhhJh
BjqxumdPKd/5AgMBAAGjUzBRMB0GA1UdDgQWBBQjTBRqIRFuJzHfiS9vC8OSoYll
qTAfBgNVHSMEGDAWgBQjTBRqIRFuJzHfiS9vC8OSoYllqTAPBgNVHRMBAf8EBTAD
AQH/MA0GCSqGSIb3DQEBCwUAA4IBAQCMlCb/URrUNKxPQOS8PxJLslYe9AlIL+0P
0DuuzLOdEv8LLvhC2FyMS4aLdzObSNBVmCogIad5/iE0s+lObBe4cOBLzIKiYSWt
z0aGQsi9dSqlBFxP4tmnb45XdEBIPvoiEA8dq3IGj5ZZSabKJGIIrm/P+51z6khC
rZVcSwwBqY0sgXTpWyKKKDznZ3iIm5UYgO+ahzFUcGmjUmoLyKD83HMrHrwLIfR7
roccmFOMQUPgpwBkcj70FSRpOMtGTvy+BbhWUYVQXtlBdjjcM3etttnfeE82Wx41
QZeE4PEWEM/tw0A80r3qAh1EGmDI6b8XCvzeXMCRqLgRYwJ6BwjS
-----END CERTIFICATE-----
