Certificate:
    Data:
        Version: 3 (0x2)
        Serial Number:
            0a:e3:4f:f5:d9:6a:0d:4a:c3:27:c7:62:43:4a:77:2f:73:0c:5b:9b
        Signature Algorithm: sha256WithRSAEncryption
        Issuer: C = US, ST = California, L = Santa Clara, O = pkg5, CN = ta1, emailAddress = ta1
        Validity
            Not Before: Dec 15 15:37:14 2022 GMT
            Not After : Sep 10 15:37:14 2025 GMT
        Subject: C = US, ST = California, L = Santa Clara, O = pkg5, CN = ta1, emailAddress = ta1
        Subject Public Key Info:
            Public Key Algorithm: rsaEncryption
                Public-Key: (2048 bit)
                Modulus:
                    00:a6:61:b8:c8:64:22:ff:56:03:89:9f:d5:42:db:
                    e6:b3:3d:2e:6e:4a:e5:a8:d4:14:85:8b:17:87:93:
                    ec:5d:47:db:74:02:00:2b:72:4c:0f:8b:ec:6c:18:
                    5d:11:cf:92:a5:59:b7:b6:af:6f:64:95:e8:0a:5a:
                    d7:80:72:c8:f3:6e:2d:af:e0:b5:e7:6a:ae:51:50:
                    8d:8c:6e:21:7e:7f:af:45:86:f8:53:da:1e:ad:86:
                    ef:49:c7:09:2c:2e:b3:07:3a:ab:16:ca:fa:c7:29:
                    e4:06:a5:09:63:9c:75:77:55:c7:39:c9:9e:eb:d5:
                    51:12:24:3a:89:57:cb:35:ec:82:8b:d0:10:39:a0:
                    f1:73:c0:e9:cf:10:e3:cd:b8:ca:4a:67:ce:68:df:
                    72:bd:82:72:85:14:6e:57:ce:db:10:c1:22:51:0c:
                    6e:61:b3:4f:7e:48:56:05:4e:b9:99:43:84:8e:8c:
                    a5:a6:36:c6:39:12:60:c1:4a:55:b7:e1:ed:0d:5d:
                    ac:aa:9b:01:ea:8d:0e:18:dc:cd:b7:e8:ca:21:1e:
                    2d:f8:de:8d:64:06:1b:4a:a8:7f:f0:1e:23:3e:9f:
                    36:e1:44:b9:48:1e:42:c5:f9:db:cc:f2:14:ee:e5:
                    4b:b2:b1:b0:58:0f:46:16:7b:0f:5f:b0:b2:6d:02:
                    da:31
                Exponent: 65537 (0x10001)
        X509v3 extensions:
            X509v3 Subject Key Identifier: 
                E2:53:9E:AD:76:02:1B:EA:99:5E:53:3E:57:28:73:30:53:4B:44:6C
            X509v3 Authority Key Identifier: 
                E2:53:9E:AD:76:02:1B:EA:99:5E:53:3E:57:28:73:30:53:4B:44:6C
            X509v3 Basic Constraints: critical
                CA:TRUE
    Signature Algorithm: sha256WithRSAEncryption
    Signature Value:
        8b:09:8e:a5:14:e1:8e:2c:18:85:45:d9:14:7e:c5:55:9d:2d:
        0b:f1:d7:5c:d4:bc:8e:33:f1:5d:20:4d:e9:a8:bf:ed:2c:fe:
        94:a5:cf:d7:7c:3b:16:8c:2a:89:49:a9:a7:c6:6e:a3:f3:0b:
        f8:fe:02:d8:44:d1:6b:0a:12:4f:dd:ba:6f:6d:3c:25:e8:ff:
        a4:b6:e7:29:e1:d6:20:26:c4:51:9a:6d:34:28:b7:b0:24:03:
        df:fc:c6:ad:66:f1:be:61:fe:7d:25:66:2d:69:9e:5b:1b:d3:
        1b:43:55:31:72:bb:60:3a:14:b9:2c:12:ec:33:2c:e0:66:e2:
        24:eb:81:16:a0:ba:48:13:67:a9:82:f4:b7:9c:de:c7:64:86:
        7b:d5:27:f0:65:91:21:5a:bb:39:a2:6c:bc:c8:2b:56:54:42:
        28:66:82:44:7e:75:94:9a:53:f3:0d:c7:5a:61:aa:58:34:93:
        73:9a:5e:2b:e8:c2:f9:ec:79:43:92:b3:03:53:5c:dd:a8:71:
        40:47:fb:54:96:3c:4d:15:3e:fc:f1:1c:01:e9:cf:f8:f7:7b:
        9c:41:3e:ef:9a:ac:7f:13:ce:03:3b:16:b8:29:f7:97:79:72:
        d7:ef:ce:e2:3a:ee:e5:ee:db:d4:c4:48:05:d8:5c:80:5f:71:
        7f:56:91:5e
-----BEGIN CERTIFICATE-----
MIIDszCCApugAwIBAgIUCuNP9dlqDUrDJ8diQ0p3L3MMW5swDQYJKoZIhvcNAQEL
BQAwaTELMAkGA1UEBhMCVVMxEzARBgNVBAgMCkNhbGlmb3JuaWExFDASBgNVBAcM
C1NhbnRhIENsYXJhMQ0wCwYDVQQKDARwa2c1MQwwCgYDVQQDDAN0YTExEjAQBgkq
hkiG9w0BCQEWA3RhMTAeFw0yMjEyMTUxNTM3MTRaFw0yNTA5MTAxNTM3MTRaMGkx
CzAJBgNVBAYTAlVTMRMwEQYDVQQIDApDYWxpZm9ybmlhMRQwEgYDVQQHDAtTYW50
YSBDbGFyYTENMAsGA1UECgwEcGtnNTEMMAoGA1UEAwwDdGExMRIwEAYJKoZIhvcN
AQkBFgN0YTEwggEiMA0GCSqGSIb3DQEBAQUAA4IBDwAwggEKAoIBAQCmYbjIZCL/
VgOJn9VC2+azPS5uSuWo1BSFixeHk+xdR9t0AgArckwPi+xsGF0Rz5KlWbe2r29k
legKWteAcsjzbi2v4LXnaq5RUI2MbiF+f69FhvhT2h6thu9JxwksLrMHOqsWyvrH
KeQGpQljnHV3Vcc5yZ7r1VESJDqJV8s17IKL0BA5oPFzwOnPEOPNuMpKZ85o33K9
gnKFFG5XztsQwSJRDG5hs09+SFYFTrmZQ4SOjKWmNsY5EmDBSlW34e0NXayqmwHq
jQ4Y3M236MohHi343o1kBhtKqH/wHiM+nzbhRLlIHkLF+dvM8hTu5UuysbBYD0YW
ew9fsLJtAtoxAgMBAAGjUzBRMB0GA1UdDgQWBBTiU56tdgIb6pleUz5XKHMwU0tE
bDAfBgNVHSMEGDAWgBTiU56tdgIb6pleUz5XKHMwU0tEbDAPBgNVHRMBAf8EBTAD
AQH/MA0GCSqGSIb3DQEBCwUAA4IBAQCLCY6lFOGOLBiFRdkUfsVVnS0L8ddc1LyO
M/FdIE3pqL/tLP6Upc/XfDsWjCqJSamnxm6j8wv4/gLYRNFrChJP3bpvbTwl6P+k
tucp4dYgJsRRmm00KLewJAPf/MatZvG+Yf59JWYtaZ5bG9MbQ1UxcrtgOhS5LBLs
MyzgZuIk64EWoLpIE2epgvS3nN7HZIZ71SfwZZEhWrs5omy8yCtWVEIoZoJEfnWU
mlPzDcdaYapYNJNzml4r6ML57HlDkrMDU1zdqHFAR/tUljxNFT788RwB6c/493uc
QT7vmqx/E84DOxa4KfeXeXLX787iOu7l7tvUxEgF2FyAX3F/VpFe
-----END CERTIFICATE-----
