Certificate:
    Data:
        Version: 3 (0x2)
        Serial Number:
            b7:ea:86:fd:ff:a9:62:c6
    Signature Algorithm: sha256WithRSAEncryption
        Issuer: C=US, ST=California, L=Santa Clara, O=pkg5, CN=ta1/emailAddress=ta1
        Validity
            Not Before: Nov 28 22:50:54 2016 GMT
            Not After : Aug 25 22:50:54 2019 GMT
        Subject: C=US, ST=California, L=Santa Clara, O=pkg5, CN=ta1/emailAddress=ta1
        Subject Public Key Info:
            Public Key Algorithm: rsaEncryption
                Public-Key: (2048 bit)
                Modulus:
                    00:a5:5b:8e:b3:a6:47:74:0c:63:87:99:66:9e:d1:
                    19:9e:bb:7f:bb:1b:56:ec:df:b7:27:7c:7a:58:4b:
                    23:e9:6e:88:fd:32:04:0e:d9:ef:fd:cb:7b:1a:17:
                    2a:5b:8f:47:08:f8:af:80:dd:41:46:c7:00:07:ad:
                    32:e5:6b:92:78:01:36:9a:d4:43:a3:a9:7d:cf:d8:
                    cf:0f:6f:ce:6e:6b:9f:b3:f3:e6:ed:43:de:63:1e:
                    54:d2:a3:80:40:df:2f:01:65:8f:c6:ca:11:82:6b:
                    99:5d:52:28:81:7b:0c:9f:eb:06:00:12:77:2d:77:
                    7d:cc:0d:1f:ff:e3:2a:b7:5b:9d:ba:df:e3:59:35:
                    d2:ba:b6:9f:ea:d8:a6:97:36:f5:2c:b2:e0:3f:9f:
                    33:33:ce:4e:fc:cd:3a:71:05:28:e4:35:98:cf:5b:
                    c6:75:a6:0f:44:27:07:d9:2e:2c:69:6d:f9:9a:dc:
                    37:82:47:03:8d:7b:ad:f7:95:bb:65:f1:40:83:16:
                    0e:62:8e:6f:f5:04:f6:f3:f5:72:eb:b6:a4:5b:d1:
                    19:8d:32:b5:96:8d:0d:bf:11:4a:95:6c:86:df:50:
                    46:a4:f8:a8:9b:0e:77:47:a7:aa:d5:d8:de:d0:bc:
                    d8:ae:47:51:23:e9:fd:25:65:ad:e2:19:52:d2:fd:
                    df:c3
                Exponent: 65537 (0x10001)
        X509v3 extensions:
            X509v3 Subject Key Identifier: 
                09:74:11:51:65:F4:1C:32:DB:45:57:F0:54:4F:38:A9:60:2E:47:57
            X509v3 Authority Key Identifier: 
                keyid:09:74:11:51:65:F4:1C:32:DB:45:57:F0:54:4F:38:A9:60:2E:47:57

            X509v3 Basic Constraints: 
                CA:TRUE
    Signature Algorithm: sha256WithRSAEncryption
         80:18:da:ed:38:6c:2f:a9:ea:b3:70:e2:55:9a:6b:39:dd:3a:
         56:1c:f0:0a:d8:ea:e7:53:77:e0:6d:09:12:38:c5:19:3a:6a:
         ff:1b:2a:1a:fb:a7:5d:78:09:5e:e2:9e:6e:30:0f:f2:68:8c:
         b4:6b:f3:9b:fb:86:34:9f:e9:14:50:36:71:ec:28:f5:de:e2:
         7e:35:4f:1a:60:c1:4c:2f:31:33:2c:19:25:37:30:37:a0:38:
         da:29:c5:43:c2:d0:8a:c0:fc:c7:17:9b:40:a2:b8:df:a9:bc:
         85:16:74:a7:da:12:f2:6e:96:98:a7:fa:0a:b1:8c:fd:7f:bd:
         e7:bf:93:41:96:2b:b5:52:1f:e8:7f:0a:fb:97:1a:a8:d4:24:
         cd:58:12:e1:bb:a6:5b:4d:d8:13:d9:e9:6d:bd:5e:d4:8d:fe:
         b9:55:b4:59:77:23:f1:95:ff:70:85:a7:88:a9:14:87:7a:c0:
         c4:c3:b1:82:00:1a:6c:25:0b:f1:58:8a:72:b3:48:cd:48:66:
         bc:46:84:d8:24:76:54:f0:02:02:60:ef:10:84:bc:c6:45:59:
         fa:01:fa:43:93:28:cd:46:e5:21:ae:11:88:6c:88:fd:2f:1e:
         7c:72:cc:ec:c5:39:b5:5e:44:35:78:67:78:49:cc:bf:20:dd:
         a7:31:12:9c
-----BEGIN CERTIFICATE-----
MIIDpTCCAo2gAwIBAgIJALfqhv3/qWLGMA0GCSqGSIb3DQEBCwUAMGkxCzAJBgNV
BAYTAlVTMRMwEQYDVQQIDApDYWxpZm9ybmlhMRQwEgYDVQQHDAtTYW50YSBDbGFy
YTENMAsGA1UECgwEcGtnNTEMMAoGA1UEAwwDdGExMRIwEAYJKoZIhvcNAQkBFgN0
YTEwHhcNMTYxMTI4MjI1MDU0WhcNMTkwODI1MjI1MDU0WjBpMQswCQYDVQQGEwJV
UzETMBEGA1UECAwKQ2FsaWZvcm5pYTEUMBIGA1UEBwwLU2FudGEgQ2xhcmExDTAL
BgNVBAoMBHBrZzUxDDAKBgNVBAMMA3RhMTESMBAGCSqGSIb3DQEJARYDdGExMIIB
IjANBgkqhkiG9w0BAQEFAAOCAQ8AMIIBCgKCAQEApVuOs6ZHdAxjh5lmntEZnrt/
uxtW7N+3J3x6WEsj6W6I/TIEDtnv/ct7GhcqW49HCPivgN1BRscAB60y5WuSeAE2
mtRDo6l9z9jPD2/Obmufs/Pm7UPeYx5U0qOAQN8vAWWPxsoRgmuZXVIogXsMn+sG
ABJ3LXd9zA0f/+Mqt1udut/jWTXSuraf6timlzb1LLLgP58zM85O/M06cQUo5DWY
z1vGdaYPRCcH2S4saW35mtw3gkcDjXut95W7ZfFAgxYOYo5v9QT28/Vy67akW9EZ
jTK1lo0NvxFKlWyG31BGpPiomw53R6eq1dje0LzYrkdRI+n9JWWt4hlS0v3fwwID
AQABo1AwTjAdBgNVHQ4EFgQUCXQRUWX0HDLbRVfwVE84qWAuR1cwHwYDVR0jBBgw
FoAUCXQRUWX0HDLbRVfwVE84qWAuR1cwDAYDVR0TBAUwAwEB/zANBgkqhkiG9w0B
AQsFAAOCAQEAgBja7ThsL6nqs3DiVZprOd06VhzwCtjq51N34G0JEjjFGTpq/xsq
GvunXXgJXuKebjAP8miMtGvzm/uGNJ/pFFA2cewo9d7ifjVPGmDBTC8xMywZJTcw
N6A42inFQ8LQisD8xxebQKK436m8hRZ0p9oS8m6WmKf6CrGM/X+957+TQZYrtVIf
6H8K+5caqNQkzVgS4bumW03YE9npbb1e1I3+uVW0WXcj8ZX/cIWniKkUh3rAxMOx
ggAabCUL8ViKcrNIzUhmvEaE2CR2VPACAmDvEIS8xkVZ+gH6Q5MozUblIa4RiGyI
/S8efHLM7MU5tV5ENXhneEnMvyDdpzESnA==
-----END CERTIFICATE-----
