Certificate:
    Data:
        Version: 3 (0x2)
        Serial Number:
            2e:56:6f:f9:85:e6:c6:80:e0:26:83:9b:e8:54:20:a8:8d:fb:0d:ca
        Signature Algorithm: sha256WithRSAEncryption
        Issuer: C = US, ST = California, L = Santa Clara, O = pkg5, CN = ta1, emailAddress = ta1
        Validity
            Not Before: Oct 24 21:42:58 2023 GMT
            Not After : Jul 20 21:42:58 2026 GMT
        Subject: C = US, ST = California, L = Santa Clara, O = pkg5, CN = ta1, emailAddress = ta1
        Subject Public Key Info:
            Public Key Algorithm: rsaEncryption
                Public-Key: (2048 bit)
                Modulus:
                    00:a9:34:43:18:a8:6c:73:f7:f6:11:bc:3c:65:42:
                    9a:2e:05:4c:ae:3e:fc:0e:8a:4f:4e:63:a4:9e:f5:
                    79:0d:74:85:43:1e:64:f7:48:c4:77:56:4f:a8:0d:
                    8f:10:c0:92:f1:4d:40:7d:5d:3e:65:d6:cf:9d:14:
                    43:24:93:b9:0c:de:75:ad:63:f3:f4:55:ed:14:58:
                    e1:9b:5e:f6:0e:53:73:b6:ae:08:dc:35:cb:da:85:
                    64:7f:c2:51:c3:8b:19:cc:e6:87:1a:ad:96:6b:5a:
                    69:ae:34:8a:bc:25:97:66:dd:c3:a1:29:a8:c0:bb:
                    2b:4d:f6:31:aa:4d:f2:58:dd:1e:2a:d3:81:0f:53:
                    f0:ed:27:e1:4b:a8:49:4c:6a:97:2f:b4:49:7e:f2:
                    fa:5d:4d:e8:13:d0:b8:3b:89:a2:ea:90:bf:09:fa:
                    df:2e:3c:a2:a2:9a:36:f1:3f:ac:80:4b:ef:5e:88:
                    f6:0b:1f:2a:da:7d:20:42:e1:38:43:18:93:49:9c:
                    cc:a7:07:06:75:4d:67:af:a6:3c:1a:c2:a2:78:15:
                    1c:97:68:4c:8a:ae:7e:60:ab:e9:f3:3a:97:dc:c4:
                    3e:e2:d5:63:cd:80:13:74:5a:f2:33:dd:03:27:76:
                    2a:f2:7c:33:6d:f9:8f:c5:cc:4e:d7:f8:b1:29:4b:
                    dd:23
                Exponent: 65537 (0x10001)
        X509v3 extensions:
            X509v3 Subject Key Identifier: 
                70:69:61:61:CF:92:1B:33:44:AD:8E:5E:8E:BE:C8:75:32:DF:B1:77
            X509v3 Authority Key Identifier: 
                70:69:61:61:CF:92:1B:33:44:AD:8E:5E:8E:BE:C8:75:32:DF:B1:77
            X509v3 Basic Constraints: critical
                CA:TRUE
    Signature Algorithm: sha256WithRSAEncryption
    Signature Value:
        05:55:fc:6a:75:66:72:f9:ad:5c:c9:2b:f7:e1:17:ce:c2:1c:
        ba:f5:bf:19:55:36:48:67:e2:df:0c:45:cf:83:c6:96:d9:77:
        9a:20:d9:d3:8f:15:76:71:29:df:4f:9b:59:6f:da:8b:9d:44:
        fa:c4:9b:b7:93:22:a1:be:ed:c3:04:94:f9:a2:12:8f:40:d9:
        ab:0e:8a:6a:d0:93:f6:2f:90:6f:33:dd:61:57:fa:8e:f1:3d:
        1f:7a:f7:2d:e7:f0:ed:f1:ff:1e:73:15:8b:2a:59:9a:88:f5:
        b4:68:23:e5:f6:83:7c:08:a2:50:27:68:86:2f:30:d7:e9:a7:
        d2:be:b0:7e:6e:05:d1:43:8e:26:8b:e5:7b:85:43:bd:ac:b1:
        5e:91:55:fc:e5:c8:22:3d:79:93:c9:73:a2:53:81:80:df:f7:
        d6:1d:db:d3:c2:15:37:66:86:06:f1:2a:2d:df:60:96:ee:2a:
        f9:e9:50:66:ab:fb:c8:e6:1d:3c:75:a8:64:0f:81:86:2b:38:
        ab:95:3e:b6:a4:23:e5:58:7d:df:4a:60:b9:d4:f3:89:50:4a:
        0a:45:f3:a5:9c:47:43:34:c4:c5:16:0c:1c:06:a4:f6:94:9d:
        be:ad:bd:91:6b:c8:ee:67:48:e0:a1:e1:ca:1e:c6:77:79:24:
        07:42:fa:1f
-----BEGIN CERTIFICATE-----
MIIDszCCApugAwIBAgIULlZv+YXmxoDgJoOb6FQgqI37DcowDQYJKoZIhvcNAQEL
BQAwaTELMAkGA1UEBhMCVVMxEzARBgNVBAgMCkNhbGlmb3JuaWExFDASBgNVBAcM
C1NhbnRhIENsYXJhMQ0wCwYDVQQKDARwa2c1MQwwCgYDVQQDDAN0YTExEjAQBgkq
hkiG9w0BCQEWA3RhMTAeFw0yMzEwMjQyMTQyNThaFw0yNjA3MjAyMTQyNThaMGkx
CzAJBgNVBAYTAlVTMRMwEQYDVQQIDApDYWxpZm9ybmlhMRQwEgYDVQQHDAtTYW50
YSBDbGFyYTENMAsGA1UECgwEcGtnNTEMMAoGA1UEAwwDdGExMRIwEAYJKoZIhvcN
AQkBFgN0YTEwggEiMA0GCSqGSIb3DQEBAQUAA4IBDwAwggEKAoIBAQCpNEMYqGxz
9/YRvDxlQpouBUyuPvwOik9OY6Se9XkNdIVDHmT3SMR3Vk+oDY8QwJLxTUB9XT5l
1s+dFEMkk7kM3nWtY/P0Ve0UWOGbXvYOU3O2rgjcNcvahWR/wlHDixnM5ocarZZr
WmmuNIq8JZdm3cOhKajAuytN9jGqTfJY3R4q04EPU/DtJ+FLqElMapcvtEl+8vpd
TegT0Lg7iaLqkL8J+t8uPKKimjbxP6yAS+9eiPYLHyrafSBC4ThDGJNJnMynBwZ1
TWevpjwawqJ4FRyXaEyKrn5gq+nzOpfcxD7i1WPNgBN0WvIz3QMndiryfDNt+Y/F
zE7X+LEpS90jAgMBAAGjUzBRMB0GA1UdDgQWBBRwaWFhz5IbM0Stjl6Ovsh1Mt+x
dzAfBgNVHSMEGDAWgBRwaWFhz5IbM0Stjl6Ovsh1Mt+xdzAPBgNVHRMBAf8EBTAD
AQH/MA0GCSqGSIb3DQEBCwUAA4IBAQAFVfxqdWZy+a1cySv34RfOwhy69b8ZVTZI
Z+LfDEXPg8aW2XeaINnTjxV2cSnfT5tZb9qLnUT6xJu3kyKhvu3DBJT5ohKPQNmr
Dopq0JP2L5BvM91hV/qO8T0fevct5/Dt8f8ecxWLKlmaiPW0aCPl9oN8CKJQJ2iG
LzDX6afSvrB+bgXRQ44mi+V7hUO9rLFekVX85cgiPXmTyXOiU4GA3/fWHdvTwhU3
ZoYG8Sot32CW7ir56VBmq/vI5h08dahkD4GGKzirlT62pCPlWH3fSmC51POJUEoK
RfOlnEdDNMTFFgwcBqT2lJ2+rb2Ra8juZ0jgoeHKHsZ3eSQHQvof
-----END CERTIFICATE-----
