Certificate:
    Data:
        Version: 3 (0x2)
        Serial Number:
            6a:cc:95:0f:ec:75:01:12:f8:0f:4f:b8:21:74:a5:3c:4c:dc:9e:ab
        Signature Algorithm: sha256WithRSAEncryption
        Issuer: C = US, ST = California, L = Santa Clara, O = pkg5, CN = ta1, emailAddress = ta1
        Validity
            Not Before: May 23 15:47:14 2024 GMT
            Not After : Feb 17 15:47:14 2027 GMT
        Subject: C = US, ST = California, L = Santa Clara, O = pkg5, CN = ta1, emailAddress = ta1
        Subject Public Key Info:
            Public Key Algorithm: rsaEncryption
                Public-Key: (2048 bit)
                Modulus:
                    00:85:71:98:68:1d:c4:11:a2:24:ba:2d:0a:ed:d0:
                    d5:71:d2:bc:4e:a3:40:a7:57:8b:4c:5e:ee:91:e1:
                    00:9c:a5:4d:43:f5:13:32:e1:9c:bf:a0:50:12:04:
                    e1:f7:2d:cb:64:4a:79:76:ad:10:c3:60:06:fc:ae:
                    c6:86:8c:ec:32:a8:21:9d:36:1a:2d:b2:fd:2f:c0:
                    b3:41:14:ea:91:5b:bf:b0:a9:fe:bd:2a:86:34:45:
                    3b:7e:23:bd:7b:ce:75:ae:8a:67:2d:f2:4a:c6:3d:
                    2a:c9:bf:ba:20:a1:04:52:da:be:6f:bb:82:ee:95:
                    72:1c:44:c9:01:2f:14:12:59:30:48:29:d7:22:d3:
                    f7:72:f6:46:cf:29:77:7b:38:0b:8a:df:7a:54:c9:
                    5b:2a:25:1c:2f:94:19:60:85:16:85:3d:b1:16:d7:
                    70:f0:f6:8b:b5:75:d5:80:92:c6:e1:1f:ca:88:0a:
                    05:5b:88:0b:47:c3:9f:33:a9:98:4e:ae:58:c4:62:
                    0e:1a:77:1a:88:67:1c:b0:cb:15:01:ad:f3:8e:15:
                    11:cd:13:11:3b:fe:7f:b2:57:37:70:15:02:3e:e7:
                    3a:9b:a0:40:f2:74:7b:e5:68:2f:6f:ca:9f:d5:61:
                    89:8b:96:a1:27:52:0c:3b:3b:b2:65:3a:fc:63:66:
                    0f:d9
                Exponent: 65537 (0x10001)
        X509v3 extensions:
            X509v3 Subject Key Identifier: 
                C3:56:EC:5B:73:9E:EB:BA:54:5D:93:DD:D7:36:A8:FA:6B:16:5A:1A
            X509v3 Authority Key Identifier: 
                C3:56:EC:5B:73:9E:EB:BA:54:5D:93:DD:D7:36:A8:FA:6B:16:5A:1A
            X509v3 Basic Constraints: critical
                CA:TRUE
    Signature Algorithm: sha256WithRSAEncryption
    Signature Value:
        35:3f:15:a6:51:ce:8f:da:3f:55:dd:d3:46:25:c4:cd:54:a8:
        e4:fd:7e:15:c3:e8:03:61:03:84:b8:d9:04:45:37:30:51:a5:
        23:10:db:95:4f:6e:e7:ee:c1:90:69:c4:c9:b8:f2:ab:86:53:
        d0:02:a2:9d:7d:53:c8:98:7c:15:3f:93:fe:e7:3a:ac:e6:2e:
        86:34:c1:fe:fc:0d:9b:fc:c9:a0:35:70:e8:36:f2:a8:a9:d5:
        ec:8b:a0:93:1d:57:06:82:f1:a9:86:08:86:b4:a5:76:74:50:
        5a:c4:8b:14:df:29:ec:8a:4e:3d:29:51:73:93:63:f6:9c:5a:
        56:68:da:0d:2e:fe:f5:1b:96:42:9b:ee:7d:e5:68:d2:8f:e1:
        f3:f9:e4:51:7c:c3:0c:2b:58:26:12:c6:c9:cc:2b:51:2d:5f:
        f6:11:f7:ee:c9:d3:9e:66:45:33:18:4e:49:32:ba:ba:15:a0:
        90:a8:72:74:c9:b1:29:62:5c:2c:dc:2f:73:1f:3f:04:ca:dd:
        09:de:4a:80:b2:d8:42:b8:98:94:29:7b:b6:c0:da:a9:51:da:
        7f:42:78:82:29:07:df:05:24:f9:ea:bc:a0:0c:2c:72:09:1e:
        11:ff:57:5d:3a:a8:97:78:86:94:2c:77:2a:21:08:7d:66:64:
        50:76:00:f1
-----BEGIN CERTIFICATE-----
MIIDszCCApugAwIBAgIUasyVD+x1ARL4D0+4IXSlPEzcnqswDQYJKoZIhvcNAQEL
BQAwaTELMAkGA1UEBhMCVVMxEzARBgNVBAgMCkNhbGlmb3JuaWExFDASBgNVBAcM
C1NhbnRhIENsYXJhMQ0wCwYDVQQKDARwa2c1MQwwCgYDVQQDDAN0YTExEjAQBgkq
hkiG9w0BCQEWA3RhMTAeFw0yNDA1MjMxNTQ3MTRaFw0yNzAyMTcxNTQ3MTRaMGkx
CzAJBgNVBAYTAlVTMRMwEQYDVQQIDApDYWxpZm9ybmlhMRQwEgYDVQQHDAtTYW50
YSBDbGFyYTENMAsGA1UECgwEcGtnNTEMMAoGA1UEAwwDdGExMRIwEAYJKoZIhvcN
AQkBFgN0YTEwggEiMA0GCSqGSIb3DQEBAQUAA4IBDwAwggEKAoIBAQCFcZhoHcQR
oiS6LQrt0NVx0rxOo0CnV4tMXu6R4QCcpU1D9RMy4Zy/oFASBOH3LctkSnl2rRDD
YAb8rsaGjOwyqCGdNhotsv0vwLNBFOqRW7+wqf69KoY0RTt+I717znWuimct8krG
PSrJv7ogoQRS2r5vu4LulXIcRMkBLxQSWTBIKdci0/dy9kbPKXd7OAuK33pUyVsq
JRwvlBlghRaFPbEW13Dw9ou1ddWAksbhH8qICgVbiAtHw58zqZhOrljEYg4adxqI
ZxywyxUBrfOOFRHNExE7/n+yVzdwFQI+5zqboEDydHvlaC9vyp/VYYmLlqEnUgw7
O7JlOvxjZg/ZAgMBAAGjUzBRMB0GA1UdDgQWBBTDVuxbc57rulRdk93XNqj6axZa
GjAfBgNVHSMEGDAWgBTDVuxbc57rulRdk93XNqj6axZaGjAPBgNVHRMBAf8EBTAD
AQH/MA0GCSqGSIb3DQEBCwUAA4IBAQA1PxWmUc6P2j9V3dNGJcTNVKjk/X4Vw+gD
YQOEuNkERTcwUaUjENuVT27n7sGQacTJuPKrhlPQAqKdfVPImHwVP5P+5zqs5i6G
NMH+/A2b/MmgNXDoNvKoqdXsi6CTHVcGgvGphgiGtKV2dFBaxIsU3ynsik49KVFz
k2P2nFpWaNoNLv71G5ZCm+595WjSj+Hz+eRRfMMMK1gmEsbJzCtRLV/2EffuydOe
ZkUzGE5JMrq6FaCQqHJ0ybEpYlws3C9zHz8Eyt0J3kqAsthCuJiUKXu2wNqpUdp/
QniCKQffBST56rygDCxyCR4R/1ddOqiXeIaULHcqIQh9ZmRQdgDx
-----END CERTIFICATE-----
Certificate:
    Data:
        Version: 3 (0x2)
        Serial Number:
            3d:ab:7c:d1:27:67:54:57:2b:f8:a5:2c:43:8d:d7:be:d9:a5:57:64
        Signature Algorithm: sha256WithRSAEncryption
        Issuer: C = US, ST = California, L = Santa Clara, O = pkg5, CN = ta3, emailAddress = ta3
        Validity
            Not Before: May 23 15:47:16 2024 GMT
            Not After : Feb 17 15:47:16 2027 GMT
        Subject: C = US, ST = California, L = Santa Clara, O = pkg5, CN = ta3, emailAddress = ta3
        Subject Public Key Info:
            Public Key Algorithm: rsaEncryption
                Public-Key: (2048 bit)
                Modulus:
                    00:b1:9d:9c:7f:64:f4:22:c0:57:bc:c8:df:e3:57:
                    09:92:d9:2f:0d:aa:07:1f:1a:82:56:80:43:47:56:
                    15:0e:3e:f3:7e:f1:68:b1:0b:ee:72:38:ae:61:27:
                    94:20:e0:a9:cb:54:62:b5:a3:76:1b:d3:47:2e:58:
                    b6:90:4d:0c:c0:36:49:0a:fe:a4:11:40:21:48:a4:
                    f0:27:1e:9b:60:31:1d:27:fe:10:2f:1d:3d:5b:69:
                    94:2a:74:47:f6:b6:1d:da:db:ce:ee:fb:8d:20:9e:
                    07:25:ff:40:e2:29:7f:a6:ed:e7:32:37:41:68:ba:
                    ec:1e:c8:26:aa:9d:b6:8c:2e:7b:ba:e4:13:3c:98:
                    ea:a1:58:05:f3:3b:f2:5c:10:59:b4:de:52:1b:0b:
                    4a:06:21:ca:1c:81:19:7f:da:7c:d5:94:73:9b:80:
                    19:c8:f9:b6:22:f8:cf:67:42:5f:15:b8:4d:c8:1a:
                    38:39:23:1e:f0:15:9a:3f:af:ff:d8:17:15:c0:0c:
                    56:41:9e:b8:72:2f:3d:9d:1e:03:11:d2:72:03:11:
                    73:ef:45:68:c4:6a:b0:82:e2:33:3c:18:b7:2a:ad:
                    e2:f1:14:59:dc:fa:c6:e9:e1:55:df:72:b5:8e:bd:
                    af:6f:4c:61:01:5b:d9:b1:0a:b3:c0:6a:92:60:80:
                    a1:01
                Exponent: 65537 (0x10001)
        X509v3 extensions:
            X509v3 Subject Key Identifier: 
                A0:1E:8E:B9:8B:09:76:33:B8:CE:59:F1:BA:1B:5F:EC:D9:38:76:58
            X509v3 Authority Key Identifier: 
                A0:1E:8E:B9:8B:09:76:33:B8:CE:59:F1:BA:1B:5F:EC:D9:38:76:58
            X509v3 Basic Constraints: critical
                CA:TRUE
    Signature Algorithm: sha256WithRSAEncryption
    Signature Value:
        84:ea:b9:ea:90:18:8d:a7:49:ff:0d:df:f9:82:6a:d0:0b:e4:
        44:54:b7:9c:91:48:b5:ed:3c:ff:a4:ad:56:de:f6:b9:07:64:
        6b:3b:49:a9:68:c4:af:b5:a8:6b:2c:de:a5:8b:5b:34:23:d8:
        e3:af:8d:b3:d7:8f:fd:64:d6:cf:8d:83:14:a7:f8:c5:8d:e0:
        27:50:d9:fa:80:5d:b8:55:f5:1a:3d:5c:e8:6c:f7:36:14:16:
        70:11:0d:59:a7:8f:fb:88:da:2f:e8:f2:08:54:23:bc:35:fa:
        48:ef:d1:92:78:99:b5:81:6b:4c:92:1b:b1:2d:cd:85:1e:8f:
        f7:e3:0f:26:0e:f0:56:f0:b6:16:25:0f:b4:b6:d0:e0:dc:7f:
        b2:85:7c:71:e5:9f:53:55:8c:5b:31:68:6d:57:d3:b7:6f:09:
        c7:f1:cb:85:d8:02:4b:97:15:92:c7:09:e3:b2:0e:a1:03:fb:
        f9:52:1f:98:53:14:fa:d6:f9:72:8c:37:8e:51:52:a6:bc:18:
        b3:8e:9a:c8:b6:d1:73:91:b9:e6:51:c5:e5:9b:2f:b5:4d:8f:
        17:ef:79:7f:59:8d:69:62:f3:6b:49:cc:e1:9a:d7:62:30:a3:
        85:c4:d8:09:63:02:40:6b:c5:cb:97:2e:28:14:a5:70:c2:31:
        e3:36:2c:23
-----BEGIN CERTIFICATE-----
MIIDszCCApugAwIBAgIUPat80SdnVFcr+KUsQ43XvtmlV2QwDQYJKoZIhvcNAQEL
BQAwaTELMAkGA1UEBhMCVVMxEzARBgNVBAgMCkNhbGlmb3JuaWExFDASBgNVBAcM
C1NhbnRhIENsYXJhMQ0wCwYDVQQKDARwa2c1MQwwCgYDVQQDDAN0YTMxEjAQBgkq
hkiG9w0BCQEWA3RhMzAeFw0yNDA1MjMxNTQ3MTZaFw0yNzAyMTcxNTQ3MTZaMGkx
CzAJBgNVBAYTAlVTMRMwEQYDVQQIDApDYWxpZm9ybmlhMRQwEgYDVQQHDAtTYW50
YSBDbGFyYTENMAsGA1UECgwEcGtnNTEMMAoGA1UEAwwDdGEzMRIwEAYJKoZIhvcN
AQkBFgN0YTMwggEiMA0GCSqGSIb3DQEBAQUAA4IBDwAwggEKAoIBAQCxnZx/ZPQi
wFe8yN/jVwmS2S8NqgcfGoJWgENHVhUOPvN+8WixC+5yOK5hJ5Qg4KnLVGK1o3Yb
00cuWLaQTQzANkkK/qQRQCFIpPAnHptgMR0n/hAvHT1baZQqdEf2th3a287u+40g
ngcl/0DiKX+m7ecyN0FouuweyCaqnbaMLnu65BM8mOqhWAXzO/JcEFm03lIbC0oG
IcocgRl/2nzVlHObgBnI+bYi+M9nQl8VuE3IGjg5Ix7wFZo/r//YFxXADFZBnrhy
Lz2dHgMR0nIDEXPvRWjEarCC4jM8GLcqreLxFFnc+sbp4VXfcrWOva9vTGEBW9mx
CrPAapJggKEBAgMBAAGjUzBRMB0GA1UdDgQWBBSgHo65iwl2M7jOWfG6G1/s2Th2
WDAfBgNVHSMEGDAWgBSgHo65iwl2M7jOWfG6G1/s2Th2WDAPBgNVHRMBAf8EBTAD
AQH/MA0GCSqGSIb3DQEBCwUAA4IBAQCE6rnqkBiNp0n/Dd/5gmrQC+REVLeckUi1
7Tz/pK1W3va5B2RrO0mpaMSvtahrLN6li1s0I9jjr42z14/9ZNbPjYMUp/jFjeAn
UNn6gF24VfUaPVzobPc2FBZwEQ1Zp4/7iNov6PIIVCO8NfpI79GSeJm1gWtMkhux
Lc2FHo/34w8mDvBW8LYWJQ+0ttDg3H+yhXxx5Z9TVYxbMWhtV9O3bwnH8cuF2AJL
lxWSxwnjsg6hA/v5Uh+YUxT61vlyjDeOUVKmvBizjprIttFzkbnmUcXlmy+1TY8X
73l/WY1pYvNrSczhmtdiMKOFxNgJYwJAa8XLly4oFKVwwjHjNiwj
-----END CERTIFICATE-----
