Certificate:
    Data:
        Version: 3 (0x2)
        Serial Number:
            4a:11:9f:ba:6f:21:d6:53:46:78:80:e9:dc:76:aa:96:96:22:fc:30
        Signature Algorithm: sha256WithRSAEncryption
        Issuer: C=US, ST=California, L=Santa Clara, O=pkg5, CN=ta1, emailAddress=ta1
        Validity
            Not Before: Nov 14 14:26:51 2024 GMT
            Not After : Aug 11 14:26:51 2027 GMT
        Subject: C=US, ST=California, L=Santa Clara, O=pkg5, CN=ta1, emailAddress=ta1
        Subject Public Key Info:
            Public Key Algorithm: rsaEncryption
                Public-Key: (2048 bit)
                Modulus:
                    00:b8:40:92:b3:54:75:a4:8c:42:a2:09:e4:67:7c:
                    39:b6:d3:f8:43:57:59:6f:0e:91:cd:5c:24:ee:bc:
                    58:e9:e2:03:c9:bd:5a:bd:a8:cd:9c:32:63:d4:f6:
                    56:79:a6:26:e2:3e:e9:15:aa:0d:ef:a5:d6:f0:d5:
                    33:4a:df:97:98:ed:94:bc:20:f7:77:01:83:67:d3:
                    57:7a:40:45:54:b2:7c:8b:f9:72:e0:7d:ed:c3:7b:
                    21:61:83:24:2b:fc:f8:c3:ba:58:08:ea:ee:e8:1a:
                    f8:a5:24:26:58:a5:00:d0:36:39:b7:73:bf:a2:e7:
                    bb:4d:96:2e:3f:d2:3e:f5:0d:9b:ea:cb:2f:0d:6f:
                    18:24:3a:14:9e:d2:dd:31:dd:06:b4:94:4a:2c:f7:
                    c2:38:18:d1:18:19:2e:3c:4b:bb:0c:cd:e6:9f:f1:
                    d6:19:e6:7e:6c:19:62:4e:bb:c8:d2:e7:82:cd:ab:
                    ad:2b:a5:e9:36:98:83:e6:b9:4a:a1:1b:70:4b:dd:
                    0c:6a:97:24:c7:2d:86:2f:09:96:5d:0f:70:ea:ea:
                    17:14:7f:d3:52:4f:ff:47:db:ab:2c:44:f6:57:3a:
                    f3:4a:23:eb:19:e7:69:95:fe:1d:38:db:e2:85:c7:
                    8e:f6:d3:d2:3e:46:0a:55:dc:38:ba:85:f1:62:60:
                    43:87
                Exponent: 65537 (0x10001)
        X509v3 extensions:
            X509v3 Subject Key Identifier: 
                BA:5A:E3:B8:0D:82:4E:D0:C9:B2:91:CA:5B:37:1D:65:14:73:F9:F4
            X509v3 Authority Key Identifier: 
                BA:5A:E3:B8:0D:82:4E:D0:C9:B2:91:CA:5B:37:1D:65:14:73:F9:F4
            X509v3 Basic Constraints: critical
                CA:TRUE
    Signature Algorithm: sha256WithRSAEncryption
    Signature Value:
        10:20:0d:11:5c:93:f6:b5:39:ce:46:29:1f:17:5f:f4:7c:1a:
        35:02:f0:05:12:6e:23:80:e0:64:f7:af:76:e5:73:9e:0b:3d:
        b1:12:23:4c:d6:ab:cc:cb:d2:48:91:73:02:31:ab:44:92:44:
        6b:10:71:ad:94:78:a1:db:65:91:6e:2f:d3:2b:4a:c8:7b:ae:
        59:9a:0a:37:a8:1b:86:2a:af:d6:cc:c5:50:22:02:76:57:ef:
        51:5a:d3:72:6b:cf:9e:0a:45:56:19:9c:37:47:e4:89:fe:9a:
        52:47:2b:c1:a4:c7:94:5f:c4:93:42:28:74:47:77:79:b4:12:
        25:cd:24:84:dd:79:7d:a4:23:11:0c:70:b9:ac:e1:d8:98:80:
        36:8b:d2:04:60:dd:a0:b6:f4:f8:f4:ce:09:d2:54:ea:5f:78:
        95:b2:9c:3d:99:f5:b2:65:72:03:b6:8c:cd:61:74:a9:f8:36:
        17:6e:98:67:3e:7c:6e:39:4f:c7:dc:e3:f9:19:24:c1:9a:5d:
        34:4f:f1:06:60:d7:42:2b:d4:c8:a8:53:bb:38:65:c7:13:81:
        ad:67:f6:9c:48:b8:a8:2b:b3:e5:9d:23:2a:6b:f6:a9:22:67:
        b8:d9:2d:dc:8c:b5:7c:71:f5:ae:12:6b:23:57:43:3a:2c:75:
        56:d0:f8:fc
-----BEGIN CERTIFICATE-----
MIIDszCCApugAwIBAgIUShGfum8h1lNGeIDp3HaqlpYi/DAwDQYJKoZIhvcNAQEL
BQAwaTELMAkGA1UEBhMCVVMxEzARBgNVBAgMCkNhbGlmb3JuaWExFDASBgNVBAcM
C1NhbnRhIENsYXJhMQ0wCwYDVQQKDARwa2c1MQwwCgYDVQQDDAN0YTExEjAQBgkq
hkiG9w0BCQEWA3RhMTAeFw0yNDExMTQxNDI2NTFaFw0yNzA4MTExNDI2NTFaMGkx
CzAJBgNVBAYTAlVTMRMwEQYDVQQIDApDYWxpZm9ybmlhMRQwEgYDVQQHDAtTYW50
YSBDbGFyYTENMAsGA1UECgwEcGtnNTEMMAoGA1UEAwwDdGExMRIwEAYJKoZIhvcN
AQkBFgN0YTEwggEiMA0GCSqGSIb3DQEBAQUAA4IBDwAwggEKAoIBAQC4QJKzVHWk
jEKiCeRnfDm20/hDV1lvDpHNXCTuvFjp4gPJvVq9qM2cMmPU9lZ5pibiPukVqg3v
pdbw1TNK35eY7ZS8IPd3AYNn01d6QEVUsnyL+XLgfe3DeyFhgyQr/PjDulgI6u7o
GvilJCZYpQDQNjm3c7+i57tNli4/0j71DZvqyy8NbxgkOhSe0t0x3Qa0lEos98I4
GNEYGS48S7sMzeaf8dYZ5n5sGWJOu8jS54LNq60rpek2mIPmuUqhG3BL3QxqlyTH
LYYvCZZdD3Dq6hcUf9NST/9H26ssRPZXOvNKI+sZ52mV/h042+KFx47209I+RgpV
3Di6hfFiYEOHAgMBAAGjUzBRMB0GA1UdDgQWBBS6WuO4DYJO0MmykcpbNx1lFHP5
9DAfBgNVHSMEGDAWgBS6WuO4DYJO0MmykcpbNx1lFHP59DAPBgNVHRMBAf8EBTAD
AQH/MA0GCSqGSIb3DQEBCwUAA4IBAQAQIA0RXJP2tTnORikfF1/0fBo1AvAFEm4j
gOBk96925XOeCz2xEiNM1qvMy9JIkXMCMatEkkRrEHGtlHih22WRbi/TK0rIe65Z
mgo3qBuGKq/WzMVQIgJ2V+9RWtNya8+eCkVWGZw3R+SJ/ppSRyvBpMeUX8STQih0
R3d5tBIlzSSE3Xl9pCMRDHC5rOHYmIA2i9IEYN2gtvT49M4J0lTqX3iVspw9mfWy
ZXIDtozNYXSp+DYXbphnPnxuOU/H3OP5GSTBml00T/EGYNdCK9TIqFO7OGXHE4Gt
Z/acSLioK7PlnSMqa/apIme42S3cjLV8cfWuEmsjV0M6LHVW0Pj8
-----END CERTIFICATE-----
Certificate:
    Data:
        Version: 3 (0x2)
        Serial Number:
            1b:62:5c:bc:2d:8d:5f:a5:80:a5:b4:97:a6:97:f7:c0:e8:74:b0:39
        Signature Algorithm: sha256WithRSAEncryption
        Issuer: C=US, ST=California, L=Santa Clara, O=pkg5, CN=ta3, emailAddress=ta3
        Validity
            Not Before: Nov 14 14:26:53 2024 GMT
            Not After : Aug 11 14:26:53 2027 GMT
        Subject: C=US, ST=California, L=Santa Clara, O=pkg5, CN=ta3, emailAddress=ta3
        Subject Public Key Info:
            Public Key Algorithm: rsaEncryption
                Public-Key: (2048 bit)
                Modulus:
                    00:ea:8d:72:24:e0:2f:0d:e0:49:d8:97:0d:96:a1:
                    f5:fe:c8:37:bd:ca:33:71:01:78:91:5d:ab:d6:90:
                    68:10:86:5d:12:a9:43:cd:3d:a8:e0:45:5e:89:ab:
                    5f:86:1f:10:31:2e:3d:06:83:fa:c5:89:b6:85:d2:
                    92:0a:6f:c9:e7:a7:99:cb:d3:50:e9:4d:5b:2f:cf:
                    d6:ac:4d:b7:2b:12:d6:a1:fe:d3:48:3d:46:f2:94:
                    8d:96:0c:10:ea:71:e9:0c:be:eb:f6:fe:ff:b1:6e:
                    6b:7e:99:fb:4f:b6:12:c9:dc:1c:f1:e8:96:01:cd:
                    ae:44:0c:37:bb:c7:0c:80:09:4d:00:c9:8d:0b:d3:
                    b4:ab:b4:9f:3b:ec:0a:ef:05:48:17:36:bb:e6:d6:
                    cd:88:9f:d9:fd:38:c8:2e:c1:12:5d:18:1f:af:da:
                    eb:ee:39:42:d2:46:30:d0:4a:51:8b:fe:78:3b:b2:
                    7a:ae:af:19:b3:d5:79:63:f5:69:c3:b5:68:31:11:
                    93:7f:66:80:20:99:10:72:41:cb:4a:ed:0a:2b:92:
                    4f:ca:a3:10:8c:d4:7c:39:53:b7:5a:30:39:24:d4:
                    c7:76:e5:b7:91:56:41:62:7e:98:54:a2:7b:e2:04:
                    21:bf:ec:19:8e:19:5c:1c:08:2f:f5:d9:eb:10:13:
                    6f:b3
                Exponent: 65537 (0x10001)
        X509v3 extensions:
            X509v3 Subject Key Identifier: 
                C0:41:94:DE:CD:5D:DB:27:3B:CD:AB:4A:D5:3A:6F:DA:A7:7F:17:36
            X509v3 Authority Key Identifier: 
                C0:41:94:DE:CD:5D:DB:27:3B:CD:AB:4A:D5:3A:6F:DA:A7:7F:17:36
            X509v3 Basic Constraints: critical
                CA:TRUE
    Signature Algorithm: sha256WithRSAEncryption
    Signature Value:
        4b:87:93:d4:04:fc:9e:87:4a:19:a6:b8:bc:c3:91:08:9e:61:
        26:e9:92:56:95:dd:72:a7:59:7f:80:65:54:0e:cd:0a:8f:ef:
        2f:78:1f:de:f6:8a:4b:b0:b2:7c:2d:72:1b:94:53:fe:fb:5c:
        ba:57:0b:d0:44:f8:54:32:57:f4:23:a8:18:f5:7e:e5:d7:bd:
        b1:bb:54:26:1b:33:04:6c:0b:bf:11:78:cd:e5:b8:29:16:0b:
        38:2b:c1:ac:79:2a:ea:95:25:f6:2e:c7:e6:60:74:e0:ca:cd:
        a8:a1:04:6b:ad:82:44:99:f7:58:33:0e:3d:38:0c:7c:1c:03:
        9b:b4:e6:74:2a:8f:3a:ed:57:2b:02:13:3a:09:ac:b9:3e:e2:
        14:f4:e0:bc:88:b4:48:b8:4c:98:29:94:4a:db:0e:30:bf:31:
        86:41:09:d1:d1:a5:0a:69:79:42:f8:bc:71:95:37:39:65:ca:
        2d:38:8a:25:af:3a:04:29:91:bf:7f:da:d0:7f:ce:e8:5d:76:
        1d:67:13:03:5c:c6:bb:82:c4:4a:b2:93:4f:e8:aa:12:18:64:
        39:b0:6e:1f:a6:42:20:34:7b:07:76:1f:4d:13:f3:de:27:dc:
        01:62:54:73:81:6e:04:b6:bf:66:ea:87:e9:59:11:6b:43:6c:
        21:70:7a:31
-----BEGIN CERTIFICATE-----
MIIDszCCApugAwIBAgIUG2JcvC2NX6WApbSXppf3wOh0sDkwDQYJKoZIhvcNAQEL
BQAwaTELMAkGA1UEBhMCVVMxEzARBgNVBAgMCkNhbGlmb3JuaWExFDASBgNVBAcM
C1NhbnRhIENsYXJhMQ0wCwYDVQQKDARwa2c1MQwwCgYDVQQDDAN0YTMxEjAQBgkq
hkiG9w0BCQEWA3RhMzAeFw0yNDExMTQxNDI2NTNaFw0yNzA4MTExNDI2NTNaMGkx
CzAJBgNVBAYTAlVTMRMwEQYDVQQIDApDYWxpZm9ybmlhMRQwEgYDVQQHDAtTYW50
YSBDbGFyYTENMAsGA1UECgwEcGtnNTEMMAoGA1UEAwwDdGEzMRIwEAYJKoZIhvcN
AQkBFgN0YTMwggEiMA0GCSqGSIb3DQEBAQUAA4IBDwAwggEKAoIBAQDqjXIk4C8N
4EnYlw2WofX+yDe9yjNxAXiRXavWkGgQhl0SqUPNPajgRV6Jq1+GHxAxLj0Gg/rF
ibaF0pIKb8nnp5nL01DpTVsvz9asTbcrEtah/tNIPUbylI2WDBDqcekMvuv2/v+x
bmt+mftPthLJ3Bzx6JYBza5EDDe7xwyACU0AyY0L07SrtJ877ArvBUgXNrvm1s2I
n9n9OMguwRJdGB+v2uvuOULSRjDQSlGL/ng7snqurxmz1Xlj9WnDtWgxEZN/ZoAg
mRByQctK7Qorkk/KoxCM1Hw5U7daMDkk1Md25beRVkFifphUonviBCG/7BmOGVwc
CC/12esQE2+zAgMBAAGjUzBRMB0GA1UdDgQWBBTAQZTezV3bJzvNq0rVOm/ap38X
NjAfBgNVHSMEGDAWgBTAQZTezV3bJzvNq0rVOm/ap38XNjAPBgNVHRMBAf8EBTAD
AQH/MA0GCSqGSIb3DQEBCwUAA4IBAQBLh5PUBPyeh0oZpri8w5EInmEm6ZJWld1y
p1l/gGVUDs0Kj+8veB/e9opLsLJ8LXIblFP++1y6VwvQRPhUMlf0I6gY9X7l172x
u1QmGzMEbAu/EXjN5bgpFgs4K8GseSrqlSX2LsfmYHTgys2ooQRrrYJEmfdYMw49
OAx8HAObtOZ0Ko867VcrAhM6Cay5PuIU9OC8iLRIuEyYKZRK2w4wvzGGQQnR0aUK
aXlC+LxxlTc5ZcotOIolrzoEKZG/f9rQf87oXXYdZxMDXMa7gsRKspNP6KoSGGQ5
sG4fpkIgNHsHdh9NE/PeJ9wBYlRzgW4Etr9m6ofpWRFrQ2whcHox
-----END CERTIFICATE-----
