Certificate:
    Data:
        Version: 3 (0x2)
        Serial Number: 1 (0x1)
        Signature Algorithm: sha256WithRSAEncryption
        Issuer: C=US, ST=California, L=Santa Clara, O=pkg5, CN=ta1/emailAddress=ta1
        Validity
            Not Before: Nov 14 14:26:51 2024 GMT
            Not After : Aug 11 14:26:51 2027 GMT
        Subject: C=US, ST=California, L=Santa Clara, O=pkg5, CN=ch1_ta1/emailAddress=ch1_ta1
        Subject Public Key Info:
            Public Key Algorithm: rsaEncryption
                Public-Key: (2048 bit)
                Modulus:
                    00:cf:17:d3:f4:ee:3f:8b:4b:12:58:fd:c5:9e:3b:
                    6a:98:66:30:db:aa:ea:5e:0b:2b:f8:86:2d:64:da:
                    af:0d:5c:a9:eb:2f:23:a2:27:55:0f:20:09:ce:3f:
                    c0:5f:fb:a0:0f:51:90:ab:15:24:d7:f7:d4:89:38:
                    29:ff:ab:2b:11:ea:8b:f9:cf:d4:10:54:01:12:49:
                    b5:90:7a:ee:bf:e3:27:94:fe:17:24:14:57:7f:c0:
                    d0:e5:f2:d4:07:48:63:85:37:ec:78:8b:a7:3a:32:
                    06:c4:4e:d2:0a:5a:84:bc:dc:06:1d:c9:74:a0:b6:
                    24:b6:46:e7:d2:72:d6:21:61:a2:9f:46:22:65:da:
                    5e:2e:8b:05:da:ee:aa:d1:96:0a:43:87:ae:e4:51:
                    32:fc:b0:75:65:16:a1:2c:8c:9c:50:b6:5c:27:34:
                    2b:8c:6c:6d:b4:dc:1e:b1:5a:81:5d:1e:84:7f:48:
                    68:15:96:67:7a:27:ed:ec:79:e7:a8:9f:6b:74:9f:
                    5a:2b:4b:af:0a:55:83:82:69:53:f4:b1:1d:95:d9:
                    26:1d:d4:9a:27:4e:30:d5:a3:3a:70:05:3b:06:0c:
                    bc:37:88:a7:5f:9f:47:fa:e3:62:0d:97:21:60:82:
                    e6:a7:b2:b5:37:4a:98:86:d0:37:02:d6:ea:69:f5:
                    ec:e1
                Exponent: 65537 (0x10001)
        X509v3 extensions:
            X509v3 Subject Key Identifier: 
                C8:E6:C2:BC:C5:DD:E7:CF:06:D6:8D:33:89:97:68:81:CE:93:63:12
            X509v3 Authority Key Identifier: 
                keyid:BA:5A:E3:B8:0D:82:4E:D0:C9:B2:91:CA:5B:37:1D:65:14:73:F9:F4
                DirName:/C=US/ST=California/L=Santa Clara/O=pkg5/CN=ta1/emailAddress=ta1
                serial:4A:11:9F:BA:6F:21:D6:53:46:78:80:E9:DC:76:AA:96:96:22:FC:30
            X509v3 Basic Constraints: critical
                CA:TRUE, pathlen:4
            X509v3 Key Usage: critical
                Certificate Sign, CRL Sign
    Signature Algorithm: sha256WithRSAEncryption
    Signature Value:
        39:04:47:56:50:d9:33:27:12:8d:a9:85:88:c5:e4:45:24:7d:
        be:83:6d:e3:73:f4:5f:49:1a:59:9b:b7:11:6d:5f:a6:71:3d:
        7d:e2:7f:3e:ce:64:02:43:5e:e1:bf:7b:aa:2f:69:fe:c7:59:
        5f:92:33:57:2a:6c:2d:c7:05:27:a6:1f:7b:f5:b9:1a:9e:b9:
        f4:f3:23:3e:26:7f:4c:4c:de:0e:bb:fa:e1:f4:34:a8:42:ff:
        2f:fb:1d:01:50:07:47:72:f8:42:c6:16:b8:92:54:59:bf:01:
        6b:cb:5a:08:d8:8f:91:1f:39:ec:05:dd:e8:1e:1b:42:b4:01:
        c4:0a:d3:62:44:73:b6:87:17:c0:d7:40:93:9b:81:96:1e:9c:
        b3:8c:c5:c3:98:1c:d6:04:c6:3f:03:2e:8d:09:28:98:11:4e:
        97:78:cc:83:f7:46:fd:c3:86:91:ce:71:90:6e:7c:ef:32:86:
        67:7b:8a:c2:ee:c5:99:51:b7:70:13:24:d9:c8:8b:97:dc:71:
        58:6a:78:a0:dc:16:3a:e7:69:48:c3:42:33:6b:c1:1e:36:1f:
        81:d6:75:96:ca:05:79:1a:cb:1d:f3:97:57:7c:ed:a3:d8:bd:
        53:96:40:77:33:a9:39:89:9d:f2:76:34:f4:51:7a:69:7b:47:
        12:49:27:ec
-----BEGIN CERTIFICATE-----
MIIERTCCAy2gAwIBAgIBATANBgkqhkiG9w0BAQsFADBpMQswCQYDVQQGEwJVUzET
MBEGA1UECAwKQ2FsaWZvcm5pYTEUMBIGA1UEBwwLU2FudGEgQ2xhcmExDTALBgNV
BAoMBHBrZzUxDDAKBgNVBAMMA3RhMTESMBAGCSqGSIb3DQEJARYDdGExMB4XDTI0
MTExNDE0MjY1MVoXDTI3MDgxMTE0MjY1MVowcTELMAkGA1UEBhMCVVMxEzARBgNV
BAgMCkNhbGlmb3JuaWExFDASBgNVBAcMC1NhbnRhIENsYXJhMQ0wCwYDVQQKDARw
a2c1MRAwDgYDVQQDDAdjaDFfdGExMRYwFAYJKoZIhvcNAQkBFgdjaDFfdGExMIIB
IjANBgkqhkiG9w0BAQEFAAOCAQ8AMIIBCgKCAQEAzxfT9O4/i0sSWP3FnjtqmGYw
26rqXgsr+IYtZNqvDVyp6y8joidVDyAJzj/AX/ugD1GQqxUk1/fUiTgp/6srEeqL
+c/UEFQBEkm1kHruv+MnlP4XJBRXf8DQ5fLUB0hjhTfseIunOjIGxE7SClqEvNwG
Hcl0oLYktkbn0nLWIWGin0YiZdpeLosF2u6q0ZYKQ4eu5FEy/LB1ZRahLIycULZc
JzQrjGxttNwesVqBXR6Ef0hoFZZneift7HnnqJ9rdJ9aK0uvClWDgmlT9LEdldkm
HdSaJ04w1aM6cAU7Bgy8N4inX59H+uNiDZchYILmp7K1N0qYhtA3AtbqafXs4QID
AQABo4HvMIHsMB0GA1UdDgQWBBTI5sK8xd3nzwbWjTOJl2iBzpNjEjCBpgYDVR0j
BIGeMIGbgBS6WuO4DYJO0MmykcpbNx1lFHP59KFtpGswaTELMAkGA1UEBhMCVVMx
EzARBgNVBAgMCkNhbGlmb3JuaWExFDASBgNVBAcMC1NhbnRhIENsYXJhMQ0wCwYD
VQQKDARwa2c1MQwwCgYDVQQDDAN0YTExEjAQBgkqhkiG9w0BCQEWA3RhMYIUShGf
um8h1lNGeIDp3HaqlpYi/DAwEgYDVR0TAQH/BAgwBgEB/wIBBDAOBgNVHQ8BAf8E
BAMCAQYwDQYJKoZIhvcNAQELBQADggEBADkER1ZQ2TMnEo2phYjF5EUkfb6DbeNz
9F9JGlmbtxFtX6ZxPX3ifz7OZAJDXuG/e6ovaf7HWV+SM1cqbC3HBSemH3v1uRqe
ufTzIz4mf0xM3g67+uH0NKhC/y/7HQFQB0dy+ELGFriSVFm/AWvLWgjYj5EfOewF
3egeG0K0AcQK02JEc7aHF8DXQJObgZYenLOMxcOYHNYExj8DLo0JKJgRTpd4zIP3
Rv3DhpHOcZBufO8yhmd7isLuxZlRt3ATJNnIi5fccVhqeKDcFjrnaUjDQjNrwR42
H4HWdZbKBXkayx3zl1d87aPYvVOWQHczqTmJnfJ2NPRReml7RxJJJ+w=
-----END CERTIFICATE-----
