Certificate:
    Data:
        Version: 3 (0x2)
        Serial Number: 1 (0x1)
        Signature Algorithm: sha256WithRSAEncryption
        Issuer: C=US, ST=California, L=Santa Clara, O=pkg5, CN=ta1/emailAddress=ta1
        Validity
            Not Before: Oct 24 21:42:58 2023 GMT
            Not After : Jul 20 21:42:58 2026 GMT
        Subject: C=US, ST=California, L=Santa Clara, O=pkg5, CN=ch1_ta1/emailAddress=ch1_ta1
        Subject Public Key Info:
            Public Key Algorithm: rsaEncryption
                Public-Key: (2048 bit)
                Modulus:
                    00:c5:b2:4d:b1:70:e3:91:cc:85:06:7c:9d:db:46:
                    d5:d0:48:04:2f:12:09:63:78:9f:f0:22:45:70:f4:
                    5e:ac:f5:78:ec:1e:3b:43:03:18:24:25:cd:2f:8b:
                    5e:3e:09:75:0a:5d:28:f1:3b:52:78:ab:4f:61:3b:
                    a3:5c:9a:61:ea:bf:11:c6:ee:44:9c:a1:c4:83:7e:
                    62:b2:af:38:4b:8a:a4:4b:4d:fc:7e:fb:ce:90:bf:
                    bc:cc:19:bb:27:f0:bd:2d:50:6d:aa:6e:f7:1f:0e:
                    2c:0a:fb:ef:33:ea:21:a0:45:dd:06:0a:27:77:d8:
                    37:f9:72:c8:8c:be:bd:27:36:38:d6:63:25:25:a8:
                    7e:7e:1e:d9:8d:b1:15:48:f2:19:52:a0:49:73:ea:
                    d7:3f:36:f7:12:5f:4f:05:23:72:7f:31:b8:5a:3e:
                    2e:f2:a9:d2:9b:40:4d:22:2c:c8:e8:1f:fd:81:62:
                    7e:cc:81:eb:98:80:52:a2:2c:94:cc:e4:c2:1a:d7:
                    f8:37:b0:3e:49:a1:b5:ba:be:01:dc:24:01:d9:d0:
                    06:df:04:44:66:fa:96:0e:0c:56:0c:cd:64:db:b9:
                    ef:76:5c:cc:27:82:7a:78:9f:df:ab:53:a8:4c:45:
                    65:09:8d:92:31:b6:27:27:0a:b3:d5:6a:5e:9f:e6:
                    31:75
                Exponent: 65537 (0x10001)
        X509v3 extensions:
            X509v3 Subject Key Identifier: 
                43:AA:A0:08:BC:13:08:F0:7F:6F:4F:8B:0D:33:17:60:5D:AA:07:20
            X509v3 Authority Key Identifier: 
                keyid:70:69:61:61:CF:92:1B:33:44:AD:8E:5E:8E:BE:C8:75:32:DF:B1:77
                DirName:/C=US/ST=California/L=Santa Clara/O=pkg5/CN=ta1/emailAddress=ta1
                serial:2E:56:6F:F9:85:E6:C6:80:E0:26:83:9B:E8:54:20:A8:8D:FB:0D:CA
            X509v3 Basic Constraints: critical
                CA:TRUE, pathlen:4
            X509v3 Key Usage: critical
                Certificate Sign, CRL Sign
    Signature Algorithm: sha256WithRSAEncryption
    Signature Value:
        7c:c0:f8:7b:be:a9:dd:2f:b1:56:79:72:96:ab:fb:70:00:cb:
        f1:c5:92:3a:2a:70:ae:12:c6:ba:1c:3c:f4:52:96:35:7a:75:
        e6:35:79:97:73:90:5f:85:a1:3c:c4:e1:1d:6f:42:e2:77:32:
        0f:06:43:89:99:4d:c0:5a:a2:a2:af:5d:cb:91:00:b5:34:f6:
        ee:4f:91:94:f3:bb:22:a3:ae:4a:75:43:e0:04:e6:10:4a:5f:
        32:0a:52:47:34:d7:4a:38:ba:14:e6:e2:55:3d:62:87:f6:6e:
        97:53:1d:62:93:53:ed:50:58:42:a0:d5:11:9e:07:91:78:4d:
        d5:88:92:ad:7c:68:81:21:91:ad:1d:76:a6:0a:9b:d5:19:09:
        37:cd:91:b7:2e:1d:dc:c4:b1:14:c3:41:4c:52:e9:40:c1:a7:
        f0:3b:55:0a:8b:54:b7:69:4f:5a:b3:8f:2a:8e:e3:6c:af:a1:
        93:ed:4d:8d:ff:c5:b8:43:ec:b6:37:3f:55:a3:eb:6c:25:02:
        88:84:c7:fa:14:5b:0f:0c:fc:53:87:c4:53:fd:05:97:c9:b4:
        43:f3:72:7a:87:b9:ea:70:4d:08:65:9b:ba:cb:de:d6:1d:b1:
        f3:25:d5:fe:2c:f1:24:63:71:cd:ef:0d:dd:a1:81:d2:bf:89:
        a1:cb:7f:98
-----BEGIN CERTIFICATE-----
MIIERTCCAy2gAwIBAgIBATANBgkqhkiG9w0BAQsFADBpMQswCQYDVQQGEwJVUzET
MBEGA1UECAwKQ2FsaWZvcm5pYTEUMBIGA1UEBwwLU2FudGEgQ2xhcmExDTALBgNV
BAoMBHBrZzUxDDAKBgNVBAMMA3RhMTESMBAGCSqGSIb3DQEJARYDdGExMB4XDTIz
MTAyNDIxNDI1OFoXDTI2MDcyMDIxNDI1OFowcTELMAkGA1UEBhMCVVMxEzARBgNV
BAgMCkNhbGlmb3JuaWExFDASBgNVBAcMC1NhbnRhIENsYXJhMQ0wCwYDVQQKDARw
a2c1MRAwDgYDVQQDDAdjaDFfdGExMRYwFAYJKoZIhvcNAQkBFgdjaDFfdGExMIIB
IjANBgkqhkiG9w0BAQEFAAOCAQ8AMIIBCgKCAQEAxbJNsXDjkcyFBnyd20bV0EgE
LxIJY3if8CJFcPRerPV47B47QwMYJCXNL4tePgl1Cl0o8TtSeKtPYTujXJph6r8R
xu5EnKHEg35isq84S4qkS038fvvOkL+8zBm7J/C9LVBtqm73Hw4sCvvvM+ohoEXd
Bgond9g3+XLIjL69JzY41mMlJah+fh7ZjbEVSPIZUqBJc+rXPzb3El9PBSNyfzG4
Wj4u8qnSm0BNIizI6B/9gWJ+zIHrmIBSoiyUzOTCGtf4N7A+SaG1ur4B3CQB2dAG
3wREZvqWDgxWDM1k27nvdlzMJ4J6eJ/fq1OoTEVlCY2SMbYnJwqz1Wpen+YxdQID
AQABo4HvMIHsMB0GA1UdDgQWBBRDqqAIvBMI8H9vT4sNMxdgXaoHIDCBpgYDVR0j
BIGeMIGbgBRwaWFhz5IbM0Stjl6Ovsh1Mt+xd6FtpGswaTELMAkGA1UEBhMCVVMx
EzARBgNVBAgMCkNhbGlmb3JuaWExFDASBgNVBAcMC1NhbnRhIENsYXJhMQ0wCwYD
VQQKDARwa2c1MQwwCgYDVQQDDAN0YTExEjAQBgkqhkiG9w0BCQEWA3RhMYIULlZv
+YXmxoDgJoOb6FQgqI37DcowEgYDVR0TAQH/BAgwBgEB/wIBBDAOBgNVHQ8BAf8E
BAMCAQYwDQYJKoZIhvcNAQELBQADggEBAHzA+Hu+qd0vsVZ5cpar+3AAy/HFkjoq
cK4SxrocPPRSljV6deY1eZdzkF+FoTzE4R1vQuJ3Mg8GQ4mZTcBaoqKvXcuRALU0
9u5PkZTzuyKjrkp1Q+AE5hBKXzIKUkc010o4uhTm4lU9Yof2bpdTHWKTU+1QWEKg
1RGeB5F4TdWIkq18aIEhka0ddqYKm9UZCTfNkbcuHdzEsRTDQUxS6UDBp/A7VQqL
VLdpT1qzjyqO42yvoZPtTY3/xbhD7LY3P1Wj62wlAoiEx/oUWw8M/FOHxFP9BZfJ
tEPzcnqHuepwTQhlm7rL3tYdsfMl1f4s8SRjcc3vDd2hgdK/iaHLf5g=
-----END CERTIFICATE-----
