Certificate:
    Data:
        Version: 3 (0x2)
        Serial Number: 1 (0x1)
    Signature Algorithm: sha256WithRSAEncryption
        Issuer: C=US, ST=California, L=Santa Clara, O=pkg5, CN=ta1/emailAddress=ta1
        Validity
            Not Before: Nov 16 10:58:46 2017 GMT
            Not After : Aug 12 10:58:46 2020 GMT
        Subject: C=US, ST=California, L=Santa Clara, O=pkg5, CN=ch1_ta1/emailAddress=ch1_ta1
        Subject Public Key Info:
            Public Key Algorithm: rsaEncryption
                Public-Key: (2048 bit)
                Modulus:
                    00:9c:6f:2d:67:74:c7:c6:3d:03:36:58:52:58:58:
                    2e:0e:3a:08:46:93:fb:e6:a1:2f:88:ec:4f:4c:dd:
                    19:5b:43:27:16:90:f8:05:9f:05:7f:91:7f:2b:5f:
                    5f:6f:8d:35:9e:e2:61:f9:4e:26:d9:e4:02:32:4e:
                    2c:fc:a6:e3:42:dd:5d:a1:f6:0f:81:b4:ab:8d:b6:
                    e1:52:ff:66:81:ee:a8:99:10:08:3a:01:0b:47:4c:
                    b6:39:58:55:41:68:8d:05:52:1b:62:0f:6c:60:dc:
                    21:00:a9:be:86:3d:84:aa:ae:77:51:23:4b:5c:89:
                    4f:84:33:03:54:58:c7:b9:14:e7:fa:64:8e:28:ff:
                    c5:78:d7:db:62:44:94:e7:73:98:8b:8d:78:27:be:
                    b2:88:26:e7:f6:18:3d:00:6a:c4:31:77:01:6d:93:
                    93:f4:fd:1b:b2:ec:04:4e:ef:65:21:b4:79:ea:33:
                    63:e9:0a:79:f6:18:86:9e:b8:d7:a4:1b:92:10:77:
                    fc:1e:ff:5c:13:1d:7e:7e:2c:c5:8c:3c:23:10:34:
                    7d:83:df:ee:e5:4d:3c:1a:7a:69:46:e8:82:4f:03:
                    91:b9:ac:93:d2:5b:79:a4:4f:48:1a:98:3b:26:54:
                    29:d6:4a:07:af:a0:a8:2f:c6:85:ab:13:51:62:90:
                    fd:2d
                Exponent: 65537 (0x10001)
        X509v3 extensions:
            X509v3 Subject Key Identifier: 
                25:2C:9F:41:22:80:0C:8E:DD:D2:B9:52:A8:34:12:83:AC:07:7C:7D
            X509v3 Authority Key Identifier: 
                keyid:86:C6:6D:7A:29:0E:FC:4D:1B:3A:F0:85:6E:FC:59:A4:FE:9F:D7:01
                DirName:/C=US/ST=California/L=Santa Clara/O=pkg5/CN=ta1/emailAddress=ta1
                serial:E1:4C:F2:A6:25:CA:3E:E4

            X509v3 Basic Constraints: critical
                CA:TRUE, pathlen:4
            X509v3 Key Usage: critical
                Certificate Sign, CRL Sign
    Signature Algorithm: sha256WithRSAEncryption
         28:76:ca:16:73:02:37:37:5e:b5:fa:c3:a0:c9:c5:d0:ec:85:
         52:b8:74:70:7b:17:0a:ec:30:5a:28:d0:93:1a:f7:f0:f9:b2:
         55:ad:2b:6f:d8:85:d5:4f:cc:c1:af:85:c5:11:04:a0:96:83:
         1a:c2:34:02:48:48:a0:2c:38:69:f8:22:92:05:98:c2:50:73:
         90:58:19:19:1d:0a:d0:4f:f5:69:71:27:c3:be:47:62:75:27:
         ed:9c:2f:4d:43:ee:0f:78:57:79:bb:0d:c5:e5:e4:cf:fb:49:
         5a:a2:4d:a2:61:a1:7f:2b:98:28:57:65:bc:b1:89:ae:30:59:
         9a:4b:68:e8:8e:7e:bf:3b:0b:f5:80:f2:7a:bc:3e:12:de:46:
         c3:5e:ee:03:33:3e:34:9d:20:a7:f7:12:36:b8:85:cd:20:61:
         60:d0:69:bb:93:36:9c:d6:e2:43:35:e5:2a:62:3d:9b:69:83:
         5f:27:db:5d:3c:58:c7:6d:5a:40:79:b3:fa:59:1b:55:6f:98:
         b3:02:f2:fe:28:76:48:c6:b5:02:ac:96:94:58:c5:9d:b9:c4:
         79:95:63:75:3c:d0:38:24:fc:e0:36:dd:c9:54:a1:a2:38:31:
         51:ca:46:4e:c0:11:21:3e:c2:fe:7b:0a:1d:63:7d:df:e6:99:
         c8:78:a9:ca
-----BEGIN CERTIFICATE-----
MIIEOjCCAyKgAwIBAgIBATANBgkqhkiG9w0BAQsFADBpMQswCQYDVQQGEwJVUzET
MBEGA1UECAwKQ2FsaWZvcm5pYTEUMBIGA1UEBwwLU2FudGEgQ2xhcmExDTALBgNV
BAoMBHBrZzUxDDAKBgNVBAMMA3RhMTESMBAGCSqGSIb3DQEJARYDdGExMB4XDTE3
MTExNjEwNTg0NloXDTIwMDgxMjEwNTg0NlowcTELMAkGA1UEBhMCVVMxEzARBgNV
BAgMCkNhbGlmb3JuaWExFDASBgNVBAcMC1NhbnRhIENsYXJhMQ0wCwYDVQQKDARw
a2c1MRAwDgYDVQQDDAdjaDFfdGExMRYwFAYJKoZIhvcNAQkBFgdjaDFfdGExMIIB
IjANBgkqhkiG9w0BAQEFAAOCAQ8AMIIBCgKCAQEAnG8tZ3THxj0DNlhSWFguDjoI
RpP75qEviOxPTN0ZW0MnFpD4BZ8Ff5F/K19fb401nuJh+U4m2eQCMk4s/KbjQt1d
ofYPgbSrjbbhUv9mge6omRAIOgELR0y2OVhVQWiNBVIbYg9sYNwhAKm+hj2Eqq53
USNLXIlPhDMDVFjHuRTn+mSOKP/FeNfbYkSU53OYi414J76yiCbn9hg9AGrEMXcB
bZOT9P0bsuwETu9lIbR56jNj6Qp59hiGnrjXpBuSEHf8Hv9cEx1+fizFjDwjEDR9
g9/u5U08GnppRuiCTwORuayT0lt5pE9IGpg7JlQp1koHr6CoL8aFqxNRYpD9LQID
AQABo4HkMIHhMB0GA1UdDgQWBBQlLJ9BIoAMjt3SuVKoNBKDrAd8fTCBmwYDVR0j
BIGTMIGQgBSGxm16KQ78TRs68IVu/Fmk/p/XAaFtpGswaTELMAkGA1UEBhMCVVMx
EzARBgNVBAgMCkNhbGlmb3JuaWExFDASBgNVBAcMC1NhbnRhIENsYXJhMQ0wCwYD
VQQKDARwa2c1MQwwCgYDVQQDDAN0YTExEjAQBgkqhkiG9w0BCQEWA3RhMYIJAOFM
8qYlyj7kMBIGA1UdEwEB/wQIMAYBAf8CAQQwDgYDVR0PAQH/BAQDAgEGMA0GCSqG
SIb3DQEBCwUAA4IBAQAodsoWcwI3N161+sOgycXQ7IVSuHRwexcK7DBaKNCTGvfw
+bJVrStv2IXVT8zBr4XFEQSgloMawjQCSEigLDhp+CKSBZjCUHOQWBkZHQrQT/Vp
cSfDvkdidSftnC9NQ+4PeFd5uw3F5eTP+0laok2iYaF/K5goV2W8sYmuMFmaS2jo
jn6/Owv1gPJ6vD4S3kbDXu4DMz40nSCn9xI2uIXNIGFg0Gm7kzac1uJDNeUqYj2b
aYNfJ9tdPFjHbVpAebP6WRtVb5izAvL+KHZIxrUCrJaUWMWducR5lWN1PNA4JPzg
Nt3JVKGiODFRykZOwBEhPsL+ewodY33f5pnIeKnK
-----END CERTIFICATE-----
