Certificate:
    Data:
        Version: 3 (0x2)
        Serial Number: 1 (0x1)
        Signature Algorithm: sha256WithRSAEncryption
        Issuer: C=US, ST=California, L=Santa Clara, O=pkg5, CN=ta1/emailAddress=ta1
        Validity
            Not Before: Dec 15 15:37:15 2022 GMT
            Not After : Sep 10 15:37:15 2025 GMT
        Subject: C=US, ST=California, L=Santa Clara, O=pkg5, CN=ch1_ta1/emailAddress=ch1_ta1
        Subject Public Key Info:
            Public Key Algorithm: rsaEncryption
                Public-Key: (2048 bit)
                Modulus:
                    00:ed:bd:94:5c:d3:ab:89:32:a1:ee:98:8c:45:2b:
                    28:37:0c:2e:9a:07:cc:eb:06:6d:ff:d8:f6:ce:a5:
                    a6:16:af:8f:0a:83:73:8c:a9:34:ef:86:d3:23:b3:
                    9f:dd:2d:66:b8:cd:83:b4:3e:c5:8b:28:28:4f:97:
                    a3:4c:a8:17:7d:aa:6f:c6:95:76:23:70:e1:25:1a:
                    78:ca:f2:7e:22:02:5f:34:17:f5:dd:d1:de:51:2c:
                    eb:0d:07:b7:b6:88:b6:8b:e8:7f:d0:bd:53:bc:2c:
                    37:c6:2b:4e:0d:71:72:99:e5:c5:34:d3:cc:99:c8:
                    c5:65:87:b8:5d:44:52:00:c7:a8:a4:c8:8f:3b:19:
                    4e:6a:15:4d:4b:7f:1d:a9:41:73:7b:ca:49:21:f5:
                    86:6a:e4:c7:7a:b6:8d:42:a8:84:56:5c:5b:a6:e9:
                    1c:b5:cd:bc:a2:42:12:12:20:4a:0b:34:d8:8a:65:
                    3d:a1:09:25:94:55:89:21:f5:e3:e6:22:78:36:29:
                    00:75:cf:02:f1:80:a2:c8:74:16:8b:14:de:7a:b9:
                    a7:98:32:e3:41:2e:f4:d7:43:48:9f:65:c0:dd:9e:
                    3e:e6:85:6d:ce:07:63:c7:9c:ed:7c:b2:21:67:80:
                    58:8f:c4:f9:f2:ac:9c:58:c1:25:53:4c:a4:e5:07:
                    31:e3
                Exponent: 65537 (0x10001)
        X509v3 extensions:
            X509v3 Subject Key Identifier: 
                79:A8:63:B7:33:35:5D:D5:E6:D5:7A:99:BB:B1:17:A6:32:67:28:C6
            X509v3 Authority Key Identifier: 
                keyid:E2:53:9E:AD:76:02:1B:EA:99:5E:53:3E:57:28:73:30:53:4B:44:6C
                DirName:/C=US/ST=California/L=Santa Clara/O=pkg5/CN=ta1/emailAddress=ta1
                serial:0A:E3:4F:F5:D9:6A:0D:4A:C3:27:C7:62:43:4A:77:2F:73:0C:5B:9B
            X509v3 Basic Constraints: critical
                CA:TRUE, pathlen:4
            X509v3 Key Usage: critical
                Certificate Sign, CRL Sign
    Signature Algorithm: sha256WithRSAEncryption
    Signature Value:
        3b:cf:84:ac:fb:fc:e1:77:d9:b5:cc:05:f6:ff:c1:04:98:04:
        47:41:26:56:6c:73:e4:ad:d3:09:b4:04:02:c1:00:25:4f:19:
        b1:b7:67:c5:37:8b:c2:ca:59:0e:d6:9e:a3:39:d1:f9:49:cf:
        df:3c:b5:58:68:3d:97:66:97:fc:ce:8c:f4:32:f7:40:20:60:
        9b:14:16:05:39:ab:5c:6c:64:44:8e:04:3a:7b:a8:a4:50:f7:
        ea:ef:4c:6e:69:18:df:07:8b:9b:bb:65:7f:a1:e8:45:38:28:
        e6:ab:ce:f1:1d:4c:f7:2e:a6:8d:38:cb:61:3a:c2:43:75:ab:
        7a:2d:51:2e:8e:43:f2:4d:ef:25:ab:4d:12:73:3b:fc:a7:c1:
        7e:99:16:6c:d9:d0:11:9a:ca:8e:7c:bb:2d:f1:e3:b1:f7:4f:
        d1:ff:ea:9e:01:38:13:02:08:58:77:f6:11:74:96:74:2c:d4:
        88:8a:70:71:85:bc:b9:11:77:df:48:06:e4:09:7f:ca:2e:a7:
        2a:51:74:44:25:6e:ea:1c:d9:e8:a8:24:c2:fa:a1:89:9b:a4:
        1b:37:a1:d0:84:99:b4:01:33:f0:65:51:07:ee:18:ae:61:51:
        6d:1e:1b:86:c0:fd:73:ab:4e:bc:c3:23:1b:e3:92:3f:ae:95:
        0c:bb:25:a7
-----BEGIN CERTIFICATE-----
MIIERTCCAy2gAwIBAgIBATANBgkqhkiG9w0BAQsFADBpMQswCQYDVQQGEwJVUzET
MBEGA1UECAwKQ2FsaWZvcm5pYTEUMBIGA1UEBwwLU2FudGEgQ2xhcmExDTALBgNV
BAoMBHBrZzUxDDAKBgNVBAMMA3RhMTESMBAGCSqGSIb3DQEJARYDdGExMB4XDTIy
MTIxNTE1MzcxNVoXDTI1MDkxMDE1MzcxNVowcTELMAkGA1UEBhMCVVMxEzARBgNV
BAgMCkNhbGlmb3JuaWExFDASBgNVBAcMC1NhbnRhIENsYXJhMQ0wCwYDVQQKDARw
a2c1MRAwDgYDVQQDDAdjaDFfdGExMRYwFAYJKoZIhvcNAQkBFgdjaDFfdGExMIIB
IjANBgkqhkiG9w0BAQEFAAOCAQ8AMIIBCgKCAQEA7b2UXNOriTKh7piMRSsoNwwu
mgfM6wZt/9j2zqWmFq+PCoNzjKk074bTI7Of3S1muM2DtD7FiygoT5ejTKgXfapv
xpV2I3DhJRp4yvJ+IgJfNBf13dHeUSzrDQe3toi2i+h/0L1TvCw3xitODXFymeXF
NNPMmcjFZYe4XURSAMeopMiPOxlOahVNS38dqUFze8pJIfWGauTHeraNQqiEVlxb
pukctc28okISEiBKCzTYimU9oQkllFWJIfXj5iJ4NikAdc8C8YCiyHQWixTeermn
mDLjQS7010NIn2XA3Z4+5oVtzgdjx5ztfLIhZ4BYj8T58qycWMElU0yk5Qcx4wID
AQABo4HvMIHsMB0GA1UdDgQWBBR5qGO3MzVd1ebVepm7sRemMmcoxjCBpgYDVR0j
BIGeMIGbgBTiU56tdgIb6pleUz5XKHMwU0tEbKFtpGswaTELMAkGA1UEBhMCVVMx
EzARBgNVBAgMCkNhbGlmb3JuaWExFDASBgNVBAcMC1NhbnRhIENsYXJhMQ0wCwYD
VQQKDARwa2c1MQwwCgYDVQQDDAN0YTExEjAQBgkqhkiG9w0BCQEWA3RhMYIUCuNP
9dlqDUrDJ8diQ0p3L3MMW5swEgYDVR0TAQH/BAgwBgEB/wIBBDAOBgNVHQ8BAf8E
BAMCAQYwDQYJKoZIhvcNAQELBQADggEBADvPhKz7/OF32bXMBfb/wQSYBEdBJlZs
c+St0wm0BALBACVPGbG3Z8U3i8LKWQ7WnqM50flJz988tVhoPZdml/zOjPQy90Ag
YJsUFgU5q1xsZESOBDp7qKRQ9+rvTG5pGN8Hi5u7ZX+h6EU4KOarzvEdTPcupo04
y2E6wkN1q3otUS6OQ/JN7yWrTRJzO/ynwX6ZFmzZ0BGayo58uy3x47H3T9H/6p4B
OBMCCFh39hF0lnQs1IiKcHGFvLkRd99IBuQJf8oupypRdEQlbuoc2eioJML6oYmb
pBs3odCEmbQBM/BlUQfuGK5hUW0eG4bA/XOrTrzDIxvjkj+ulQy7Jac=
-----END CERTIFICATE-----
