Certificate:
    Data:
        Version: 3 (0x2)
        Serial Number: 1 (0x1)
        Signature Algorithm: sha256WithRSAEncryption
        Issuer: C=US, ST=California, L=Santa Clara, O=pkg5, CN=ta1/emailAddress=ta1
        Validity
            Not Before: Oct 22 10:15:04 2021 GMT
            Not After : Jul 18 10:15:04 2024 GMT
        Subject: C=US, ST=California, L=Santa Clara, O=pkg5, CN=ch1_ta1/emailAddress=ch1_ta1
        Subject Public Key Info:
            Public Key Algorithm: rsaEncryption
                Public-Key: (2048 bit)
                Modulus:
                    00:9e:3c:39:ed:9a:0a:73:43:77:94:0b:62:9c:ab:
                    7b:c6:ab:23:a6:1d:2f:75:2b:4f:54:53:85:ed:99:
                    22:64:d7:f9:20:61:f6:41:ab:73:bb:08:dc:f8:82:
                    ca:b5:85:36:9f:9f:a1:4f:99:e2:0a:42:c2:ae:ea:
                    5c:f3:ab:2a:35:b5:e8:ac:de:b4:53:2e:07:10:28:
                    8b:13:57:fd:4a:37:32:9b:e2:58:d6:91:80:e9:8d:
                    b4:f4:1f:b4:1b:43:7c:84:98:19:dd:0c:01:ca:dc:
                    3b:bc:d9:76:ce:81:ce:1b:43:af:78:d8:2e:aa:f9:
                    e7:a2:97:13:9c:ab:f6:a7:0d:89:47:12:5d:00:5a:
                    7f:30:6f:a4:bf:f7:bd:ca:18:c7:b1:4e:55:b6:41:
                    49:d7:20:44:14:12:3d:06:47:11:c6:64:ea:53:3d:
                    d0:e9:c6:03:c5:3f:82:11:10:89:47:46:38:c4:cf:
                    3b:72:9f:d3:6b:86:e3:67:e3:71:69:ae:2d:ac:8d:
                    60:9d:a5:d7:a5:e2:0b:e2:64:1a:23:66:66:ff:31:
                    1d:c3:20:8a:8b:a5:f4:cb:fa:f3:66:44:91:ee:04:
                    cd:80:a4:27:b9:1f:5d:07:6b:03:af:aa:4c:58:26:
                    e2:fb:d6:4e:70:02:66:76:e2:e6:04:f2:aa:79:19:
                    ac:2f
                Exponent: 65537 (0x10001)
        X509v3 extensions:
            X509v3 Subject Key Identifier: 
                AE:86:59:A4:80:B2:F2:9D:CC:4C:0A:56:F6:93:EE:2C:3F:D2:27:6A
            X509v3 Authority Key Identifier: 
                keyid:B7:44:60:F4:4D:97:53:D6:64:0A:EC:10:0B:0A:18:58:31:62:88:59
                DirName:/C=US/ST=California/L=Santa Clara/O=pkg5/CN=ta1/emailAddress=ta1
                serial:38:60:4F:38:99:E9:4E:84:30:61:A1:0B:D8:E7:BD:6D:1A:35:7F:52
            X509v3 Basic Constraints: critical
                CA:TRUE, pathlen:4
            X509v3 Key Usage: critical
                Certificate Sign, CRL Sign
    Signature Algorithm: sha256WithRSAEncryption
    Signature Value:
        8a:08:74:ea:35:6c:79:42:87:b1:f4:71:2d:f9:71:13:83:66:
        05:d6:f3:fb:7f:63:f7:06:3a:b3:90:b6:94:b5:23:0e:48:25:
        1a:97:9d:db:32:53:ce:7b:4c:2d:fc:1e:94:b1:8a:da:eb:d3:
        d2:52:e4:9a:33:7b:87:10:12:e8:34:f2:19:6b:98:34:6f:07:
        59:fc:2a:52:9c:4e:ac:b1:bf:5a:72:1c:e7:c7:d9:70:f2:aa:
        de:3c:0f:a0:42:af:c7:4f:b1:aa:bf:a7:36:1b:d9:4f:5a:7b:
        58:4c:52:da:0e:c1:2c:8c:7c:75:d7:9c:bd:4e:d0:29:de:b8:
        b7:29:fd:10:1d:29:67:c1:71:e8:0d:8d:5f:5e:25:13:b0:46:
        19:58:ed:7f:ba:c2:ad:55:6e:c5:a8:cd:b3:3b:91:4f:82:a8:
        45:c2:1d:c9:0c:83:4f:cb:a6:c5:93:92:82:fc:a1:c4:c3:c6:
        b5:c3:65:7f:25:4e:8c:1a:82:8f:58:ad:08:45:1a:bd:1a:5c:
        73:fa:0e:0a:f5:c0:4c:85:41:4d:fb:09:14:2c:4b:4c:d8:cb:
        1d:3e:ff:32:22:e0:f9:36:77:e3:16:4e:15:fd:9f:51:8e:9f:
        f7:76:6d:c3:4e:e2:43:05:a4:b4:70:da:b2:60:2b:6b:8c:ef:
        3a:40:17:bb
-----BEGIN CERTIFICATE-----
MIIERTCCAy2gAwIBAgIBATANBgkqhkiG9w0BAQsFADBpMQswCQYDVQQGEwJVUzET
MBEGA1UECAwKQ2FsaWZvcm5pYTEUMBIGA1UEBwwLU2FudGEgQ2xhcmExDTALBgNV
BAoMBHBrZzUxDDAKBgNVBAMMA3RhMTESMBAGCSqGSIb3DQEJARYDdGExMB4XDTIx
MTAyMjEwMTUwNFoXDTI0MDcxODEwMTUwNFowcTELMAkGA1UEBhMCVVMxEzARBgNV
BAgMCkNhbGlmb3JuaWExFDASBgNVBAcMC1NhbnRhIENsYXJhMQ0wCwYDVQQKDARw
a2c1MRAwDgYDVQQDDAdjaDFfdGExMRYwFAYJKoZIhvcNAQkBFgdjaDFfdGExMIIB
IjANBgkqhkiG9w0BAQEFAAOCAQ8AMIIBCgKCAQEAnjw57ZoKc0N3lAtinKt7xqsj
ph0vdStPVFOF7ZkiZNf5IGH2Qatzuwjc+ILKtYU2n5+hT5niCkLCrupc86sqNbXo
rN60Uy4HECiLE1f9Sjcym+JY1pGA6Y209B+0G0N8hJgZ3QwBytw7vNl2zoHOG0Ov
eNguqvnnopcTnKv2pw2JRxJdAFp/MG+kv/e9yhjHsU5VtkFJ1yBEFBI9BkcRxmTq
Uz3Q6cYDxT+CERCJR0Y4xM87cp/Ta4bjZ+Nxaa4trI1gnaXXpeIL4mQaI2Zm/zEd
wyCKi6X0y/rzZkSR7gTNgKQnuR9dB2sDr6pMWCbi+9ZOcAJmduLmBPKqeRmsLwID
AQABo4HvMIHsMB0GA1UdDgQWBBSuhlmkgLLyncxMClb2k+4sP9InajCBpgYDVR0j
BIGeMIGbgBS3RGD0TZdT1mQK7BALChhYMWKIWaFtpGswaTELMAkGA1UEBhMCVVMx
EzARBgNVBAgMCkNhbGlmb3JuaWExFDASBgNVBAcMC1NhbnRhIENsYXJhMQ0wCwYD
VQQKDARwa2c1MQwwCgYDVQQDDAN0YTExEjAQBgkqhkiG9w0BCQEWA3RhMYIUOGBP
OJnpToQwYaEL2Oe9bRo1f1IwEgYDVR0TAQH/BAgwBgEB/wIBBDAOBgNVHQ8BAf8E
BAMCAQYwDQYJKoZIhvcNAQELBQADggEBAIoIdOo1bHlCh7H0cS35cRODZgXW8/t/
Y/cGOrOQtpS1Iw5IJRqXndsyU857TC38HpSxitrr09JS5Joze4cQEug08hlrmDRv
B1n8KlKcTqyxv1pyHOfH2XDyqt48D6BCr8dPsaq/pzYb2U9ae1hMUtoOwSyMfHXX
nL1O0CneuLcp/RAdKWfBcegNjV9eJROwRhlY7X+6wq1VbsWozbM7kU+CqEXCHckM
g0/LpsWTkoL8ocTDxrXDZX8lTowago9YrQhFGr0aXHP6Dgr1wEyFQU37CRQsS0zY
yx0+/zIi4Pk2d+MWThX9n1GOn/d2bcNO4kMFpLRw2rJgK2uM7zpAF7s=
-----END CERTIFICATE-----
