Certificate:
    Data:
        Version: 3 (0x2)
        Serial Number: 2 (0x2)
        Signature Algorithm: sha256WithRSAEncryption
        Issuer: C=US, ST=California, L=Santa Clara, O=pkg5, CN=ch1_ta1/emailAddress=ch1_ta1
        Validity
            Not Before: Dec 15 15:37:15 2022 GMT
            Not After : Sep 10 15:37:15 2025 GMT
        Subject: C=US, ST=California, L=Santa Clara, O=pkg5, CN=ch2_ta1/emailAddress=ch2_ta1
        Subject Public Key Info:
            Public Key Algorithm: rsaEncryption
                Public-Key: (2048 bit)
                Modulus:
                    00:e2:e1:64:e3:47:ae:b5:8f:1a:2f:5f:b4:b1:89:
                    fb:cf:f5:90:81:2c:ef:50:7c:8e:fe:b3:9d:17:8d:
                    d2:61:74:fa:ea:62:f3:97:f5:0f:bb:a8:e2:ed:94:
                    c2:1a:a9:73:c6:f7:55:19:0b:9c:5f:a5:4e:75:c8:
                    40:9f:7d:a9:8c:bb:68:ad:24:97:1a:aa:49:d8:22:
                    37:f0:d6:a0:32:1c:63:f5:57:89:67:59:f8:15:e7:
                    e6:6a:23:b3:d7:51:7a:87:7c:82:c6:f9:2c:f9:a3:
                    98:af:89:19:0e:02:28:fb:17:5f:d7:96:03:c9:7b:
                    7c:05:eb:ad:cb:1f:a4:2e:8d:20:e2:fe:50:ca:28:
                    70:1e:cf:de:ac:1d:69:a4:dd:20:80:6c:aa:36:e9:
                    cf:b7:0b:df:44:ac:b9:b6:95:47:ed:08:ab:d8:c8:
                    40:a7:c6:80:93:f4:56:bd:ec:f0:8d:5d:9f:b1:9d:
                    ad:59:2d:6f:11:88:5b:bb:16:49:02:f5:dd:35:f9:
                    34:ea:94:85:00:9d:d4:8b:55:e8:57:a9:1c:97:19:
                    95:e5:b3:34:05:46:ab:d5:d2:c7:62:24:33:39:5a:
                    16:f7:b5:5a:ef:3a:fc:8f:ad:3c:55:eb:04:af:4d:
                    0d:47:90:77:b7:49:3d:16:f8:43:b3:0d:c3:99:b0:
                    43:69
                Exponent: 65537 (0x10001)
        X509v3 extensions:
            X509v3 Subject Key Identifier: 
                4A:32:5D:AA:4F:8F:97:60:14:F2:D0:99:DE:C5:58:6E:6E:30:2A:14
            X509v3 Authority Key Identifier: 
                keyid:79:A8:63:B7:33:35:5D:D5:E6:D5:7A:99:BB:B1:17:A6:32:67:28:C6
                DirName:/C=US/ST=California/L=Santa Clara/O=pkg5/CN=ta1/emailAddress=ta1
                serial:01
            X509v3 Basic Constraints: critical
                CA:TRUE, pathlen:3
            X509v3 Key Usage: critical
                Certificate Sign, CRL Sign
    Signature Algorithm: sha256WithRSAEncryption
    Signature Value:
        6d:5d:a0:e7:1f:2e:8f:6a:f2:87:09:7f:4d:1b:95:c9:2b:06:
        fe:76:3d:85:77:2e:14:97:1b:05:ac:92:bc:3a:5f:54:ea:ce:
        74:50:aa:1f:71:79:81:6c:81:9b:e8:f7:e7:f6:ce:e8:3f:51:
        e9:31:29:75:7b:22:3b:d8:16:60:c8:95:4c:04:7d:9d:65:14:
        26:44:0b:aa:80:7a:23:4a:4d:e3:82:96:50:a0:74:73:7a:a8:
        05:db:38:1e:2b:7d:d2:05:d6:04:5b:a3:00:8d:d7:6f:57:78:
        a7:a9:de:d4:94:7a:26:04:06:3d:d6:5e:46:64:bb:4c:1f:1c:
        9c:6a:49:33:d8:d7:be:37:6b:f4:76:25:38:e3:88:ee:e9:e8:
        29:e5:1d:ca:60:f7:1d:43:42:f7:31:6d:ef:83:c0:c0:d9:92:
        0c:5b:4f:cc:33:cd:59:d4:8c:b0:e7:9b:8e:b2:af:24:69:df:
        40:08:11:12:10:24:67:82:e6:61:b9:e1:f3:ee:2b:64:1f:b0:
        2b:08:07:76:e1:4a:76:0b:57:67:d7:f1:aa:fe:3a:2b:3b:8b:
        e5:89:c4:6b:0c:70:54:83:5f:74:2a:79:25:2f:fe:ca:86:2e:
        a8:a7:07:71:e7:79:08:4c:91:06:44:ed:f1:c3:21:7e:6c:18:
        d0:d9:7c:c5
-----BEGIN CERTIFICATE-----
MIIEOjCCAyKgAwIBAgIBAjANBgkqhkiG9w0BAQsFADBxMQswCQYDVQQGEwJVUzET
MBEGA1UECAwKQ2FsaWZvcm5pYTEUMBIGA1UEBwwLU2FudGEgQ2xhcmExDTALBgNV
BAoMBHBrZzUxEDAOBgNVBAMMB2NoMV90YTExFjAUBgkqhkiG9w0BCQEWB2NoMV90
YTEwHhcNMjIxMjE1MTUzNzE1WhcNMjUwOTEwMTUzNzE1WjBxMQswCQYDVQQGEwJV
UzETMBEGA1UECAwKQ2FsaWZvcm5pYTEUMBIGA1UEBwwLU2FudGEgQ2xhcmExDTAL
BgNVBAoMBHBrZzUxEDAOBgNVBAMMB2NoMl90YTExFjAUBgkqhkiG9w0BCQEWB2No
Ml90YTEwggEiMA0GCSqGSIb3DQEBAQUAA4IBDwAwggEKAoIBAQDi4WTjR661jxov
X7SxifvP9ZCBLO9QfI7+s50XjdJhdPrqYvOX9Q+7qOLtlMIaqXPG91UZC5xfpU51
yECffamMu2itJJcaqknYIjfw1qAyHGP1V4lnWfgV5+ZqI7PXUXqHfILG+Sz5o5iv
iRkOAij7F1/XlgPJe3wF663LH6QujSDi/lDKKHAez96sHWmk3SCAbKo26c+3C99E
rLm2lUftCKvYyECnxoCT9Fa97PCNXZ+xna1ZLW8RiFu7FkkC9d01+TTqlIUAndSL
VehXqRyXGZXlszQFRqvV0sdiJDM5Whb3tVrvOvyPrTxV6wSvTQ1HkHe3ST0W+EOz
DcOZsENpAgMBAAGjgdwwgdkwHQYDVR0OBBYEFEoyXapPj5dgFPLQmd7FWG5uMCoU
MIGTBgNVHSMEgYswgYiAFHmoY7czNV3V5tV6mbuxF6YyZyjGoW2kazBpMQswCQYD
VQQGEwJVUzETMBEGA1UECAwKQ2FsaWZvcm5pYTEUMBIGA1UEBwwLU2FudGEgQ2xh
cmExDTALBgNVBAoMBHBrZzUxDDAKBgNVBAMMA3RhMTESMBAGCSqGSIb3DQEJARYD
dGExggEBMBIGA1UdEwEB/wQIMAYBAf8CAQMwDgYDVR0PAQH/BAQDAgEGMA0GCSqG
SIb3DQEBCwUAA4IBAQBtXaDnHy6PavKHCX9NG5XJKwb+dj2Fdy4UlxsFrJK8Ol9U
6s50UKofcXmBbIGb6Pfn9s7oP1HpMSl1eyI72BZgyJVMBH2dZRQmRAuqgHojSk3j
gpZQoHRzeqgF2zgeK33SBdYEW6MAjddvV3inqd7UlHomBAY91l5GZLtMHxycakkz
2Ne+N2v0diU444ju6egp5R3KYPcdQ0L3MW3vg8DA2ZIMW0/MM81Z1Iyw55uOsq8k
ad9ACBESECRnguZhueHz7itkH7ArCAd24Up2C1dn1/Gq/jorO4vlicRrDHBUg190
KnklL/7Khi6opwdx53kITJEGRO3xwyF+bBjQ2XzF
-----END CERTIFICATE-----
