Certificate:
    Data:
        Version: 3 (0x2)
        Serial Number: 2 (0x2)
        Signature Algorithm: sha256WithRSAEncryption
        Issuer: C=US, ST=California, L=Santa Clara, O=pkg5, CN=ch1_ta1/emailAddress=ch1_ta1
        Validity
            Not Before: Oct 22 10:15:04 2021 GMT
            Not After : Jul 18 10:15:04 2024 GMT
        Subject: C=US, ST=California, L=Santa Clara, O=pkg5, CN=ch2_ta1/emailAddress=ch2_ta1
        Subject Public Key Info:
            Public Key Algorithm: rsaEncryption
                Public-Key: (2048 bit)
                Modulus:
                    00:93:3e:37:5f:6f:39:41:c2:46:f9:ad:49:f0:fa:
                    25:47:5c:b1:57:03:26:4d:19:71:d5:34:b7:ef:45:
                    f4:76:a9:bd:da:45:81:0f:5f:d7:46:67:bd:30:13:
                    d9:68:55:3e:68:78:13:c6:fc:bb:d1:eb:2c:8f:50:
                    8c:bf:b1:55:18:a8:2c:fc:9e:fb:10:c2:c4:5a:1a:
                    e8:56:98:64:ae:c9:37:fe:b1:84:e5:7c:14:6c:c5:
                    b2:5c:0d:f5:fe:68:01:91:0e:45:1b:e1:e3:85:12:
                    1f:07:30:76:f1:37:bd:f2:cf:42:92:b7:11:5c:68:
                    ed:45:07:9c:aa:8f:cf:14:73:8e:77:fe:98:0f:a2:
                    d0:36:39:0e:46:0f:0d:41:8f:0f:c2:01:96:8d:3b:
                    8f:e3:9b:db:d4:a5:8d:3c:bd:5f:bb:61:76:96:04:
                    a1:b2:4c:48:87:b1:95:11:b8:cc:50:d4:03:83:8f:
                    3f:95:83:b2:f0:57:cd:fb:cb:d0:62:07:0d:c9:23:
                    4c:1d:eb:87:79:79:1f:b8:56:6a:f2:c3:8c:5b:97:
                    2c:1a:85:74:e2:85:74:bb:7a:d4:f4:8d:17:36:09:
                    8d:5a:5b:5a:e2:1b:6d:56:cb:df:21:13:02:7a:70:
                    86:0e:ec:ff:dd:ec:e9:d7:0b:6b:03:fd:78:43:77:
                    25:ff
                Exponent: 65537 (0x10001)
        X509v3 extensions:
            X509v3 Subject Key Identifier: 
                80:65:9D:87:35:2E:52:69:F6:3E:65:B7:1E:CC:70:1A:BA:61:18:69
            X509v3 Authority Key Identifier: 
                keyid:AE:86:59:A4:80:B2:F2:9D:CC:4C:0A:56:F6:93:EE:2C:3F:D2:27:6A
                DirName:/C=US/ST=California/L=Santa Clara/O=pkg5/CN=ta1/emailAddress=ta1
                serial:01
            X509v3 Basic Constraints: critical
                CA:TRUE, pathlen:3
            X509v3 Key Usage: critical
                Certificate Sign, CRL Sign
    Signature Algorithm: sha256WithRSAEncryption
    Signature Value:
        4f:c5:ef:02:cf:fd:fd:92:ef:25:63:64:28:6e:4d:ac:52:69:
        2e:8a:51:f4:71:86:b0:ea:ad:ab:67:5b:29:30:3f:fd:eb:3a:
        92:c0:74:8b:03:5a:92:08:7f:82:c0:b4:d4:56:84:d5:54:c0:
        5c:1d:8e:ae:7a:23:94:23:9b:ea:11:45:8a:d4:79:39:be:99:
        57:d1:a8:57:58:9b:ae:38:24:47:ca:12:98:f0:34:af:62:7d:
        4c:ac:4b:08:c4:b0:1a:1e:b4:c4:7e:15:4b:d5:c6:e9:b4:c0:
        bb:54:4e:b3:c6:40:a4:c8:53:1c:4f:90:dd:82:c9:c1:4c:66:
        bf:6c:54:18:32:96:d2:ac:2d:ec:82:36:8b:37:27:9d:4e:51:
        26:32:7f:9d:8b:2e:a6:05:8b:49:fe:d1:e5:a0:65:44:d7:6c:
        3c:35:ea:db:89:fe:b8:4c:8d:3e:e9:4d:7e:fc:89:b3:7d:d2:
        0c:ac:a5:c1:a1:30:ab:04:2c:bb:df:75:da:29:b0:6b:08:53:
        51:a9:06:9a:b5:42:2f:f6:28:ae:b6:34:50:50:d5:64:c2:76:
        93:2b:a7:19:33:38:b9:15:55:e1:93:41:a4:c2:d2:f5:e9:f1:
        b9:fa:8e:96:69:9e:9c:f8:f7:94:84:9e:52:3b:17:90:ba:6a:
        5e:3a:22:d8
-----BEGIN CERTIFICATE-----
MIIEOjCCAyKgAwIBAgIBAjANBgkqhkiG9w0BAQsFADBxMQswCQYDVQQGEwJVUzET
MBEGA1UECAwKQ2FsaWZvcm5pYTEUMBIGA1UEBwwLU2FudGEgQ2xhcmExDTALBgNV
BAoMBHBrZzUxEDAOBgNVBAMMB2NoMV90YTExFjAUBgkqhkiG9w0BCQEWB2NoMV90
YTEwHhcNMjExMDIyMTAxNTA0WhcNMjQwNzE4MTAxNTA0WjBxMQswCQYDVQQGEwJV
UzETMBEGA1UECAwKQ2FsaWZvcm5pYTEUMBIGA1UEBwwLU2FudGEgQ2xhcmExDTAL
BgNVBAoMBHBrZzUxEDAOBgNVBAMMB2NoMl90YTExFjAUBgkqhkiG9w0BCQEWB2No
Ml90YTEwggEiMA0GCSqGSIb3DQEBAQUAA4IBDwAwggEKAoIBAQCTPjdfbzlBwkb5
rUnw+iVHXLFXAyZNGXHVNLfvRfR2qb3aRYEPX9dGZ70wE9loVT5oeBPG/LvR6yyP
UIy/sVUYqCz8nvsQwsRaGuhWmGSuyTf+sYTlfBRsxbJcDfX+aAGRDkUb4eOFEh8H
MHbxN73yz0KStxFcaO1FB5yqj88Uc453/pgPotA2OQ5GDw1Bjw/CAZaNO4/jm9vU
pY08vV+7YXaWBKGyTEiHsZURuMxQ1AODjz+Vg7LwV837y9BiBw3JI0wd64d5eR+4
Vmryw4xblywahXTihXS7etT0jRc2CY1aW1riG21Wy98hEwJ6cIYO7P/d7OnXC2sD
/XhDdyX/AgMBAAGjgdwwgdkwHQYDVR0OBBYEFIBlnYc1LlJp9j5ltx7McBq6YRhp
MIGTBgNVHSMEgYswgYiAFK6GWaSAsvKdzEwKVvaT7iw/0idqoW2kazBpMQswCQYD
VQQGEwJVUzETMBEGA1UECAwKQ2FsaWZvcm5pYTEUMBIGA1UEBwwLU2FudGEgQ2xh
cmExDTALBgNVBAoMBHBrZzUxDDAKBgNVBAMMA3RhMTESMBAGCSqGSIb3DQEJARYD
dGExggEBMBIGA1UdEwEB/wQIMAYBAf8CAQMwDgYDVR0PAQH/BAQDAgEGMA0GCSqG
SIb3DQEBCwUAA4IBAQBPxe8Cz/39ku8lY2Qobk2sUmkuilH0cYaw6q2rZ1spMD/9
6zqSwHSLA1qSCH+CwLTUVoTVVMBcHY6ueiOUI5vqEUWK1Hk5vplX0ahXWJuuOCRH
yhKY8DSvYn1MrEsIxLAaHrTEfhVL1cbptMC7VE6zxkCkyFMcT5DdgsnBTGa/bFQY
MpbSrC3sgjaLNyedTlEmMn+diy6mBYtJ/tHloGVE12w8Nerbif64TI0+6U1+/Imz
fdIMrKXBoTCrBCy733XaKbBrCFNRqQaatUIv9iiutjRQUNVkwnaTK6cZMzi5FVXh
k0GkwtL16fG5+o6WaZ6c+PeUhJ5SOxeQumpeOiLY
-----END CERTIFICATE-----
