Certificate:
    Data:
        Version: 3 (0x2)
        Serial Number: 2 (0x2)
    Signature Algorithm: sha256WithRSAEncryption
        Issuer: C=US, ST=California, L=Santa Clara, O=pkg5, CN=ch1_ta1/emailAddress=ch1_ta1
        Validity
            Not Before: Mar 20 10:20:52 2018 GMT
            Not After : Dec 14 10:20:52 2020 GMT
        Subject: C=US, ST=California, L=Santa Clara, O=pkg5, CN=ch2_ta1/emailAddress=ch2_ta1
        Subject Public Key Info:
            Public Key Algorithm: rsaEncryption
                Public-Key: (2048 bit)
                Modulus:
                    00:ad:e7:96:09:ab:52:e8:ab:0a:d5:56:66:2b:91:
                    47:45:3d:ca:9f:04:3d:83:71:5a:66:d5:49:2c:98:
                    fb:35:51:d8:36:aa:c2:22:37:c6:99:d8:72:45:31:
                    ab:4b:77:4f:c6:04:0d:88:42:db:62:1b:22:9a:4e:
                    3f:aa:39:a8:bb:e0:f3:7e:dc:e1:cc:1b:e5:42:90:
                    9d:3d:86:ee:a8:ec:6b:da:48:5e:4a:28:be:99:b0:
                    46:ec:3e:8f:14:62:c0:a2:0e:7e:e1:af:8e:df:95:
                    ef:eb:0d:e1:25:01:bc:7a:74:b4:01:54:ce:89:5a:
                    82:43:5a:1e:23:f2:75:76:11:ad:95:3a:50:e0:10:
                    d1:d5:c1:1e:bf:e4:ac:11:c5:b6:f2:02:f3:c5:e7:
                    38:9c:19:61:21:40:78:8a:59:a9:58:31:48:a4:2f:
                    95:87:8e:81:e3:7b:7d:10:c8:58:1e:0a:db:e9:85:
                    e3:41:ee:bb:55:62:ef:86:e4:0c:e1:9d:e3:e0:94:
                    02:3d:53:d9:76:59:1c:cf:06:dd:db:e9:c7:e9:8e:
                    0d:cb:86:42:ad:16:b0:fd:be:10:1e:c2:c1:e6:60:
                    a5:8a:af:85:e0:9a:01:bb:67:8a:c7:af:06:02:fb:
                    bd:4d:bf:60:7a:a8:76:c1:28:d9:26:f1:06:50:88:
                    5b:ef
                Exponent: 65537 (0x10001)
        X509v3 extensions:
            X509v3 Subject Key Identifier: 
                18:5A:F7:75:33:CE:5F:66:42:D5:63:C3:E7:CC:FC:B9:F7:24:DB:CA
            X509v3 Authority Key Identifier: 
                keyid:E7:4C:62:84:04:66:B1:27:AD:45:F1:ED:53:58:72:AA:35:AF:BA:66
                DirName:/C=US/ST=California/L=Santa Clara/O=pkg5/CN=ta1/emailAddress=ta1
                serial:01

            X509v3 Basic Constraints: critical
                CA:TRUE, pathlen:3
            X509v3 Key Usage: critical
                Certificate Sign, CRL Sign
    Signature Algorithm: sha256WithRSAEncryption
         96:4d:e3:b0:12:68:c2:9a:b0:b3:58:23:3d:1a:14:23:ac:76:
         2c:1e:0a:48:5d:ee:6a:44:37:5d:47:b9:05:bd:e5:76:d2:53:
         5e:1e:86:94:fd:c2:03:6b:c0:22:63:3f:78:6b:b6:17:2a:35:
         eb:41:6a:4f:39:42:da:84:82:b2:34:a4:0e:32:93:42:1e:24:
         05:68:d7:f2:e6:6a:a2:c0:a8:1d:fa:f6:d8:04:d9:bd:65:eb:
         3f:a9:78:cb:b0:6a:5c:c6:6c:fa:0a:6e:08:85:4d:dc:1c:b6:
         3f:c5:4e:96:10:83:9f:6f:6c:ff:72:84:c3:84:bc:23:c4:1b:
         1f:74:f1:08:fe:40:00:d0:31:1c:8f:f5:9e:07:a3:55:7a:b0:
         f8:5f:8c:3b:19:b5:df:40:92:db:10:62:de:8d:e4:3b:73:88:
         7c:0b:3b:b0:66:cb:1e:78:45:07:9f:f0:24:eb:1f:d2:69:d1:
         d5:7c:c5:9b:84:38:c5:fa:e5:ff:d4:a8:7f:11:3e:fe:77:0c:
         67:e4:3d:5d:a4:72:51:fa:af:51:75:0c:b3:fe:cf:f1:c7:cf:
         b9:1d:91:11:39:5c:ca:77:73:48:05:52:1a:a4:f0:08:c7:cf:
         9c:30:cf:45:33:d9:68:d1:30:96:64:8f:97:79:1c:c4:0a:3e:
         9d:ea:25:ac
-----BEGIN CERTIFICATE-----
MIIEOjCCAyKgAwIBAgIBAjANBgkqhkiG9w0BAQsFADBxMQswCQYDVQQGEwJVUzET
MBEGA1UECAwKQ2FsaWZvcm5pYTEUMBIGA1UEBwwLU2FudGEgQ2xhcmExDTALBgNV
BAoMBHBrZzUxEDAOBgNVBAMMB2NoMV90YTExFjAUBgkqhkiG9w0BCQEWB2NoMV90
YTEwHhcNMTgwMzIwMTAyMDUyWhcNMjAxMjE0MTAyMDUyWjBxMQswCQYDVQQGEwJV
UzETMBEGA1UECAwKQ2FsaWZvcm5pYTEUMBIGA1UEBwwLU2FudGEgQ2xhcmExDTAL
BgNVBAoMBHBrZzUxEDAOBgNVBAMMB2NoMl90YTExFjAUBgkqhkiG9w0BCQEWB2No
Ml90YTEwggEiMA0GCSqGSIb3DQEBAQUAA4IBDwAwggEKAoIBAQCt55YJq1LoqwrV
VmYrkUdFPcqfBD2DcVpm1UksmPs1Udg2qsIiN8aZ2HJFMatLd0/GBA2IQttiGyKa
Tj+qOai74PN+3OHMG+VCkJ09hu6o7GvaSF5KKL6ZsEbsPo8UYsCiDn7hr47fle/r
DeElAbx6dLQBVM6JWoJDWh4j8nV2Ea2VOlDgENHVwR6/5KwRxbbyAvPF5zicGWEh
QHiKWalYMUikL5WHjoHje30QyFgeCtvpheNB7rtVYu+G5AzhnePglAI9U9l2WRzP
Bt3b6cfpjg3LhkKtFrD9vhAewsHmYKWKr4XgmgG7Z4rHrwYC+71Nv2B6qHbBKNkm
8QZQiFvvAgMBAAGjgdwwgdkwHQYDVR0OBBYEFBha93Uzzl9mQtVjw+fM/Ln3JNvK
MIGTBgNVHSMEgYswgYiAFOdMYoQEZrEnrUXx7VNYcqo1r7pmoW2kazBpMQswCQYD
VQQGEwJVUzETMBEGA1UECAwKQ2FsaWZvcm5pYTEUMBIGA1UEBwwLU2FudGEgQ2xh
cmExDTALBgNVBAoMBHBrZzUxDDAKBgNVBAMMA3RhMTESMBAGCSqGSIb3DQEJARYD
dGExggEBMBIGA1UdEwEB/wQIMAYBAf8CAQMwDgYDVR0PAQH/BAQDAgEGMA0GCSqG
SIb3DQEBCwUAA4IBAQCWTeOwEmjCmrCzWCM9GhQjrHYsHgpIXe5qRDddR7kFveV2
0lNeHoaU/cIDa8AiYz94a7YXKjXrQWpPOULahIKyNKQOMpNCHiQFaNfy5mqiwKgd
+vbYBNm9Zes/qXjLsGpcxmz6Cm4IhU3cHLY/xU6WEIOfb2z/coTDhLwjxBsfdPEI
/kAA0DEcj/WeB6NVerD4X4w7GbXfQJLbEGLejeQ7c4h8CzuwZsseeEUHn/Ak6x/S
adHVfMWbhDjF+uX/1Kh/ET7+dwxn5D1dpHJR+q9RdQyz/s/xx8+5HZEROVzKd3NI
BVIapPAIx8+cMM9FM9lo0TCWZI+XeRzECj6d6iWs
-----END CERTIFICATE-----
