Certificate:
    Data:
        Version: 3 (0x2)
        Serial Number: 3 (0x3)
        Signature Algorithm: sha256WithRSAEncryption
        Issuer: C=US, ST=California, L=Santa Clara, O=pkg5, CN=ch2_ta1/emailAddress=ch2_ta1
        Validity
            Not Before: Oct 22 10:15:05 2021 GMT
            Not After : Jul 18 10:15:05 2024 GMT
        Subject: C=US, ST=California, L=Santa Clara, O=pkg5, CN=ch3_ta1/emailAddress=ch3_ta1
        Subject Public Key Info:
            Public Key Algorithm: rsaEncryption
                Public-Key: (2048 bit)
                Modulus:
                    00:db:d0:d6:27:a5:b5:77:8d:9c:83:34:d0:44:e4:
                    e5:a3:f9:bf:e3:9e:50:82:af:11:7b:ec:f6:41:89:
                    6d:a9:22:e6:8c:28:9b:f3:b4:31:2f:02:77:41:20:
                    71:21:43:6e:56:31:df:4d:20:75:da:34:06:27:1d:
                    5f:25:f3:4d:5d:b7:06:b0:e5:f3:9e:d4:8d:98:d5:
                    a3:9e:46:0c:b4:bf:b5:5e:2d:ad:fb:74:41:58:a6:
                    b8:90:1f:0f:4d:5e:7b:b7:a4:90:42:37:11:1a:3a:
                    ca:d4:35:0e:e6:4c:1f:17:06:27:01:e9:0c:b5:0c:
                    b1:1e:76:5b:68:77:53:92:a1:94:03:e7:b3:25:e8:
                    ea:8f:6f:bd:6e:77:9a:ba:ba:da:8c:7d:35:8c:fa:
                    33:80:b4:52:f7:97:a2:e1:e8:64:d4:05:28:a1:c3:
                    6d:d8:7c:50:e0:82:48:53:9c:c9:c7:63:ec:8c:0f:
                    35:26:35:6b:48:8f:b7:2d:6a:2a:f9:2c:1c:60:a6:
                    47:8f:a0:2f:01:5d:30:21:29:36:db:98:42:9c:2a:
                    1c:f6:f5:59:e3:83:59:f8:bc:f1:31:de:07:f1:c0:
                    8a:42:0b:57:74:02:1c:79:77:e7:44:ea:bf:a7:ef:
                    69:3c:ac:7f:b3:a2:58:0b:5e:b4:24:1a:b1:bd:a4:
                    c2:8f
                Exponent: 65537 (0x10001)
        X509v3 extensions:
            X509v3 Subject Key Identifier: 
                9C:29:86:7E:84:2F:00:DD:2A:1D:B3:22:03:9A:F5:7A:BD:18:E5:CF
            X509v3 Authority Key Identifier: 
                keyid:80:65:9D:87:35:2E:52:69:F6:3E:65:B7:1E:CC:70:1A:BA:61:18:69
                DirName:/C=US/ST=California/L=Santa Clara/O=pkg5/CN=ch1_ta1/emailAddress=ch1_ta1
                serial:02
            X509v3 Basic Constraints: critical
                CA:TRUE, pathlen:2
            X509v3 Key Usage: critical
                Certificate Sign, CRL Sign
    Signature Algorithm: sha256WithRSAEncryption
    Signature Value:
        37:98:3a:30:7c:94:f2:f4:f4:70:1e:f8:1a:11:71:d2:64:1a:
        3c:f0:cd:8c:c7:f0:a0:c7:83:fd:de:83:65:3d:ad:b2:f9:c3:
        e4:ed:c1:44:06:94:77:32:3b:9e:38:69:f4:ba:a6:11:f8:02:
        e1:34:88:f5:67:d2:82:cb:41:7a:62:46:4d:38:1a:f1:3d:8e:
        d9:cb:3b:ee:68:2d:c5:79:39:a9:0b:f4:22:fe:40:da:0a:9c:
        18:db:93:8c:3d:7a:31:66:8f:c2:61:07:65:94:f3:38:30:c6:
        b8:b9:6b:46:db:f0:e5:0b:65:32:e2:29:b3:93:89:2f:e5:2d:
        42:8f:9d:6d:2f:32:d2:13:34:ef:ae:3d:e6:b1:6f:b2:09:5a:
        33:99:1d:59:29:be:5f:b0:1b:c9:a1:2e:bd:e1:f4:b0:a0:86:
        fe:ed:65:fe:df:7b:60:0f:57:d4:8b:9c:d3:89:c9:30:01:f5:
        a7:2b:d8:a0:60:29:f5:38:47:92:a8:92:4e:a7:cd:87:28:f2:
        34:93:5f:3c:a5:39:d7:6e:db:1b:6b:50:87:59:ba:62:ac:7f:
        28:aa:b0:72:bc:96:a9:05:be:63:0c:93:54:8c:89:0e:c0:56:
        0c:8e:14:80:ea:00:7f:f4:1e:d4:6e:95:2c:bf:11:97:41:3d:
        c6:6a:82:9d
-----BEGIN CERTIFICATE-----
MIIEQjCCAyqgAwIBAgIBAzANBgkqhkiG9w0BAQsFADBxMQswCQYDVQQGEwJVUzET
MBEGA1UECAwKQ2FsaWZvcm5pYTEUMBIGA1UEBwwLU2FudGEgQ2xhcmExDTALBgNV
BAoMBHBrZzUxEDAOBgNVBAMMB2NoMl90YTExFjAUBgkqhkiG9w0BCQEWB2NoMl90
YTEwHhcNMjExMDIyMTAxNTA1WhcNMjQwNzE4MTAxNTA1WjBxMQswCQYDVQQGEwJV
UzETMBEGA1UECAwKQ2FsaWZvcm5pYTEUMBIGA1UEBwwLU2FudGEgQ2xhcmExDTAL
BgNVBAoMBHBrZzUxEDAOBgNVBAMMB2NoM190YTExFjAUBgkqhkiG9w0BCQEWB2No
M190YTEwggEiMA0GCSqGSIb3DQEBAQUAA4IBDwAwggEKAoIBAQDb0NYnpbV3jZyD
NNBE5OWj+b/jnlCCrxF77PZBiW2pIuaMKJvztDEvAndBIHEhQ25WMd9NIHXaNAYn
HV8l801dtwaw5fOe1I2Y1aOeRgy0v7VeLa37dEFYpriQHw9NXnu3pJBCNxEaOsrU
NQ7mTB8XBicB6Qy1DLEedltod1OSoZQD57Ml6OqPb71ud5q6utqMfTWM+jOAtFL3
l6Lh6GTUBSihw23YfFDggkhTnMnHY+yMDzUmNWtIj7ctair5LBxgpkePoC8BXTAh
KTbbmEKcKhz29Vnjg1n4vPEx3gfxwIpCC1d0Ahx5d+dE6r+n72k8rH+zolgLXrQk
GrG9pMKPAgMBAAGjgeQwgeEwHQYDVR0OBBYEFJwphn6ELwDdKh2zIgOa9Xq9GOXP
MIGbBgNVHSMEgZMwgZCAFIBlnYc1LlJp9j5ltx7McBq6YRhpoXWkczBxMQswCQYD
VQQGEwJVUzETMBEGA1UECAwKQ2FsaWZvcm5pYTEUMBIGA1UEBwwLU2FudGEgQ2xh
cmExDTALBgNVBAoMBHBrZzUxEDAOBgNVBAMMB2NoMV90YTExFjAUBgkqhkiG9w0B
CQEWB2NoMV90YTGCAQIwEgYDVR0TAQH/BAgwBgEB/wIBAjAOBgNVHQ8BAf8EBAMC
AQYwDQYJKoZIhvcNAQELBQADggEBADeYOjB8lPL09HAe+BoRcdJkGjzwzYzH8KDH
g/3eg2U9rbL5w+TtwUQGlHcyO544afS6phH4AuE0iPVn0oLLQXpiRk04GvE9jtnL
O+5oLcV5OakL9CL+QNoKnBjbk4w9ejFmj8JhB2WU8zgwxri5a0bb8OULZTLiKbOT
iS/lLUKPnW0vMtITNO+uPeaxb7IJWjOZHVkpvl+wG8mhLr3h9LCghv7tZf7fe2AP
V9SLnNOJyTAB9acr2KBgKfU4R5Kokk6nzYco8jSTXzylOddu2xtrUIdZumKsfyiq
sHK8lqkFvmMMk1SMiQ7AVgyOFIDqAH/0HtRulSy/EZdBPcZqgp0=
-----END CERTIFICATE-----
