Certificate:
    Data:
        Version: 3 (0x2)
        Serial Number: 3 (0x3)
        Signature Algorithm: sha256WithRSAEncryption
        Issuer: C=US, ST=California, L=Santa Clara, O=pkg5, CN=ch2_ta1/emailAddress=ch2_ta1
        Validity
            Not Before: Oct 24 21:42:59 2023 GMT
            Not After : Jul 20 21:42:59 2026 GMT
        Subject: C=US, ST=California, L=Santa Clara, O=pkg5, CN=ch3_ta1/emailAddress=ch3_ta1
        Subject Public Key Info:
            Public Key Algorithm: rsaEncryption
                Public-Key: (2048 bit)
                Modulus:
                    00:d9:64:d2:ac:c4:dd:1e:7d:69:2f:c9:2b:55:7e:
                    da:66:82:a6:eb:70:f6:fb:0f:2e:8e:35:5b:96:4f:
                    bb:9f:d8:cb:05:17:ee:13:c9:9e:d1:0a:e6:cb:c4:
                    26:bd:6a:db:84:c8:9b:18:ab:de:28:ff:82:14:6d:
                    17:56:c3:31:18:97:a8:c5:30:6e:bc:b9:b9:33:c9:
                    33:5b:f6:e1:39:0e:b7:10:cd:e5:f9:d6:fc:5a:d9:
                    cc:b7:40:f6:07:be:e1:f6:ff:ba:de:d4:9b:ba:2a:
                    dc:7f:ba:96:62:cd:a1:f7:5b:63:aa:8b:5c:b1:4d:
                    e8:b1:a4:90:7d:14:98:f2:c6:00:4b:e9:10:49:69:
                    fb:b3:38:fc:26:c5:32:69:d2:90:ee:f5:1f:63:45:
                    fa:57:e6:9d:34:ff:e5:75:b5:4c:0a:7e:42:c4:67:
                    10:ee:e4:bf:5c:f3:eb:7c:6d:cd:06:ba:07:7e:c8:
                    b6:51:ca:4e:9d:aa:9e:5a:ea:20:79:80:02:e8:ea:
                    8b:89:94:da:5c:8d:e6:b2:74:8d:67:b7:0b:8d:51:
                    55:30:19:dc:5e:53:c6:72:45:81:31:e0:27:28:b5:
                    a3:0a:f4:33:54:40:fd:87:e9:66:6f:3e:45:c3:5a:
                    53:63:e2:4d:5c:88:26:cf:ac:32:28:21:5f:3d:d7:
                    cc:4d
                Exponent: 65537 (0x10001)
        X509v3 extensions:
            X509v3 Subject Key Identifier: 
                E0:51:33:F5:C1:D6:F1:14:C5:B4:E1:75:EE:81:DA:14:E2:00:F6:88
            X509v3 Authority Key Identifier: 
                keyid:F8:51:CA:19:84:AC:03:6F:0A:A2:ED:4A:17:32:29:54:C4:B9:C1:8C
                DirName:/C=US/ST=California/L=Santa Clara/O=pkg5/CN=ch1_ta1/emailAddress=ch1_ta1
                serial:02
            X509v3 Basic Constraints: critical
                CA:TRUE, pathlen:2
            X509v3 Key Usage: critical
                Certificate Sign, CRL Sign
    Signature Algorithm: sha256WithRSAEncryption
    Signature Value:
        01:76:85:d1:63:e7:98:86:f9:98:7c:92:9c:0d:36:a8:e9:ce:
        78:5a:63:35:c6:39:1f:2a:4c:02:a5:d7:07:63:18:75:5e:a0:
        be:ac:3e:f3:17:6b:21:a9:0c:40:65:3d:7a:1b:69:4e:4e:7d:
        b0:8d:ef:7a:9d:32:67:51:36:4f:5c:d0:6a:bf:16:3f:e0:4c:
        c1:50:26:38:43:7e:62:1d:c9:39:2b:92:10:0b:20:d0:d8:37:
        00:b2:5e:9c:51:de:7a:95:b9:dc:e1:e1:8c:27:64:1c:db:27:
        58:6b:2a:c4:e1:16:08:5c:85:48:c9:a2:76:d0:d0:24:e9:cb:
        30:e6:9e:4c:b6:e5:7e:55:4d:69:08:ea:28:71:c0:11:cd:8b:
        23:98:b6:de:14:22:32:d8:6f:97:57:a0:e7:a4:09:b5:8f:86:
        df:d5:93:93:23:ee:cc:d2:79:1d:f9:ef:2c:8c:32:e0:3a:3d:
        79:fa:d6:36:5d:04:9c:b8:3e:27:2b:45:13:5b:19:3c:46:8e:
        38:51:5f:10:61:ed:c7:ba:ea:e8:56:6c:22:17:de:c8:4a:4f:
        ac:68:22:5e:03:67:f1:75:50:0e:ea:b4:ed:44:75:a2:6f:d5:
        3e:fd:29:59:a7:ce:34:c9:62:3b:37:88:31:ef:9d:51:9b:0b:
        57:78:6f:6e
-----BEGIN CERTIFICATE-----
MIIEQjCCAyqgAwIBAgIBAzANBgkqhkiG9w0BAQsFADBxMQswCQYDVQQGEwJVUzET
MBEGA1UECAwKQ2FsaWZvcm5pYTEUMBIGA1UEBwwLU2FudGEgQ2xhcmExDTALBgNV
BAoMBHBrZzUxEDAOBgNVBAMMB2NoMl90YTExFjAUBgkqhkiG9w0BCQEWB2NoMl90
YTEwHhcNMjMxMDI0MjE0MjU5WhcNMjYwNzIwMjE0MjU5WjBxMQswCQYDVQQGEwJV
UzETMBEGA1UECAwKQ2FsaWZvcm5pYTEUMBIGA1UEBwwLU2FudGEgQ2xhcmExDTAL
BgNVBAoMBHBrZzUxEDAOBgNVBAMMB2NoM190YTExFjAUBgkqhkiG9w0BCQEWB2No
M190YTEwggEiMA0GCSqGSIb3DQEBAQUAA4IBDwAwggEKAoIBAQDZZNKsxN0efWkv
yStVftpmgqbrcPb7Dy6ONVuWT7uf2MsFF+4TyZ7RCubLxCa9atuEyJsYq94o/4IU
bRdWwzEYl6jFMG68ubkzyTNb9uE5DrcQzeX51vxa2cy3QPYHvuH2/7re1Ju6Ktx/
upZizaH3W2Oqi1yxTeixpJB9FJjyxgBL6RBJafuzOPwmxTJp0pDu9R9jRfpX5p00
/+V1tUwKfkLEZxDu5L9c8+t8bc0Gugd+yLZRyk6dqp5a6iB5gALo6ouJlNpcjeay
dI1ntwuNUVUwGdxeU8ZyRYEx4CcotaMK9DNUQP2H6WZvPkXDWlNj4k1ciCbPrDIo
IV8918xNAgMBAAGjgeQwgeEwHQYDVR0OBBYEFOBRM/XB1vEUxbThde6B2hTiAPaI
MIGbBgNVHSMEgZMwgZCAFPhRyhmErANvCqLtShcyKVTEucGMoXWkczBxMQswCQYD
VQQGEwJVUzETMBEGA1UECAwKQ2FsaWZvcm5pYTEUMBIGA1UEBwwLU2FudGEgQ2xh
cmExDTALBgNVBAoMBHBrZzUxEDAOBgNVBAMMB2NoMV90YTExFjAUBgkqhkiG9w0B
CQEWB2NoMV90YTGCAQIwEgYDVR0TAQH/BAgwBgEB/wIBAjAOBgNVHQ8BAf8EBAMC
AQYwDQYJKoZIhvcNAQELBQADggEBAAF2hdFj55iG+Zh8kpwNNqjpznhaYzXGOR8q
TAKl1wdjGHVeoL6sPvMXayGpDEBlPXobaU5OfbCN73qdMmdRNk9c0Gq/Fj/gTMFQ
JjhDfmIdyTkrkhALINDYNwCyXpxR3nqVudzh4YwnZBzbJ1hrKsThFghchUjJonbQ
0CTpyzDmnky25X5VTWkI6ihxwBHNiyOYtt4UIjLYb5dXoOekCbWPht/Vk5Mj7szS
eR357yyMMuA6PXn61jZdBJy4PicrRRNbGTxGjjhRXxBh7ce66uhWbCIX3shKT6xo
Il4DZ/F1UA7qtO1EdaJv1T79KVmnzjTJYjs3iDHvnVGbC1d4b24=
-----END CERTIFICATE-----
