Certificate:
    Data:
        Version: 3 (0x2)
        Serial Number: 3 (0x3)
        Signature Algorithm: sha256WithRSAEncryption
        Issuer: C=US, ST=California, L=Santa Clara, O=pkg5, CN=ch2_ta1/emailAddress=ch2_ta1
        Validity
            Not Before: Dec 15 15:37:15 2022 GMT
            Not After : Sep 10 15:37:15 2025 GMT
        Subject: C=US, ST=California, L=Santa Clara, O=pkg5, CN=ch3_ta1/emailAddress=ch3_ta1
        Subject Public Key Info:
            Public Key Algorithm: rsaEncryption
                Public-Key: (2048 bit)
                Modulus:
                    00:a6:b5:59:17:2c:72:ab:e5:a0:83:29:91:b2:38:
                    f1:15:26:b3:98:92:3a:19:51:9a:20:e2:4f:90:1f:
                    18:b2:28:8a:69:ea:1d:6a:c0:6b:db:2a:9c:4a:6f:
                    f0:db:5f:56:3d:3a:e5:24:4b:d1:09:f3:6c:11:f6:
                    22:81:0e:db:28:85:b5:26:e0:6c:1b:de:36:1b:1f:
                    5d:d2:6d:4a:7e:33:7f:e1:02:34:35:3e:3b:e9:40:
                    61:94:c2:a3:35:8b:70:79:be:1d:e1:17:8f:d2:25:
                    44:6c:46:27:26:2e:0c:9c:d6:79:e6:56:6a:6a:59:
                    86:99:40:b6:dc:d5:2b:7b:fd:a4:2c:70:24:ea:34:
                    bd:3f:be:71:f9:a7:db:fb:2d:4e:f3:08:a5:af:11:
                    84:21:bd:8c:e1:e7:e5:a7:50:6b:89:9d:99:a0:33:
                    de:79:c4:1f:0e:62:50:06:ca:6a:bb:14:7d:30:d0:
                    10:08:c7:f5:14:78:ae:f9:77:2a:d3:a5:46:11:25:
                    57:42:4b:d1:03:27:a9:c8:ea:80:32:f4:9c:d6:9a:
                    a1:18:bf:8b:a2:22:29:d6:60:3b:68:95:ab:97:fe:
                    5d:d6:35:64:17:af:59:f0:8c:ba:d5:25:c9:26:3e:
                    de:50:09:96:1a:59:bf:38:b9:7b:7e:8f:89:d6:7d:
                    db:71
                Exponent: 65537 (0x10001)
        X509v3 extensions:
            X509v3 Subject Key Identifier: 
                F6:37:23:0C:E9:57:08:CC:5D:CA:74:1C:B8:7D:DF:7B:F9:F7:1A:8B
            X509v3 Authority Key Identifier: 
                keyid:4A:32:5D:AA:4F:8F:97:60:14:F2:D0:99:DE:C5:58:6E:6E:30:2A:14
                DirName:/C=US/ST=California/L=Santa Clara/O=pkg5/CN=ch1_ta1/emailAddress=ch1_ta1
                serial:02
            X509v3 Basic Constraints: critical
                CA:TRUE, pathlen:2
            X509v3 Key Usage: critical
                Certificate Sign, CRL Sign
    Signature Algorithm: sha256WithRSAEncryption
    Signature Value:
        47:27:38:05:2e:41:d8:28:8f:6c:36:80:81:da:31:98:bc:8f:
        12:e8:80:50:31:a7:3d:d6:3e:6b:29:e9:b7:88:44:75:55:87:
        f2:f6:38:e2:34:42:9d:d6:4b:62:06:45:c5:2c:a4:64:d0:20:
        26:b5:d8:0a:20:e0:3e:9d:c2:94:35:52:1e:65:08:e7:54:fd:
        38:b9:d3:fe:7d:a5:5d:25:f6:5b:8e:3c:e9:66:1e:d0:92:0e:
        24:0b:b9:ab:22:e9:c0:6b:3a:21:4c:d5:87:e1:7c:cf:3c:ef:
        f6:eb:0b:6f:8d:80:a8:95:ec:3e:ee:6f:db:b8:84:26:eb:72:
        6f:be:f5:87:53:26:df:bc:45:c2:c4:8d:35:fa:af:6a:67:78:
        c8:6d:89:93:25:9f:cc:ae:b6:35:30:4b:5a:49:11:fb:96:c8:
        63:73:fa:ec:1f:75:08:e8:26:6c:17:56:c2:8c:05:e3:c1:59:
        98:00:f7:94:b7:d2:3e:a7:76:07:75:a7:18:68:1f:9a:3d:65:
        3c:6c:cc:11:ee:81:6c:a1:ae:fb:a5:57:a5:0d:eb:42:c3:28:
        de:2c:88:bd:ad:41:8b:87:e5:2e:c0:49:30:ad:4a:d6:45:93:
        3e:ec:4f:af:9a:f7:d6:11:5e:08:b0:9c:fa:76:54:69:b7:ed:
        5f:32:9a:09
-----BEGIN CERTIFICATE-----
MIIEQjCCAyqgAwIBAgIBAzANBgkqhkiG9w0BAQsFADBxMQswCQYDVQQGEwJVUzET
MBEGA1UECAwKQ2FsaWZvcm5pYTEUMBIGA1UEBwwLU2FudGEgQ2xhcmExDTALBgNV
BAoMBHBrZzUxEDAOBgNVBAMMB2NoMl90YTExFjAUBgkqhkiG9w0BCQEWB2NoMl90
YTEwHhcNMjIxMjE1MTUzNzE1WhcNMjUwOTEwMTUzNzE1WjBxMQswCQYDVQQGEwJV
UzETMBEGA1UECAwKQ2FsaWZvcm5pYTEUMBIGA1UEBwwLU2FudGEgQ2xhcmExDTAL
BgNVBAoMBHBrZzUxEDAOBgNVBAMMB2NoM190YTExFjAUBgkqhkiG9w0BCQEWB2No
M190YTEwggEiMA0GCSqGSIb3DQEBAQUAA4IBDwAwggEKAoIBAQCmtVkXLHKr5aCD
KZGyOPEVJrOYkjoZUZog4k+QHxiyKIpp6h1qwGvbKpxKb/DbX1Y9OuUkS9EJ82wR
9iKBDtsohbUm4Gwb3jYbH13SbUp+M3/hAjQ1PjvpQGGUwqM1i3B5vh3hF4/SJURs
RicmLgyc1nnmVmpqWYaZQLbc1St7/aQscCTqNL0/vnH5p9v7LU7zCKWvEYQhvYzh
5+WnUGuJnZmgM955xB8OYlAGymq7FH0w0BAIx/UUeK75dyrTpUYRJVdCS9EDJ6nI
6oAy9JzWmqEYv4uiIinWYDtolauX/l3WNWQXr1nwjLrVJckmPt5QCZYaWb84uXt+
j4nWfdtxAgMBAAGjgeQwgeEwHQYDVR0OBBYEFPY3IwzpVwjMXcp0HLh933v59xqL
MIGbBgNVHSMEgZMwgZCAFEoyXapPj5dgFPLQmd7FWG5uMCoUoXWkczBxMQswCQYD
VQQGEwJVUzETMBEGA1UECAwKQ2FsaWZvcm5pYTEUMBIGA1UEBwwLU2FudGEgQ2xh
cmExDTALBgNVBAoMBHBrZzUxEDAOBgNVBAMMB2NoMV90YTExFjAUBgkqhkiG9w0B
CQEWB2NoMV90YTGCAQIwEgYDVR0TAQH/BAgwBgEB/wIBAjAOBgNVHQ8BAf8EBAMC
AQYwDQYJKoZIhvcNAQELBQADggEBAEcnOAUuQdgoj2w2gIHaMZi8jxLogFAxpz3W
Pmsp6beIRHVVh/L2OOI0Qp3WS2IGRcUspGTQICa12Aog4D6dwpQ1Uh5lCOdU/Ti5
0/59pV0l9luOPOlmHtCSDiQLuasi6cBrOiFM1YfhfM887/brC2+NgKiV7D7ub9u4
hCbrcm++9YdTJt+8RcLEjTX6r2pneMhtiZMln8yutjUwS1pJEfuWyGNz+uwfdQjo
JmwXVsKMBePBWZgA95S30j6ndgd1pxhoH5o9ZTxszBHugWyhrvulV6UN60LDKN4s
iL2tQYuH5S7ASTCtStZFkz7sT6+a99YRXgiwnPp2VGm37V8ymgk=
-----END CERTIFICATE-----
