Certificate:
    Data:
        Version: 3 (0x2)
        Serial Number: 3 (0x3)
    Signature Algorithm: sha256WithRSAEncryption
        Issuer: C=US, ST=California, L=Santa Clara, O=pkg5, CN=ch2_ta1/emailAddress=ch2_ta1
        Validity
            Not Before: Nov 28 22:50:54 2016 GMT
            Not After : Aug 25 22:50:54 2019 GMT
        Subject: C=US, ST=California, L=Santa Clara, O=pkg5, CN=ch3_ta1/emailAddress=ch3_ta1
        Subject Public Key Info:
            Public Key Algorithm: rsaEncryption
                Public-Key: (2048 bit)
                Modulus:
                    00:d8:0b:f0:51:85:51:9d:eb:06:fd:71:25:fc:d0:
                    21:d2:7a:1f:2b:98:ca:0d:e4:6f:24:cf:e4:c3:ad:
                    7a:03:90:9c:98:27:7a:25:30:56:a0:de:eb:e9:ca:
                    6e:7c:79:03:7f:62:46:e5:79:d4:36:f3:85:ed:84:
                    1f:55:07:5f:49:09:f4:87:a8:ab:fe:7c:c7:b4:75:
                    62:44:16:99:fc:2b:8b:d1:cd:e4:41:fa:ef:bd:44:
                    95:fc:e3:d8:63:f2:35:35:81:6c:54:a1:68:09:20:
                    c3:0a:ce:25:22:23:1f:8d:44:42:d6:92:71:00:ee:
                    2a:f6:07:af:61:8f:e7:fb:0a:ce:da:dc:f9:92:e9:
                    f9:87:2b:59:9a:b3:71:f7:97:7e:39:9c:f7:63:85:
                    c3:ce:23:c5:e7:9a:26:6b:80:1b:6a:dc:aa:a2:c5:
                    f6:12:ec:95:c8:1c:77:4e:53:a7:47:f7:d7:a2:9b:
                    db:2c:17:b7:20:7b:ca:40:5b:3b:ef:99:a4:8a:40:
                    dc:b9:be:99:87:16:82:0d:fa:62:3c:20:6b:14:99:
                    aa:5a:df:70:a2:63:a8:47:85:ca:1b:33:0f:6c:ed:
                    70:a2:a8:71:f5:09:0f:7b:48:55:49:a4:39:48:65:
                    4c:81:d4:1d:81:41:e8:c5:b3:4b:9a:25:4d:20:84:
                    3c:21
                Exponent: 65537 (0x10001)
        X509v3 extensions:
            X509v3 Subject Key Identifier: 
                83:07:85:F9:76:F6:8C:DA:A2:C3:D8:62:0A:87:DD:EE:6B:42:55:30
            X509v3 Authority Key Identifier: 
                keyid:58:8E:F8:38:C1:56:D0:C4:A6:73:40:54:DC:79:EC:F8:04:C7:58:9C
                DirName:/C=US/ST=California/L=Santa Clara/O=pkg5/CN=ch1_ta1/emailAddress=ch1_ta1
                serial:02

            X509v3 Basic Constraints: critical
                CA:TRUE, pathlen:2
            X509v3 Key Usage: critical
                Certificate Sign, CRL Sign
    Signature Algorithm: sha256WithRSAEncryption
         04:5d:d1:67:63:0c:ae:36:60:ba:5f:f6:f7:46:56:78:e2:58:
         0d:81:dd:9d:2b:5f:0b:05:ee:a5:68:3b:f9:d6:23:2d:49:44:
         d3:6c:da:e5:29:cf:0b:64:d7:43:3f:14:05:05:17:8b:cc:83:
         74:55:49:a2:7b:fc:f9:2d:5e:00:93:5a:f1:8d:c9:c2:52:d4:
         78:1a:59:f2:43:00:84:6f:ac:c1:c5:02:f7:a9:4c:ed:d2:ea:
         8a:1b:77:8d:4c:82:3f:2b:67:38:43:11:7a:30:82:0c:1f:b9:
         20:38:1e:02:f7:2b:1e:3b:b0:89:7f:58:1f:fb:bd:54:c8:db:
         88:cc:31:9f:78:46:f0:f1:35:d5:a3:23:58:0f:24:2d:2b:03:
         c1:00:ea:3e:82:20:57:ac:c7:d1:e3:f5:3e:f0:0a:9e:de:1b:
         e9:79:da:73:8a:0a:82:6e:c9:64:cb:b6:50:9b:e1:b8:73:83:
         21:22:73:6a:84:16:a7:7c:77:6f:3b:ba:00:52:81:19:0b:56:
         7e:c7:5e:e9:4a:08:3e:c1:4a:7e:83:ed:2c:e1:a9:a4:1d:0b:
         3b:65:d0:8a:df:4d:5a:d8:fe:6a:4b:9e:a3:61:32:a1:e5:d8:
         f6:18:ae:a2:9e:8d:5a:74:3d:0e:46:9c:b8:bb:13:3e:de:22:
         cb:76:c0:55
-----BEGIN CERTIFICATE-----
MIIEQjCCAyqgAwIBAgIBAzANBgkqhkiG9w0BAQsFADBxMQswCQYDVQQGEwJVUzET
MBEGA1UECAwKQ2FsaWZvcm5pYTEUMBIGA1UEBwwLU2FudGEgQ2xhcmExDTALBgNV
BAoMBHBrZzUxEDAOBgNVBAMMB2NoMl90YTExFjAUBgkqhkiG9w0BCQEWB2NoMl90
YTEwHhcNMTYxMTI4MjI1MDU0WhcNMTkwODI1MjI1MDU0WjBxMQswCQYDVQQGEwJV
UzETMBEGA1UECAwKQ2FsaWZvcm5pYTEUMBIGA1UEBwwLU2FudGEgQ2xhcmExDTAL
BgNVBAoMBHBrZzUxEDAOBgNVBAMMB2NoM190YTExFjAUBgkqhkiG9w0BCQEWB2No
M190YTEwggEiMA0GCSqGSIb3DQEBAQUAA4IBDwAwggEKAoIBAQDYC/BRhVGd6wb9
cSX80CHSeh8rmMoN5G8kz+TDrXoDkJyYJ3olMFag3uvpym58eQN/YkbledQ284Xt
hB9VB19JCfSHqKv+fMe0dWJEFpn8K4vRzeRB+u+9RJX849hj8jU1gWxUoWgJIMMK
ziUiIx+NRELWknEA7ir2B69hj+f7Cs7a3PmS6fmHK1mas3H3l345nPdjhcPOI8Xn
miZrgBtq3KqixfYS7JXIHHdOU6dH99eim9ssF7cge8pAWzvvmaSKQNy5vpmHFoIN
+mI8IGsUmapa33CiY6hHhcobMw9s7XCiqHH1CQ97SFVJpDlIZUyB1B2BQejFs0ua
JU0ghDwhAgMBAAGjgeQwgeEwHQYDVR0OBBYEFIMHhfl29ozaosPYYgqH3e5rQlUw
MIGbBgNVHSMEgZMwgZCAFFiO+DjBVtDEpnNAVNx57PgEx1icoXWkczBxMQswCQYD
VQQGEwJVUzETMBEGA1UECAwKQ2FsaWZvcm5pYTEUMBIGA1UEBwwLU2FudGEgQ2xh
cmExDTALBgNVBAoMBHBrZzUxEDAOBgNVBAMMB2NoMV90YTExFjAUBgkqhkiG9w0B
CQEWB2NoMV90YTGCAQIwEgYDVR0TAQH/BAgwBgEB/wIBAjAOBgNVHQ8BAf8EBAMC
AQYwDQYJKoZIhvcNAQELBQADggEBAARd0WdjDK42YLpf9vdGVnjiWA2B3Z0rXwsF
7qVoO/nWIy1JRNNs2uUpzwtk10M/FAUFF4vMg3RVSaJ7/PktXgCTWvGNycJS1Hga
WfJDAIRvrMHFAvepTO3S6oobd41Mgj8rZzhDEXowggwfuSA4HgL3Kx47sIl/WB/7
vVTI24jMMZ94RvDxNdWjI1gPJC0rA8EA6j6CIFesx9Hj9T7wCp7eG+l52nOKCoJu
yWTLtlCb4bhzgyEic2qEFqd8d287ugBSgRkLVn7HXulKCD7BSn6D7SzhqaQdCztl
0IrfTVrY/mpLnqNhMqHl2PYYrqKejVp0PQ5GnLi7Ez7eIst2wFU=
-----END CERTIFICATE-----
