Certificate:
    Data:
        Version: 3 (0x2)
        Serial Number: 3 (0x3)
    Signature Algorithm: sha256WithRSAEncryption
        Issuer: C=US, ST=California, L=Santa Clara, O=pkg5, CN=ch2_ta1/emailAddress=ch2_ta1
        Validity
            Not Before: Nov 16 10:58:47 2017 GMT
            Not After : Aug 12 10:58:47 2020 GMT
        Subject: C=US, ST=California, L=Santa Clara, O=pkg5, CN=ch3_ta1/emailAddress=ch3_ta1
        Subject Public Key Info:
            Public Key Algorithm: rsaEncryption
                Public-Key: (2048 bit)
                Modulus:
                    00:c2:b0:c5:4d:b8:5a:df:e8:07:b1:c9:0c:5e:09:
                    de:77:30:d7:7a:73:b8:99:a9:bd:89:e3:8b:31:74:
                    43:3b:20:f4:48:c7:aa:1d:3c:52:20:3e:97:30:2a:
                    59:40:49:e1:e8:63:20:26:e8:52:fa:65:ae:93:0e:
                    95:5a:b0:b5:40:80:3d:03:84:94:90:c9:6f:f6:aa:
                    32:f5:c5:e3:df:8d:fe:fa:ef:1a:9f:63:0e:67:be:
                    d4:ff:1f:e6:07:a5:cf:12:48:fc:1d:d7:6d:ea:08:
                    a1:ef:f8:e9:70:8c:a4:01:71:2c:09:d9:d4:50:05:
                    78:97:4d:fb:5a:1a:f5:e1:b6:ff:26:bc:57:3c:d4:
                    16:a0:c1:87:a1:34:8a:b4:a9:63:87:de:26:01:2d:
                    00:7c:8c:c7:4a:45:7b:50:92:03:c8:0c:3e:32:c4:
                    2a:8b:09:08:51:e9:97:5c:4d:37:d5:98:74:3f:f3:
                    34:22:47:6d:f1:02:7c:3d:d4:d5:dd:82:24:35:fb:
                    6c:21:72:9d:c4:b0:0b:1c:be:76:48:e6:5c:c3:15:
                    30:79:23:06:f6:a0:5a:fa:f5:93:65:7e:59:0c:af:
                    30:38:28:f1:17:61:b9:c3:98:8a:92:b9:e0:93:f6:
                    bd:74:ca:e1:84:9f:e2:6c:59:c9:06:f2:5a:cf:d1:
                    1e:a1
                Exponent: 65537 (0x10001)
        X509v3 extensions:
            X509v3 Subject Key Identifier: 
                30:1E:F8:A6:1D:94:7C:C4:84:3B:67:45:6C:CC:EB:C2:FE:71:55:35
            X509v3 Authority Key Identifier: 
                keyid:51:C5:9E:D5:E2:E9:40:7B:A1:AC:FB:91:D5:C8:62:C7:39:DD:9F:01
                DirName:/C=US/ST=California/L=Santa Clara/O=pkg5/CN=ch1_ta1/emailAddress=ch1_ta1
                serial:02

            X509v3 Basic Constraints: critical
                CA:TRUE, pathlen:2
            X509v3 Key Usage: critical
                Certificate Sign, CRL Sign
    Signature Algorithm: sha256WithRSAEncryption
         1a:f2:7b:bb:6e:23:6c:6d:99:52:71:f0:cb:c0:15:85:f5:a4:
         84:d8:f9:6e:d1:d8:35:cd:28:8d:e2:5e:ff:d5:f7:07:6f:4f:
         fc:f8:c6:38:cb:56:11:f9:76:32:02:7e:ec:24:57:f1:a7:c4:
         42:19:8e:a1:16:4e:d6:8d:cc:e3:dc:bf:ea:d9:79:84:e3:93:
         9a:60:e2:b0:4e:9d:b7:1d:09:83:51:99:c6:89:6e:39:20:5e:
         95:df:ed:e1:a1:c2:71:9e:9e:22:cd:d1:ef:af:83:d1:cc:86:
         98:2d:18:20:d8:e6:53:88:69:21:6c:5a:5e:3f:9f:9d:e5:7f:
         f9:71:6a:a9:58:ba:47:4d:3c:fc:3b:91:86:d7:17:27:9d:67:
         e7:19:61:e4:38:b7:7d:d2:35:a3:8b:1e:57:ae:11:30:65:e4:
         82:92:24:fb:71:9a:01:7e:af:40:63:db:94:95:56:ef:44:b8:
         a2:94:7b:bd:55:0d:46:69:23:0e:31:cb:3b:0f:53:eb:83:16:
         45:90:fc:7d:80:60:72:de:84:d9:b7:0e:c4:c8:67:68:8a:2b:
         da:39:dd:c4:f3:e6:be:a9:8e:e8:fb:d8:85:ab:cb:14:7f:94:
         90:d3:f8:d6:ff:24:95:4b:5e:e2:e1:27:14:03:f0:57:c1:5a:
         00:b7:c8:46
-----BEGIN CERTIFICATE-----
MIIEQjCCAyqgAwIBAgIBAzANBgkqhkiG9w0BAQsFADBxMQswCQYDVQQGEwJVUzET
MBEGA1UECAwKQ2FsaWZvcm5pYTEUMBIGA1UEBwwLU2FudGEgQ2xhcmExDTALBgNV
BAoMBHBrZzUxEDAOBgNVBAMMB2NoMl90YTExFjAUBgkqhkiG9w0BCQEWB2NoMl90
YTEwHhcNMTcxMTE2MTA1ODQ3WhcNMjAwODEyMTA1ODQ3WjBxMQswCQYDVQQGEwJV
UzETMBEGA1UECAwKQ2FsaWZvcm5pYTEUMBIGA1UEBwwLU2FudGEgQ2xhcmExDTAL
BgNVBAoMBHBrZzUxEDAOBgNVBAMMB2NoM190YTExFjAUBgkqhkiG9w0BCQEWB2No
M190YTEwggEiMA0GCSqGSIb3DQEBAQUAA4IBDwAwggEKAoIBAQDCsMVNuFrf6Aex
yQxeCd53MNd6c7iZqb2J44sxdEM7IPRIx6odPFIgPpcwKllASeHoYyAm6FL6Za6T
DpVasLVAgD0DhJSQyW/2qjL1xePfjf767xqfYw5nvtT/H+YHpc8SSPwd123qCKHv
+OlwjKQBcSwJ2dRQBXiXTftaGvXhtv8mvFc81BagwYehNIq0qWOH3iYBLQB8jMdK
RXtQkgPIDD4yxCqLCQhR6ZdcTTfVmHQ/8zQiR23xAnw91NXdgiQ1+2whcp3EsAsc
vnZI5lzDFTB5Iwb2oFr69ZNlflkMrzA4KPEXYbnDmIqSueCT9r10yuGEn+JsWckG
8lrP0R6hAgMBAAGjgeQwgeEwHQYDVR0OBBYEFDAe+KYdlHzEhDtnRWzM68L+cVU1
MIGbBgNVHSMEgZMwgZCAFFHFntXi6UB7oaz7kdXIYsc53Z8BoXWkczBxMQswCQYD
VQQGEwJVUzETMBEGA1UECAwKQ2FsaWZvcm5pYTEUMBIGA1UEBwwLU2FudGEgQ2xh
cmExDTALBgNVBAoMBHBrZzUxEDAOBgNVBAMMB2NoMV90YTExFjAUBgkqhkiG9w0B
CQEWB2NoMV90YTGCAQIwEgYDVR0TAQH/BAgwBgEB/wIBAjAOBgNVHQ8BAf8EBAMC
AQYwDQYJKoZIhvcNAQELBQADggEBABrye7tuI2xtmVJx8MvAFYX1pITY+W7R2DXN
KI3iXv/V9wdvT/z4xjjLVhH5djICfuwkV/GnxEIZjqEWTtaNzOPcv+rZeYTjk5pg
4rBOnbcdCYNRmcaJbjkgXpXf7eGhwnGeniLN0e+vg9HMhpgtGCDY5lOIaSFsWl4/
n53lf/lxaqlYukdNPPw7kYbXFyedZ+cZYeQ4t33SNaOLHleuETBl5IKSJPtxmgF+
r0Bj25SVVu9EuKKUe71VDUZpIw4xyzsPU+uDFkWQ/H2AYHLehNm3DsTIZ2iKK9o5
3cTz5r6pjuj72IWryxR/lJDT+Nb/JJVLXuLhJxQD8FfBWgC3yEY=
-----END CERTIFICATE-----
