Certificate:
    Data:
        Version: 3 (0x2)
        Serial Number: 3 (0x3)
        Signature Algorithm: sha256WithRSAEncryption
        Issuer: C=US, ST=California, L=Santa Clara, O=pkg5, CN=ch2_ta1/emailAddress=ch2_ta1
        Validity
            Not Before: May 23 15:47:14 2024 GMT
            Not After : Feb 17 15:47:14 2027 GMT
        Subject: C=US, ST=California, L=Santa Clara, O=pkg5, CN=ch3_ta1/emailAddress=ch3_ta1
        Subject Public Key Info:
            Public Key Algorithm: rsaEncryption
                Public-Key: (2048 bit)
                Modulus:
                    00:b2:d6:22:9b:c2:74:4a:16:0f:54:01:6f:d4:5f:
                    be:a4:26:4e:85:3e:b6:ab:d2:d7:8c:77:5c:2a:18:
                    21:a6:61:5a:94:59:e7:a0:fe:59:0d:6f:8a:d7:64:
                    8a:6d:8e:b7:dc:ca:8d:9e:f2:a8:fc:78:c7:bb:b9:
                    43:5f:92:de:04:41:ee:3c:6e:ab:88:7d:a6:7f:c1:
                    9c:7a:29:5e:71:b8:13:32:e2:9e:e6:5f:ea:c1:a6:
                    e3:f1:f1:b0:d8:71:c8:27:52:a5:c5:da:22:a2:2f:
                    36:10:2d:e3:0c:7d:9a:e6:82:9c:bc:bd:57:7f:a4:
                    01:49:12:03:c1:3b:6b:3c:b3:16:18:e2:5e:fa:ec:
                    24:bb:cd:8d:1c:12:ef:0f:22:5e:a3:5f:f0:93:14:
                    c1:bd:11:5d:a4:e9:de:2e:3f:ca:fc:7f:3d:76:b6:
                    57:95:29:5c:42:91:21:35:29:4b:b7:8f:37:dc:23:
                    2e:59:6b:7e:7e:69:c7:4a:19:1b:f3:38:72:f9:ab:
                    66:05:a2:ef:92:d4:86:94:29:30:5a:d2:98:23:33:
                    2a:bd:42:4b:81:07:fa:fc:1b:53:6c:fa:28:3f:02:
                    09:57:49:c9:82:92:98:6c:0b:47:cf:ec:d2:72:79:
                    7d:91:45:df:ac:fe:cf:eb:56:06:39:ff:60:a3:0a:
                    c5:e7
                Exponent: 65537 (0x10001)
        X509v3 extensions:
            X509v3 Subject Key Identifier: 
                1E:B9:76:6E:A6:06:0D:30:AB:D7:69:3E:BB:DA:17:EF:CE:22:E8:2D
            X509v3 Authority Key Identifier: 
                keyid:3B:35:2F:D9:4A:64:FB:45:6A:2E:59:83:0A:EA:92:01:C6:CE:49:C2
                DirName:/C=US/ST=California/L=Santa Clara/O=pkg5/CN=ch1_ta1/emailAddress=ch1_ta1
                serial:02
            X509v3 Basic Constraints: critical
                CA:TRUE, pathlen:2
            X509v3 Key Usage: critical
                Certificate Sign, CRL Sign
    Signature Algorithm: sha256WithRSAEncryption
    Signature Value:
        2f:f0:b4:a7:63:12:89:6c:fc:ed:78:c0:84:39:a3:ff:d8:b6:
        d1:e6:a0:b3:22:d4:6f:92:5f:f5:24:ac:ba:da:b9:bb:7a:86:
        44:22:ed:94:7d:27:9b:f5:22:05:29:36:cc:cb:e7:42:43:9a:
        98:7a:d9:6d:7e:11:53:da:bb:2f:a4:0d:e5:d4:7a:6a:1f:86:
        12:5d:c2:0f:97:09:e0:f9:6b:d1:b0:02:04:94:e7:c7:8d:30:
        4e:f7:82:22:54:cd:c9:bb:34:54:21:0c:66:e8:de:7f:27:2c:
        e5:08:5f:fc:24:dc:a8:ac:bf:1e:53:4f:b3:69:04:d8:89:0f:
        6b:16:1d:55:fc:f8:ca:e6:fe:a2:ef:46:52:65:24:a2:c9:fe:
        e2:dd:6a:cd:74:c2:55:26:80:b7:5c:97:4b:18:9d:37:0a:0f:
        25:e5:58:81:ac:ca:56:59:1c:bf:82:7e:2d:01:c1:72:9c:03:
        f1:d5:a0:05:79:e7:61:e5:5c:e4:a9:1a:9d:34:37:95:1d:eb:
        b0:8d:43:71:ca:99:fe:ff:3b:ec:49:33:f9:f5:1f:e7:0d:43:
        d3:6a:aa:bd:fa:05:e9:bf:5b:9f:88:c2:0d:62:ed:88:e8:0c:
        5f:b1:0b:c4:64:b8:50:16:c6:77:49:5b:dc:ca:22:6b:45:c0:
        25:eb:bf:d4
-----BEGIN CERTIFICATE-----
MIIEQjCCAyqgAwIBAgIBAzANBgkqhkiG9w0BAQsFADBxMQswCQYDVQQGEwJVUzET
MBEGA1UECAwKQ2FsaWZvcm5pYTEUMBIGA1UEBwwLU2FudGEgQ2xhcmExDTALBgNV
BAoMBHBrZzUxEDAOBgNVBAMMB2NoMl90YTExFjAUBgkqhkiG9w0BCQEWB2NoMl90
YTEwHhcNMjQwNTIzMTU0NzE0WhcNMjcwMjE3MTU0NzE0WjBxMQswCQYDVQQGEwJV
UzETMBEGA1UECAwKQ2FsaWZvcm5pYTEUMBIGA1UEBwwLU2FudGEgQ2xhcmExDTAL
BgNVBAoMBHBrZzUxEDAOBgNVBAMMB2NoM190YTExFjAUBgkqhkiG9w0BCQEWB2No
M190YTEwggEiMA0GCSqGSIb3DQEBAQUAA4IBDwAwggEKAoIBAQCy1iKbwnRKFg9U
AW/UX76kJk6FPrar0teMd1wqGCGmYVqUWeeg/lkNb4rXZIptjrfcyo2e8qj8eMe7
uUNfkt4EQe48bquIfaZ/wZx6KV5xuBMy4p7mX+rBpuPx8bDYccgnUqXF2iKiLzYQ
LeMMfZrmgpy8vVd/pAFJEgPBO2s8sxYY4l767CS7zY0cEu8PIl6jX/CTFMG9EV2k
6d4uP8r8fz12tleVKVxCkSE1KUu3jzfcIy5Za35+acdKGRvzOHL5q2YFou+S1IaU
KTBa0pgjMyq9QkuBB/r8G1Ns+ig/AglXScmCkphsC0fP7NJyeX2RRd+s/s/rVgY5
/2CjCsXnAgMBAAGjgeQwgeEwHQYDVR0OBBYEFB65dm6mBg0wq9dpPrvaF+/OIugt
MIGbBgNVHSMEgZMwgZCAFDs1L9lKZPtFai5ZgwrqkgHGzknCoXWkczBxMQswCQYD
VQQGEwJVUzETMBEGA1UECAwKQ2FsaWZvcm5pYTEUMBIGA1UEBwwLU2FudGEgQ2xh
cmExDTALBgNVBAoMBHBrZzUxEDAOBgNVBAMMB2NoMV90YTExFjAUBgkqhkiG9w0B
CQEWB2NoMV90YTGCAQIwEgYDVR0TAQH/BAgwBgEB/wIBAjAOBgNVHQ8BAf8EBAMC
AQYwDQYJKoZIhvcNAQELBQADggEBAC/wtKdjEols/O14wIQ5o//YttHmoLMi1G+S
X/UkrLraubt6hkQi7ZR9J5v1IgUpNszL50JDmph62W1+EVPauy+kDeXUemofhhJd
wg+XCeD5a9GwAgSU58eNME73giJUzcm7NFQhDGbo3n8nLOUIX/wk3Kisvx5TT7Np
BNiJD2sWHVX8+Mrm/qLvRlJlJKLJ/uLdas10wlUmgLdcl0sYnTcKDyXlWIGsylZZ
HL+Cfi0BwXKcA/HVoAV552HlXOSpGp00N5Ud67CNQ3HKmf7/O+xJM/n1H+cNQ9Nq
qr36Bem/W5+Iwg1i7YjoDF+xC8RkuFAWxndJW9zKImtFwCXrv9Q=
-----END CERTIFICATE-----
