Certificate:
    Data:
        Version: 3 (0x2)
        Serial Number: 4 (0x4)
        Signature Algorithm: sha256WithRSAEncryption
        Issuer: C=US, ST=California, L=Santa Clara, O=pkg5, CN=ch3_ta1/emailAddress=ch3_ta1
        Validity
            Not Before: May 23 15:47:14 2024 GMT
            Not After : Feb 17 15:47:14 2027 GMT
        Subject: C=US, ST=California, L=Santa Clara, O=pkg5, CN=ch4_ta1/emailAddress=ch4_ta1
        Subject Public Key Info:
            Public Key Algorithm: rsaEncryption
                Public-Key: (2048 bit)
                Modulus:
                    00:c1:2d:9b:96:72:ef:33:06:8b:48:85:9c:8d:5f:
                    53:79:d4:f5:b4:ab:94:17:ab:52:49:cd:c2:d0:81:
                    b6:bc:14:ec:dc:99:0c:9e:08:ab:46:41:6d:aa:46:
                    0c:49:6c:c9:95:fc:4b:9d:5b:a0:bf:f6:04:f2:2d:
                    09:6a:7e:ed:5a:a7:ad:a2:a7:f5:a0:b6:43:9b:7a:
                    25:ea:b5:bb:de:bd:e7:3f:38:02:1a:1a:fe:46:fd:
                    ca:9c:34:da:58:b9:43:43:46:1c:ca:51:e0:0c:a4:
                    22:c9:a6:b3:ac:95:33:ea:bb:ea:99:0e:be:77:05:
                    77:3f:1e:f0:2b:5d:35:d0:b2:45:c4:41:89:42:80:
                    d5:23:67:bd:e1:e5:b2:74:a3:0f:a5:51:45:38:b6:
                    a7:4d:34:a0:6d:75:44:0d:46:ef:4a:93:2c:21:40:
                    21:c4:84:6f:3e:99:d8:9d:bf:3b:cc:06:89:3b:a1:
                    83:b2:68:bc:73:ba:a0:97:bc:88:8d:fc:56:7b:fd:
                    2e:6a:0f:db:ae:b9:34:3c:df:61:05:d2:5c:cb:2b:
                    49:59:ac:a9:60:89:1a:20:64:33:7a:f2:18:af:3b:
                    47:0f:7f:f7:06:5c:cb:87:2a:dc:db:dd:3b:92:f2:
                    46:a5:4d:20:5e:7b:80:5f:b0:fd:06:0b:03:e9:9b:
                    e1:45
                Exponent: 65537 (0x10001)
        X509v3 extensions:
            X509v3 Subject Key Identifier: 
                1C:96:5D:FB:1E:AC:9E:96:15:A9:9B:0C:60:02:ED:CB:4F:29:D7:DC
            X509v3 Authority Key Identifier: 
                keyid:1E:B9:76:6E:A6:06:0D:30:AB:D7:69:3E:BB:DA:17:EF:CE:22:E8:2D
                DirName:/C=US/ST=California/L=Santa Clara/O=pkg5/CN=ch2_ta1/emailAddress=ch2_ta1
                serial:03
            X509v3 Basic Constraints: critical
                CA:TRUE, pathlen:1
            X509v3 Key Usage: critical
                Certificate Sign, CRL Sign
    Signature Algorithm: sha256WithRSAEncryption
    Signature Value:
        5f:11:2a:a2:4d:f5:d4:0f:5b:83:01:73:29:4f:01:0a:21:c3:
        fd:73:b3:52:fe:5f:7e:8c:59:df:dc:20:d9:82:ac:6c:4a:46:
        59:74:f0:9d:1c:90:4d:94:de:eb:7e:af:d8:8e:f6:a4:a4:da:
        0c:6c:be:35:0a:20:2b:df:10:de:fd:f9:cb:25:9a:3b:ee:eb:
        0f:0e:87:bd:29:24:86:50:63:9d:7f:57:57:f1:14:8b:52:dd:
        e4:8c:b7:7b:f9:e6:95:21:11:2f:93:9e:63:50:e2:0c:b8:be:
        58:15:19:b6:1a:5a:22:ec:d1:3c:6a:a6:16:dc:ea:5d:d8:dc:
        5a:cb:12:69:b5:70:7e:ed:85:64:7a:f8:86:20:50:ab:e6:af:
        d7:47:be:49:5f:50:6c:97:5a:d4:a2:33:27:48:a2:c4:19:1d:
        2b:a8:e0:38:14:43:df:3e:9d:5d:7b:6b:8e:4b:f3:6f:44:a7:
        2d:de:dd:7c:50:35:b6:16:16:77:05:ab:8a:80:bb:01:f9:68:
        89:2c:95:9d:8e:99:7a:c6:e8:1a:1a:d4:12:14:af:52:4b:1f:
        cc:c7:52:85:43:e9:00:28:6e:0b:0a:d8:6f:a8:85:d6:44:9f:
        83:d7:07:8b:18:81:6d:37:56:47:52:66:b5:0b:73:d1:e4:16:
        00:0e:52:19
-----BEGIN CERTIFICATE-----
MIIEQjCCAyqgAwIBAgIBBDANBgkqhkiG9w0BAQsFADBxMQswCQYDVQQGEwJVUzET
MBEGA1UECAwKQ2FsaWZvcm5pYTEUMBIGA1UEBwwLU2FudGEgQ2xhcmExDTALBgNV
BAoMBHBrZzUxEDAOBgNVBAMMB2NoM190YTExFjAUBgkqhkiG9w0BCQEWB2NoM190
YTEwHhcNMjQwNTIzMTU0NzE0WhcNMjcwMjE3MTU0NzE0WjBxMQswCQYDVQQGEwJV
UzETMBEGA1UECAwKQ2FsaWZvcm5pYTEUMBIGA1UEBwwLU2FudGEgQ2xhcmExDTAL
BgNVBAoMBHBrZzUxEDAOBgNVBAMMB2NoNF90YTExFjAUBgkqhkiG9w0BCQEWB2No
NF90YTEwggEiMA0GCSqGSIb3DQEBAQUAA4IBDwAwggEKAoIBAQDBLZuWcu8zBotI
hZyNX1N51PW0q5QXq1JJzcLQgba8FOzcmQyeCKtGQW2qRgxJbMmV/EudW6C/9gTy
LQlqfu1ap62ip/WgtkObeiXqtbvevec/OAIaGv5G/cqcNNpYuUNDRhzKUeAMpCLJ
prOslTPqu+qZDr53BXc/HvArXTXQskXEQYlCgNUjZ73h5bJ0ow+lUUU4tqdNNKBt
dUQNRu9KkywhQCHEhG8+mdidvzvMBok7oYOyaLxzuqCXvIiN/FZ7/S5qD9uuuTQ8
32EF0lzLK0lZrKlgiRogZDN68hivO0cPf/cGXMuHKtzb3TuS8kalTSBee4BfsP0G
CwPpm+FFAgMBAAGjgeQwgeEwHQYDVR0OBBYEFByWXfserJ6WFambDGAC7ctPKdfc
MIGbBgNVHSMEgZMwgZCAFB65dm6mBg0wq9dpPrvaF+/OIugtoXWkczBxMQswCQYD
VQQGEwJVUzETMBEGA1UECAwKQ2FsaWZvcm5pYTEUMBIGA1UEBwwLU2FudGEgQ2xh
cmExDTALBgNVBAoMBHBrZzUxEDAOBgNVBAMMB2NoMl90YTExFjAUBgkqhkiG9w0B
CQEWB2NoMl90YTGCAQMwEgYDVR0TAQH/BAgwBgEB/wIBATAOBgNVHQ8BAf8EBAMC
AQYwDQYJKoZIhvcNAQELBQADggEBAF8RKqJN9dQPW4MBcylPAQohw/1zs1L+X36M
Wd/cINmCrGxKRll08J0ckE2U3ut+r9iO9qSk2gxsvjUKICvfEN79+cslmjvu6w8O
h70pJIZQY51/V1fxFItS3eSMt3v55pUhES+TnmNQ4gy4vlgVGbYaWiLs0Txqphbc
6l3Y3FrLEmm1cH7thWR6+IYgUKvmr9dHvklfUGyXWtSiMydIosQZHSuo4DgUQ98+
nV17a45L829Epy3e3XxQNbYWFncFq4qAuwH5aIkslZ2OmXrG6Boa1BIUr1JLH8zH
UoVD6QAobgsK2G+ohdZEn4PXB4sYgW03VkdSZrULc9HkFgAOUhk=
-----END CERTIFICATE-----
