Certificate:
    Data:
        Version: 3 (0x2)
        Serial Number: 4 (0x4)
        Signature Algorithm: sha256WithRSAEncryption
        Issuer: C=US, ST=California, L=Santa Clara, O=pkg5, CN=ch3_ta1/emailAddress=ch3_ta1
        Validity
            Not Before: Dec 15 15:37:16 2022 GMT
            Not After : Sep 10 15:37:16 2025 GMT
        Subject: C=US, ST=California, L=Santa Clara, O=pkg5, CN=ch4_ta1/emailAddress=ch4_ta1
        Subject Public Key Info:
            Public Key Algorithm: rsaEncryption
                Public-Key: (2048 bit)
                Modulus:
                    00:a2:c0:b9:50:77:39:bb:16:ba:c1:b4:83:ec:4a:
                    27:7f:50:b3:7e:7c:c6:2a:9e:56:f2:cb:a2:15:25:
                    78:1d:0b:3c:5a:b4:e3:40:97:de:2f:0f:02:c8:c1:
                    02:70:10:a8:a7:97:be:80:b7:66:ee:6c:92:5c:bc:
                    76:dc:86:99:7f:6c:44:6a:a9:b0:c7:cc:b2:55:d7:
                    80:44:16:39:79:bc:6c:a2:90:be:63:db:ab:65:eb:
                    0b:dc:ec:46:f5:e3:fd:ed:d8:da:e5:b9:ef:c5:01:
                    35:4a:3b:1f:63:53:a1:55:75:f2:3c:86:82:23:2b:
                    f5:8e:13:b7:13:9d:c3:30:61:8f:83:e7:e4:c5:46:
                    d1:28:e2:0c:05:b3:97:ef:b3:aa:60:21:e8:cd:81:
                    84:c2:18:9a:68:8a:ff:e0:66:cf:9c:75:85:bd:17:
                    f8:d0:11:3d:54:c2:86:a0:37:fd:f6:02:f7:13:39:
                    e6:d6:cf:99:f8:a7:c2:69:90:fb:db:be:04:68:7a:
                    7a:a6:26:a7:f5:e5:7d:98:06:60:da:c0:eb:a8:e6:
                    e9:c6:ba:e3:bf:d9:1a:51:b3:89:4a:9a:ed:f9:c2:
                    c3:fe:24:9d:85:a2:d2:5a:a5:88:cd:33:9d:cd:af:
                    b0:ea:f3:2d:fe:e5:7b:d5:66:58:0e:90:bb:f5:e8:
                    06:d9
                Exponent: 65537 (0x10001)
        X509v3 extensions:
            X509v3 Subject Key Identifier: 
                AB:AA:B3:26:CE:41:5B:E6:B4:C7:60:66:EF:8E:7A:38:71:FF:78:6B
            X509v3 Authority Key Identifier: 
                keyid:F6:37:23:0C:E9:57:08:CC:5D:CA:74:1C:B8:7D:DF:7B:F9:F7:1A:8B
                DirName:/C=US/ST=California/L=Santa Clara/O=pkg5/CN=ch2_ta1/emailAddress=ch2_ta1
                serial:03
            X509v3 Basic Constraints: critical
                CA:TRUE, pathlen:1
            X509v3 Key Usage: critical
                Certificate Sign, CRL Sign
    Signature Algorithm: sha256WithRSAEncryption
    Signature Value:
        08:2a:99:96:28:f3:7e:a2:87:f9:08:3a:76:51:ad:c7:76:80:
        f2:33:37:22:95:16:3a:b5:a3:06:0f:dd:d1:2a:56:44:54:a7:
        de:12:d4:ae:77:e9:de:e4:bf:73:51:4f:89:97:47:63:6b:1c:
        a6:1a:c7:2b:35:62:e8:7d:a6:1f:47:32:66:6f:68:56:c1:00:
        a2:00:86:c9:65:86:36:8d:27:75:5c:4a:c6:c0:4c:11:7c:bc:
        0f:42:af:67:6e:d7:45:a3:f3:4c:ba:4b:89:de:2a:c8:ef:d4:
        b3:f3:02:11:9e:ae:e1:44:88:ac:e0:3d:65:0b:ae:13:56:24:
        af:dd:4c:08:bf:44:d5:ae:0a:6d:c1:87:28:54:9b:50:99:bd:
        9a:9b:22:9a:0a:cd:ea:7e:2c:29:eb:4d:9d:16:b3:a3:9f:67:
        58:ea:62:f9:d7:2f:6e:c6:96:ff:a2:ab:55:9a:30:12:a3:eb:
        c0:2b:d0:34:63:fc:f7:4a:d0:0a:5b:f0:68:12:c6:71:9f:3a:
        9f:99:c4:e9:19:20:16:c6:9f:fa:0c:b2:f9:e0:7c:a3:66:2e:
        d9:09:0f:89:09:97:7d:df:78:e3:fc:44:6c:54:37:3e:0f:ce:
        a5:c8:41:dc:6f:e0:7b:45:00:24:ad:f4:49:db:93:51:51:60:
        3c:6b:43:f9
-----BEGIN CERTIFICATE-----
MIIEQjCCAyqgAwIBAgIBBDANBgkqhkiG9w0BAQsFADBxMQswCQYDVQQGEwJVUzET
MBEGA1UECAwKQ2FsaWZvcm5pYTEUMBIGA1UEBwwLU2FudGEgQ2xhcmExDTALBgNV
BAoMBHBrZzUxEDAOBgNVBAMMB2NoM190YTExFjAUBgkqhkiG9w0BCQEWB2NoM190
YTEwHhcNMjIxMjE1MTUzNzE2WhcNMjUwOTEwMTUzNzE2WjBxMQswCQYDVQQGEwJV
UzETMBEGA1UECAwKQ2FsaWZvcm5pYTEUMBIGA1UEBwwLU2FudGEgQ2xhcmExDTAL
BgNVBAoMBHBrZzUxEDAOBgNVBAMMB2NoNF90YTExFjAUBgkqhkiG9w0BCQEWB2No
NF90YTEwggEiMA0GCSqGSIb3DQEBAQUAA4IBDwAwggEKAoIBAQCiwLlQdzm7FrrB
tIPsSid/ULN+fMYqnlbyy6IVJXgdCzxatONAl94vDwLIwQJwEKinl76At2bubJJc
vHbchpl/bERqqbDHzLJV14BEFjl5vGyikL5j26tl6wvc7Eb14/3t2Nrlue/FATVK
Ox9jU6FVdfI8hoIjK/WOE7cTncMwYY+D5+TFRtEo4gwFs5fvs6pgIejNgYTCGJpo
iv/gZs+cdYW9F/jQET1UwoagN/32AvcTOebWz5n4p8JpkPvbvgRoenqmJqf15X2Y
BmDawOuo5unGuuO/2RpRs4lKmu35wsP+JJ2FotJapYjNM53Nr7Dq8y3+5XvVZlgO
kLv16AbZAgMBAAGjgeQwgeEwHQYDVR0OBBYEFKuqsybOQVvmtMdgZu+Oejhx/3hr
MIGbBgNVHSMEgZMwgZCAFPY3IwzpVwjMXcp0HLh933v59xqLoXWkczBxMQswCQYD
VQQGEwJVUzETMBEGA1UECAwKQ2FsaWZvcm5pYTEUMBIGA1UEBwwLU2FudGEgQ2xh
cmExDTALBgNVBAoMBHBrZzUxEDAOBgNVBAMMB2NoMl90YTExFjAUBgkqhkiG9w0B
CQEWB2NoMl90YTGCAQMwEgYDVR0TAQH/BAgwBgEB/wIBATAOBgNVHQ8BAf8EBAMC
AQYwDQYJKoZIhvcNAQELBQADggEBAAgqmZYo836ih/kIOnZRrcd2gPIzNyKVFjq1
owYP3dEqVkRUp94S1K536d7kv3NRT4mXR2NrHKYaxys1Yuh9ph9HMmZvaFbBAKIA
hsllhjaNJ3VcSsbATBF8vA9Cr2du10Wj80y6S4neKsjv1LPzAhGeruFEiKzgPWUL
rhNWJK/dTAi/RNWuCm3BhyhUm1CZvZqbIpoKzep+LCnrTZ0Ws6OfZ1jqYvnXL27G
lv+iq1WaMBKj68Ar0DRj/PdK0Apb8GgSxnGfOp+ZxOkZIBbGn/oMsvngfKNmLtkJ
D4kJl33feOP8RGxUNz4PzqXIQdxv4HtFACSt9Enbk1FRYDxrQ/k=
-----END CERTIFICATE-----
