Certificate:
    Data:
        Version: 3 (0x2)
        Serial Number: 4 (0x4)
        Signature Algorithm: sha256WithRSAEncryption
        Issuer: C=US, ST=California, L=Santa Clara, O=pkg5, CN=ch3_ta1/emailAddress=ch3_ta1
        Validity
            Not Before: Nov 17 23:01:28 2020 GMT
            Not After : Aug 14 23:01:28 2023 GMT
        Subject: C=US, ST=California, L=Santa Clara, O=pkg5, CN=ch4_ta1/emailAddress=ch4_ta1
        Subject Public Key Info:
            Public Key Algorithm: rsaEncryption
                RSA Public-Key: (2048 bit)
                Modulus:
                    00:bb:9f:e0:a6:11:75:a6:ce:9a:37:91:52:06:95:
                    95:89:a7:8b:91:19:d3:be:d8:c6:a4:4b:9a:c9:86:
                    5e:43:87:1b:ae:c0:aa:bf:92:a7:e8:51:b2:9b:39:
                    20:e1:26:d4:cd:48:13:70:ad:bf:93:70:29:3a:d9:
                    f7:e1:b5:54:73:36:1f:b3:ec:b1:b4:97:ef:23:b5:
                    fa:a5:b6:85:c3:a0:66:2a:38:53:13:6e:10:e0:1f:
                    05:08:e8:79:a4:02:58:70:20:b5:0f:10:a3:55:da:
                    7f:af:43:45:59:c9:a5:f9:f0:39:3a:28:ba:6f:b1:
                    e9:f9:6d:ed:a3:bb:e6:98:d9:4d:0f:26:45:4f:37:
                    f3:ab:13:7f:e7:0c:a1:bb:6a:d0:08:f6:a0:1b:aa:
                    4d:43:82:0e:ee:fe:55:a6:56:e3:f8:08:b6:a5:d9:
                    d9:ec:fe:80:9e:de:31:48:93:04:12:48:eb:74:61:
                    6b:a7:ed:19:c5:56:44:9e:c1:08:4c:44:7c:6e:0e:
                    c3:8c:9e:f2:ba:a2:2d:9d:87:2c:f2:7c:ef:01:ac:
                    3b:83:17:03:77:80:e7:3f:4a:ee:c0:a1:cb:68:c7:
                    1c:50:96:5f:b2:b1:54:79:ad:fb:37:16:9c:96:89:
                    37:82:ce:7e:ab:d7:7c:4e:6a:bb:53:0b:d9:26:7a:
                    b7:33
                Exponent: 65537 (0x10001)
        X509v3 extensions:
            X509v3 Subject Key Identifier: 
                B6:F5:BE:AE:52:6B:18:6B:33:67:6D:06:29:24:AD:20:CC:84:60:E0
            X509v3 Authority Key Identifier: 
                keyid:68:3D:A5:22:1A:F1:F1:67:39:3E:71:66:9D:1A:E1:E1:A2:64:A2:E1
                DirName:/C=US/ST=California/L=Santa Clara/O=pkg5/CN=ch2_ta1/emailAddress=ch2_ta1
                serial:03

            X509v3 Basic Constraints: critical
                CA:TRUE, pathlen:1
            X509v3 Key Usage: critical
                Certificate Sign, CRL Sign
    Signature Algorithm: sha256WithRSAEncryption
         6d:01:24:92:19:c2:f5:fd:15:62:52:02:0b:43:34:46:51:85:
         ef:6c:56:ec:28:09:56:48:f6:67:7b:26:53:bf:56:1a:92:07:
         31:5a:20:ef:18:96:85:04:c0:8a:01:c2:3e:0a:71:92:56:aa:
         6e:fd:2d:6c:67:33:47:28:69:63:05:d2:38:f9:3b:b3:75:c6:
         6e:3b:16:fa:06:ac:37:8f:87:24:ca:da:1c:8f:b6:c8:8f:c0:
         56:e7:d5:2e:b6:d4:e2:5d:70:1a:ac:cc:87:a8:0a:05:1e:48:
         bd:23:6a:e3:6f:41:30:4e:ce:70:1a:8d:16:b5:09:9c:34:3e:
         44:61:b8:02:07:0b:87:a3:f7:09:9a:9b:8e:a2:2f:d0:67:a9:
         3c:9f:e5:cd:2d:25:f1:e9:92:68:1a:f8:f6:cb:a4:d5:60:99:
         a6:3f:bb:00:d3:64:51:4c:f3:97:f4:b2:42:59:96:34:da:26:
         88:0c:70:b0:0e:d4:b0:9b:66:50:17:ef:8b:e1:c0:df:90:fb:
         23:e2:7b:f7:56:d7:d2:b1:8e:c4:7d:10:10:d2:6c:d3:fb:3d:
         22:45:72:35:4f:5b:e7:d8:60:6e:05:cd:81:06:e7:8a:01:1a:
         72:bb:25:e9:e9:16:29:40:fe:3b:c7:ff:7b:80:9e:0e:a6:4d:
         4c:e8:b1:a2
-----BEGIN CERTIFICATE-----
MIIEQjCCAyqgAwIBAgIBBDANBgkqhkiG9w0BAQsFADBxMQswCQYDVQQGEwJVUzET
MBEGA1UECAwKQ2FsaWZvcm5pYTEUMBIGA1UEBwwLU2FudGEgQ2xhcmExDTALBgNV
BAoMBHBrZzUxEDAOBgNVBAMMB2NoM190YTExFjAUBgkqhkiG9w0BCQEWB2NoM190
YTEwHhcNMjAxMTE3MjMwMTI4WhcNMjMwODE0MjMwMTI4WjBxMQswCQYDVQQGEwJV
UzETMBEGA1UECAwKQ2FsaWZvcm5pYTEUMBIGA1UEBwwLU2FudGEgQ2xhcmExDTAL
BgNVBAoMBHBrZzUxEDAOBgNVBAMMB2NoNF90YTExFjAUBgkqhkiG9w0BCQEWB2No
NF90YTEwggEiMA0GCSqGSIb3DQEBAQUAA4IBDwAwggEKAoIBAQC7n+CmEXWmzpo3
kVIGlZWJp4uRGdO+2MakS5rJhl5DhxuuwKq/kqfoUbKbOSDhJtTNSBNwrb+TcCk6
2ffhtVRzNh+z7LG0l+8jtfqltoXDoGYqOFMTbhDgHwUI6HmkAlhwILUPEKNV2n+v
Q0VZyaX58Dk6KLpvsen5be2ju+aY2U0PJkVPN/OrE3/nDKG7atAI9qAbqk1Dgg7u
/lWmVuP4CLal2dns/oCe3jFIkwQSSOt0YWun7RnFVkSewQhMRHxuDsOMnvK6oi2d
hyzyfO8BrDuDFwN3gOc/Su7AoctoxxxQll+ysVR5rfs3FpyWiTeCzn6r13xOartT
C9kmerczAgMBAAGjgeQwgeEwHQYDVR0OBBYEFLb1vq5SaxhrM2dtBikkrSDMhGDg
MIGbBgNVHSMEgZMwgZCAFGg9pSIa8fFnOT5xZp0a4eGiZKLhoXWkczBxMQswCQYD
VQQGEwJVUzETMBEGA1UECAwKQ2FsaWZvcm5pYTEUMBIGA1UEBwwLU2FudGEgQ2xh
cmExDTALBgNVBAoMBHBrZzUxEDAOBgNVBAMMB2NoMl90YTExFjAUBgkqhkiG9w0B
CQEWB2NoMl90YTGCAQMwEgYDVR0TAQH/BAgwBgEB/wIBATAOBgNVHQ8BAf8EBAMC
AQYwDQYJKoZIhvcNAQELBQADggEBAG0BJJIZwvX9FWJSAgtDNEZRhe9sVuwoCVZI
9md7JlO/VhqSBzFaIO8YloUEwIoBwj4KcZJWqm79LWxnM0coaWMF0jj5O7N1xm47
FvoGrDePhyTK2hyPtsiPwFbn1S621OJdcBqszIeoCgUeSL0jauNvQTBOznAajRa1
CZw0PkRhuAIHC4ej9wmam46iL9BnqTyf5c0tJfHpkmga+PbLpNVgmaY/uwDTZFFM
85f0skJZljTaJogMcLAO1LCbZlAX74vhwN+Q+yPie/dW19KxjsR9EBDSbNP7PSJF
cjVPW+fYYG4FzYEG54oBGnK7JenpFilA/jvH/3uAng6mTUzosaI=
-----END CERTIFICATE-----
