Certificate:
    Data:
        Version: 3 (0x2)
        Serial Number: 4 (0x4)
    Signature Algorithm: sha256WithRSAEncryption
        Issuer: C=US, ST=California, L=Santa Clara, O=pkg5, CN=ch3_ta1/emailAddress=ch3_ta1
        Validity
            Not Before: Nov 16 10:58:47 2017 GMT
            Not After : Aug 12 10:58:47 2020 GMT
        Subject: C=US, ST=California, L=Santa Clara, O=pkg5, CN=ch4_ta1/emailAddress=ch4_ta1
        Subject Public Key Info:
            Public Key Algorithm: rsaEncryption
                Public-Key: (2048 bit)
                Modulus:
                    00:b3:a9:e9:60:cd:58:c7:01:a3:6f:75:0d:60:18:
                    53:07:da:22:b8:8d:85:4d:59:20:66:23:ac:ac:ea:
                    87:1b:a4:62:c9:48:11:cf:29:7f:1d:da:55:ca:7e:
                    c6:82:b0:5b:fc:88:78:65:cd:e6:7e:2e:4e:ee:41:
                    bd:5f:fa:d4:91:2c:9a:01:8d:f9:c4:1f:36:0f:5e:
                    4f:bd:d5:3f:55:b1:bd:37:9e:39:77:8f:77:f0:17:
                    11:61:68:0e:51:55:26:69:9e:0a:1b:d4:e2:03:ca:
                    6f:3d:d5:ad:4d:a7:29:30:ed:f6:72:f8:b9:9f:7f:
                    24:eb:58:51:52:78:7e:f1:f2:56:7c:7f:df:79:62:
                    76:76:2e:76:72:0d:d1:e5:cc:63:49:dc:d4:ef:20:
                    3b:e4:3d:eb:82:46:6b:91:59:11:03:fd:38:cf:33:
                    55:e9:63:6e:05:4b:96:97:f5:ad:99:49:4a:6a:f4:
                    01:2b:f6:c9:75:08:a2:84:26:68:b7:c2:aa:14:5f:
                    0d:cd:21:59:91:e8:1d:98:e2:af:94:f2:bc:0b:c2:
                    59:83:9c:af:a2:d6:75:ef:ae:99:5f:ce:74:a3:e4:
                    2f:55:38:16:23:51:39:f5:3c:a5:71:49:2f:e6:a5:
                    52:b6:45:66:c7:34:b9:92:0e:b4:3f:f3:4f:09:de:
                    51:ab
                Exponent: 65537 (0x10001)
        X509v3 extensions:
            X509v3 Subject Key Identifier: 
                95:AF:31:EE:AD:B3:93:5F:CE:41:CE:42:A0:A5:8C:5F:7C:38:C2:81
            X509v3 Authority Key Identifier: 
                keyid:30:1E:F8:A6:1D:94:7C:C4:84:3B:67:45:6C:CC:EB:C2:FE:71:55:35
                DirName:/C=US/ST=California/L=Santa Clara/O=pkg5/CN=ch2_ta1/emailAddress=ch2_ta1
                serial:03

            X509v3 Basic Constraints: critical
                CA:TRUE, pathlen:1
            X509v3 Key Usage: critical
                Certificate Sign, CRL Sign
    Signature Algorithm: sha256WithRSAEncryption
         79:cb:0c:dc:83:fe:84:f7:61:d4:62:40:a1:8e:4d:be:96:32:
         a9:7e:65:ff:ce:f7:58:6c:46:24:e3:8f:db:6a:e6:5b:e9:55:
         c0:55:05:7f:87:9d:79:72:9c:7f:08:5f:72:fe:d9:97:1e:05:
         a4:58:ff:d3:48:a9:18:7e:eb:ec:c0:e1:80:42:bc:4c:31:ca:
         3a:7f:e9:18:a1:dd:a5:4f:74:a2:6f:2b:50:44:31:bb:cf:c8:
         9d:2f:e4:f8:ee:e6:dd:75:50:04:09:8b:72:3a:f1:e7:f4:41:
         a1:19:5f:74:e9:10:d2:4a:be:51:2c:e2:c5:a5:e2:b4:64:27:
         1b:0f:91:42:f8:d2:b1:00:cc:e1:58:58:cb:72:12:db:2e:50:
         b4:df:8e:37:b3:0c:ef:fe:02:a2:1d:84:a7:44:0d:4e:57:9d:
         ab:58:67:2a:f1:8a:a6:cc:b2:f7:54:e8:e2:15:55:f6:40:ce:
         40:88:96:f5:55:82:fc:cf:04:03:f3:67:aa:ee:44:bf:1c:6a:
         95:e9:91:b3:d1:70:81:c3:fe:52:eb:a1:44:79:e5:d9:8d:3f:
         d3:dc:ad:e0:f4:a4:82:f8:ab:4c:c0:07:26:70:c6:ea:8a:b0:
         f9:6a:b5:2a:7c:e8:6f:c1:2b:b1:0c:26:a6:f7:68:1e:fa:8b:
         0e:b0:77:1c
-----BEGIN CERTIFICATE-----
MIIEQjCCAyqgAwIBAgIBBDANBgkqhkiG9w0BAQsFADBxMQswCQYDVQQGEwJVUzET
MBEGA1UECAwKQ2FsaWZvcm5pYTEUMBIGA1UEBwwLU2FudGEgQ2xhcmExDTALBgNV
BAoMBHBrZzUxEDAOBgNVBAMMB2NoM190YTExFjAUBgkqhkiG9w0BCQEWB2NoM190
YTEwHhcNMTcxMTE2MTA1ODQ3WhcNMjAwODEyMTA1ODQ3WjBxMQswCQYDVQQGEwJV
UzETMBEGA1UECAwKQ2FsaWZvcm5pYTEUMBIGA1UEBwwLU2FudGEgQ2xhcmExDTAL
BgNVBAoMBHBrZzUxEDAOBgNVBAMMB2NoNF90YTExFjAUBgkqhkiG9w0BCQEWB2No
NF90YTEwggEiMA0GCSqGSIb3DQEBAQUAA4IBDwAwggEKAoIBAQCzqelgzVjHAaNv
dQ1gGFMH2iK4jYVNWSBmI6ys6ocbpGLJSBHPKX8d2lXKfsaCsFv8iHhlzeZ+Lk7u
Qb1f+tSRLJoBjfnEHzYPXk+91T9Vsb03njl3j3fwFxFhaA5RVSZpngob1OIDym89
1a1Npykw7fZy+LmffyTrWFFSeH7x8lZ8f995YnZ2LnZyDdHlzGNJ3NTvIDvkPeuC
RmuRWRED/TjPM1XpY24FS5aX9a2ZSUpq9AEr9sl1CKKEJmi3wqoUXw3NIVmR6B2Y
4q+U8rwLwlmDnK+i1nXvrplfznSj5C9VOBYjUTn1PKVxSS/mpVK2RWbHNLmSDrQ/
808J3lGrAgMBAAGjgeQwgeEwHQYDVR0OBBYEFJWvMe6ts5NfzkHOQqCljF98OMKB
MIGbBgNVHSMEgZMwgZCAFDAe+KYdlHzEhDtnRWzM68L+cVU1oXWkczBxMQswCQYD
VQQGEwJVUzETMBEGA1UECAwKQ2FsaWZvcm5pYTEUMBIGA1UEBwwLU2FudGEgQ2xh
cmExDTALBgNVBAoMBHBrZzUxEDAOBgNVBAMMB2NoMl90YTExFjAUBgkqhkiG9w0B
CQEWB2NoMl90YTGCAQMwEgYDVR0TAQH/BAgwBgEB/wIBATAOBgNVHQ8BAf8EBAMC
AQYwDQYJKoZIhvcNAQELBQADggEBAHnLDNyD/oT3YdRiQKGOTb6WMql+Zf/O91hs
RiTjj9tq5lvpVcBVBX+HnXlynH8IX3L+2ZceBaRY/9NIqRh+6+zA4YBCvEwxyjp/
6Rih3aVPdKJvK1BEMbvPyJ0v5Pju5t11UAQJi3I68ef0QaEZX3TpENJKvlEs4sWl
4rRkJxsPkUL40rEAzOFYWMtyEtsuULTfjjezDO/+AqIdhKdEDU5XnatYZyrxiqbM
svdU6OIVVfZAzkCIlvVVgvzPBAPzZ6ruRL8capXpkbPRcIHD/lLroUR55dmNP9Pc
reD0pIL4q0zAByZwxuqKsPlqtSp86G/BK7EMJqb3aB76iw6wdxw=
-----END CERTIFICATE-----
