Certificate:
    Data:
        Version: 3 (0x2)
        Serial Number: 5 (0x5)
        Signature Algorithm: sha256WithRSAEncryption
        Issuer: C=US, ST=California, L=Santa Clara, O=pkg5, CN=ch4_ta1/emailAddress=ch4_ta1
        Validity
            Not Before: May 23 15:47:14 2024 GMT
            Not After : Feb 17 15:47:14 2027 GMT
        Subject: C=US, ST=California, L=Santa Clara, O=pkg5, CN=ch5_ta1/emailAddress=ch5_ta1
        Subject Public Key Info:
            Public Key Algorithm: rsaEncryption
                Public-Key: (2048 bit)
                Modulus:
                    00:9c:36:8d:44:da:1b:62:28:25:f5:4b:50:2d:fe:
                    c7:ec:69:ba:a2:47:ea:22:8f:8b:0c:b1:61:d1:c0:
                    7e:84:0c:36:0d:f8:50:db:f9:88:a1:68:35:6f:3a:
                    f5:3e:2f:1b:e1:15:0f:0e:57:17:fc:ab:59:55:23:
                    ab:f9:20:d5:92:16:10:bf:65:e4:16:8a:f2:0d:fa:
                    9b:9b:79:42:22:83:e0:d2:5f:f7:63:c5:06:00:c1:
                    c1:1b:d7:af:59:7f:a5:ee:65:68:88:da:57:02:39:
                    82:79:c1:51:2c:41:51:09:b9:9f:c7:cf:5a:d1:dd:
                    96:3b:b6:24:ad:85:83:03:1d:87:89:d3:18:1e:ab:
                    11:48:c3:1c:b8:10:de:2f:6e:30:c2:44:b8:a2:64:
                    75:04:58:45:ea:12:19:93:60:94:ed:f5:d8:9f:80:
                    e2:74:2d:22:8b:f2:49:0a:e9:49:ee:46:69:5b:2a:
                    26:10:72:28:9c:b7:0c:95:a6:bc:dd:53:a6:af:b7:
                    39:44:28:1b:1a:b2:ec:0c:6a:20:20:3f:27:92:03:
                    b8:80:55:65:f8:8a:98:57:a9:dc:93:81:08:9e:1e:
                    1e:0e:55:0c:1e:7a:d4:c1:9c:0d:8f:36:df:6a:bf:
                    9d:c5:fb:05:54:48:12:9a:9c:68:cc:9e:a2:e9:aa:
                    ce:1f
                Exponent: 65537 (0x10001)
        X509v3 extensions:
            X509v3 Subject Key Identifier: 
                7D:3C:C1:C8:B7:6C:80:5F:63:BD:43:AA:06:EA:CF:00:3E:C8:D2:BC
            X509v3 Authority Key Identifier: 
                keyid:1C:96:5D:FB:1E:AC:9E:96:15:A9:9B:0C:60:02:ED:CB:4F:29:D7:DC
                DirName:/C=US/ST=California/L=Santa Clara/O=pkg5/CN=ch3_ta1/emailAddress=ch3_ta1
                serial:04
            X509v3 Basic Constraints: critical
                CA:TRUE, pathlen:0
            X509v3 Key Usage: critical
                Certificate Sign, CRL Sign
    Signature Algorithm: sha256WithRSAEncryption
    Signature Value:
        4a:dc:f2:dd:cf:bf:13:c5:71:6d:68:ad:06:52:a6:e5:45:fe:
        d1:6d:07:8d:7e:e4:e7:7b:bc:c3:86:dd:50:5e:27:82:c2:3a:
        05:82:f5:c6:b1:92:ad:4d:f0:9d:cb:ac:b1:a6:a9:b6:b4:f1:
        7e:ab:ee:52:b9:c1:69:12:4c:6e:82:42:36:b9:9f:4e:1f:d9:
        4b:8e:f8:10:94:69:38:83:17:2b:78:5d:af:6e:61:f8:42:25:
        f1:9d:99:69:57:43:58:e3:1a:f0:38:88:20:37:27:3b:e5:53:
        94:4e:75:20:88:00:99:a4:b3:b9:e4:5c:2a:a0:a9:84:8f:0f:
        37:48:e3:f9:05:a4:e2:a9:49:f4:6d:b7:6f:19:37:a5:43:dd:
        11:88:2c:ea:e3:f1:93:af:12:d2:39:60:21:d0:31:ab:1d:50:
        a1:5f:ce:6a:26:87:92:63:b7:94:7e:9f:6b:2e:0a:0c:0f:b7:
        7b:5c:e1:4a:ad:0a:77:85:da:9f:e5:26:c1:dc:31:20:73:c4:
        da:f4:75:fe:ef:7d:01:f4:f8:c0:11:4a:72:3e:2b:a9:ad:a0:
        99:0f:6e:32:25:3e:2f:d5:bb:36:03:15:fe:ec:e7:d7:55:dd:
        88:d4:3a:6a:37:17:e7:cd:14:79:35:1c:a7:76:33:9c:33:1c:
        cb:94:22:2a
-----BEGIN CERTIFICATE-----
MIIEQjCCAyqgAwIBAgIBBTANBgkqhkiG9w0BAQsFADBxMQswCQYDVQQGEwJVUzET
MBEGA1UECAwKQ2FsaWZvcm5pYTEUMBIGA1UEBwwLU2FudGEgQ2xhcmExDTALBgNV
BAoMBHBrZzUxEDAOBgNVBAMMB2NoNF90YTExFjAUBgkqhkiG9w0BCQEWB2NoNF90
YTEwHhcNMjQwNTIzMTU0NzE0WhcNMjcwMjE3MTU0NzE0WjBxMQswCQYDVQQGEwJV
UzETMBEGA1UECAwKQ2FsaWZvcm5pYTEUMBIGA1UEBwwLU2FudGEgQ2xhcmExDTAL
BgNVBAoMBHBrZzUxEDAOBgNVBAMMB2NoNV90YTExFjAUBgkqhkiG9w0BCQEWB2No
NV90YTEwggEiMA0GCSqGSIb3DQEBAQUAA4IBDwAwggEKAoIBAQCcNo1E2htiKCX1
S1At/sfsabqiR+oij4sMsWHRwH6EDDYN+FDb+YihaDVvOvU+LxvhFQ8OVxf8q1lV
I6v5INWSFhC/ZeQWivIN+pubeUIig+DSX/djxQYAwcEb169Zf6XuZWiI2lcCOYJ5
wVEsQVEJuZ/Hz1rR3ZY7tiSthYMDHYeJ0xgeqxFIwxy4EN4vbjDCRLiiZHUEWEXq
EhmTYJTt9difgOJ0LSKL8kkK6UnuRmlbKiYQciictwyVprzdU6avtzlEKBsasuwM
aiAgPyeSA7iAVWX4iphXqdyTgQieHh4OVQweetTBnA2PNt9qv53F+wVUSBKanGjM
nqLpqs4fAgMBAAGjgeQwgeEwHQYDVR0OBBYEFH08wci3bIBfY71DqgbqzwA+yNK8
MIGbBgNVHSMEgZMwgZCAFByWXfserJ6WFambDGAC7ctPKdfcoXWkczBxMQswCQYD
VQQGEwJVUzETMBEGA1UECAwKQ2FsaWZvcm5pYTEUMBIGA1UEBwwLU2FudGEgQ2xh
cmExDTALBgNVBAoMBHBrZzUxEDAOBgNVBAMMB2NoM190YTExFjAUBgkqhkiG9w0B
CQEWB2NoM190YTGCAQQwEgYDVR0TAQH/BAgwBgEB/wIBADAOBgNVHQ8BAf8EBAMC
AQYwDQYJKoZIhvcNAQELBQADggEBAErc8t3PvxPFcW1orQZSpuVF/tFtB41+5Od7
vMOG3VBeJ4LCOgWC9caxkq1N8J3LrLGmqba08X6r7lK5wWkSTG6CQja5n04f2UuO
+BCUaTiDFyt4Xa9uYfhCJfGdmWlXQ1jjGvA4iCA3JzvlU5ROdSCIAJmks7nkXCqg
qYSPDzdI4/kFpOKpSfRtt28ZN6VD3RGILOrj8ZOvEtI5YCHQMasdUKFfzmomh5Jj
t5R+n2suCgwPt3tc4UqtCneF2p/lJsHcMSBzxNr0df7vfQH0+MARSnI+K6mtoJkP
bjIlPi/VuzYDFf7s59dV3YjUOmo3F+fNFHk1HKd2M5wzHMuUIio=
-----END CERTIFICATE-----
