Certificate:
    Data:
        Version: 3 (0x2)
        Serial Number: 5 (0x5)
        Signature Algorithm: sha256WithRSAEncryption
        Issuer: C=US, ST=California, L=Santa Clara, O=pkg5, CN=ch4_ta1/emailAddress=ch4_ta1
        Validity
            Not Before: Dec 15 15:37:16 2022 GMT
            Not After : Sep 10 15:37:16 2025 GMT
        Subject: C=US, ST=California, L=Santa Clara, O=pkg5, CN=ch5_ta1/emailAddress=ch5_ta1
        Subject Public Key Info:
            Public Key Algorithm: rsaEncryption
                Public-Key: (2048 bit)
                Modulus:
                    00:bf:29:7e:67:71:a2:bb:47:8e:24:a3:f2:00:69:
                    ca:b3:37:73:7a:a4:92:32:4f:4c:26:d0:00:87:bb:
                    de:65:1e:22:ec:d2:30:a8:96:0a:5a:2a:41:f2:8f:
                    cd:b9:52:24:01:9e:ef:68:27:67:68:30:9a:a1:a8:
                    b0:62:dc:80:dc:76:15:42:b5:9b:cf:27:c9:a6:6d:
                    b3:40:cf:84:73:da:ca:06:e8:b0:54:39:01:6c:27:
                    5a:d3:df:2c:93:ae:d6:77:08:0f:53:b0:54:7f:eb:
                    9e:21:f2:26:fe:29:89:5f:27:56:f8:9d:3b:e2:f5:
                    aa:61:5d:2d:a2:20:5e:8e:ba:64:56:ab:bf:ab:75:
                    32:64:54:ff:a7:d0:f0:ad:ce:a3:50:47:07:7a:2b:
                    4e:85:71:26:bf:64:51:7a:d5:96:ac:56:1b:e8:f2:
                    4c:d6:fb:50:ad:75:3b:d4:a9:6b:37:cd:18:84:31:
                    f7:94:aa:f1:62:71:aa:24:a1:e6:ba:62:da:26:b7:
                    e5:48:09:3f:48:a6:f3:03:76:ac:34:59:ae:95:f1:
                    ff:b3:25:84:24:31:62:0c:d4:28:b4:36:83:2d:d9:
                    80:ef:96:c3:b0:2d:78:4c:33:3a:74:26:36:a2:ac:
                    51:24:42:b6:9b:11:18:b3:86:c1:bd:57:09:00:27:
                    9c:df
                Exponent: 65537 (0x10001)
        X509v3 extensions:
            X509v3 Subject Key Identifier: 
                26:20:3F:64:E7:2E:7B:75:2C:EF:65:DF:05:65:D1:DB:BF:FE:B7:65
            X509v3 Authority Key Identifier: 
                keyid:AB:AA:B3:26:CE:41:5B:E6:B4:C7:60:66:EF:8E:7A:38:71:FF:78:6B
                DirName:/C=US/ST=California/L=Santa Clara/O=pkg5/CN=ch3_ta1/emailAddress=ch3_ta1
                serial:04
            X509v3 Basic Constraints: critical
                CA:TRUE, pathlen:0
            X509v3 Key Usage: critical
                Certificate Sign, CRL Sign
    Signature Algorithm: sha256WithRSAEncryption
    Signature Value:
        68:97:2c:bc:42:a4:93:02:41:e0:5c:21:88:bc:46:57:75:e3:
        72:d7:df:0d:96:c6:5b:b2:19:5c:c2:1c:e2:08:05:df:1d:1a:
        42:61:9d:7c:24:2b:51:9f:dd:4f:65:06:43:97:60:91:61:40:
        ff:e4:24:23:81:35:be:e2:71:02:55:e9:97:88:a8:c0:ae:90:
        9b:ad:72:8c:c2:b8:db:0d:01:89:56:4d:0b:54:d6:56:d0:8d:
        7f:bb:8f:2d:5e:3c:2b:c2:c3:cb:dd:2b:aa:f2:0d:44:53:76:
        87:b1:cc:ca:18:ca:2c:ab:1a:4b:e4:b1:15:e2:01:e2:c6:40:
        cf:55:73:36:b1:53:ca:97:62:78:09:38:13:a9:ec:c1:ab:ec:
        32:2d:9f:dc:c4:0f:de:95:e6:b9:2e:af:d9:77:dd:0f:76:a6:
        16:de:3c:4f:1a:71:fe:7e:92:62:ae:79:e8:a5:a1:2f:a3:2c:
        39:87:6a:7b:6b:00:d6:b6:dd:f1:42:6e:0b:3e:b5:1e:71:a7:
        df:22:f8:4d:29:e1:9f:76:6a:7d:b0:a9:7a:1b:3c:b8:e3:89:
        6c:e5:48:45:be:cc:87:3c:5f:f9:ca:3a:1b:76:a4:cb:03:db:
        3b:27:f7:32:64:74:a0:b1:e7:e1:ee:7b:29:49:1b:98:af:f0:
        de:ce:f8:1c
-----BEGIN CERTIFICATE-----
MIIEQjCCAyqgAwIBAgIBBTANBgkqhkiG9w0BAQsFADBxMQswCQYDVQQGEwJVUzET
MBEGA1UECAwKQ2FsaWZvcm5pYTEUMBIGA1UEBwwLU2FudGEgQ2xhcmExDTALBgNV
BAoMBHBrZzUxEDAOBgNVBAMMB2NoNF90YTExFjAUBgkqhkiG9w0BCQEWB2NoNF90
YTEwHhcNMjIxMjE1MTUzNzE2WhcNMjUwOTEwMTUzNzE2WjBxMQswCQYDVQQGEwJV
UzETMBEGA1UECAwKQ2FsaWZvcm5pYTEUMBIGA1UEBwwLU2FudGEgQ2xhcmExDTAL
BgNVBAoMBHBrZzUxEDAOBgNVBAMMB2NoNV90YTExFjAUBgkqhkiG9w0BCQEWB2No
NV90YTEwggEiMA0GCSqGSIb3DQEBAQUAA4IBDwAwggEKAoIBAQC/KX5ncaK7R44k
o/IAacqzN3N6pJIyT0wm0ACHu95lHiLs0jColgpaKkHyj825UiQBnu9oJ2doMJqh
qLBi3IDcdhVCtZvPJ8mmbbNAz4Rz2soG6LBUOQFsJ1rT3yyTrtZ3CA9TsFR/654h
8ib+KYlfJ1b4nTvi9aphXS2iIF6OumRWq7+rdTJkVP+n0PCtzqNQRwd6K06FcSa/
ZFF61ZasVhvo8kzW+1CtdTvUqWs3zRiEMfeUqvFicaokoea6Ytomt+VICT9IpvMD
dqw0Wa6V8f+zJYQkMWIM1Ci0NoMt2YDvlsOwLXhMMzp0JjairFEkQrabERizhsG9
VwkAJ5zfAgMBAAGjgeQwgeEwHQYDVR0OBBYEFCYgP2TnLnt1LO9l3wVl0du//rdl
MIGbBgNVHSMEgZMwgZCAFKuqsybOQVvmtMdgZu+Oejhx/3hroXWkczBxMQswCQYD
VQQGEwJVUzETMBEGA1UECAwKQ2FsaWZvcm5pYTEUMBIGA1UEBwwLU2FudGEgQ2xh
cmExDTALBgNVBAoMBHBrZzUxEDAOBgNVBAMMB2NoM190YTExFjAUBgkqhkiG9w0B
CQEWB2NoM190YTGCAQQwEgYDVR0TAQH/BAgwBgEB/wIBADAOBgNVHQ8BAf8EBAMC
AQYwDQYJKoZIhvcNAQELBQADggEBAGiXLLxCpJMCQeBcIYi8Rld143LX3w2Wxluy
GVzCHOIIBd8dGkJhnXwkK1Gf3U9lBkOXYJFhQP/kJCOBNb7icQJV6ZeIqMCukJut
cozCuNsNAYlWTQtU1lbQjX+7jy1ePCvCw8vdK6ryDURTdoexzMoYyiyrGkvksRXi
AeLGQM9VczaxU8qXYngJOBOp7MGr7DItn9zED96V5rkur9l33Q92phbePE8acf5+
kmKueeiloS+jLDmHantrANa23fFCbgs+tR5xp98i+E0p4Z92an2wqXobPLjjiWzl
SEW+zIc8X/nKOht2pMsD2zsn9zJkdKCx5+HueylJG5iv8N7O+Bw=
-----END CERTIFICATE-----
