Certificate:
    Data:
        Version: 3 (0x2)
        Serial Number: 5 (0x5)
    Signature Algorithm: sha256WithRSAEncryption
        Issuer: C=US, ST=California, L=Santa Clara, O=pkg5, CN=ch4_ta1/emailAddress=ch4_ta1
        Validity
            Not Before: Nov 16 10:58:47 2017 GMT
            Not After : Aug 12 10:58:47 2020 GMT
        Subject: C=US, ST=California, L=Santa Clara, O=pkg5, CN=ch5_ta1/emailAddress=ch5_ta1
        Subject Public Key Info:
            Public Key Algorithm: rsaEncryption
                Public-Key: (2048 bit)
                Modulus:
                    00:ed:04:00:f2:7e:5b:57:78:24:58:a3:b8:67:c4:
                    bf:b2:09:11:4e:37:b1:92:61:ab:55:b5:bb:75:a2:
                    ce:ad:90:b0:69:fe:a4:71:16:5b:50:97:73:58:94:
                    77:8c:1c:b8:42:f1:fd:05:32:b2:1c:b6:34:99:26:
                    8e:32:ba:12:32:b4:c6:5b:d7:b8:e8:f3:66:32:c4:
                    fa:18:9a:97:bd:c3:d7:63:b6:14:9c:96:3f:ec:51:
                    48:d2:aa:9c:b3:b1:ad:70:a8:be:38:5a:31:91:38:
                    fa:9f:37:4f:b2:7b:66:42:44:b8:f7:2a:52:bb:32:
                    8b:3d:55:ec:8d:8e:a0:65:82:0c:23:c2:b2:93:51:
                    39:15:c9:0c:54:d2:e4:07:62:e4:9c:6f:77:d1:e8:
                    c0:6e:94:25:a3:4c:c8:e2:b1:02:31:8f:93:17:e4:
                    05:99:55:22:70:1b:df:b7:cb:46:d5:fc:e1:0f:3b:
                    8a:14:01:c8:96:09:16:e2:e4:2b:e7:a1:cc:6b:f0:
                    51:42:4c:d3:02:31:6a:86:7f:63:2a:92:12:9d:1e:
                    eb:43:83:3f:90:cd:8d:42:e4:a3:6a:df:45:c4:87:
                    32:e7:23:cd:a2:f2:01:56:3d:11:c2:b3:95:40:b1:
                    0e:25:f5:b5:0e:59:e4:a0:02:e3:3e:59:e9:13:73:
                    80:93
                Exponent: 65537 (0x10001)
        X509v3 extensions:
            X509v3 Subject Key Identifier: 
                33:41:FA:3D:0A:CF:9B:84:EC:01:1D:C7:67:B2:73:29:1C:BC:0E:71
            X509v3 Authority Key Identifier: 
                keyid:95:AF:31:EE:AD:B3:93:5F:CE:41:CE:42:A0:A5:8C:5F:7C:38:C2:81
                DirName:/C=US/ST=California/L=Santa Clara/O=pkg5/CN=ch3_ta1/emailAddress=ch3_ta1
                serial:04

            X509v3 Basic Constraints: critical
                CA:TRUE, pathlen:0
            X509v3 Key Usage: critical
                Certificate Sign, CRL Sign
    Signature Algorithm: sha256WithRSAEncryption
         1c:2b:26:5b:73:69:77:8a:0a:f7:50:17:c3:c2:39:21:ec:f9:
         0e:3c:60:27:3b:70:41:15:dc:0c:a0:45:36:fd:5e:88:2c:06:
         e4:18:c8:1f:d7:97:cd:22:83:20:02:e4:0b:3c:b4:8b:15:b0:
         3b:d6:0c:43:31:aa:9d:a9:3e:96:97:0f:7c:2d:8d:b5:2e:9e:
         ce:31:7d:b5:50:6e:5a:56:a5:5b:a4:30:3a:82:97:2a:ff:0a:
         c2:a4:32:d1:3a:c6:44:22:6f:76:31:3c:25:27:e0:e3:19:1b:
         2b:a7:2e:a8:c7:91:81:b9:83:20:c8:0e:e0:20:3a:cd:0d:cb:
         e9:0c:3a:da:1f:6b:76:e2:bf:84:fd:aa:28:b5:68:57:8c:04:
         a6:e6:fc:59:84:df:f0:07:69:a6:2d:c5:8b:2d:ad:9a:2f:f4:
         df:55:1b:9d:d0:d4:f2:6a:43:c2:07:a8:3a:b4:f7:ad:eb:b4:
         ed:3b:10:44:f9:fd:6b:89:24:58:5d:28:04:97:90:2a:d4:01:
         a1:cb:25:5e:c3:ec:f1:bf:4f:98:1d:da:03:4d:d8:3d:a8:08:
         3c:47:8d:49:b2:7a:c9:76:14:04:fa:49:70:a0:ef:d5:a6:41:
         81:14:73:f3:43:02:b3:95:b8:d8:52:36:aa:29:0a:8e:3a:9f:
         27:38:a8:a2
-----BEGIN CERTIFICATE-----
MIIEQjCCAyqgAwIBAgIBBTANBgkqhkiG9w0BAQsFADBxMQswCQYDVQQGEwJVUzET
MBEGA1UECAwKQ2FsaWZvcm5pYTEUMBIGA1UEBwwLU2FudGEgQ2xhcmExDTALBgNV
BAoMBHBrZzUxEDAOBgNVBAMMB2NoNF90YTExFjAUBgkqhkiG9w0BCQEWB2NoNF90
YTEwHhcNMTcxMTE2MTA1ODQ3WhcNMjAwODEyMTA1ODQ3WjBxMQswCQYDVQQGEwJV
UzETMBEGA1UECAwKQ2FsaWZvcm5pYTEUMBIGA1UEBwwLU2FudGEgQ2xhcmExDTAL
BgNVBAoMBHBrZzUxEDAOBgNVBAMMB2NoNV90YTExFjAUBgkqhkiG9w0BCQEWB2No
NV90YTEwggEiMA0GCSqGSIb3DQEBAQUAA4IBDwAwggEKAoIBAQDtBADyfltXeCRY
o7hnxL+yCRFON7GSYatVtbt1os6tkLBp/qRxFltQl3NYlHeMHLhC8f0FMrIctjSZ
Jo4yuhIytMZb17jo82YyxPoYmpe9w9djthSclj/sUUjSqpyzsa1wqL44WjGROPqf
N0+ye2ZCRLj3KlK7Mos9VeyNjqBlggwjwrKTUTkVyQxU0uQHYuScb3fR6MBulCWj
TMjisQIxj5MX5AWZVSJwG9+3y0bV/OEPO4oUAciWCRbi5Cvnocxr8FFCTNMCMWqG
f2MqkhKdHutDgz+QzY1C5KNq30XEhzLnI82i8gFWPRHCs5VAsQ4l9bUOWeSgAuM+
WekTc4CTAgMBAAGjgeQwgeEwHQYDVR0OBBYEFDNB+j0Kz5uE7AEdx2eycykcvA5x
MIGbBgNVHSMEgZMwgZCAFJWvMe6ts5NfzkHOQqCljF98OMKBoXWkczBxMQswCQYD
VQQGEwJVUzETMBEGA1UECAwKQ2FsaWZvcm5pYTEUMBIGA1UEBwwLU2FudGEgQ2xh
cmExDTALBgNVBAoMBHBrZzUxEDAOBgNVBAMMB2NoM190YTExFjAUBgkqhkiG9w0B
CQEWB2NoM190YTGCAQQwEgYDVR0TAQH/BAgwBgEB/wIBADAOBgNVHQ8BAf8EBAMC
AQYwDQYJKoZIhvcNAQELBQADggEBABwrJltzaXeKCvdQF8PCOSHs+Q48YCc7cEEV
3AygRTb9XogsBuQYyB/Xl80igyAC5As8tIsVsDvWDEMxqp2pPpaXD3wtjbUuns4x
fbVQblpWpVukMDqClyr/CsKkMtE6xkQib3YxPCUn4OMZGyunLqjHkYG5gyDIDuAg
Os0Ny+kMOtofa3biv4T9qii1aFeMBKbm/FmE3/AHaaYtxYstrZov9N9VG53Q1PJq
Q8IHqDq0963rtO07EET5/WuJJFhdKASXkCrUAaHLJV7D7PG/T5gd2gNN2D2oCDxH
jUmyesl2FAT6SXCg79WmQYEUc/NDArOVuNhSNqopCo46nyc4qKI=
-----END CERTIFICATE-----
