Certificate:
    Data:
        Version: 3 (0x2)
        Serial Number: 5 (0x5)
    Signature Algorithm: sha256WithRSAEncryption
        Issuer: C=US, ST=California, L=Santa Clara, O=pkg5, CN=ch4_ta1/emailAddress=ch4_ta1
        Validity
            Not Before: Dec  6 03:06:42 2014 GMT
            Not After : Sep  1 03:06:42 2017 GMT
        Subject: C=US, ST=California, L=Santa Clara, O=pkg5, CN=ch5_ta1/emailAddress=ch5_ta1
        Subject Public Key Info:
            Public Key Algorithm: rsaEncryption
                Public-Key: (1024 bit)
                Modulus:
                    00:f6:81:d8:23:5e:2f:79:92:ae:98:0a:5b:bf:4c:
                    d7:89:c8:f8:90:d0:e8:0c:ed:c5:70:a0:fc:22:42:
                    a3:7c:58:cf:52:81:17:2c:22:11:59:08:f7:f9:3d:
                    34:66:41:45:5c:c4:9b:d0:96:ad:43:ce:f4:71:54:
                    79:f6:d3:6f:2f:8a:9a:d1:e2:bc:3a:eb:d9:d9:96:
                    c6:30:ab:c6:16:e8:9f:c5:16:7d:9e:4e:48:4f:62:
                    2a:0e:2d:a7:83:e0:ac:61:47:ef:e9:23:2c:34:1d:
                    cd:ff:1a:1f:71:d9:38:39:c7:ca:4c:fa:33:a9:57:
                    92:a6:9d:8d:ac:3a:fa:f2:ff
                Exponent: 65537 (0x10001)
        X509v3 extensions:
            X509v3 Subject Key Identifier: 
                40:3F:BA:A5:24:91:2F:FF:AF:74:2A:E4:65:70:BD:08:1F:7C:AC:B0
            X509v3 Authority Key Identifier: 
                keyid:3D:B8:D0:07:CD:06:B2:96:FB:37:98:55:C0:86:60:B6:72:7C:AD:AD
                DirName:/C=US/ST=California/L=Santa Clara/O=pkg5/CN=ch3_ta1/emailAddress=ch3_ta1
                serial:04

            X509v3 Basic Constraints: critical
                CA:TRUE, pathlen:0
            X509v3 Key Usage: critical
                Certificate Sign, CRL Sign
    Signature Algorithm: sha256WithRSAEncryption
         76:28:bb:9b:fe:b4:7f:87:87:16:74:2d:8a:0b:81:57:7c:ee:
         b4:39:9e:64:7a:05:21:c1:d3:06:ae:a2:11:29:23:a0:27:9b:
         81:6f:63:f7:c0:63:bc:7d:7f:29:cf:49:b1:6c:1d:e2:50:3f:
         24:a3:b7:61:57:84:b9:2f:fc:f8:ab:6d:3e:db:f1:e9:c0:cb:
         f7:c0:d1:b3:a6:5c:b9:bf:52:dd:4b:6c:d5:12:27:ba:b5:eb:
         44:32:a9:59:13:b5:ca:99:b2:da:94:3c:47:cc:3f:48:32:b2:
         16:82:02:6d:48:42:29:3f:55:bb:cd:29:f1:09:02:aa:7f:5f:
         a5:6a
-----BEGIN CERTIFICATE-----
MIIDPTCCAqagAwIBAgIBBTANBgkqhkiG9w0BAQsFADBxMQswCQYDVQQGEwJVUzET
MBEGA1UECAwKQ2FsaWZvcm5pYTEUMBIGA1UEBwwLU2FudGEgQ2xhcmExDTALBgNV
BAoMBHBrZzUxEDAOBgNVBAMMB2NoNF90YTExFjAUBgkqhkiG9w0BCQEWB2NoNF90
YTEwHhcNMTQxMjA2MDMwNjQyWhcNMTcwOTAxMDMwNjQyWjBxMQswCQYDVQQGEwJV
UzETMBEGA1UECAwKQ2FsaWZvcm5pYTEUMBIGA1UEBwwLU2FudGEgQ2xhcmExDTAL
BgNVBAoMBHBrZzUxEDAOBgNVBAMMB2NoNV90YTExFjAUBgkqhkiG9w0BCQEWB2No
NV90YTEwgZ8wDQYJKoZIhvcNAQEBBQADgY0AMIGJAoGBAPaB2CNeL3mSrpgKW79M
14nI+JDQ6AztxXCg/CJCo3xYz1KBFywiEVkI9/k9NGZBRVzEm9CWrUPO9HFUefbT
by+KmtHivDrr2dmWxjCrxhbon8UWfZ5OSE9iKg4tp4PgrGFH7+kjLDQdzf8aH3HZ
ODnHykz6M6lXkqadjaw6+vL/AgMBAAGjgeQwgeEwHQYDVR0OBBYEFEA/uqUkkS//
r3Qq5GVwvQgffKywMIGbBgNVHSMEgZMwgZCAFD240AfNBrKW+zeYVcCGYLZyfK2t
oXWkczBxMQswCQYDVQQGEwJVUzETMBEGA1UECAwKQ2FsaWZvcm5pYTEUMBIGA1UE
BwwLU2FudGEgQ2xhcmExDTALBgNVBAoMBHBrZzUxEDAOBgNVBAMMB2NoM190YTEx
FjAUBgkqhkiG9w0BCQEWB2NoM190YTGCAQQwEgYDVR0TAQH/BAgwBgEB/wIBADAO
BgNVHQ8BAf8EBAMCAQYwDQYJKoZIhvcNAQELBQADgYEAdii7m/60f4eHFnQtiguB
V3zutDmeZHoFIcHTBq6iESkjoCebgW9j98BjvH1/Kc9JsWwd4lA/JKO3YVeEuS/8
+KttPtvx6cDL98DRs6Zcub9S3Uts1RInurXrRDKpWRO1ypmy2pQ8R8w/SDKyFoIC
bUhCKT9Vu80p8QkCqn9fpWo=
-----END CERTIFICATE-----
