Certificate:
    Data:
        Version: 3 (0x2)
        Serial Number: 5 (0x5)
        Signature Algorithm: sha256WithRSAEncryption
        Issuer: C=US, ST=California, L=Santa Clara, O=pkg5, CN=ch4_ta1/emailAddress=ch4_ta1
        Validity
            Not Before: Nov 17 23:01:28 2020 GMT
            Not After : Aug 14 23:01:28 2023 GMT
        Subject: C=US, ST=California, L=Santa Clara, O=pkg5, CN=ch5_ta1/emailAddress=ch5_ta1
        Subject Public Key Info:
            Public Key Algorithm: rsaEncryption
                RSA Public-Key: (2048 bit)
                Modulus:
                    00:c4:32:3e:0f:45:06:1b:ae:a3:a6:a3:8f:ea:f6:
                    e6:2d:26:94:15:ef:90:81:5d:97:e5:72:f5:ad:b8:
                    7e:62:5f:d7:cd:e9:26:fc:a1:d5:01:6e:64:62:3e:
                    0c:92:40:a5:2b:31:76:a8:af:72:e6:e4:d4:42:04:
                    5e:10:39:d3:ba:92:7e:f1:79:93:27:50:91:e9:b4:
                    95:20:72:89:96:c9:00:e5:85:7b:5a:fd:f6:e6:be:
                    a1:12:d8:03:20:e5:99:23:f0:75:06:21:be:ee:89:
                    80:ef:b6:72:e8:34:f9:f9:df:3a:44:60:7e:73:c9:
                    bb:fb:1a:32:97:4a:d2:6f:8d:9d:b9:1c:b0:d2:b5:
                    f0:b8:3d:1b:23:81:d2:a1:bc:3e:98:58:a0:ab:32:
                    40:5e:9d:7d:8b:76:12:f0:1c:aa:fb:44:60:46:44:
                    68:d2:94:d5:8c:e9:c4:52:37:b2:78:aa:c5:95:17:
                    10:e5:ea:0a:11:46:61:c7:00:70:3d:a2:37:5d:3d:
                    bc:5a:78:74:99:6b:0f:fd:ec:1c:cb:1a:e4:b7:9f:
                    b8:95:9e:74:ad:2d:bb:69:70:2b:23:45:7b:ff:20:
                    ff:84:b1:28:16:4d:e8:15:83:f7:6e:85:fe:32:eb:
                    98:93:d2:60:7c:65:96:74:82:83:dd:22:b4:c0:82:
                    ed:43
                Exponent: 65537 (0x10001)
        X509v3 extensions:
            X509v3 Subject Key Identifier: 
                7F:6B:D1:F5:04:A5:18:E2:04:13:AC:F0:85:28:30:1E:44:B9:AD:B9
            X509v3 Authority Key Identifier: 
                keyid:B6:F5:BE:AE:52:6B:18:6B:33:67:6D:06:29:24:AD:20:CC:84:60:E0
                DirName:/C=US/ST=California/L=Santa Clara/O=pkg5/CN=ch3_ta1/emailAddress=ch3_ta1
                serial:04

            X509v3 Basic Constraints: critical
                CA:TRUE, pathlen:0
            X509v3 Key Usage: critical
                Certificate Sign, CRL Sign
    Signature Algorithm: sha256WithRSAEncryption
         16:c8:0a:06:18:4e:48:32:b7:a3:df:7f:29:c3:84:c1:2b:a3:
         ab:54:72:8d:dd:58:76:73:2d:2a:9d:c8:58:ed:12:68:fd:88:
         33:9d:90:b8:6e:5e:8a:4c:82:bd:c0:72:55:da:a8:0f:d8:5f:
         c3:43:ea:0f:5d:df:91:9e:10:11:b8:ed:9e:74:0d:86:f6:7c:
         a9:00:5a:23:9e:cc:8b:e0:0c:af:4b:58:39:1a:b2:ff:d8:1c:
         35:08:f7:73:62:cc:c6:b8:93:d3:c9:c7:cd:35:3a:a6:87:8c:
         a6:da:be:91:4c:c4:58:76:35:b8:d2:14:0c:a5:b4:9c:19:b8:
         f2:6b:71:33:67:67:e8:c8:5b:23:db:27:d2:3d:73:ca:ca:71:
         5e:3e:f2:14:82:19:bd:8c:cd:c4:6f:01:ec:5f:48:c9:77:2b:
         40:3a:2b:30:7d:82:41:71:83:31:cf:aa:6b:9a:2b:c8:ec:5a:
         38:88:bf:b2:bc:06:7b:a4:d3:5e:68:53:a6:49:ce:9d:d2:52:
         f4:ca:71:42:cb:62:39:42:72:e3:0f:ff:36:e8:15:2a:a7:83:
         8a:8c:ad:94:82:56:2e:b6:70:ed:34:d6:9d:bc:51:d8:d9:d0:
         13:c8:fa:c4:ae:fb:ca:14:25:8e:f8:e8:ad:15:6b:4e:37:fa:
         01:50:1b:1a
-----BEGIN CERTIFICATE-----
MIIEQjCCAyqgAwIBAgIBBTANBgkqhkiG9w0BAQsFADBxMQswCQYDVQQGEwJVUzET
MBEGA1UECAwKQ2FsaWZvcm5pYTEUMBIGA1UEBwwLU2FudGEgQ2xhcmExDTALBgNV
BAoMBHBrZzUxEDAOBgNVBAMMB2NoNF90YTExFjAUBgkqhkiG9w0BCQEWB2NoNF90
YTEwHhcNMjAxMTE3MjMwMTI4WhcNMjMwODE0MjMwMTI4WjBxMQswCQYDVQQGEwJV
UzETMBEGA1UECAwKQ2FsaWZvcm5pYTEUMBIGA1UEBwwLU2FudGEgQ2xhcmExDTAL
BgNVBAoMBHBrZzUxEDAOBgNVBAMMB2NoNV90YTExFjAUBgkqhkiG9w0BCQEWB2No
NV90YTEwggEiMA0GCSqGSIb3DQEBAQUAA4IBDwAwggEKAoIBAQDEMj4PRQYbrqOm
o4/q9uYtJpQV75CBXZflcvWtuH5iX9fN6Sb8odUBbmRiPgySQKUrMXaor3Lm5NRC
BF4QOdO6kn7xeZMnUJHptJUgcomWyQDlhXta/fbmvqES2AMg5Zkj8HUGIb7uiYDv
tnLoNPn53zpEYH5zybv7GjKXStJvjZ25HLDStfC4PRsjgdKhvD6YWKCrMkBenX2L
dhLwHKr7RGBGRGjSlNWM6cRSN7J4qsWVFxDl6goRRmHHAHA9ojddPbxaeHSZaw/9
7BzLGuS3n7iVnnStLbtpcCsjRXv/IP+EsSgWTegVg/duhf4y65iT0mB8ZZZ0goPd
IrTAgu1DAgMBAAGjgeQwgeEwHQYDVR0OBBYEFH9r0fUEpRjiBBOs8IUoMB5Eua25
MIGbBgNVHSMEgZMwgZCAFLb1vq5SaxhrM2dtBikkrSDMhGDgoXWkczBxMQswCQYD
VQQGEwJVUzETMBEGA1UECAwKQ2FsaWZvcm5pYTEUMBIGA1UEBwwLU2FudGEgQ2xh
cmExDTALBgNVBAoMBHBrZzUxEDAOBgNVBAMMB2NoM190YTExFjAUBgkqhkiG9w0B
CQEWB2NoM190YTGCAQQwEgYDVR0TAQH/BAgwBgEB/wIBADAOBgNVHQ8BAf8EBAMC
AQYwDQYJKoZIhvcNAQELBQADggEBABbICgYYTkgyt6PffynDhMEro6tUco3dWHZz
LSqdyFjtEmj9iDOdkLhuXopMgr3AclXaqA/YX8ND6g9d35GeEBG47Z50DYb2fKkA
WiOezIvgDK9LWDkasv/YHDUI93NizMa4k9PJx801OqaHjKbavpFMxFh2NbjSFAyl
tJwZuPJrcTNnZ+jIWyPbJ9I9c8rKcV4+8hSCGb2MzcRvAexfSMl3K0A6KzB9gkFx
gzHPqmuaK8jsWjiIv7K8Bnuk015oU6ZJzp3SUvTKcULLYjlCcuMP/zboFSqng4qM
rZSCVi62cO001p28UdjZ0BPI+sSu+8oUJY746K0Va043+gFQGxo=
-----END CERTIFICATE-----
