Certificate:
    Data:
        Version: 3 (0x2)
        Serial Number: 8 (0x8)
        Signature Algorithm: sha256WithRSAEncryption
        Issuer: C=US, ST=California, L=Santa Clara, O=pkg5, CN=ch4_ta1/emailAddress=ch4_ta1
        Validity
            Not Before: Nov 14 14:26:52 2024 GMT
            Not After : Aug 11 14:26:52 2027 GMT
        Subject: C=US, ST=California, L=Santa Clara, O=pkg5, CN=ch5.1_ta1/emailAddress=ch5.1_ta1
        Subject Public Key Info:
            Public Key Algorithm: rsaEncryption
                Public-Key: (2048 bit)
                Modulus:
                    00:c6:61:c4:7f:8f:36:a5:cb:9b:cd:7e:e4:57:d9:
                    55:7c:16:0c:c7:7b:a0:d4:29:fc:97:a7:8d:48:94:
                    bc:a0:35:fd:a1:08:7a:9a:8e:93:fd:eb:03:d7:22:
                    c1:77:07:f5:36:5a:36:41:86:2f:41:53:a9:96:ff:
                    c7:b3:ce:ab:cb:f1:1e:68:c2:67:02:21:70:43:61:
                    97:53:42:c2:8e:cb:09:d7:61:05:0b:63:83:94:2e:
                    c2:8b:01:cf:dc:d1:20:b0:a4:b7:2e:5e:a6:a8:1c:
                    3e:c8:12:d3:a1:fc:74:9c:29:eb:e5:22:8b:38:0f:
                    47:c2:fc:de:99:f3:8c:da:2f:e2:32:71:6d:7b:8e:
                    67:61:df:32:1c:92:a8:b9:01:ee:c0:f5:20:82:8d:
                    e6:08:27:57:af:01:86:87:a6:9a:f9:39:2e:71:2a:
                    a3:75:2c:02:8d:77:a0:18:b4:b6:a4:2c:99:4f:4a:
                    4c:1f:bd:f0:47:ef:50:6d:d7:c4:02:2f:41:38:c5:
                    6a:0c:10:34:b0:3e:cc:93:52:c1:c7:a0:ea:f3:22:
                    82:8e:c4:ad:d0:2c:46:ba:bc:98:66:3f:fa:ad:54:
                    a0:ba:19:18:b2:52:8b:cd:74:64:40:e3:bf:06:60:
                    66:c7:e5:b0:14:38:d4:fc:96:e3:c3:68:c8:77:f5:
                    e9:1d
                Exponent: 65537 (0x10001)
        X509v3 extensions:
            X509v3 Basic Constraints: critical
                CA:TRUE
            X509v3 Subject Alternative Name: 
                email:ch5.1_ta1
            X509v3 Issuer Alternative Name: critical
                email:ca
            X509v3 Subject Key Identifier: 
                98:85:B2:1D:27:3C:A5:E9:14:A2:47:C9:86:47:28:5E:E7:BE:D2:E9
            X509v3 Authority Key Identifier: 
                16:B2:AA:05:84:89:41:E5:7C:FA:3D:A3:F4:20:3A:23:36:A9:95:08
    Signature Algorithm: sha256WithRSAEncryption
    Signature Value:
        26:b6:36:48:c6:df:c6:35:b4:f5:1d:11:eb:c1:83:de:9f:a5:
        90:2a:19:00:0d:a0:af:b8:a8:32:0e:3f:23:71:1d:38:b0:c7:
        1f:c4:dc:ca:c3:7c:47:64:d7:6b:fe:c5:40:98:c7:ac:5b:42:
        ca:64:c6:8b:5d:7f:22:d5:ad:3f:f2:5b:16:fd:c0:a5:34:cc:
        53:08:30:bb:f9:77:00:63:7d:93:5f:99:0e:60:42:1c:82:fc:
        de:f9:07:ff:07:46:29:c0:8b:3e:0c:27:b6:98:a1:28:9d:a1:
        57:71:b1:b5:a9:a3:da:43:92:80:d5:04:cf:0d:39:c7:56:3a:
        2a:4c:e0:d1:ce:60:b0:44:ca:ca:c5:ec:5c:8b:ea:eb:1c:b7:
        90:11:ad:aa:7b:8b:9c:7d:2b:27:e2:32:bc:05:f5:f6:4b:f3:
        de:b7:17:08:ea:c7:4a:62:d2:37:05:5f:55:aa:aa:8d:fe:3a:
        3f:bc:9a:61:fa:e8:9f:42:22:1f:21:c6:72:35:2d:29:6b:26:
        7e:ce:3a:bf:8c:96:7f:8b:4f:6a:1a:90:61:a4:db:1b:19:8b:
        23:29:c2:2b:c4:84:75:36:e6:bc:32:79:77:d6:b8:b7:68:e2:
        b7:de:35:8d:44:f5:c0:e5:82:02:ef:9e:87:1d:65:fd:12:89:
        25:17:ad:bd
-----BEGIN CERTIFICATE-----
MIID3DCCAsSgAwIBAgIBCDANBgkqhkiG9w0BAQsFADBxMQswCQYDVQQGEwJVUzET
MBEGA1UECAwKQ2FsaWZvcm5pYTEUMBIGA1UEBwwLU2FudGEgQ2xhcmExDTALBgNV
BAoMBHBrZzUxEDAOBgNVBAMMB2NoNF90YTExFjAUBgkqhkiG9w0BCQEWB2NoNF90
YTEwHhcNMjQxMTE0MTQyNjUyWhcNMjcwODExMTQyNjUyWjB1MQswCQYDVQQGEwJV
UzETMBEGA1UECAwKQ2FsaWZvcm5pYTEUMBIGA1UEBwwLU2FudGEgQ2xhcmExDTAL
BgNVBAoMBHBrZzUxEjAQBgNVBAMMCWNoNS4xX3RhMTEYMBYGCSqGSIb3DQEJARYJ
Y2g1LjFfdGExMIIBIjANBgkqhkiG9w0BAQEFAAOCAQ8AMIIBCgKCAQEAxmHEf482
pcubzX7kV9lVfBYMx3ug1Cn8l6eNSJS8oDX9oQh6mo6T/esD1yLBdwf1Nlo2QYYv
QVOplv/Hs86ry/EeaMJnAiFwQ2GXU0LCjssJ12EFC2ODlC7CiwHP3NEgsKS3Ll6m
qBw+yBLTofx0nCnr5SKLOA9HwvzemfOM2i/iMnFte45nYd8yHJKouQHuwPUggo3m
CCdXrwGGh6aa+TkucSqjdSwCjXegGLS2pCyZT0pMH73wR+9QbdfEAi9BOMVqDBA0
sD7Mk1LBx6Dq8yKCjsSt0CxGuryYZj/6rVSguhkYslKLzXRkQOO/BmBmx+WwFDjU
/Jbjw2jId/XpHQIDAQABo3sweTAPBgNVHRMBAf8EBTADAQH/MBQGA1UdEQQNMAuB
CWNoNS4xX3RhMTAQBgNVHRIBAf8EBjAEgQJjYTAdBgNVHQ4EFgQUmIWyHSc8pekU
okfJhkcoXue+0ukwHwYDVR0jBBgwFoAUFrKqBYSJQeV8+j2j9CA6IzaplQgwDQYJ
KoZIhvcNAQELBQADggEBACa2NkjG38Y1tPUdEevBg96fpZAqGQANoK+4qDIOPyNx
HTiwxx/E3MrDfEdk12v+xUCYx6xbQspkxotdfyLVrT/yWxb9wKU0zFMIMLv5dwBj
fZNfmQ5gQhyC/N75B/8HRinAiz4MJ7aYoSidoVdxsbWpo9pDkoDVBM8NOcdWOipM
4NHOYLBEysrF7FyL6usct5ARrap7i5x9KyfiMrwF9fZL8963Fwjqx0pi0jcFX1Wq
qo3+Oj+8mmH66J9CIh8hxnI1LSlrJn7OOr+Mln+LT2oakGGk2xsZiyMpwivEhHU2
5rwyeXfWuLdo4rfeNY1E9cDlggLvnocdZf0SiSUXrb0=
-----END CERTIFICATE-----
