Certificate:
    Data:
        Version: 3 (0x2)
        Serial Number: 8 (0x8)
    Signature Algorithm: sha256WithRSAEncryption
        Issuer: C=US, ST=California, L=Santa Clara, O=pkg5, CN=ch4_ta1/emailAddress=ch4_ta1
        Validity
            Not Before: Mar 20 10:20:52 2018 GMT
            Not After : Dec 14 10:20:52 2020 GMT
        Subject: C=US, ST=California, L=Santa Clara, O=pkg5, CN=ch5.1_ta1/emailAddress=ch5.1_ta1
        Subject Public Key Info:
            Public Key Algorithm: rsaEncryption
                Public-Key: (2048 bit)
                Modulus:
                    00:d8:64:2a:61:a0:87:20:88:5c:09:6c:7c:25:c3:
                    6c:9d:63:ff:ca:e4:5a:28:ec:87:f8:7c:0f:6b:ad:
                    fb:e8:a7:56:fc:80:6a:60:85:70:c2:5a:1b:00:0b:
                    4a:72:7e:0f:17:6a:08:c6:44:0d:06:a9:ed:53:e2:
                    98:68:89:95:51:45:f4:a4:16:bc:83:67:c9:e1:86:
                    a2:19:30:96:43:a1:4f:97:f9:59:e0:a3:bd:d4:7e:
                    ea:bf:91:76:44:21:94:6f:a7:fc:bc:ae:3e:cf:a4:
                    76:07:a1:f8:67:9a:7d:b5:6e:08:40:9d:46:55:28:
                    9f:89:a3:b0:a8:1b:5d:20:c4:66:e7:b9:8d:bc:ed:
                    59:a4:3d:e0:ed:44:42:15:49:81:2a:3e:f2:76:b8:
                    6f:24:20:55:17:f9:fa:aa:c7:26:2e:7f:99:85:8d:
                    09:ad:b8:cf:f4:93:d2:64:f4:07:ba:f6:d8:dc:76:
                    2b:e5:15:95:39:da:8d:80:10:74:42:11:fd:e5:28:
                    51:57:11:45:7c:49:e3:e5:2a:27:7a:a8:0e:bf:0b:
                    3b:89:a9:c0:12:64:90:dd:aa:7e:18:7f:db:23:fa:
                    c9:3b:8f:82:eb:40:4c:a6:e1:6b:5d:38:61:3f:6e:
                    6d:e8:cd:41:3c:93:bc:c3:a0:b1:2a:e7:68:9d:35:
                    2c:61
                Exponent: 65537 (0x10001)
        X509v3 extensions:
            X509v3 Basic Constraints: critical
                CA:TRUE
            X509v3 Subject Alternative Name: 
                email:ch5.1_ta1
            X509v3 Issuer Alternative Name: critical
                email:ca
    Signature Algorithm: sha256WithRSAEncryption
         21:db:aa:3c:1f:56:2d:59:f5:2e:70:f8:ea:8c:2b:20:ce:47:
         b9:3a:50:97:8a:a2:b8:f7:4b:23:18:be:9f:8e:b7:83:f8:7e:
         b6:e4:82:bc:ec:e4:e9:5c:f9:04:6d:1e:c1:5c:8e:7e:bd:42:
         e8:dd:05:25:2e:7b:06:2a:63:6c:2f:61:a3:f2:71:bb:fe:28:
         19:09:02:d5:f2:3f:13:7d:0b:2b:3f:f4:8d:94:40:7a:3f:9a:
         af:53:af:a6:13:2c:61:4d:99:bc:fc:e2:57:cf:49:23:1e:f2:
         a2:d0:cc:6b:34:d9:41:96:4c:d3:3c:62:f5:83:28:45:6e:d1:
         3b:72:3b:45:8b:f5:39:c2:16:a1:fe:8f:ed:f2:6a:f5:47:cd:
         43:f2:40:1e:7b:c6:f8:b1:85:96:22:65:5a:ec:9e:4c:77:81:
         5c:e3:62:99:16:ee:89:a0:89:5b:73:84:12:ad:cd:1f:39:76:
         c2:7f:94:d6:5b:1b:f1:45:68:2b:7f:6f:71:96:ca:ff:10:44:
         2f:5d:6c:c7:eb:94:c7:ed:0e:06:6a:9d:23:54:65:00:27:30:
         50:67:5a:dd:b7:6b:ec:0b:64:f6:ff:df:97:57:6b:4b:78:6a:
         6a:65:92:96:58:e5:e5:a8:20:e0:93:c7:57:07:8d:b5:d4:ea:
         81:c3:61:3b
-----BEGIN CERTIFICATE-----
MIIDnDCCAoSgAwIBAgIBCDANBgkqhkiG9w0BAQsFADBxMQswCQYDVQQGEwJVUzET
MBEGA1UECAwKQ2FsaWZvcm5pYTEUMBIGA1UEBwwLU2FudGEgQ2xhcmExDTALBgNV
BAoMBHBrZzUxEDAOBgNVBAMMB2NoNF90YTExFjAUBgkqhkiG9w0BCQEWB2NoNF90
YTEwHhcNMTgwMzIwMTAyMDUyWhcNMjAxMjE0MTAyMDUyWjB1MQswCQYDVQQGEwJV
UzETMBEGA1UECAwKQ2FsaWZvcm5pYTEUMBIGA1UEBwwLU2FudGEgQ2xhcmExDTAL
BgNVBAoMBHBrZzUxEjAQBgNVBAMMCWNoNS4xX3RhMTEYMBYGCSqGSIb3DQEJARYJ
Y2g1LjFfdGExMIIBIjANBgkqhkiG9w0BAQEFAAOCAQ8AMIIBCgKCAQEA2GQqYaCH
IIhcCWx8JcNsnWP/yuRaKOyH+HwPa6376KdW/IBqYIVwwlobAAtKcn4PF2oIxkQN
BqntU+KYaImVUUX0pBa8g2fJ4YaiGTCWQ6FPl/lZ4KO91H7qv5F2RCGUb6f8vK4+
z6R2B6H4Z5p9tW4IQJ1GVSifiaOwqBtdIMRm57mNvO1ZpD3g7URCFUmBKj7ydrhv
JCBVF/n6qscmLn+ZhY0JrbjP9JPSZPQHuvbY3HYr5RWVOdqNgBB0QhH95ShRVxFF
fEnj5SoneqgOvws7ianAEmSQ3ap+GH/bI/rJO4+C60BMpuFrXThhP25t6M1BPJO8
w6CxKudonTUsYQIDAQABozswOTAPBgNVHRMBAf8EBTADAQH/MBQGA1UdEQQNMAuB
CWNoNS4xX3RhMTAQBgNVHRIBAf8EBjAEgQJjYTANBgkqhkiG9w0BAQsFAAOCAQEA
IduqPB9WLVn1LnD46owrIM5HuTpQl4qiuPdLIxi+n463g/h+tuSCvOzk6Vz5BG0e
wVyOfr1C6N0FJS57BipjbC9ho/Jxu/4oGQkC1fI/E30LKz/0jZRAej+ar1OvphMs
YU2ZvPziV89JIx7yotDMazTZQZZM0zxi9YMoRW7RO3I7RYv1OcIWof6P7fJq9UfN
Q/JAHnvG+LGFliJlWuyeTHeBXONimRbuiaCJW3OEEq3NHzl2wn+U1lsb8UVoK39v
cZbK/xBEL11sx+uUx+0OBmqdI1RlACcwUGda3bdr7Atk9v/fl1drS3hqamWSlljl
5agg4JPHVweNtdTqgcNhOw==
-----END CERTIFICATE-----
