Certificate:
    Data:
        Version: 3 (0x2)
        Serial Number: 8 (0x8)
        Signature Algorithm: sha256WithRSAEncryption
        Issuer: C=US, ST=California, L=Santa Clara, O=pkg5, CN=ch4_ta1/emailAddress=ch4_ta1
        Validity
            Not Before: Oct 24 21:43:01 2023 GMT
            Not After : Jul 20 21:43:01 2026 GMT
        Subject: C=US, ST=California, L=Santa Clara, O=pkg5, CN=ch5.1_ta1/emailAddress=ch5.1_ta1
        Subject Public Key Info:
            Public Key Algorithm: rsaEncryption
                Public-Key: (2048 bit)
                Modulus:
                    00:c5:af:b6:98:30:11:71:fc:ca:16:0e:34:cb:e1:
                    d6:08:c4:1d:95:fe:a9:b1:11:83:cd:63:a7:26:e2:
                    a3:f4:5c:94:eb:44:cf:d7:1e:fb:25:46:26:cd:ec:
                    19:cb:7a:f1:55:79:7a:fd:01:bf:df:45:7a:47:1d:
                    ae:e4:f6:23:74:ef:ea:77:54:43:d1:86:f5:ba:f1:
                    e6:ad:37:3d:d4:e7:7b:b1:44:07:e1:09:65:62:2c:
                    3b:58:36:cb:52:0e:9d:96:fd:d0:bf:3b:b4:a9:f3:
                    e5:96:8b:ad:b9:bf:a8:ee:5e:dd:54:8c:4f:2a:13:
                    86:6d:56:11:dc:c4:e5:87:04:07:b4:a8:38:6b:5f:
                    1c:74:00:89:6d:ea:39:44:95:79:99:31:8b:10:51:
                    0d:13:c1:df:ef:75:42:1c:6c:4f:7a:3a:df:bc:86:
                    99:f6:1a:82:fd:ba:ea:29:27:39:f1:71:ee:eb:25:
                    9b:ae:c7:2b:a6:71:18:b6:ce:c0:66:1b:b9:a0:98:
                    2b:ae:71:39:57:99:4b:de:92:cd:46:20:47:7f:ff:
                    97:bb:9f:11:c9:42:2a:c4:11:aa:46:54:77:03:da:
                    2a:a8:02:dd:24:46:a4:64:95:57:c4:85:e4:a9:51:
                    9d:99:59:55:5d:4c:1b:03:7d:38:61:b0:37:cd:92:
                    ee:c5
                Exponent: 65537 (0x10001)
        X509v3 extensions:
            X509v3 Basic Constraints: critical
                CA:TRUE
            X509v3 Subject Alternative Name: 
                email:ch5.1_ta1
            X509v3 Issuer Alternative Name: critical
                email:ca
            X509v3 Subject Key Identifier: 
                3C:6C:2E:2F:F4:FF:4B:C1:6A:87:7B:13:9D:93:D3:CF:5E:54:00:7E
            X509v3 Authority Key Identifier: 
                F0:C5:5C:7D:97:FB:05:C7:4A:9D:A4:6A:53:4D:B4:1F:3D:6D:AB:0F
    Signature Algorithm: sha256WithRSAEncryption
    Signature Value:
        1a:d3:ff:e6:fa:37:f2:76:29:f0:2e:85:7b:28:a7:bf:32:72:
        38:68:59:cb:96:4b:8f:bd:62:9f:f2:04:de:98:6d:65:c7:8d:
        f6:13:c4:48:de:61:69:76:1a:23:c7:31:a3:5a:94:f5:6d:b9:
        66:09:e0:f8:dc:d1:7b:66:3a:bf:7a:99:9a:9b:17:2e:be:4e:
        96:e0:71:de:53:7a:2b:31:3d:a3:93:64:e9:e3:93:c7:20:c7:
        03:b7:85:14:9a:7b:24:a6:6d:e4:d8:3a:05:ba:89:af:b4:b2:
        e9:30:6e:41:f9:7f:c9:75:7b:ae:fd:0f:90:a3:2e:0a:22:7f:
        3b:60:f3:ad:8b:c9:f3:b0:fa:f8:4a:27:3d:a6:89:25:48:96:
        0c:c2:b6:ba:22:ce:a5:28:dd:cf:0c:3e:d6:0f:15:55:08:0f:
        1a:32:71:53:b1:84:9f:21:d6:2d:f5:04:c8:bc:d3:3a:f5:13:
        4a:95:36:6e:2e:49:12:59:3d:13:ca:68:49:e8:40:35:53:93:
        b4:64:da:5b:b1:ee:26:d3:97:33:a3:24:aa:64:a6:ed:c5:3d:
        86:11:82:58:ad:31:b8:2f:1d:7e:15:fb:8d:79:83:43:77:09:
        95:9a:e7:ef:d7:50:3b:a5:44:7d:40:00:f9:68:11:ab:d3:17:
        29:03:a7:24
-----BEGIN CERTIFICATE-----
MIID3DCCAsSgAwIBAgIBCDANBgkqhkiG9w0BAQsFADBxMQswCQYDVQQGEwJVUzET
MBEGA1UECAwKQ2FsaWZvcm5pYTEUMBIGA1UEBwwLU2FudGEgQ2xhcmExDTALBgNV
BAoMBHBrZzUxEDAOBgNVBAMMB2NoNF90YTExFjAUBgkqhkiG9w0BCQEWB2NoNF90
YTEwHhcNMjMxMDI0MjE0MzAxWhcNMjYwNzIwMjE0MzAxWjB1MQswCQYDVQQGEwJV
UzETMBEGA1UECAwKQ2FsaWZvcm5pYTEUMBIGA1UEBwwLU2FudGEgQ2xhcmExDTAL
BgNVBAoMBHBrZzUxEjAQBgNVBAMMCWNoNS4xX3RhMTEYMBYGCSqGSIb3DQEJARYJ
Y2g1LjFfdGExMIIBIjANBgkqhkiG9w0BAQEFAAOCAQ8AMIIBCgKCAQEAxa+2mDAR
cfzKFg40y+HWCMQdlf6psRGDzWOnJuKj9FyU60TP1x77JUYmzewZy3rxVXl6/QG/
30V6Rx2u5PYjdO/qd1RD0Yb1uvHmrTc91Od7sUQH4QllYiw7WDbLUg6dlv3Qvzu0
qfPlloutub+o7l7dVIxPKhOGbVYR3MTlhwQHtKg4a18cdACJbeo5RJV5mTGLEFEN
E8Hf73VCHGxPejrfvIaZ9hqC/brqKSc58XHu6yWbrscrpnEYts7AZhu5oJgrrnE5
V5lL3pLNRiBHf/+Xu58RyUIqxBGqRlR3A9oqqALdJEakZJVXxIXkqVGdmVlVXUwb
A304YbA3zZLuxQIDAQABo3sweTAPBgNVHRMBAf8EBTADAQH/MBQGA1UdEQQNMAuB
CWNoNS4xX3RhMTAQBgNVHRIBAf8EBjAEgQJjYTAdBgNVHQ4EFgQUPGwuL/T/S8Fq
h3sTnZPTz15UAH4wHwYDVR0jBBgwFoAU8MVcfZf7BcdKnaRqU020Hz1tqw8wDQYJ
KoZIhvcNAQELBQADggEBABrT/+b6N/J2KfAuhXsop78ycjhoWcuWS4+9Yp/yBN6Y
bWXHjfYTxEjeYWl2GiPHMaNalPVtuWYJ4Pjc0XtmOr96mZqbFy6+Tpbgcd5Teisx
PaOTZOnjk8cgxwO3hRSaeySmbeTYOgW6ia+0sukwbkH5f8l1e679D5CjLgoifztg
862LyfOw+vhKJz2miSVIlgzCtroizqUo3c8MPtYPFVUIDxoycVOxhJ8h1i31BMi8
0zr1E0qVNm4uSRJZPRPKaEnoQDVTk7Rk2lux7ibTlzOjJKpkpu3FPYYRglitMbgv
HX4V+415g0N3CZWa5+/XUDulRH1AAPloEavTFykDpyQ=
-----END CERTIFICATE-----
