Certificate:
    Data:
        Version: 3 (0x2)
        Serial Number: 8 (0x8)
        Signature Algorithm: sha256WithRSAEncryption
        Issuer: C=US, ST=California, L=Santa Clara, O=pkg5, CN=ch4_ta1/emailAddress=ch4_ta1
        Validity
            Not Before: May 23 15:47:15 2024 GMT
            Not After : Feb 17 15:47:15 2027 GMT
        Subject: C=US, ST=California, L=Santa Clara, O=pkg5, CN=ch5.1_ta1/emailAddress=ch5.1_ta1
        Subject Public Key Info:
            Public Key Algorithm: rsaEncryption
                Public-Key: (2048 bit)
                Modulus:
                    00:a6:d9:63:36:ca:07:8e:5b:26:d8:03:d5:f2:15:
                    50:39:53:8c:e4:71:f9:fa:95:4e:6c:43:e6:66:3c:
                    b9:42:a5:5f:6e:e1:19:74:c0:5d:15:16:f1:5a:b2:
                    2b:64:e8:8e:56:e0:c9:95:5e:31:cb:f2:3b:0a:6c:
                    5a:0a:99:af:ff:f0:a0:31:22:6e:dc:82:50:72:27:
                    e6:01:b5:2c:37:07:e2:97:c6:ab:fd:5d:fa:c9:21:
                    09:e1:1f:3e:d9:5e:99:86:e2:62:43:ec:76:91:7f:
                    03:18:96:db:e9:a9:33:0c:10:03:88:d3:bf:83:6e:
                    29:1c:4b:93:ed:2d:4c:f7:5c:ac:4a:00:51:49:31:
                    3b:bb:14:46:de:cb:a1:a5:fb:ad:17:9e:21:03:d4:
                    2b:53:a5:cb:be:de:ae:9a:ca:38:a9:fe:b1:9f:81:
                    10:94:c7:72:f8:93:19:1a:60:f9:2b:44:cc:55:a0:
                    98:8b:8e:4b:97:3b:70:05:a7:96:04:fc:1b:9f:b9:
                    03:f3:26:68:86:4f:f7:e8:5a:7d:05:9c:08:4d:21:
                    24:ff:f2:e0:df:11:00:5d:3c:ce:75:8a:22:af:53:
                    09:af:65:8b:f6:ba:72:0c:31:f4:6f:b0:1d:5a:35:
                    1b:d3:73:50:9e:00:aa:37:4f:7a:96:84:83:ed:9e:
                    eb:7f
                Exponent: 65537 (0x10001)
        X509v3 extensions:
            X509v3 Basic Constraints: critical
                CA:TRUE
            X509v3 Subject Alternative Name: 
                email:ch5.1_ta1
            X509v3 Issuer Alternative Name: critical
                email:ca
            X509v3 Subject Key Identifier: 
                D7:FA:53:00:34:53:12:16:B0:4A:EA:28:E0:72:1F:B0:78:5D:BF:55
            X509v3 Authority Key Identifier: 
                1C:96:5D:FB:1E:AC:9E:96:15:A9:9B:0C:60:02:ED:CB:4F:29:D7:DC
    Signature Algorithm: sha256WithRSAEncryption
    Signature Value:
        8f:39:9a:a3:9d:6e:a6:22:74:85:db:d6:44:fa:9a:82:b8:a4:
        8a:62:4f:60:d3:dc:0f:ad:b4:e9:00:1c:8a:06:35:2b:15:92:
        cf:93:71:ff:17:b6:c8:17:bf:13:75:6a:46:55:ab:e1:6f:9c:
        50:3f:61:5c:99:2f:7f:30:bb:56:d8:e6:b7:ae:57:9b:dc:f4:
        d3:fd:59:93:92:81:df:da:2b:96:5b:7b:d5:43:3b:55:ab:1d:
        1f:14:3f:49:c0:07:62:22:1e:4f:aa:d9:57:b3:08:4f:af:3b:
        66:ba:9c:6b:b8:77:cb:c7:10:d9:b6:b3:2a:30:19:74:7d:99:
        b4:aa:da:42:c8:82:7e:76:d9:ed:67:8d:18:4c:e3:99:1b:58:
        e8:27:b7:af:be:cd:e6:1d:a6:f8:c8:fe:7a:20:67:ad:b5:92:
        2f:b5:d9:58:87:2d:93:c2:c4:8e:6e:9b:4a:7b:14:76:bb:8a:
        b2:2f:9f:be:52:ad:ef:ba:34:34:7e:7a:b9:ad:7f:20:a5:41:
        72:13:2a:f0:12:98:a3:e6:74:db:28:84:56:b4:e2:a1:98:4c:
        c2:12:e9:ea:76:19:a8:44:64:82:a2:d2:55:c6:f1:33:e6:f5:
        0f:4f:c1:07:bf:7f:4b:89:43:0d:d7:f8:aa:c3:02:f4:ad:48:
        e2:0b:b8:56
-----BEGIN CERTIFICATE-----
MIID3DCCAsSgAwIBAgIBCDANBgkqhkiG9w0BAQsFADBxMQswCQYDVQQGEwJVUzET
MBEGA1UECAwKQ2FsaWZvcm5pYTEUMBIGA1UEBwwLU2FudGEgQ2xhcmExDTALBgNV
BAoMBHBrZzUxEDAOBgNVBAMMB2NoNF90YTExFjAUBgkqhkiG9w0BCQEWB2NoNF90
YTEwHhcNMjQwNTIzMTU0NzE1WhcNMjcwMjE3MTU0NzE1WjB1MQswCQYDVQQGEwJV
UzETMBEGA1UECAwKQ2FsaWZvcm5pYTEUMBIGA1UEBwwLU2FudGEgQ2xhcmExDTAL
BgNVBAoMBHBrZzUxEjAQBgNVBAMMCWNoNS4xX3RhMTEYMBYGCSqGSIb3DQEJARYJ
Y2g1LjFfdGExMIIBIjANBgkqhkiG9w0BAQEFAAOCAQ8AMIIBCgKCAQEAptljNsoH
jlsm2APV8hVQOVOM5HH5+pVObEPmZjy5QqVfbuEZdMBdFRbxWrIrZOiOVuDJlV4x
y/I7CmxaCpmv//CgMSJu3IJQcifmAbUsNwfil8ar/V36ySEJ4R8+2V6ZhuJiQ+x2
kX8DGJbb6akzDBADiNO/g24pHEuT7S1M91ysSgBRSTE7uxRG3suhpfutF54hA9Qr
U6XLvt6umso4qf6xn4EQlMdy+JMZGmD5K0TMVaCYi45LlztwBaeWBPwbn7kD8yZo
hk/36Fp9BZwITSEk//Lg3xEAXTzOdYoir1MJr2WL9rpyDDH0b7AdWjUb03NQngCq
N096loSD7Z7rfwIDAQABo3sweTAPBgNVHRMBAf8EBTADAQH/MBQGA1UdEQQNMAuB
CWNoNS4xX3RhMTAQBgNVHRIBAf8EBjAEgQJjYTAdBgNVHQ4EFgQU1/pTADRTEhaw
Suoo4HIfsHhdv1UwHwYDVR0jBBgwFoAUHJZd+x6snpYVqZsMYALty08p19wwDQYJ
KoZIhvcNAQELBQADggEBAI85mqOdbqYidIXb1kT6moK4pIpiT2DT3A+ttOkAHIoG
NSsVks+Tcf8XtsgXvxN1akZVq+FvnFA/YVyZL38wu1bY5reuV5vc9NP9WZOSgd/a
K5Zbe9VDO1WrHR8UP0nAB2IiHk+q2VezCE+vO2a6nGu4d8vHENm2syowGXR9mbSq
2kLIgn522e1njRhM45kbWOgnt6++zeYdpvjI/nogZ621ki+12ViHLZPCxI5um0p7
FHa7irIvn75Sre+6NDR+ermtfyClQXITKvASmKPmdNsohFa04qGYTMIS6ep2GahE
ZIKi0lXG8TPm9Q9PwQe/f0uJQw3X+KrDAvStSOILuFY=
-----END CERTIFICATE-----
