Certificate:
    Data:
        Version: 3 (0x2)
        Serial Number: 8 (0x8)
    Signature Algorithm: sha256WithRSAEncryption
        Issuer: C=US, ST=California, L=Santa Clara, O=pkg5, CN=ch4_ta1/emailAddress=ch4_ta1
        Validity
            Not Before: Nov 16 10:58:47 2017 GMT
            Not After : Aug 12 10:58:47 2020 GMT
        Subject: C=US, ST=California, L=Santa Clara, O=pkg5, CN=ch5.1_ta1/emailAddress=ch5.1_ta1
        Subject Public Key Info:
            Public Key Algorithm: rsaEncryption
                Public-Key: (2048 bit)
                Modulus:
                    00:c2:d5:a2:77:f6:19:50:92:06:d2:b6:fa:c0:a2:
                    3f:89:23:77:da:d3:cf:d4:63:4a:3d:6e:49:f0:16:
                    45:8b:2a:d7:bf:e8:70:24:57:fd:3e:50:ea:6a:1c:
                    15:13:14:3f:05:01:a8:2b:d3:a2:dc:e4:f5:80:70:
                    79:5c:69:3e:8e:56:03:b6:65:86:9f:9e:36:39:c0:
                    2b:40:73:f6:5e:9a:9c:b2:26:c6:e7:56:a1:9b:3e:
                    07:ca:91:c4:1b:d4:04:35:f6:77:9f:96:15:7b:b8:
                    e2:96:1f:e2:01:55:93:6f:fb:27:7f:37:0a:8a:ef:
                    cf:38:75:9d:83:25:b4:48:45:16:93:68:bd:01:84:
                    6c:10:25:c0:22:ba:be:91:a8:99:31:86:45:70:7b:
                    56:1c:ed:1f:fa:95:28:7a:e5:7a:26:9e:99:b1:bc:
                    1f:c9:50:87:9b:f7:ba:09:6a:fe:9d:19:31:1b:18:
                    64:cc:8b:4a:d7:fa:58:a9:da:25:66:35:3c:8a:c0:
                    a5:11:d8:8f:1b:ad:11:e7:e8:25:15:f0:ce:61:aa:
                    29:3a:8c:28:56:b0:71:56:e6:a5:1f:10:53:f3:66:
                    e1:c6:4d:66:15:dc:41:48:e9:52:f9:3c:e2:f7:8f:
                    0f:b5:e0:4d:64:d2:82:43:ad:3a:d7:20:ea:55:dc:
                    a3:df
                Exponent: 65537 (0x10001)
        X509v3 extensions:
            X509v3 Basic Constraints: critical
                CA:TRUE
            X509v3 Issuer Alternative Name: critical
                <EMPTY>

    Signature Algorithm: sha256WithRSAEncryption
         28:90:c8:07:9b:af:2e:2b:42:96:1f:fc:ed:f9:45:34:6d:09:
         d5:fc:84:d8:8a:96:e6:70:a1:4b:67:ed:bb:80:a1:eb:4e:d8:
         8d:68:f6:9b:63:72:df:ba:f8:e0:c4:75:24:e1:54:fe:7a:95:
         21:03:50:42:c8:17:41:30:48:49:1e:39:c5:eb:2d:58:cd:d1:
         c8:68:6e:19:b5:3c:68:76:2f:e1:37:92:f8:1b:8e:23:ce:f7:
         4a:dd:a7:cd:02:96:b5:f3:cb:97:c9:51:c1:20:05:7d:7d:17:
         a2:6d:68:8f:05:e5:c6:68:25:96:ca:5d:82:f6:85:22:a9:6f:
         27:f1:4e:ff:52:85:99:7a:8b:72:f3:16:7a:15:99:d1:61:25:
         34:63:24:60:55:3e:e1:2a:05:14:a7:12:29:0f:79:4b:b3:8b:
         5c:6f:cb:b5:a5:6d:8d:a2:8c:93:f1:f3:07:6a:73:7b:40:e7:
         8c:ab:f3:3a:63:47:a1:52:bd:83:5e:c8:67:f9:a5:b0:d8:30:
         64:ed:1a:0e:71:db:2a:89:b9:46:91:60:41:d7:4d:a1:a2:d2:
         d4:f6:9c:97:a4:44:ba:3a:d3:d6:a1:05:0d:c0:79:39:16:13:
         1b:58:c2:db:bb:29:69:49:1a:b5:46:a0:2e:31:70:bd:ba:88:
         29:96:0c:02
-----BEGIN CERTIFICATE-----
MIIDgjCCAmqgAwIBAgIBCDANBgkqhkiG9w0BAQsFADBxMQswCQYDVQQGEwJVUzET
MBEGA1UECAwKQ2FsaWZvcm5pYTEUMBIGA1UEBwwLU2FudGEgQ2xhcmExDTALBgNV
BAoMBHBrZzUxEDAOBgNVBAMMB2NoNF90YTExFjAUBgkqhkiG9w0BCQEWB2NoNF90
YTEwHhcNMTcxMTE2MTA1ODQ3WhcNMjAwODEyMTA1ODQ3WjB1MQswCQYDVQQGEwJV
UzETMBEGA1UECAwKQ2FsaWZvcm5pYTEUMBIGA1UEBwwLU2FudGEgQ2xhcmExDTAL
BgNVBAoMBHBrZzUxEjAQBgNVBAMMCWNoNS4xX3RhMTEYMBYGCSqGSIb3DQEJARYJ
Y2g1LjFfdGExMIIBIjANBgkqhkiG9w0BAQEFAAOCAQ8AMIIBCgKCAQEAwtWid/YZ
UJIG0rb6wKI/iSN32tPP1GNKPW5J8BZFiyrXv+hwJFf9PlDqahwVExQ/BQGoK9Oi
3OT1gHB5XGk+jlYDtmWGn542OcArQHP2XpqcsibG51ahmz4HypHEG9QENfZ3n5YV
e7jilh/iAVWTb/snfzcKiu/POHWdgyW0SEUWk2i9AYRsECXAIrq+kaiZMYZFcHtW
HO0f+pUoeuV6Jp6ZsbwfyVCHm/e6CWr+nRkxGxhkzItK1/pYqdolZjU8isClEdiP
G60R5+glFfDOYaopOowoVrBxVualHxBT82bhxk1mFdxBSOlS+Tzi948PteBNZNKC
Q6061yDqVdyj3wIDAQABoyEwHzAPBgNVHRMBAf8EBTADAQH/MAwGA1UdEgEB/wQC
MAAwDQYJKoZIhvcNAQELBQADggEBACiQyAebry4rQpYf/O35RTRtCdX8hNiKluZw
oUtn7buAoetO2I1o9ptjct+6+ODEdSThVP56lSEDUELIF0EwSEkeOcXrLVjN0cho
bhm1PGh2L+E3kvgbjiPO90rdp80ClrXzy5fJUcEgBX19F6JtaI8F5cZoJZbKXYL2
hSKpbyfxTv9ShZl6i3LzFnoVmdFhJTRjJGBVPuEqBRSnEikPeUuzi1xvy7WlbY2i
jJPx8wdqc3tA54yr8zpjR6FSvYNeyGf5pbDYMGTtGg5x2yqJuUaRYEHXTaGi0tT2
nJekRLo609ahBQ3AeTkWExtYwtu7KWlJGrVGoC4xcL26iCmWDAI=
-----END CERTIFICATE-----
