Certificate:
    Data:
        Version: 3 (0x2)
        Serial Number: 8 (0x8)
    Signature Algorithm: sha256WithRSAEncryption
        Issuer: C=US, ST=California, L=Santa Clara, O=pkg5, CN=ch4_ta1/emailAddress=ch4_ta1
        Validity
            Not Before: Nov 28 22:50:55 2016 GMT
            Not After : Aug 25 22:50:55 2019 GMT
        Subject: C=US, ST=California, L=Santa Clara, O=pkg5, CN=ch5.1_ta1/emailAddress=ch5.1_ta1
        Subject Public Key Info:
            Public Key Algorithm: rsaEncryption
                Public-Key: (2048 bit)
                Modulus:
                    00:c7:83:e7:e8:f4:48:87:cc:ab:31:74:18:60:49:
                    d4:e5:f2:1e:75:ca:c5:d4:15:57:eb:b5:a1:78:60:
                    b0:6f:e8:58:14:80:48:9d:91:24:5d:77:3f:ba:81:
                    a5:9b:29:5c:4d:3d:ac:92:15:ba:bb:81:38:77:d9:
                    22:3d:cb:58:84:04:82:f4:99:bb:11:16:de:8f:1e:
                    f4:b4:ac:54:aa:ad:a8:b2:de:aa:ec:aa:08:7c:e4:
                    d1:a9:d7:16:7c:c8:7d:8c:d8:33:08:99:d9:a1:6d:
                    07:55:a3:70:ac:7d:32:9f:ac:4c:ef:85:1d:ca:9b:
                    c6:ce:b6:46:e3:f8:a9:61:d8:72:99:23:49:f5:aa:
                    d1:85:ae:c9:8f:bc:80:db:64:14:32:6c:6a:0a:c1:
                    04:7f:f2:34:d4:b7:65:2a:a0:fa:4b:6c:10:3c:18:
                    ee:56:6b:49:dd:ce:d3:ba:81:e0:91:ea:3d:a6:1b:
                    2c:82:bc:77:1f:44:a6:89:ec:89:fd:d2:43:28:92:
                    c0:17:ef:f9:be:64:e2:76:24:28:09:f2:ac:f6:4f:
                    cd:d0:b8:45:fd:a6:63:ea:f8:0c:9a:ee:cd:e1:3d:
                    ab:50:4f:90:51:b6:09:59:02:9b:60:ed:a4:97:d7:
                    d8:e9:6c:70:25:5a:08:95:42:9f:77:25:86:b9:4b:
                    5d:5b
                Exponent: 65537 (0x10001)
        X509v3 extensions:
            X509v3 Basic Constraints: critical
                CA:TRUE
            X509v3 Issuer Alternative Name: critical
                <EMPTY>

    Signature Algorithm: sha256WithRSAEncryption
         30:26:e5:4c:b4:6e:89:fb:5e:a7:6c:99:3a:cf:78:c1:0b:ae:
         b3:2c:ec:d5:47:e8:9a:1e:49:a7:e4:36:c2:2e:38:a8:b5:de:
         05:4e:f3:36:82:ee:21:f8:42:bd:06:8c:12:8e:21:b3:4f:a9:
         fe:60:67:b0:2f:cb:e8:57:20:0b:fe:c7:2d:ec:2d:51:ae:a7:
         1c:6b:b0:52:ec:23:fb:22:16:63:7f:4f:96:b3:7a:28:d9:e3:
         e5:88:94:ff:72:3a:0a:31:f7:a8:22:e3:3d:e6:6d:af:25:14:
         60:fa:9f:c7:63:58:4f:da:43:e7:e5:88:a6:a8:69:c7:ea:77:
         b2:cc:d4:f0:ce:0f:7a:86:39:94:eb:f7:ac:3d:7d:d6:32:9e:
         5e:b4:12:6a:2b:d3:cf:55:0e:ed:1d:a4:2e:8a:ff:a7:3a:ca:
         91:44:b2:70:2a:0a:ac:22:1e:fc:b5:23:7b:b6:d2:c3:a6:61:
         41:27:0f:a9:b6:eb:7b:74:b7:5c:1d:0f:7d:56:34:b9:65:a3:
         3e:a2:c6:11:79:d5:4b:ca:05:35:a7:c3:62:4b:22:44:13:24:
         42:47:fd:16:57:99:96:b4:35:ce:34:9e:46:62:fc:87:16:ed:
         ce:3e:93:84:be:ca:d0:4e:73:7b:7e:6c:4f:4b:fe:24:15:2b:
         59:47:4f:b0
-----BEGIN CERTIFICATE-----
MIIDgjCCAmqgAwIBAgIBCDANBgkqhkiG9w0BAQsFADBxMQswCQYDVQQGEwJVUzET
MBEGA1UECAwKQ2FsaWZvcm5pYTEUMBIGA1UEBwwLU2FudGEgQ2xhcmExDTALBgNV
BAoMBHBrZzUxEDAOBgNVBAMMB2NoNF90YTExFjAUBgkqhkiG9w0BCQEWB2NoNF90
YTEwHhcNMTYxMTI4MjI1MDU1WhcNMTkwODI1MjI1MDU1WjB1MQswCQYDVQQGEwJV
UzETMBEGA1UECAwKQ2FsaWZvcm5pYTEUMBIGA1UEBwwLU2FudGEgQ2xhcmExDTAL
BgNVBAoMBHBrZzUxEjAQBgNVBAMMCWNoNS4xX3RhMTEYMBYGCSqGSIb3DQEJARYJ
Y2g1LjFfdGExMIIBIjANBgkqhkiG9w0BAQEFAAOCAQ8AMIIBCgKCAQEAx4Pn6PRI
h8yrMXQYYEnU5fIedcrF1BVX67WheGCwb+hYFIBInZEkXXc/uoGlmylcTT2skhW6
u4E4d9kiPctYhASC9Jm7ERbejx70tKxUqq2ost6q7KoIfOTRqdcWfMh9jNgzCJnZ
oW0HVaNwrH0yn6xM74UdypvGzrZG4/ipYdhymSNJ9arRha7Jj7yA22QUMmxqCsEE
f/I01LdlKqD6S2wQPBjuVmtJ3c7TuoHgkeo9phssgrx3H0SmieyJ/dJDKJLAF+/5
vmTidiQoCfKs9k/N0LhF/aZj6vgMmu7N4T2rUE+QUbYJWQKbYO2kl9fY6WxwJVoI
lUKfdyWGuUtdWwIDAQABoyEwHzAPBgNVHRMBAf8EBTADAQH/MAwGA1UdEgEB/wQC
MAAwDQYJKoZIhvcNAQELBQADggEBADAm5Uy0bon7XqdsmTrPeMELrrMs7NVH6Joe
SafkNsIuOKi13gVO8zaC7iH4Qr0GjBKOIbNPqf5gZ7Avy+hXIAv+xy3sLVGupxxr
sFLsI/siFmN/T5azeijZ4+WIlP9yOgox96gi4z3mba8lFGD6n8djWE/aQ+fliKao
acfqd7LM1PDOD3qGOZTr96w9fdYynl60Emor089VDu0dpC6K/6c6ypFEsnAqCqwi
Hvy1I3u20sOmYUEnD6m263t0t1wdD31WNLlloz6ixhF51UvKBTWnw2JLIkQTJEJH
/RZXmZa0Nc40nkZi/IcW7c4+k4S+ytBOc3t+bE9L/iQVK1lHT7A=
-----END CERTIFICATE-----
