Certificate:
    Data:
        Version: 3 (0x2)
        Serial Number: 10 (0xa)
    Signature Algorithm: sha256WithRSAEncryption
        Issuer: C=US, ST=California, L=Santa Clara, O=pkg5, CN=ch4_ta1/emailAddress=ch4_ta1
        Validity
            Not Before: Nov 16 10:58:48 2017 GMT
            Not After : Aug 12 10:58:48 2020 GMT
        Subject: C=US, ST=California, L=Santa Clara, O=pkg5, CN=ch5.2_ta1/emailAddress=ch5.2_ta1
        Subject Public Key Info:
            Public Key Algorithm: rsaEncryption
                Public-Key: (2048 bit)
                Modulus:
                    00:e8:81:7c:a7:80:59:31:48:6f:19:e0:ed:b6:a0:
                    0f:a5:43:9d:b7:e5:78:00:ec:19:b7:da:09:3a:85:
                    1f:28:07:b7:7c:fc:48:00:ae:04:53:30:ca:d6:e5:
                    a1:68:bd:22:db:99:09:ab:67:64:34:7c:df:0b:8d:
                    c0:93:a0:fd:d4:e5:19:16:c9:e1:1d:78:e5:0f:43:
                    3b:f2:82:f0:83:43:8e:75:eb:7c:64:a1:e9:2e:cd:
                    36:d9:c5:63:0e:90:56:f0:cd:65:99:4b:ea:bb:bb:
                    df:8d:4f:e6:77:e2:b1:e8:39:d6:e4:72:d5:d8:48:
                    90:9c:37:13:64:36:d0:73:02:1d:19:0f:02:62:5f:
                    d1:f8:a2:b2:23:d7:20:8f:c3:7d:ee:a9:52:20:b0:
                    52:c1:50:69:c0:52:bc:11:d2:42:39:01:35:79:1b:
                    d5:af:bf:25:a4:f5:20:98:83:6b:46:fc:e4:d0:38:
                    d2:ca:65:dd:68:41:09:81:c8:22:76:fb:89:a2:5c:
                    33:f6:74:de:ef:26:c5:3a:f1:d2:de:91:26:17:0e:
                    a3:8b:8b:8d:58:e5:4b:e7:ce:e5:6f:52:34:58:1d:
                    ef:22:61:e4:6e:18:8c:50:83:07:46:2f:fd:23:99:
                    bc:a8:dd:cc:e4:78:f0:9f:5b:d8:e0:65:9e:7e:46:
                    98:63
                Exponent: 65537 (0x10001)
        X509v3 extensions:
            X509v3 Subject Key Identifier: 
                9D:0D:FF:5D:E1:00:FD:73:AF:D1:E6:7B:70:31:74:16:49:EB:4A:CD
            X509v3 Authority Key Identifier: 
                keyid:95:AF:31:EE:AD:B3:93:5F:CE:41:CE:42:A0:A5:8C:5F:7C:38:C2:81
                DirName:/C=US/ST=California/L=Santa Clara/O=pkg5/CN=ch3_ta1/emailAddress=ch3_ta1
                serial:04

            X509v3 Basic Constraints: critical
                CA:TRUE, pathlen:1
            X509v3 Key Usage: critical
                Certificate Sign, CRL Sign
    Signature Algorithm: sha256WithRSAEncryption
         a7:3e:3a:70:08:ee:90:df:9a:af:5b:fd:49:3b:79:2b:34:c6:
         12:8c:0d:14:74:40:72:81:bf:9a:ba:11:6f:36:50:e7:12:c6:
         cf:8d:70:5b:73:40:e2:b7:10:a7:8a:70:96:29:a7:7b:10:43:
         7a:ad:18:b4:cd:13:bc:aa:73:81:05:bb:04:f8:9e:d3:55:74:
         3d:e9:19:07:81:92:4e:54:f1:26:e5:17:40:d8:b6:ee:e9:f0:
         4a:a2:e2:3a:b2:89:d7:1b:c6:04:c0:a7:06:a1:94:0e:25:a6:
         6d:5c:e6:a2:10:65:ee:a3:d5:6a:d5:54:a7:20:16:c8:47:1e:
         ec:62:10:86:0e:dc:29:7d:06:04:31:f8:06:87:85:5e:16:b6:
         62:0c:ae:22:7b:c7:fc:f4:3e:6a:ef:57:ca:05:26:66:5c:2e:
         aa:8a:e1:72:22:a2:71:44:20:1e:7d:b5:7e:dc:53:7f:ee:d2:
         7e:03:64:6f:bb:a9:e6:e7:6a:45:80:6b:57:47:59:9e:c1:00:
         66:28:3f:3a:dc:d5:26:ea:27:3d:2a:7b:41:ac:79:f5:ab:3c:
         20:eb:78:e6:2e:3b:4f:3e:8e:b9:b7:4a:47:37:b6:e4:ec:44:
         f6:cc:a4:56:44:1c:5d:df:c9:e9:b8:13:22:10:1b:8e:2f:64:
         1d:a1:16:c8
-----BEGIN CERTIFICATE-----
MIIERjCCAy6gAwIBAgIBCjANBgkqhkiG9w0BAQsFADBxMQswCQYDVQQGEwJVUzET
MBEGA1UECAwKQ2FsaWZvcm5pYTEUMBIGA1UEBwwLU2FudGEgQ2xhcmExDTALBgNV
BAoMBHBrZzUxEDAOBgNVBAMMB2NoNF90YTExFjAUBgkqhkiG9w0BCQEWB2NoNF90
YTEwHhcNMTcxMTE2MTA1ODQ4WhcNMjAwODEyMTA1ODQ4WjB1MQswCQYDVQQGEwJV
UzETMBEGA1UECAwKQ2FsaWZvcm5pYTEUMBIGA1UEBwwLU2FudGEgQ2xhcmExDTAL
BgNVBAoMBHBrZzUxEjAQBgNVBAMMCWNoNS4yX3RhMTEYMBYGCSqGSIb3DQEJARYJ
Y2g1LjJfdGExMIIBIjANBgkqhkiG9w0BAQEFAAOCAQ8AMIIBCgKCAQEA6IF8p4BZ
MUhvGeDttqAPpUOdt+V4AOwZt9oJOoUfKAe3fPxIAK4EUzDK1uWhaL0i25kJq2dk
NHzfC43Ak6D91OUZFsnhHXjlD0M78oLwg0OOdet8ZKHpLs022cVjDpBW8M1lmUvq
u7vfjU/md+Kx6DnW5HLV2EiQnDcTZDbQcwIdGQ8CYl/R+KKyI9cgj8N97qlSILBS
wVBpwFK8EdJCOQE1eRvVr78lpPUgmINrRvzk0DjSymXdaEEJgcgidvuJolwz9nTe
7ybFOvHS3pEmFw6ji4uNWOVL587lb1I0WB3vImHkbhiMUIMHRi/9I5m8qN3M5Hjw
n1vY4GWefkaYYwIDAQABo4HkMIHhMB0GA1UdDgQWBBSdDf9d4QD9c6/R5ntwMXQW
SetKzTCBmwYDVR0jBIGTMIGQgBSVrzHurbOTX85BzkKgpYxffDjCgaF1pHMwcTEL
MAkGA1UEBhMCVVMxEzARBgNVBAgMCkNhbGlmb3JuaWExFDASBgNVBAcMC1NhbnRh
IENsYXJhMQ0wCwYDVQQKDARwa2c1MRAwDgYDVQQDDAdjaDNfdGExMRYwFAYJKoZI
hvcNAQkBFgdjaDNfdGExggEEMBIGA1UdEwEB/wQIMAYBAf8CAQEwDgYDVR0PAQH/
BAQDAgEGMA0GCSqGSIb3DQEBCwUAA4IBAQCnPjpwCO6Q35qvW/1JO3krNMYSjA0U
dEBygb+auhFvNlDnEsbPjXBbc0DitxCninCWKad7EEN6rRi0zRO8qnOBBbsE+J7T
VXQ96RkHgZJOVPEm5RdA2Lbu6fBKouI6sonXG8YEwKcGoZQOJaZtXOaiEGXuo9Vq
1VSnIBbIRx7sYhCGDtwpfQYEMfgGh4VeFrZiDK4ie8f89D5q71fKBSZmXC6qiuFy
IqJxRCAefbV+3FN/7tJ+A2Rvu6nm52pFgGtXR1mewQBmKD863NUm6ic9KntBrHn1
qzwg63jmLjtPPo65t0pHN7bk7ET2zKRWRBxd38npuBMiEBuOL2QdoRbI
-----END CERTIFICATE-----
