Certificate:
    Data:
        Version: 3 (0x2)
        Serial Number: 10 (0xa)
        Signature Algorithm: sha256WithRSAEncryption
        Issuer: C=US, ST=California, L=Santa Clara, O=pkg5, CN=ch4_ta1/emailAddress=ch4_ta1
        Validity
            Not Before: May 23 15:47:15 2024 GMT
            Not After : Feb 17 15:47:15 2027 GMT
        Subject: C=US, ST=California, L=Santa Clara, O=pkg5, CN=ch5.2_ta1/emailAddress=ch5.2_ta1
        Subject Public Key Info:
            Public Key Algorithm: rsaEncryption
                Public-Key: (2048 bit)
                Modulus:
                    00:e1:e9:a6:b8:56:48:1d:c1:12:d3:60:f9:0d:16:
                    7b:e4:78:02:a5:06:8b:5e:5b:9f:e2:e0:50:0f:e8:
                    86:e0:38:e1:55:34:53:71:81:e4:a0:bc:c7:b9:ce:
                    96:14:d2:d1:02:36:84:90:69:99:3e:2b:c5:48:f8:
                    08:d0:59:14:2b:b5:b1:ba:6d:fe:d9:83:6a:cc:f3:
                    64:34:04:b8:a6:ec:de:8e:bc:df:bd:fb:be:68:32:
                    f1:7f:1c:51:a0:3c:3c:f5:00:ac:bf:1e:c1:d5:55:
                    22:dc:c0:cf:da:75:ab:3e:9b:90:b6:d7:ea:17:c1:
                    9a:f9:d0:9e:85:57:29:e3:4b:55:65:06:7c:d5:72:
                    da:f6:6b:3f:77:8a:42:b4:1a:b1:cf:af:d9:57:a9:
                    d8:d9:ab:02:dd:69:4f:17:8f:0a:4b:4e:3d:38:11:
                    3c:ce:2f:8e:4e:a9:97:f9:1a:42:83:25:dd:e8:6b:
                    07:35:36:5a:c4:29:84:d3:57:13:35:ac:10:44:5e:
                    74:2c:06:09:51:55:cb:28:ed:eb:8b:91:da:fd:31:
                    aa:54:08:ce:29:f8:fc:ea:7d:8d:7b:0d:2f:6f:bc:
                    3c:5a:6b:a8:fa:ba:9e:69:5b:19:13:70:15:5b:45:
                    cc:8f:f9:20:dc:ba:ff:c0:2c:d5:e6:12:5e:74:ce:
                    49:11
                Exponent: 65537 (0x10001)
        X509v3 extensions:
            X509v3 Subject Key Identifier: 
                5C:D1:31:08:36:2F:7E:E2:09:3F:6C:86:20:F9:33:56:A8:D4:FC:FA
            X509v3 Authority Key Identifier: 
                keyid:1C:96:5D:FB:1E:AC:9E:96:15:A9:9B:0C:60:02:ED:CB:4F:29:D7:DC
                DirName:/C=US/ST=California/L=Santa Clara/O=pkg5/CN=ch3_ta1/emailAddress=ch3_ta1
                serial:04
            X509v3 Basic Constraints: critical
                CA:TRUE, pathlen:1
            X509v3 Key Usage: critical
                Certificate Sign, CRL Sign
    Signature Algorithm: sha256WithRSAEncryption
    Signature Value:
        62:94:c6:da:1a:8a:29:36:6c:5e:ca:2b:a6:b5:46:84:02:44:
        ad:77:e4:4b:1e:c6:14:f7:72:1b:87:66:fe:aa:d9:99:56:7a:
        da:ac:ea:9d:4e:27:2a:c1:56:51:f2:3f:66:89:55:ea:ab:b1:
        20:aa:b7:8c:15:a8:70:e3:d5:a1:64:f5:f1:ac:69:3d:13:0f:
        dd:46:91:27:7c:60:ad:06:c5:f0:b2:91:8a:27:50:48:f3:ce:
        52:47:92:2a:b3:03:80:ea:d7:55:51:8a:6a:9e:35:0c:c6:67:
        bb:65:a1:f5:03:2b:61:2e:a8:6a:7f:8f:cc:e9:da:71:9e:2e:
        a1:bb:0a:6c:e5:7d:ba:00:1e:1f:ba:26:7a:6a:55:5d:a6:38:
        37:5b:5a:cc:7f:48:10:e0:92:d3:06:b7:f9:e8:2c:c8:9b:f1:
        be:91:d8:d1:99:d3:7d:da:0b:cd:1e:ad:22:1f:43:80:78:b1:
        12:72:90:ae:c8:1e:f7:2b:12:f9:79:06:ad:27:9f:e5:fa:c4:
        a5:8f:d5:54:77:4b:68:c1:35:0d:b7:2b:19:16:a6:42:06:cd:
        83:ea:3e:bc:e2:04:9c:6d:19:d1:9f:73:ac:38:c8:30:67:93:
        07:bf:51:14:89:a4:b1:da:05:50:17:12:0a:52:41:41:10:f1:
        e4:36:a0:9d
-----BEGIN CERTIFICATE-----
MIIERjCCAy6gAwIBAgIBCjANBgkqhkiG9w0BAQsFADBxMQswCQYDVQQGEwJVUzET
MBEGA1UECAwKQ2FsaWZvcm5pYTEUMBIGA1UEBwwLU2FudGEgQ2xhcmExDTALBgNV
BAoMBHBrZzUxEDAOBgNVBAMMB2NoNF90YTExFjAUBgkqhkiG9w0BCQEWB2NoNF90
YTEwHhcNMjQwNTIzMTU0NzE1WhcNMjcwMjE3MTU0NzE1WjB1MQswCQYDVQQGEwJV
UzETMBEGA1UECAwKQ2FsaWZvcm5pYTEUMBIGA1UEBwwLU2FudGEgQ2xhcmExDTAL
BgNVBAoMBHBrZzUxEjAQBgNVBAMMCWNoNS4yX3RhMTEYMBYGCSqGSIb3DQEJARYJ
Y2g1LjJfdGExMIIBIjANBgkqhkiG9w0BAQEFAAOCAQ8AMIIBCgKCAQEA4emmuFZI
HcES02D5DRZ75HgCpQaLXluf4uBQD+iG4DjhVTRTcYHkoLzHuc6WFNLRAjaEkGmZ
PivFSPgI0FkUK7Wxum3+2YNqzPNkNAS4puzejrzfvfu+aDLxfxxRoDw89QCsvx7B
1VUi3MDP2nWrPpuQttfqF8Ga+dCehVcp40tVZQZ81XLa9ms/d4pCtBqxz6/ZV6nY
2asC3WlPF48KS049OBE8zi+OTqmX+RpCgyXd6GsHNTZaxCmE01cTNawQRF50LAYJ
UVXLKO3ri5Ha/TGqVAjOKfj86n2New0vb7w8Wmuo+rqeaVsZE3AVW0XMj/kg3Lr/
wCzV5hJedM5JEQIDAQABo4HkMIHhMB0GA1UdDgQWBBRc0TEINi9+4gk/bIYg+TNW
qNT8+jCBmwYDVR0jBIGTMIGQgBQcll37HqyelhWpmwxgAu3LTynX3KF1pHMwcTEL
MAkGA1UEBhMCVVMxEzARBgNVBAgMCkNhbGlmb3JuaWExFDASBgNVBAcMC1NhbnRh
IENsYXJhMQ0wCwYDVQQKDARwa2c1MRAwDgYDVQQDDAdjaDNfdGExMRYwFAYJKoZI
hvcNAQkBFgdjaDNfdGExggEEMBIGA1UdEwEB/wQIMAYBAf8CAQEwDgYDVR0PAQH/
BAQDAgEGMA0GCSqGSIb3DQEBCwUAA4IBAQBilMbaGoopNmxeyiumtUaEAkStd+RL
HsYU93Ibh2b+qtmZVnrarOqdTicqwVZR8j9miVXqq7EgqreMFahw49WhZPXxrGk9
Ew/dRpEnfGCtBsXwspGKJ1BI885SR5IqswOA6tdVUYpqnjUMxme7ZaH1AythLqhq
f4/M6dpxni6huwps5X26AB4fuiZ6alVdpjg3W1rMf0gQ4JLTBrf56CzIm/G+kdjR
mdN92gvNHq0iH0OAeLEScpCuyB73KxL5eQatJ5/l+sSlj9VUd0towTUNtysZFqZC
Bs2D6j684gScbRnRn3OsOMgwZ5MHv1EUiaSx2gVQFxIKUkFBEPHkNqCd
-----END CERTIFICATE-----
