Certificate:
    Data:
        Version: 3 (0x2)
        Serial Number: 10 (0xa)
        Signature Algorithm: sha256WithRSAEncryption
        Issuer: C=US, ST=California, L=Santa Clara, O=pkg5, CN=ch4_ta1/emailAddress=ch4_ta1
        Validity
            Not Before: Nov 14 14:26:52 2024 GMT
            Not After : Aug 11 14:26:52 2027 GMT
        Subject: C=US, ST=California, L=Santa Clara, O=pkg5, CN=ch5.2_ta1/emailAddress=ch5.2_ta1
        Subject Public Key Info:
            Public Key Algorithm: rsaEncryption
                Public-Key: (2048 bit)
                Modulus:
                    00:97:cd:74:15:a6:fd:f8:7d:cf:af:22:8f:29:b2:
                    5a:6c:ec:3b:09:db:b6:70:80:bb:eb:cb:d1:a0:7b:
                    7d:f4:ff:e2:0a:90:26:9f:d6:ab:1a:b7:fc:5a:6a:
                    75:13:07:19:0b:76:bc:94:40:8a:5f:1b:13:d7:1c:
                    13:24:cc:fa:59:d7:d9:53:24:36:8b:50:38:ad:f8:
                    3c:f8:50:aa:8b:e3:aa:33:05:c5:f3:17:37:74:1d:
                    9e:27:de:42:dc:42:33:db:cd:62:8f:4d:2d:cd:8e:
                    dd:66:8f:b1:b3:07:26:59:6c:fe:3f:cf:23:19:f8:
                    ea:96:04:a7:49:da:c5:69:82:5c:55:86:7d:f7:3b:
                    ef:0f:22:ab:79:0d:66:e0:7c:60:b6:5b:c0:2c:34:
                    59:32:a5:45:4f:0d:13:c0:64:1f:3a:e5:22:12:d0:
                    cd:65:21:a7:86:82:35:30:66:04:3a:01:29:95:d9:
                    ef:1a:59:d4:a9:f5:17:a6:55:de:44:94:4d:1f:79:
                    60:63:02:82:92:4a:59:62:54:40:12:29:59:ad:99:
                    c9:e9:68:df:b8:cc:83:90:93:23:5a:03:2c:c1:2f:
                    8c:51:73:51:0e:c0:3e:64:53:a7:71:ad:cd:c7:7b:
                    88:46:dd:4a:9f:e0:e7:53:eb:f5:ac:01:ff:5c:a6:
                    f4:25
                Exponent: 65537 (0x10001)
        X509v3 extensions:
            X509v3 Subject Key Identifier: 
                F5:87:FE:84:C4:36:7E:BC:76:6D:7E:46:96:7F:32:15:46:4A:BB:1E
            X509v3 Authority Key Identifier: 
                keyid:16:B2:AA:05:84:89:41:E5:7C:FA:3D:A3:F4:20:3A:23:36:A9:95:08
                DirName:/C=US/ST=California/L=Santa Clara/O=pkg5/CN=ch3_ta1/emailAddress=ch3_ta1
                serial:04
            X509v3 Basic Constraints: critical
                CA:TRUE, pathlen:1
            X509v3 Key Usage: critical
                Certificate Sign, CRL Sign
    Signature Algorithm: sha256WithRSAEncryption
    Signature Value:
        b2:09:81:ae:e3:f0:82:ae:a8:be:d5:41:0e:d7:02:3a:d4:1c:
        c1:b8:05:f4:64:1c:e7:bc:f7:59:0b:02:9a:6c:36:5b:e9:70:
        69:84:ea:e4:a4:87:fb:3c:d5:c4:db:a0:26:df:39:c0:38:30:
        43:4a:0a:b8:03:11:9d:07:19:cc:78:a8:07:5f:cc:5e:07:96:
        23:2b:80:c8:47:4e:76:d9:83:b0:fd:1b:42:40:71:d1:12:2c:
        44:9a:6e:bb:e2:c5:67:6d:1e:d9:83:93:0a:3a:70:76:80:ee:
        51:0b:93:55:78:de:46:51:a4:e6:4a:a7:ff:ae:e3:81:9e:8c:
        63:a5:a0:18:05:13:5f:e2:cb:e9:ae:a6:2c:d6:77:2b:e9:29:
        d5:31:75:09:36:ed:d1:62:bb:c9:7c:7a:f6:d6:8f:64:61:91:
        7e:3e:66:7d:64:10:fb:a0:b0:91:cc:26:11:83:79:c2:99:bd:
        8b:5f:1f:e8:54:af:65:6b:06:48:98:8f:01:04:06:40:04:60:
        eb:2d:a1:10:8d:f9:a2:16:2c:53:9c:24:c0:b7:5b:f8:2b:5a:
        8a:a6:3c:b1:1b:ec:89:e7:e6:da:a1:25:b0:be:b0:a4:d2:5f:
        3f:97:42:70:29:8b:5b:ff:81:ba:2d:a1:cf:05:c3:d5:21:82:
        28:9b:81:6e
-----BEGIN CERTIFICATE-----
MIIERjCCAy6gAwIBAgIBCjANBgkqhkiG9w0BAQsFADBxMQswCQYDVQQGEwJVUzET
MBEGA1UECAwKQ2FsaWZvcm5pYTEUMBIGA1UEBwwLU2FudGEgQ2xhcmExDTALBgNV
BAoMBHBrZzUxEDAOBgNVBAMMB2NoNF90YTExFjAUBgkqhkiG9w0BCQEWB2NoNF90
YTEwHhcNMjQxMTE0MTQyNjUyWhcNMjcwODExMTQyNjUyWjB1MQswCQYDVQQGEwJV
UzETMBEGA1UECAwKQ2FsaWZvcm5pYTEUMBIGA1UEBwwLU2FudGEgQ2xhcmExDTAL
BgNVBAoMBHBrZzUxEjAQBgNVBAMMCWNoNS4yX3RhMTEYMBYGCSqGSIb3DQEJARYJ
Y2g1LjJfdGExMIIBIjANBgkqhkiG9w0BAQEFAAOCAQ8AMIIBCgKCAQEAl810Fab9
+H3PryKPKbJabOw7Cdu2cIC768vRoHt99P/iCpAmn9arGrf8Wmp1EwcZC3a8lECK
XxsT1xwTJMz6WdfZUyQ2i1A4rfg8+FCqi+OqMwXF8xc3dB2eJ95C3EIz281ij00t
zY7dZo+xswcmWWz+P88jGfjqlgSnSdrFaYJcVYZ99zvvDyKreQ1m4HxgtlvALDRZ
MqVFTw0TwGQfOuUiEtDNZSGnhoI1MGYEOgEpldnvGlnUqfUXplXeRJRNH3lgYwKC
kkpZYlRAEilZrZnJ6WjfuMyDkJMjWgMswS+MUXNRDsA+ZFOnca3Nx3uIRt1Kn+Dn
U+v1rAH/XKb0JQIDAQABo4HkMIHhMB0GA1UdDgQWBBT1h/6ExDZ+vHZtfkaWfzIV
Rkq7HjCBmwYDVR0jBIGTMIGQgBQWsqoFhIlB5Xz6PaP0IDojNqmVCKF1pHMwcTEL
MAkGA1UEBhMCVVMxEzARBgNVBAgMCkNhbGlmb3JuaWExFDASBgNVBAcMC1NhbnRh
IENsYXJhMQ0wCwYDVQQKDARwa2c1MRAwDgYDVQQDDAdjaDNfdGExMRYwFAYJKoZI
hvcNAQkBFgdjaDNfdGExggEEMBIGA1UdEwEB/wQIMAYBAf8CAQEwDgYDVR0PAQH/
BAQDAgEGMA0GCSqGSIb3DQEBCwUAA4IBAQCyCYGu4/CCrqi+1UEO1wI61BzBuAX0
ZBznvPdZCwKabDZb6XBphOrkpIf7PNXE26Am3znAODBDSgq4AxGdBxnMeKgHX8xe
B5YjK4DIR0522YOw/RtCQHHREixEmm674sVnbR7Zg5MKOnB2gO5RC5NVeN5GUaTm
Sqf/ruOBnoxjpaAYBRNf4svprqYs1ncr6SnVMXUJNu3RYrvJfHr21o9kYZF+PmZ9
ZBD7oLCRzCYRg3nCmb2LXx/oVK9lawZImI8BBAZABGDrLaEQjfmiFixTnCTAt1v4
K1qKpjyxG+yJ5+baoSWwvrCk0l8/l0JwKYtb/4G6LaHPBcPVIYIom4Fu
-----END CERTIFICATE-----
