Certificate:
    Data:
        Version: 3 (0x2)
        Serial Number: 10 (0xa)
        Signature Algorithm: sha256WithRSAEncryption
        Issuer: C=US, ST=California, L=Santa Clara, O=pkg5, CN=ch4_ta1/emailAddress=ch4_ta1
        Validity
            Not Before: Oct 22 10:15:07 2021 GMT
            Not After : Jul 18 10:15:07 2024 GMT
        Subject: C=US, ST=California, L=Santa Clara, O=pkg5, CN=ch5.2_ta1/emailAddress=ch5.2_ta1
        Subject Public Key Info:
            Public Key Algorithm: rsaEncryption
                Public-Key: (2048 bit)
                Modulus:
                    00:8b:7f:4f:dc:d6:60:d6:3e:31:08:01:a2:99:83:
                    85:b1:b8:15:08:b2:82:f3:d5:0c:f6:03:19:ea:bc:
                    f5:2d:ee:4e:e9:d7:69:3e:3c:92:7c:01:d7:dd:a6:
                    d4:ea:3b:7f:c2:44:65:40:c4:be:20:5f:19:88:fb:
                    69:d6:cf:1b:ac:88:c9:64:4b:e8:bc:e6:52:fb:9e:
                    62:77:00:d6:6f:34:0b:8b:41:14:d6:5c:94:57:68:
                    23:d4:59:eb:ee:7c:04:e0:93:45:c9:39:1c:c8:4a:
                    22:bb:81:11:64:85:9d:79:c6:09:92:d3:4b:f5:45:
                    f8:f3:8c:f2:f4:f6:ec:0b:1a:b1:a8:30:29:d5:da:
                    5e:3f:db:81:b7:ec:3f:f9:89:1e:7d:ea:28:9b:86:
                    95:69:e5:19:a9:50:72:15:62:c4:20:62:38:10:79:
                    d1:99:56:17:ab:b7:6b:36:e0:05:be:e7:3f:df:55:
                    cc:f7:06:74:04:fe:c4:8f:c2:cb:80:95:56:11:18:
                    df:44:d7:5e:7a:2c:e1:f3:09:d4:63:7d:85:18:b3:
                    60:ff:d6:cf:ce:14:03:5f:1e:48:a7:7f:21:c3:c0:
                    ea:a0:50:72:a4:c6:56:09:7b:25:f3:69:7a:92:92:
                    b6:98:13:31:8d:53:04:62:0e:d2:7f:65:9f:37:e7:
                    8d:77
                Exponent: 65537 (0x10001)
        X509v3 extensions:
            X509v3 Subject Key Identifier: 
                CD:95:CF:A2:DD:23:53:71:FC:24:CA:1E:F0:D1:9D:C1:D3:41:53:F7
            X509v3 Authority Key Identifier: 
                keyid:D6:51:0D:B0:DE:78:F7:44:30:3C:C2:1D:A6:03:F7:67:39:80:57:29
                DirName:/C=US/ST=California/L=Santa Clara/O=pkg5/CN=ch3_ta1/emailAddress=ch3_ta1
                serial:04
            X509v3 Basic Constraints: critical
                CA:TRUE, pathlen:1
            X509v3 Key Usage: critical
                Certificate Sign, CRL Sign
    Signature Algorithm: sha256WithRSAEncryption
    Signature Value:
        31:e7:dd:e7:6e:eb:56:f0:d7:b1:c1:7c:7a:79:f3:de:51:62:
        4f:cf:de:18:f1:4a:28:74:a8:0e:67:7c:23:72:66:9a:7e:be:
        2f:97:db:3e:1c:30:16:79:a8:f7:03:c0:10:8e:e9:7c:13:f6:
        8a:5d:c1:f7:7b:ad:76:34:87:a9:8a:27:54:6c:09:b2:5b:f1:
        bb:82:a5:aa:73:25:02:a6:30:16:21:23:06:fc:65:e0:e2:6f:
        0e:8c:11:c8:ed:c3:2c:bc:92:2a:36:c2:66:20:41:56:4a:5c:
        01:8b:a5:5e:09:f6:36:4e:d0:5f:81:c9:ba:56:77:f7:b1:d3:
        ee:8f:1c:a5:71:d1:b9:23:81:98:0d:0a:d1:d9:0d:91:9c:e5:
        71:00:9a:f1:45:d3:93:94:ad:88:8b:50:1c:86:59:45:36:36:
        df:e9:fe:92:c7:4d:4a:8e:32:20:5f:7a:06:df:3c:32:ac:81:
        ed:b0:2d:dc:eb:53:34:c5:01:65:08:ea:13:0a:cf:41:9e:ff:
        f8:57:e0:46:49:84:d9:8e:26:6d:f1:1d:1f:ee:58:8c:08:00:
        a1:5a:a1:34:80:16:63:1b:b1:e8:d0:83:70:59:12:ea:21:bf:
        24:31:f9:f2:d4:2e:f8:f6:fe:34:09:5f:db:99:a9:0b:53:be:
        53:5b:51:6a
-----BEGIN CERTIFICATE-----
MIIERjCCAy6gAwIBAgIBCjANBgkqhkiG9w0BAQsFADBxMQswCQYDVQQGEwJVUzET
MBEGA1UECAwKQ2FsaWZvcm5pYTEUMBIGA1UEBwwLU2FudGEgQ2xhcmExDTALBgNV
BAoMBHBrZzUxEDAOBgNVBAMMB2NoNF90YTExFjAUBgkqhkiG9w0BCQEWB2NoNF90
YTEwHhcNMjExMDIyMTAxNTA3WhcNMjQwNzE4MTAxNTA3WjB1MQswCQYDVQQGEwJV
UzETMBEGA1UECAwKQ2FsaWZvcm5pYTEUMBIGA1UEBwwLU2FudGEgQ2xhcmExDTAL
BgNVBAoMBHBrZzUxEjAQBgNVBAMMCWNoNS4yX3RhMTEYMBYGCSqGSIb3DQEJARYJ
Y2g1LjJfdGExMIIBIjANBgkqhkiG9w0BAQEFAAOCAQ8AMIIBCgKCAQEAi39P3NZg
1j4xCAGimYOFsbgVCLKC89UM9gMZ6rz1Le5O6ddpPjySfAHX3abU6jt/wkRlQMS+
IF8ZiPtp1s8brIjJZEvovOZS+55idwDWbzQLi0EU1lyUV2gj1Fnr7nwE4JNFyTkc
yEoiu4ERZIWdecYJktNL9UX484zy9PbsCxqxqDAp1dpeP9uBt+w/+Ykefeoom4aV
aeUZqVByFWLEIGI4EHnRmVYXq7drNuAFvuc/31XM9wZ0BP7Ej8LLgJVWERjfRNde
eizh8wnUY32FGLNg/9bPzhQDXx5Ip38hw8DqoFBypMZWCXsl82l6kpK2mBMxjVME
Yg7Sf2WfN+eNdwIDAQABo4HkMIHhMB0GA1UdDgQWBBTNlc+i3SNTcfwkyh7w0Z3B
00FT9zCBmwYDVR0jBIGTMIGQgBTWUQ2w3nj3RDA8wh2mA/dnOYBXKaF1pHMwcTEL
MAkGA1UEBhMCVVMxEzARBgNVBAgMCkNhbGlmb3JuaWExFDASBgNVBAcMC1NhbnRh
IENsYXJhMQ0wCwYDVQQKDARwa2c1MRAwDgYDVQQDDAdjaDNfdGExMRYwFAYJKoZI
hvcNAQkBFgdjaDNfdGExggEEMBIGA1UdEwEB/wQIMAYBAf8CAQEwDgYDVR0PAQH/
BAQDAgEGMA0GCSqGSIb3DQEBCwUAA4IBAQAx593nbutW8NexwXx6efPeUWJPz94Y
8UoodKgOZ3wjcmaafr4vl9s+HDAWeaj3A8AQjul8E/aKXcH3e612NIepiidUbAmy
W/G7gqWqcyUCpjAWISMG/GXg4m8OjBHI7cMsvJIqNsJmIEFWSlwBi6VeCfY2TtBf
gcm6Vnf3sdPujxylcdG5I4GYDQrR2Q2RnOVxAJrxRdOTlK2Ii1AchllFNjbf6f6S
x01KjjIgX3oG3zwyrIHtsC3c61M0xQFlCOoTCs9Bnv/4V+BGSYTZjiZt8R0f7liM
CAChWqE0gBZjG7Ho0INwWRLqIb8kMfny1C749v40CV/bmakLU75TW1Fq
-----END CERTIFICATE-----
