Certificate:
    Data:
        Version: 3 (0x2)
        Serial Number: 12 (0xc)
        Signature Algorithm: sha256WithRSAEncryption
        Issuer: C=US, ST=California, L=Santa Clara, O=pkg5, CN=ch3_ta1/emailAddress=ch3_ta1
        Validity
            Not Before: May 23 15:47:16 2024 GMT
            Not After : Feb 17 15:47:16 2027 GMT
        Subject: C=US, ST=California, L=Santa Clara, O=pkg5, CN=ch4.3_ta1/emailAddress=ch4.3_ta1
        Subject Public Key Info:
            Public Key Algorithm: rsaEncryption
                Public-Key: (2048 bit)
                Modulus:
                    00:dd:09:2c:ca:71:b0:f3:38:81:e2:30:62:d8:eb:
                    a4:98:54:57:00:ef:6a:a7:63:e1:72:a6:72:90:71:
                    05:b8:e5:e8:13:50:b9:9d:3c:b1:53:53:3b:77:4e:
                    36:4f:5c:33:07:4f:fb:19:d5:e4:fe:f1:d7:1c:57:
                    14:f5:56:24:9e:9f:10:22:b2:f0:a7:8e:ae:12:0c:
                    22:2c:2f:64:7f:85:bd:7e:26:f7:8c:a2:3e:8f:79:
                    e3:b6:aa:42:42:ff:ca:7c:ff:6e:33:7b:85:86:8e:
                    03:40:10:a5:35:77:89:f9:45:04:de:38:ba:68:0a:
                    19:48:43:5b:1b:e8:00:58:5e:f2:e7:3b:07:d7:16:
                    4d:75:19:d9:b1:b4:21:14:25:59:09:10:8a:2d:7d:
                    fa:29:e6:8a:17:f7:58:57:6f:28:a2:12:65:c4:13:
                    8a:4a:d7:a0:3d:f8:f7:76:a6:95:77:6b:34:53:a5:
                    06:5d:e2:4c:9c:0d:f8:5d:ac:7b:d1:9a:56:03:1a:
                    52:80:ee:ba:61:6f:f4:2c:15:77:ad:ed:c4:57:e4:
                    74:b9:07:1a:c9:65:0f:65:74:d7:7f:11:fb:e1:46:
                    91:f1:50:8f:d9:53:a4:17:c8:e6:2f:40:07:87:0c:
                    2c:15:ed:f2:68:e5:60:e6:7f:08:85:10:bd:ff:b5:
                    1d:fd
                Exponent: 65537 (0x10001)
        X509v3 extensions:
            X509v3 Subject Key Identifier: 
                69:F3:3C:00:C4:89:A2:91:C1:FD:BA:10:DC:09:92:83:2C:3B:24:2C
            X509v3 Authority Key Identifier: 
                keyid:1E:B9:76:6E:A6:06:0D:30:AB:D7:69:3E:BB:DA:17:EF:CE:22:E8:2D
                DirName:/C=US/ST=California/L=Santa Clara/O=pkg5/CN=ch2_ta1/emailAddress=ch2_ta1
                serial:03
            X509v3 Basic Constraints: critical
                CA:TRUE, pathlen:0
            X509v3 Key Usage: critical
                Certificate Sign, CRL Sign
    Signature Algorithm: sha256WithRSAEncryption
    Signature Value:
        70:71:5a:ac:d1:19:f4:79:0a:95:8c:15:2a:73:ae:61:49:9b:
        e2:91:af:84:7e:99:d8:5f:79:08:cc:4e:ab:94:94:01:15:43:
        1b:33:6c:2b:7e:02:d4:32:be:4c:f9:e9:7f:28:04:c2:b6:ab:
        ff:c4:06:27:87:fc:38:06:ee:0a:04:59:82:5b:be:d8:0e:5d:
        a8:87:67:0f:cb:93:b8:b6:e3:24:45:1c:2e:93:80:4e:c7:94:
        30:06:97:a6:79:8a:1a:37:80:66:45:fd:04:5d:1d:d5:10:c9:
        f1:0a:4b:2b:76:1b:28:18:45:df:54:61:b0:a8:06:e0:d0:56:
        96:5d:69:1c:7c:ba:d2:34:fb:b1:db:e7:53:17:24:ea:89:3a:
        6b:e4:5b:86:d7:36:a6:7f:7a:64:66:70:7c:53:3e:e0:21:fc:
        e5:7e:bd:d6:e0:4e:1c:19:a5:e4:79:73:05:81:69:33:ba:18:
        26:d8:bd:6c:4a:1f:e1:ac:20:ae:82:ac:80:4b:ad:ad:16:ca:
        6a:bb:35:cc:10:98:d2:36:91:32:9f:ca:a2:9c:f2:a3:79:17:
        73:ec:a7:e0:23:65:f0:ad:ad:ec:f1:0a:4c:34:aa:3b:24:10:
        5d:0c:b9:c9:bf:c2:d3:d0:a8:83:ca:49:c2:2e:c8:0a:e5:f9:
        4f:5a:35:3a
-----BEGIN CERTIFICATE-----
MIIERjCCAy6gAwIBAgIBDDANBgkqhkiG9w0BAQsFADBxMQswCQYDVQQGEwJVUzET
MBEGA1UECAwKQ2FsaWZvcm5pYTEUMBIGA1UEBwwLU2FudGEgQ2xhcmExDTALBgNV
BAoMBHBrZzUxEDAOBgNVBAMMB2NoM190YTExFjAUBgkqhkiG9w0BCQEWB2NoM190
YTEwHhcNMjQwNTIzMTU0NzE2WhcNMjcwMjE3MTU0NzE2WjB1MQswCQYDVQQGEwJV
UzETMBEGA1UECAwKQ2FsaWZvcm5pYTEUMBIGA1UEBwwLU2FudGEgQ2xhcmExDTAL
BgNVBAoMBHBrZzUxEjAQBgNVBAMMCWNoNC4zX3RhMTEYMBYGCSqGSIb3DQEJARYJ
Y2g0LjNfdGExMIIBIjANBgkqhkiG9w0BAQEFAAOCAQ8AMIIBCgKCAQEA3QksynGw
8ziB4jBi2OukmFRXAO9qp2PhcqZykHEFuOXoE1C5nTyxU1M7d042T1wzB0/7GdXk
/vHXHFcU9VYknp8QIrLwp46uEgwiLC9kf4W9fib3jKI+j3njtqpCQv/KfP9uM3uF
ho4DQBClNXeJ+UUE3ji6aAoZSENbG+gAWF7y5zsH1xZNdRnZsbQhFCVZCRCKLX36
KeaKF/dYV28oohJlxBOKStegPfj3dqaVd2s0U6UGXeJMnA34Xax70ZpWAxpSgO66
YW/0LBV3re3EV+R0uQcayWUPZXTXfxH74UaR8VCP2VOkF8jmL0AHhwwsFe3yaOVg
5n8IhRC9/7Ud/QIDAQABo4HkMIHhMB0GA1UdDgQWBBRp8zwAxImikcH9uhDcCZKD
LDskLDCBmwYDVR0jBIGTMIGQgBQeuXZupgYNMKvXaT672hfvziLoLaF1pHMwcTEL
MAkGA1UEBhMCVVMxEzARBgNVBAgMCkNhbGlmb3JuaWExFDASBgNVBAcMC1NhbnRh
IENsYXJhMQ0wCwYDVQQKDARwa2c1MRAwDgYDVQQDDAdjaDJfdGExMRYwFAYJKoZI
hvcNAQkBFgdjaDJfdGExggEDMBIGA1UdEwEB/wQIMAYBAf8CAQAwDgYDVR0PAQH/
BAQDAgEGMA0GCSqGSIb3DQEBCwUAA4IBAQBwcVqs0Rn0eQqVjBUqc65hSZvika+E
fpnYX3kIzE6rlJQBFUMbM2wrfgLUMr5M+el/KATCtqv/xAYnh/w4Bu4KBFmCW77Y
Dl2oh2cPy5O4tuMkRRwuk4BOx5QwBpemeYoaN4BmRf0EXR3VEMnxCksrdhsoGEXf
VGGwqAbg0FaWXWkcfLrSNPux2+dTFyTqiTpr5FuG1zamf3pkZnB8Uz7gIfzlfr3W
4E4cGaXkeXMFgWkzuhgm2L1sSh/hrCCugqyAS62tFspquzXMEJjSNpEyn8qinPKj
eRdz7KfgI2Xwra3s8QpMNKo7JBBdDLnJv8LT0KiDyknCLsgK5flPWjU6
-----END CERTIFICATE-----
