Certificate:
    Data:
        Version: 3 (0x2)
        Serial Number: 12 (0xc)
    Signature Algorithm: sha256WithRSAEncryption
        Issuer: C=US, ST=California, L=Santa Clara, O=pkg5, CN=ch3_ta1/emailAddress=ch3_ta1
        Validity
            Not Before: Dec  6 03:06:42 2014 GMT
            Not After : Sep  1 03:06:42 2017 GMT
        Subject: C=US, ST=California, L=Santa Clara, O=pkg5, CN=ch4.3_ta1/emailAddress=ch4.3_ta1
        Subject Public Key Info:
            Public Key Algorithm: rsaEncryption
                Public-Key: (1024 bit)
                Modulus:
                    00:dd:52:02:c5:15:b8:f8:a2:84:d4:b5:53:7c:6b:
                    5c:59:9a:ed:5e:f4:6d:42:b8:a5:9f:80:94:ed:bc:
                    ce:3e:de:3d:22:4c:4e:ca:58:8b:d8:65:1b:b9:b5:
                    a9:d7:51:89:be:b5:b0:96:83:60:95:3c:c4:1c:8b:
                    40:0d:0b:b8:fd:8c:5a:07:5c:97:ad:51:6d:69:a8:
                    aa:07:a4:f2:1f:5d:cc:4b:8e:f4:33:b4:ed:8b:74:
                    72:03:33:fa:ff:a1:02:56:37:97:4f:03:73:03:19:
                    55:03:5f:de:8a:c5:6f:9c:c3:14:b6:a9:e8:61:05:
                    84:3b:fb:b2:10:bc:c7:c9:cd
                Exponent: 65537 (0x10001)
        X509v3 extensions:
            X509v3 Subject Key Identifier: 
                4F:9F:D9:83:FD:A2:D0:89:38:5F:31:7B:2D:38:3B:54:DC:65:63:81
            X509v3 Authority Key Identifier: 
                keyid:D6:18:F4:DC:85:E5:39:00:2D:5D:9F:8F:24:44:86:97:2A:67:3A:72
                DirName:/C=US/ST=California/L=Santa Clara/O=pkg5/CN=ch2_ta1/emailAddress=ch2_ta1
                serial:03

            X509v3 Basic Constraints: critical
                CA:TRUE, pathlen:0
            X509v3 Key Usage: critical
                Certificate Sign, CRL Sign
    Signature Algorithm: sha256WithRSAEncryption
         1d:c1:14:49:63:90:7b:73:b1:0b:8d:e5:47:21:d6:db:e2:3d:
         31:af:af:c9:68:5b:6c:a8:c0:ee:b6:0d:4a:20:6b:0e:00:42:
         6a:73:6a:1a:6d:95:e8:ac:01:e1:1a:ab:34:1a:97:57:e4:98:
         16:bb:ac:1e:84:5e:79:cc:59:b1:d0:a1:13:ff:e6:90:e8:dc:
         52:00:80:20:77:2b:d5:c6:ab:76:34:b8:80:7c:45:2e:e3:4d:
         49:40:c0:84:6d:91:f4:ec:94:f7:e5:6e:b1:2e:89:65:73:1c:
         c7:13:9a:de:82:83:1c:52:1b:9d:9c:ce:cc:3d:e4:79:4e:e7:
         82:c9
-----BEGIN CERTIFICATE-----
MIIDQTCCAqqgAwIBAgIBDDANBgkqhkiG9w0BAQsFADBxMQswCQYDVQQGEwJVUzET
MBEGA1UECAwKQ2FsaWZvcm5pYTEUMBIGA1UEBwwLU2FudGEgQ2xhcmExDTALBgNV
BAoMBHBrZzUxEDAOBgNVBAMMB2NoM190YTExFjAUBgkqhkiG9w0BCQEWB2NoM190
YTEwHhcNMTQxMjA2MDMwNjQyWhcNMTcwOTAxMDMwNjQyWjB1MQswCQYDVQQGEwJV
UzETMBEGA1UECAwKQ2FsaWZvcm5pYTEUMBIGA1UEBwwLU2FudGEgQ2xhcmExDTAL
BgNVBAoMBHBrZzUxEjAQBgNVBAMMCWNoNC4zX3RhMTEYMBYGCSqGSIb3DQEJARYJ
Y2g0LjNfdGExMIGfMA0GCSqGSIb3DQEBAQUAA4GNADCBiQKBgQDdUgLFFbj4ooTU
tVN8a1xZmu1e9G1CuKWfgJTtvM4+3j0iTE7KWIvYZRu5tanXUYm+tbCWg2CVPMQc
i0ANC7j9jFoHXJetUW1pqKoHpPIfXcxLjvQztO2LdHIDM/r/oQJWN5dPA3MDGVUD
X96KxW+cwxS2qehhBYQ7+7IQvMfJzQIDAQABo4HkMIHhMB0GA1UdDgQWBBRPn9mD
/aLQiThfMXstODtU3GVjgTCBmwYDVR0jBIGTMIGQgBTWGPTcheU5AC1dn48kRIaX
Kmc6cqF1pHMwcTELMAkGA1UEBhMCVVMxEzARBgNVBAgMCkNhbGlmb3JuaWExFDAS
BgNVBAcMC1NhbnRhIENsYXJhMQ0wCwYDVQQKDARwa2c1MRAwDgYDVQQDDAdjaDJf
dGExMRYwFAYJKoZIhvcNAQkBFgdjaDJfdGExggEDMBIGA1UdEwEB/wQIMAYBAf8C
AQAwDgYDVR0PAQH/BAQDAgEGMA0GCSqGSIb3DQEBCwUAA4GBAB3BFEljkHtzsQuN
5Uch1tviPTGvr8loW2yowO62DUogaw4AQmpzahptleisAeEaqzQal1fkmBa7rB6E
XnnMWbHQoRP/5pDo3FIAgCB3K9XGq3Y0uIB8RS7jTUlAwIRtkfTslPflbrEuiWVz
HMcTmt6CgxxSG52czsw95HlO54LJ
-----END CERTIFICATE-----
