Certificate:
    Data:
        Version: 3 (0x2)
        Serial Number: 12 (0xc)
        Signature Algorithm: sha256WithRSAEncryption
        Issuer: C=US, ST=California, L=Santa Clara, O=pkg5, CN=ch3_ta1/emailAddress=ch3_ta1
        Validity
            Not Before: Dec 15 15:37:18 2022 GMT
            Not After : Sep 10 15:37:18 2025 GMT
        Subject: C=US, ST=California, L=Santa Clara, O=pkg5, CN=ch4.3_ta1/emailAddress=ch4.3_ta1
        Subject Public Key Info:
            Public Key Algorithm: rsaEncryption
                Public-Key: (2048 bit)
                Modulus:
                    00:c2:31:f0:d3:4a:9d:84:5b:e8:64:f4:56:f0:79:
                    d4:67:b6:78:ef:2e:0c:29:bb:97:ee:72:7b:91:83:
                    f7:ec:b9:69:e5:c8:b8:8d:3d:25:dd:08:2d:e7:b8:
                    ed:97:e5:cd:3a:27:1b:59:c5:6f:d2:fe:bb:a0:ac:
                    0b:2a:ec:10:ab:36:12:9f:ba:dc:cb:b0:1c:fb:a5:
                    c1:20:73:f9:8f:99:da:05:d5:9b:64:db:a6:e6:f7:
                    53:83:5f:3a:4b:9b:36:75:98:3e:25:3d:e1:90:cd:
                    6b:98:8b:3c:9b:aa:46:d8:b3:ec:af:bb:cf:74:3c:
                    27:eb:3b:cd:6c:7e:93:02:3c:3d:d7:a2:90:c7:ef:
                    4f:a0:63:0f:09:45:0e:14:3c:5b:02:2e:95:dd:a4:
                    26:14:52:29:02:5c:b5:a2:1a:21:bf:f1:3b:67:61:
                    7f:99:a9:42:94:8f:55:8a:56:9b:a5:e8:36:5a:69:
                    0b:39:3e:97:9f:2a:be:1f:3d:d7:e6:1f:6d:0f:0b:
                    66:15:8e:77:a1:ff:5e:27:65:e8:84:f9:17:e1:8d:
                    01:65:b8:85:72:0c:c9:5f:30:4e:61:3d:ad:62:10:
                    40:77:a8:e2:6d:7e:47:c0:91:af:3b:cb:e6:cb:00:
                    02:f2:ac:1b:57:ce:50:f3:1e:d2:52:76:96:64:bc:
                    c7:fd
                Exponent: 65537 (0x10001)
        X509v3 extensions:
            X509v3 Subject Key Identifier: 
                49:65:6B:9B:D0:AA:DE:B6:58:E9:8D:59:D4:EF:B4:B8:89:5B:E1:E5
            X509v3 Authority Key Identifier: 
                keyid:F6:37:23:0C:E9:57:08:CC:5D:CA:74:1C:B8:7D:DF:7B:F9:F7:1A:8B
                DirName:/C=US/ST=California/L=Santa Clara/O=pkg5/CN=ch2_ta1/emailAddress=ch2_ta1
                serial:03
            X509v3 Basic Constraints: critical
                CA:TRUE, pathlen:0
            X509v3 Key Usage: critical
                Certificate Sign, CRL Sign
    Signature Algorithm: sha256WithRSAEncryption
    Signature Value:
        32:bf:a8:87:06:ed:89:56:44:fe:cd:5a:45:79:bf:d2:aa:c4:
        b5:e0:a7:0d:8c:3a:3c:77:f3:18:f2:22:b2:d3:4a:4b:ee:ec:
        d0:a9:e5:f5:1b:4c:fa:61:58:5b:64:1e:a6:a9:6f:2f:a5:d9:
        89:49:5a:8c:dc:b2:7b:aa:bb:49:da:ef:59:aa:81:b6:40:79:
        fc:ae:e8:28:b4:99:c2:ae:46:78:ca:11:ac:09:b8:42:f9:91:
        f4:94:fd:3b:98:83:7e:66:17:49:6b:ea:57:e2:d6:3a:44:31:
        1b:47:02:cb:97:2a:0d:73:06:93:c8:ca:14:0c:fc:78:d6:1a:
        0e:7e:31:2f:a3:07:9a:45:93:8a:1e:76:85:6c:dd:73:48:fd:
        87:45:51:52:3f:aa:23:f0:6e:76:9c:cb:96:68:6d:c5:68:c8:
        1a:e4:a7:45:04:a3:80:d4:c2:92:5d:d1:bc:bb:41:f2:bc:79:
        40:af:40:3c:15:ea:7e:b4:8a:46:2c:69:85:64:c5:99:91:b5:
        a3:ce:06:1a:3f:64:da:3b:a8:71:f9:09:00:1f:bb:7a:71:be:
        35:e9:f2:0c:12:49:ba:c9:72:94:4d:11:14:6c:bd:0e:eb:33:
        01:9b:3f:d8:1c:46:99:35:a6:3d:38:c6:5d:0b:06:fa:45:59:
        27:a3:2b:7e
-----BEGIN CERTIFICATE-----
MIIERjCCAy6gAwIBAgIBDDANBgkqhkiG9w0BAQsFADBxMQswCQYDVQQGEwJVUzET
MBEGA1UECAwKQ2FsaWZvcm5pYTEUMBIGA1UEBwwLU2FudGEgQ2xhcmExDTALBgNV
BAoMBHBrZzUxEDAOBgNVBAMMB2NoM190YTExFjAUBgkqhkiG9w0BCQEWB2NoM190
YTEwHhcNMjIxMjE1MTUzNzE4WhcNMjUwOTEwMTUzNzE4WjB1MQswCQYDVQQGEwJV
UzETMBEGA1UECAwKQ2FsaWZvcm5pYTEUMBIGA1UEBwwLU2FudGEgQ2xhcmExDTAL
BgNVBAoMBHBrZzUxEjAQBgNVBAMMCWNoNC4zX3RhMTEYMBYGCSqGSIb3DQEJARYJ
Y2g0LjNfdGExMIIBIjANBgkqhkiG9w0BAQEFAAOCAQ8AMIIBCgKCAQEAwjHw00qd
hFvoZPRW8HnUZ7Z47y4MKbuX7nJ7kYP37Llp5ci4jT0l3Qgt57jtl+XNOicbWcVv
0v67oKwLKuwQqzYSn7rcy7Ac+6XBIHP5j5naBdWbZNum5vdTg186S5s2dZg+JT3h
kM1rmIs8m6pG2LPsr7vPdDwn6zvNbH6TAjw916KQx+9PoGMPCUUOFDxbAi6V3aQm
FFIpAly1ohohv/E7Z2F/malClI9Vilabpeg2WmkLOT6Xnyq+Hz3X5h9tDwtmFY53
of9eJ2XohPkX4Y0BZbiFcgzJXzBOYT2tYhBAd6jibX5HwJGvO8vmywAC8qwbV85Q
8x7SUnaWZLzH/QIDAQABo4HkMIHhMB0GA1UdDgQWBBRJZWub0KretljpjVnU77S4
iVvh5TCBmwYDVR0jBIGTMIGQgBT2NyMM6VcIzF3KdBy4fd97+fcai6F1pHMwcTEL
MAkGA1UEBhMCVVMxEzARBgNVBAgMCkNhbGlmb3JuaWExFDASBgNVBAcMC1NhbnRh
IENsYXJhMQ0wCwYDVQQKDARwa2c1MRAwDgYDVQQDDAdjaDJfdGExMRYwFAYJKoZI
hvcNAQkBFgdjaDJfdGExggEDMBIGA1UdEwEB/wQIMAYBAf8CAQAwDgYDVR0PAQH/
BAQDAgEGMA0GCSqGSIb3DQEBCwUAA4IBAQAyv6iHBu2JVkT+zVpFeb/SqsS14KcN
jDo8d/MY8iKy00pL7uzQqeX1G0z6YVhbZB6mqW8vpdmJSVqM3LJ7qrtJ2u9ZqoG2
QHn8rugotJnCrkZ4yhGsCbhC+ZH0lP07mIN+ZhdJa+pX4tY6RDEbRwLLlyoNcwaT
yMoUDPx41hoOfjEvoweaRZOKHnaFbN1zSP2HRVFSP6oj8G52nMuWaG3FaMga5KdF
BKOA1MKSXdG8u0HyvHlAr0A8Fep+tIpGLGmFZMWZkbWjzgYaP2TaO6hx+QkAH7t6
cb416fIMEkm6yXKUTREUbL0O6zMBmz/YHEaZNaY9OMZdCwb6RVknoyt+
-----END CERTIFICATE-----
