Certificate:
    Data:
        Version: 3 (0x2)
        Serial Number: 12 (0xc)
        Signature Algorithm: sha256WithRSAEncryption
        Issuer: C=US, ST=California, L=Santa Clara, O=pkg5, CN=ch3_ta1/emailAddress=ch3_ta1
        Validity
            Not Before: Oct 24 21:43:02 2023 GMT
            Not After : Jul 20 21:43:02 2026 GMT
        Subject: C=US, ST=California, L=Santa Clara, O=pkg5, CN=ch4.3_ta1/emailAddress=ch4.3_ta1
        Subject Public Key Info:
            Public Key Algorithm: rsaEncryption
                Public-Key: (2048 bit)
                Modulus:
                    00:a1:98:35:a4:2a:c5:0f:a0:c7:a5:c9:48:23:4d:
                    c0:fe:7e:9c:03:43:60:6e:b1:bb:70:6f:af:c6:8e:
                    b7:79:13:47:f4:47:c8:ae:20:12:ca:c3:a2:44:bb:
                    58:ad:89:b3:e0:fe:03:ce:3f:19:01:73:f1:19:20:
                    84:9d:50:b0:40:e5:99:d9:cb:cf:d9:f1:ae:ca:9b:
                    9b:73:f7:ec:56:d2:ac:2d:68:5c:3d:77:69:cd:eb:
                    28:38:d7:48:fb:a9:d4:46:69:b4:af:3c:08:6e:7e:
                    6f:08:6b:ee:11:e6:4f:b0:ef:20:3f:b2:85:63:cd:
                    69:d2:c4:78:70:b8:0b:89:4f:34:3f:11:57:bb:03:
                    be:a6:53:81:e9:15:5c:00:a3:eb:d2:b2:19:1d:1a:
                    9b:93:74:ea:09:15:60:1f:25:68:4f:81:51:6a:6c:
                    e1:67:52:0f:2f:8a:5d:ed:48:93:62:4e:2e:44:d1:
                    b3:f9:e7:c3:0a:e4:8b:79:4d:0c:95:9f:3f:79:0d:
                    b5:a6:85:16:99:4e:47:33:c1:54:5b:20:b2:8b:cd:
                    6f:f0:a1:b5:7c:66:6e:71:8f:c4:f9:fe:25:da:ee:
                    77:4a:dc:1c:e9:f1:72:78:d6:27:79:4c:00:0c:85:
                    82:79:f3:c1:1c:f1:45:b6:f9:30:ea:63:77:a5:e7:
                    c5:9b
                Exponent: 65537 (0x10001)
        X509v3 extensions:
            X509v3 Subject Key Identifier: 
                F0:85:9D:02:4D:FD:F7:DE:28:7B:D9:A5:CC:78:6E:11:AF:DC:A9:EE
            X509v3 Authority Key Identifier: 
                keyid:E0:51:33:F5:C1:D6:F1:14:C5:B4:E1:75:EE:81:DA:14:E2:00:F6:88
                DirName:/C=US/ST=California/L=Santa Clara/O=pkg5/CN=ch2_ta1/emailAddress=ch2_ta1
                serial:03
            X509v3 Basic Constraints: critical
                CA:TRUE, pathlen:0
            X509v3 Key Usage: critical
                Certificate Sign, CRL Sign
    Signature Algorithm: sha256WithRSAEncryption
    Signature Value:
        5d:9a:b9:11:1f:81:b6:1c:10:b0:69:6d:55:4e:e3:e6:50:b9:
        e8:27:91:88:57:7a:ec:43:48:ba:56:ee:0d:96:1b:b3:3f:a7:
        cf:f3:09:61:46:10:68:39:a1:97:aa:37:4b:25:a5:3d:6b:33:
        13:23:3b:a1:14:d5:f1:60:29:36:d4:ef:92:46:36:c5:e9:cf:
        d8:52:be:b1:20:0c:18:73:2a:8d:78:6e:cd:71:53:97:5e:0f:
        4d:a1:5f:e4:60:98:2e:21:6c:f8:e2:4d:42:de:77:47:c2:89:
        12:f1:8c:e8:9d:cd:75:24:48:3a:df:e2:3b:c2:95:bc:e1:36:
        75:ca:87:6a:cf:ee:9f:e5:1c:a6:35:50:4d:cf:c4:ee:4b:c6:
        8a:46:e8:56:40:f4:36:62:3c:71:0f:8c:6a:6d:df:44:42:fb:
        cf:33:ba:98:1a:b1:59:ad:01:18:e5:98:bd:58:2b:4c:27:60:
        65:45:29:98:2c:ef:ab:97:da:21:d5:9e:60:a4:dc:30:f3:72:
        75:0b:7f:c2:9d:49:11:54:37:11:e8:63:72:59:86:8f:d4:fa:
        5d:71:be:bb:50:50:53:9c:d6:79:45:82:df:80:7f:b1:bf:02:
        48:c2:41:8a:f9:24:2d:c0:68:b3:fc:c0:28:ff:7f:e1:94:f2:
        1c:a9:08:21
-----BEGIN CERTIFICATE-----
MIIERjCCAy6gAwIBAgIBDDANBgkqhkiG9w0BAQsFADBxMQswCQYDVQQGEwJVUzET
MBEGA1UECAwKQ2FsaWZvcm5pYTEUMBIGA1UEBwwLU2FudGEgQ2xhcmExDTALBgNV
BAoMBHBrZzUxEDAOBgNVBAMMB2NoM190YTExFjAUBgkqhkiG9w0BCQEWB2NoM190
YTEwHhcNMjMxMDI0MjE0MzAyWhcNMjYwNzIwMjE0MzAyWjB1MQswCQYDVQQGEwJV
UzETMBEGA1UECAwKQ2FsaWZvcm5pYTEUMBIGA1UEBwwLU2FudGEgQ2xhcmExDTAL
BgNVBAoMBHBrZzUxEjAQBgNVBAMMCWNoNC4zX3RhMTEYMBYGCSqGSIb3DQEJARYJ
Y2g0LjNfdGExMIIBIjANBgkqhkiG9w0BAQEFAAOCAQ8AMIIBCgKCAQEAoZg1pCrF
D6DHpclII03A/n6cA0NgbrG7cG+vxo63eRNH9EfIriASysOiRLtYrYmz4P4Dzj8Z
AXPxGSCEnVCwQOWZ2cvP2fGuypubc/fsVtKsLWhcPXdpzesoONdI+6nURmm0rzwI
bn5vCGvuEeZPsO8gP7KFY81p0sR4cLgLiU80PxFXuwO+plOB6RVcAKPr0rIZHRqb
k3TqCRVgHyVoT4FRamzhZ1IPL4pd7UiTYk4uRNGz+efDCuSLeU0MlZ8/eQ21poUW
mU5HM8FUWyCyi81v8KG1fGZucY/E+f4l2u53Stwc6fFyeNYneUwADIWCefPBHPFF
tvkw6mN3pefFmwIDAQABo4HkMIHhMB0GA1UdDgQWBBTwhZ0CTf333ih72aXMeG4R
r9yp7jCBmwYDVR0jBIGTMIGQgBTgUTP1wdbxFMW04XXugdoU4gD2iKF1pHMwcTEL
MAkGA1UEBhMCVVMxEzARBgNVBAgMCkNhbGlmb3JuaWExFDASBgNVBAcMC1NhbnRh
IENsYXJhMQ0wCwYDVQQKDARwa2c1MRAwDgYDVQQDDAdjaDJfdGExMRYwFAYJKoZI
hvcNAQkBFgdjaDJfdGExggEDMBIGA1UdEwEB/wQIMAYBAf8CAQAwDgYDVR0PAQH/
BAQDAgEGMA0GCSqGSIb3DQEBCwUAA4IBAQBdmrkRH4G2HBCwaW1VTuPmULnoJ5GI
V3rsQ0i6Vu4NlhuzP6fP8wlhRhBoOaGXqjdLJaU9azMTIzuhFNXxYCk21O+SRjbF
6c/YUr6xIAwYcyqNeG7NcVOXXg9NoV/kYJguIWz44k1C3ndHwokS8Yzonc11JEg6
3+I7wpW84TZ1yodqz+6f5RymNVBNz8TuS8aKRuhWQPQ2YjxxD4xqbd9EQvvPM7qY
GrFZrQEY5Zi9WCtMJ2BlRSmYLO+rl9oh1Z5gpNww83J1C3/CnUkRVDcR6GNyWYaP
1Ppdcb67UFBTnNZ5RYLfgH+xvwJIwkGK+SQtwGiz/MAo/3/hlPIcqQgh
-----END CERTIFICATE-----
