Certificate:
    Data:
        Version: 3 (0x2)
        Serial Number: 12 (0xc)
        Signature Algorithm: sha256WithRSAEncryption
        Issuer: C=US, ST=California, L=Santa Clara, O=pkg5, CN=ch3_ta1/emailAddress=ch3_ta1
        Validity
            Not Before: Oct 22 10:15:08 2021 GMT
            Not After : Jul 18 10:15:08 2024 GMT
        Subject: C=US, ST=California, L=Santa Clara, O=pkg5, CN=ch4.3_ta1/emailAddress=ch4.3_ta1
        Subject Public Key Info:
            Public Key Algorithm: rsaEncryption
                Public-Key: (2048 bit)
                Modulus:
                    00:a0:b2:52:63:4d:5b:06:a9:cd:1b:f1:45:f1:b6:
                    15:3f:45:eb:8f:b3:a7:ec:50:42:29:bb:ac:bc:2a:
                    27:a4:3a:12:2b:71:d0:1c:fd:0c:2c:5c:74:4f:07:
                    35:03:32:09:9e:62:f1:2e:ba:30:65:20:46:0f:7a:
                    20:97:45:3f:c2:d4:6b:7f:10:3f:38:ba:1d:58:ee:
                    b6:cc:39:af:09:64:0b:74:46:32:11:a2:cf:6e:12:
                    c4:11:eb:ea:2f:87:64:fb:db:1e:ed:eb:eb:d0:31:
                    a4:a3:83:cf:64:54:98:57:94:58:3a:f6:32:b7:54:
                    e4:3f:0a:1c:39:17:3e:b4:7d:f4:04:6a:60:25:3e:
                    5c:ca:b9:5f:da:7a:24:26:76:e4:f7:1c:9c:af:8e:
                    30:b7:cf:5c:9d:99:8e:0a:ed:f5:88:b7:b9:06:02:
                    82:d5:90:d0:13:20:e0:a8:94:6c:dd:cb:51:75:a3:
                    da:b3:a4:0c:96:6f:d3:99:cd:b3:1c:2e:19:f6:e6:
                    ed:8b:e4:5b:b5:48:c7:1b:08:1a:b4:10:2f:c9:b8:
                    09:f3:3f:14:83:88:8a:72:71:3e:39:f6:48:92:bb:
                    ee:68:65:4a:ff:a5:ad:66:a6:4f:14:ef:7e:bd:f0:
                    aa:de:14:a2:67:64:31:4e:3d:ec:e6:b6:3d:35:5c:
                    4a:8b
                Exponent: 65537 (0x10001)
        X509v3 extensions:
            X509v3 Subject Key Identifier: 
                A2:E8:11:2D:F1:8D:D6:80:46:3F:FA:EB:F0:E9:0B:9B:6E:B3:C7:CA
            X509v3 Authority Key Identifier: 
                keyid:9C:29:86:7E:84:2F:00:DD:2A:1D:B3:22:03:9A:F5:7A:BD:18:E5:CF
                DirName:/C=US/ST=California/L=Santa Clara/O=pkg5/CN=ch2_ta1/emailAddress=ch2_ta1
                serial:03
            X509v3 Basic Constraints: critical
                CA:TRUE, pathlen:0
            X509v3 Key Usage: critical
                Certificate Sign, CRL Sign
    Signature Algorithm: sha256WithRSAEncryption
    Signature Value:
        2f:24:ee:d6:3b:c9:ad:4d:a6:76:55:e6:36:2a:f6:ab:b5:bb:
        0d:f3:7a:6f:1f:c6:d6:08:d1:4d:01:51:21:92:11:48:ed:81:
        12:4e:54:cd:9c:60:39:04:12:0a:8c:e5:97:e9:10:8b:85:7d:
        66:a1:f4:47:1a:78:0a:53:d5:d6:27:44:e4:17:02:4e:a1:0e:
        83:65:41:20:04:2b:bd:45:4d:39:bc:ee:3d:2c:05:05:b7:35:
        85:0a:8b:b1:cb:f0:a3:52:0b:2b:b2:ba:90:d7:3e:68:36:a0:
        3d:ad:d6:f5:1b:c3:35:2f:5f:19:bf:3d:ea:97:3b:e7:5c:c4:
        0a:b5:1b:5c:e9:8d:6b:4e:8a:d8:02:4c:89:f4:79:6d:4a:61:
        1f:7d:3c:67:ff:7c:69:32:d0:da:0a:35:78:1b:a7:52:25:08:
        4f:6b:7e:e6:82:bf:83:b5:f9:66:b0:6f:df:42:4c:d7:ef:da:
        0d:99:43:ce:6d:56:66:86:ae:b5:17:f0:54:f2:46:6f:b4:e5:
        0a:d7:35:f1:63:91:1d:e3:64:65:2f:a2:d9:df:2a:9d:23:34:
        cd:0e:20:50:93:2c:46:98:bf:4f:3d:71:48:d3:33:8e:34:a8:
        4e:e1:83:95:85:8a:7a:68:ea:54:7e:9d:37:66:66:c3:c5:66:
        e3:4a:65:ea
-----BEGIN CERTIFICATE-----
MIIERjCCAy6gAwIBAgIBDDANBgkqhkiG9w0BAQsFADBxMQswCQYDVQQGEwJVUzET
MBEGA1UECAwKQ2FsaWZvcm5pYTEUMBIGA1UEBwwLU2FudGEgQ2xhcmExDTALBgNV
BAoMBHBrZzUxEDAOBgNVBAMMB2NoM190YTExFjAUBgkqhkiG9w0BCQEWB2NoM190
YTEwHhcNMjExMDIyMTAxNTA4WhcNMjQwNzE4MTAxNTA4WjB1MQswCQYDVQQGEwJV
UzETMBEGA1UECAwKQ2FsaWZvcm5pYTEUMBIGA1UEBwwLU2FudGEgQ2xhcmExDTAL
BgNVBAoMBHBrZzUxEjAQBgNVBAMMCWNoNC4zX3RhMTEYMBYGCSqGSIb3DQEJARYJ
Y2g0LjNfdGExMIIBIjANBgkqhkiG9w0BAQEFAAOCAQ8AMIIBCgKCAQEAoLJSY01b
BqnNG/FF8bYVP0Xrj7On7FBCKbusvConpDoSK3HQHP0MLFx0Twc1AzIJnmLxLrow
ZSBGD3ogl0U/wtRrfxA/OLodWO62zDmvCWQLdEYyEaLPbhLEEevqL4dk+9se7evr
0DGko4PPZFSYV5RYOvYyt1TkPwocORc+tH30BGpgJT5cyrlf2nokJnbk9xycr44w
t89cnZmOCu31iLe5BgKC1ZDQEyDgqJRs3ctRdaPas6QMlm/Tmc2zHC4Z9ubti+Rb
tUjHGwgatBAvybgJ8z8Ug4iKcnE+OfZIkrvuaGVK/6WtZqZPFO9+vfCq3hSiZ2Qx
Tj3s5rY9NVxKiwIDAQABo4HkMIHhMB0GA1UdDgQWBBSi6BEt8Y3WgEY/+uvw6Qub
brPHyjCBmwYDVR0jBIGTMIGQgBScKYZ+hC8A3SodsyIDmvV6vRjlz6F1pHMwcTEL
MAkGA1UEBhMCVVMxEzARBgNVBAgMCkNhbGlmb3JuaWExFDASBgNVBAcMC1NhbnRh
IENsYXJhMQ0wCwYDVQQKDARwa2c1MRAwDgYDVQQDDAdjaDJfdGExMRYwFAYJKoZI
hvcNAQkBFgdjaDJfdGExggEDMBIGA1UdEwEB/wQIMAYBAf8CAQAwDgYDVR0PAQH/
BAQDAgEGMA0GCSqGSIb3DQEBCwUAA4IBAQAvJO7WO8mtTaZ2VeY2KvartbsN83pv
H8bWCNFNAVEhkhFI7YESTlTNnGA5BBIKjOWX6RCLhX1mofRHGngKU9XWJ0TkFwJO
oQ6DZUEgBCu9RU05vO49LAUFtzWFCouxy/CjUgsrsrqQ1z5oNqA9rdb1G8M1L18Z
vz3qlzvnXMQKtRtc6Y1rTorYAkyJ9HltSmEffTxn/3xpMtDaCjV4G6dSJQhPa37m
gr+DtflmsG/fQkzX79oNmUPObVZmhq61F/BU8kZvtOUK1zXxY5Ed42RlL6LZ3yqd
IzTNDiBQkyxGmL9PPXFI0zOONKhO4YOVhYp6aOpUfp03ZmbDxWbjSmXq
-----END CERTIFICATE-----
