Certificate:
    Data:
        Version: 3 (0x2)
        Serial Number: 13 (0xd)
        Signature Algorithm: sha256WithRSAEncryption
        Issuer: C=US, ST=California, L=Santa Clara, O=pkg5, CN=ch4.3_ta1/emailAddress=ch4.3_ta1
        Validity
            Not Before: Oct 22 10:15:09 2021 GMT
            Not After : Jul 18 10:15:09 2024 GMT
        Subject: C=US, ST=California, L=Santa Clara, O=pkg5, CN=ch5.3_ta1/emailAddress=ch5.3_ta1
        Subject Public Key Info:
            Public Key Algorithm: rsaEncryption
                Public-Key: (2048 bit)
                Modulus:
                    00:aa:76:82:85:22:24:cc:b0:5e:74:7d:04:65:20:
                    73:ba:c4:80:64:14:5f:51:6b:e4:85:72:94:ee:c3:
                    63:33:66:38:e7:af:a3:06:6f:9c:40:0d:a3:d6:af:
                    79:38:0a:e2:94:5b:25:76:72:b8:e8:64:6e:69:d5:
                    ce:ee:e9:64:f0:17:36:a2:a1:14:78:7f:ff:2d:fb:
                    d9:74:b8:92:3b:b8:56:6b:00:fa:ba:64:37:0a:2f:
                    22:57:d3:af:7c:ac:b9:ee:c3:df:67:96:ab:e8:1c:
                    6b:02:f7:f0:88:f8:aa:37:cc:1a:04:43:45:c7:27:
                    de:7c:39:ec:3f:14:56:ee:6c:24:f3:cf:0b:82:b6:
                    f2:38:d5:bf:9b:e1:13:32:a3:80:5f:c7:14:d5:54:
                    0b:4e:bd:00:ef:e1:a0:3e:e3:b5:65:54:98:76:39:
                    90:77:94:5e:82:7b:8d:6d:ce:c4:42:20:c8:8b:f0:
                    b5:06:f9:77:0e:48:de:ad:09:e6:e6:9a:20:90:71:
                    ef:0b:c5:32:58:47:cb:96:76:2f:b3:bd:ac:dc:a2:
                    d1:8a:87:7a:02:4e:7c:c9:6d:81:8c:fe:36:a0:b8:
                    2a:02:ba:73:30:29:84:8d:b0:17:25:46:4f:dd:12:
                    e4:21:e4:7d:df:9c:20:79:7a:e9:bc:4a:39:0b:5d:
                    9c:b3
                Exponent: 65537 (0x10001)
        X509v3 extensions:
            X509v3 Subject Key Identifier: 
                14:63:DE:43:62:5C:2B:95:21:55:08:CE:D2:B0:BF:2D:B9:ED:C0:34
            X509v3 Authority Key Identifier: 
                keyid:A2:E8:11:2D:F1:8D:D6:80:46:3F:FA:EB:F0:E9:0B:9B:6E:B3:C7:CA
                DirName:/C=US/ST=California/L=Santa Clara/O=pkg5/CN=ch3_ta1/emailAddress=ch3_ta1
                serial:0C
            X509v3 Basic Constraints: critical
                CA:TRUE, pathlen:0
            X509v3 Key Usage: critical
                Certificate Sign, CRL Sign
    Signature Algorithm: sha256WithRSAEncryption
    Signature Value:
        2c:0a:2e:1e:9d:63:35:78:7e:3e:fd:7d:a7:3e:e9:12:37:1f:
        8d:fc:07:cf:7e:aa:ff:41:ef:9d:69:c2:2d:64:39:2e:7a:83:
        bb:c4:a5:74:e7:fb:46:2a:36:4b:b6:07:9c:cb:46:6e:cc:17:
        4e:0a:c3:37:fa:12:aa:43:c6:91:12:e7:6a:f5:15:cf:e7:e6:
        5e:0b:a6:c4:c5:ff:08:73:5d:50:fb:92:75:e5:6e:90:d9:41:
        42:a6:48:98:ab:3e:1d:52:8b:c5:ca:9a:2d:74:b1:1d:04:22:
        06:18:6c:51:96:53:c7:03:18:2a:b9:6c:b7:68:db:33:ad:3f:
        14:3e:8d:ac:ec:d5:f0:70:90:c7:12:30:b1:41:13:23:47:d7:
        02:58:fe:6f:f5:20:84:6f:b8:4b:e0:36:75:5d:91:79:1f:4a:
        3e:19:4d:93:d6:48:f4:cc:e9:d9:4f:7b:1c:60:d5:db:6a:21:
        10:33:1e:60:b1:b6:7d:f6:b7:06:4f:66:d7:30:22:90:ba:e5:
        fa:12:65:ec:68:d0:8f:d8:52:cd:97:64:0f:26:5a:b9:7a:bd:
        cd:69:9e:2d:10:23:16:fd:34:6c:a3:f7:00:90:4f:51:a0:64:
        29:9b:7f:cb:e3:c7:2c:b2:b8:49:e8:e2:55:76:05:04:db:86:
        c0:c2:f8:ae
-----BEGIN CERTIFICATE-----
MIIESjCCAzKgAwIBAgIBDTANBgkqhkiG9w0BAQsFADB1MQswCQYDVQQGEwJVUzET
MBEGA1UECAwKQ2FsaWZvcm5pYTEUMBIGA1UEBwwLU2FudGEgQ2xhcmExDTALBgNV
BAoMBHBrZzUxEjAQBgNVBAMMCWNoNC4zX3RhMTEYMBYGCSqGSIb3DQEJARYJY2g0
LjNfdGExMB4XDTIxMTAyMjEwMTUwOVoXDTI0MDcxODEwMTUwOVowdTELMAkGA1UE
BhMCVVMxEzARBgNVBAgMCkNhbGlmb3JuaWExFDASBgNVBAcMC1NhbnRhIENsYXJh
MQ0wCwYDVQQKDARwa2c1MRIwEAYDVQQDDAljaDUuM190YTExGDAWBgkqhkiG9w0B
CQEWCWNoNS4zX3RhMTCCASIwDQYJKoZIhvcNAQEBBQADggEPADCCAQoCggEBAKp2
goUiJMywXnR9BGUgc7rEgGQUX1Fr5IVylO7DYzNmOOevowZvnEANo9aveTgK4pRb
JXZyuOhkbmnVzu7pZPAXNqKhFHh//y372XS4kju4VmsA+rpkNwovIlfTr3ysue7D
32eWq+gcawL38Ij4qjfMGgRDRccn3nw57D8UVu5sJPPPC4K28jjVv5vhEzKjgF/H
FNVUC069AO/hoD7jtWVUmHY5kHeUXoJ7jW3OxEIgyIvwtQb5dw5I3q0J5uaaIJBx
7wvFMlhHy5Z2L7O9rNyi0YqHegJOfMltgYz+NqC4KgK6czAphI2wFyVGT90S5CHk
fd+cIHl66bxKOQtdnLMCAwEAAaOB5DCB4TAdBgNVHQ4EFgQUFGPeQ2JcK5UhVQjO
0rC/LbntwDQwgZsGA1UdIwSBkzCBkIAUougRLfGN1oBGP/rr8OkLm26zx8qhdaRz
MHExCzAJBgNVBAYTAlVTMRMwEQYDVQQIDApDYWxpZm9ybmlhMRQwEgYDVQQHDAtT
YW50YSBDbGFyYTENMAsGA1UECgwEcGtnNTEQMA4GA1UEAwwHY2gzX3RhMTEWMBQG
CSqGSIb3DQEJARYHY2gzX3RhMYIBDDASBgNVHRMBAf8ECDAGAQH/AgEAMA4GA1Ud
DwEB/wQEAwIBBjANBgkqhkiG9w0BAQsFAAOCAQEALAouHp1jNXh+Pv19pz7pEjcf
jfwHz36q/0HvnWnCLWQ5LnqDu8SldOf7Rio2S7YHnMtGbswXTgrDN/oSqkPGkRLn
avUVz+fmXgumxMX/CHNdUPuSdeVukNlBQqZImKs+HVKLxcqaLXSxHQQiBhhsUZZT
xwMYKrlst2jbM60/FD6NrOzV8HCQxxIwsUETI0fXAlj+b/UghG+4S+A2dV2ReR9K
PhlNk9ZI9Mzp2U97HGDV22ohEDMeYLG2ffa3Bk9m1zAikLrl+hJl7GjQj9hSzZdk
DyZauXq9zWmeLRAjFv00bKP3AJBPUaBkKZt/y+PHLLK4SejiVXYFBNuGwML4rg==
-----END CERTIFICATE-----
