Certificate:
    Data:
        Version: 3 (0x2)
        Serial Number: 13 (0xd)
        Signature Algorithm: sha256WithRSAEncryption
        Issuer: C=US, ST=California, L=Santa Clara, O=pkg5, CN=ch4.3_ta1/emailAddress=ch4.3_ta1
        Validity
            Not Before: May 23 15:47:16 2024 GMT
            Not After : Feb 17 15:47:16 2027 GMT
        Subject: C=US, ST=California, L=Santa Clara, O=pkg5, CN=ch5.3_ta1/emailAddress=ch5.3_ta1
        Subject Public Key Info:
            Public Key Algorithm: rsaEncryption
                Public-Key: (2048 bit)
                Modulus:
                    00:be:80:50:9d:1c:52:99:8f:5c:d7:53:07:6b:05:
                    cb:60:77:a3:65:04:a5:12:17:10:35:6b:8e:31:57:
                    54:90:a4:49:8e:71:63:cd:96:5a:f2:ce:5b:f8:a7:
                    35:9d:bd:fe:fd:96:d3:a5:6d:95:8b:9c:b3:de:30:
                    e0:8f:2e:2e:db:1a:b7:1f:8e:ff:10:e3:88:d6:de:
                    e6:dc:c9:54:47:2f:eb:e2:6d:a0:fe:a6:b7:db:4f:
                    b2:93:1c:55:9d:6e:58:8a:b2:20:91:f9:17:45:0a:
                    36:8a:ea:7c:10:cd:81:98:de:2d:b1:cd:67:48:e1:
                    5a:c2:5f:74:29:83:bc:81:f7:a8:63:1c:5e:8a:7f:
                    76:81:dc:30:9f:af:72:3b:10:18:d2:a0:13:70:e8:
                    08:33:53:f2:22:0e:f2:72:b4:d2:57:e6:fb:af:db:
                    b3:6e:86:4f:c8:a0:da:b8:c6:eb:22:53:d4:66:3b:
                    28:75:42:42:cf:e4:5c:c0:1d:11:04:b8:06:53:2f:
                    a3:bb:7d:26:47:e3:a0:ac:a3:8c:40:5e:4e:4d:01:
                    fc:fc:7b:9e:e8:18:05:1c:0c:6d:a6:6b:60:69:8d:
                    56:b6:4a:13:64:e6:6e:91:ca:37:7a:85:9d:ed:02:
                    29:44:7a:29:71:a3:2e:be:74:23:3c:61:34:d4:a9:
                    b9:23
                Exponent: 65537 (0x10001)
        X509v3 extensions:
            X509v3 Subject Key Identifier: 
                B2:B5:5E:5C:EE:BC:F4:DF:0A:05:DA:24:78:DD:02:84:B4:6F:57:44
            X509v3 Authority Key Identifier: 
                keyid:69:F3:3C:00:C4:89:A2:91:C1:FD:BA:10:DC:09:92:83:2C:3B:24:2C
                DirName:/C=US/ST=California/L=Santa Clara/O=pkg5/CN=ch3_ta1/emailAddress=ch3_ta1
                serial:0C
            X509v3 Basic Constraints: critical
                CA:TRUE, pathlen:0
            X509v3 Key Usage: critical
                Certificate Sign, CRL Sign
    Signature Algorithm: sha256WithRSAEncryption
    Signature Value:
        c8:49:1c:4b:6d:3b:04:80:f6:8f:66:be:04:df:08:53:61:4a:
        14:6d:3c:56:5d:fa:46:30:8a:83:5a:30:ed:4f:62:80:67:05:
        4d:63:64:a1:9e:56:34:6d:04:f7:2d:18:19:56:ab:f5:59:66:
        af:eb:73:8d:96:a8:67:1f:e5:76:31:29:b8:b6:7a:2a:79:bb:
        33:f2:59:fd:75:cc:2a:d0:b6:35:40:d0:a6:39:ad:6d:9d:d4:
        3a:96:43:04:96:0d:2f:1c:24:23:56:7c:22:a7:03:b8:67:98:
        5f:47:14:e2:be:15:b4:cc:83:ae:ca:e7:d0:56:01:c3:b3:b8:
        b6:6a:1b:92:7e:41:04:48:e7:a6:2d:39:46:98:a2:10:0a:40:
        11:4d:e8:e6:42:26:dc:c5:b5:22:c7:51:65:85:96:a2:61:bb:
        92:be:32:5a:03:4b:43:af:6a:73:1b:05:0a:57:e0:de:bd:72:
        b2:69:e2:e0:ee:f6:ee:68:68:86:7d:fd:5c:88:45:30:94:71:
        c5:c7:c8:85:78:00:24:42:57:25:00:6a:9f:4e:33:f6:b5:12:
        72:b4:48:0d:9f:78:e4:12:a9:b9:e1:93:fd:73:b9:94:38:4b:
        06:9b:d7:98:8b:be:5f:e6:5d:22:0a:07:3a:3b:a6:db:36:a0:
        db:6a:e5:4f
-----BEGIN CERTIFICATE-----
MIIESjCCAzKgAwIBAgIBDTANBgkqhkiG9w0BAQsFADB1MQswCQYDVQQGEwJVUzET
MBEGA1UECAwKQ2FsaWZvcm5pYTEUMBIGA1UEBwwLU2FudGEgQ2xhcmExDTALBgNV
BAoMBHBrZzUxEjAQBgNVBAMMCWNoNC4zX3RhMTEYMBYGCSqGSIb3DQEJARYJY2g0
LjNfdGExMB4XDTI0MDUyMzE1NDcxNloXDTI3MDIxNzE1NDcxNlowdTELMAkGA1UE
BhMCVVMxEzARBgNVBAgMCkNhbGlmb3JuaWExFDASBgNVBAcMC1NhbnRhIENsYXJh
MQ0wCwYDVQQKDARwa2c1MRIwEAYDVQQDDAljaDUuM190YTExGDAWBgkqhkiG9w0B
CQEWCWNoNS4zX3RhMTCCASIwDQYJKoZIhvcNAQEBBQADggEPADCCAQoCggEBAL6A
UJ0cUpmPXNdTB2sFy2B3o2UEpRIXEDVrjjFXVJCkSY5xY82WWvLOW/inNZ29/v2W
06VtlYucs94w4I8uLtsatx+O/xDjiNbe5tzJVEcv6+JtoP6mt9tPspMcVZ1uWIqy
IJH5F0UKNorqfBDNgZjeLbHNZ0jhWsJfdCmDvIH3qGMcXop/doHcMJ+vcjsQGNKg
E3DoCDNT8iIO8nK00lfm+6/bs26GT8ig2rjG6yJT1GY7KHVCQs/kXMAdEQS4BlMv
o7t9JkfjoKyjjEBeTk0B/Px7nugYBRwMbaZrYGmNVrZKE2TmbpHKN3qFne0CKUR6
KXGjLr50IzxhNNSpuSMCAwEAAaOB5DCB4TAdBgNVHQ4EFgQUsrVeXO689N8KBdok
eN0ChLRvV0QwgZsGA1UdIwSBkzCBkIAUafM8AMSJopHB/boQ3AmSgyw7JCyhdaRz
MHExCzAJBgNVBAYTAlVTMRMwEQYDVQQIDApDYWxpZm9ybmlhMRQwEgYDVQQHDAtT
YW50YSBDbGFyYTENMAsGA1UECgwEcGtnNTEQMA4GA1UEAwwHY2gzX3RhMTEWMBQG
CSqGSIb3DQEJARYHY2gzX3RhMYIBDDASBgNVHRMBAf8ECDAGAQH/AgEAMA4GA1Ud
DwEB/wQEAwIBBjANBgkqhkiG9w0BAQsFAAOCAQEAyEkcS207BID2j2a+BN8IU2FK
FG08Vl36RjCKg1ow7U9igGcFTWNkoZ5WNG0E9y0YGVar9Vlmr+tzjZaoZx/ldjEp
uLZ6Knm7M/JZ/XXMKtC2NUDQpjmtbZ3UOpZDBJYNLxwkI1Z8IqcDuGeYX0cU4r4V
tMyDrsrn0FYBw7O4tmobkn5BBEjnpi05RpiiEApAEU3o5kIm3MW1IsdRZYWWomG7
kr4yWgNLQ69qcxsFClfg3r1ysmni4O727mhohn39XIhFMJRxxcfIhXgAJEJXJQBq
n04z9rUScrRIDZ945BKpueGT/XO5lDhLBpvXmIu+X+ZdIgoHOjum2zag22rlTw==
-----END CERTIFICATE-----
