Certificate:
    Data:
        Version: 3 (0x2)
        Serial Number: 13 (0xd)
    Signature Algorithm: sha256WithRSAEncryption
        Issuer: C=US, ST=California, L=Santa Clara, O=pkg5, CN=ch4.3_ta1/emailAddress=ch4.3_ta1
        Validity
            Not Before: Nov 16 10:58:48 2017 GMT
            Not After : Aug 12 10:58:48 2020 GMT
        Subject: C=US, ST=California, L=Santa Clara, O=pkg5, CN=ch5.3_ta1/emailAddress=ch5.3_ta1
        Subject Public Key Info:
            Public Key Algorithm: rsaEncryption
                Public-Key: (2048 bit)
                Modulus:
                    00:c3:47:88:ee:10:b2:a0:c4:78:b0:75:48:5f:0c:
                    64:b0:16:4a:11:fe:b6:05:5c:c0:39:db:84:db:4e:
                    bb:91:ec:dd:28:ac:30:52:0f:81:57:62:31:88:99:
                    cc:8e:8c:f0:b3:a4:ef:e5:91:6b:95:35:28:ec:6c:
                    7d:75:90:83:d2:30:be:0e:f2:05:54:d0:e9:e9:cd:
                    1b:29:34:00:a6:1d:7e:4c:d4:a4:05:80:c7:95:77:
                    15:33:08:74:72:4c:68:01:dd:82:06:e9:c6:d5:80:
                    00:0d:d9:e1:15:a3:cc:a3:d8:f5:f4:0b:97:bc:71:
                    de:29:0e:1d:a6:9e:31:45:c3:ff:ab:2c:2f:1a:f2:
                    d9:8c:aa:8f:aa:43:14:36:e3:97:85:b8:2c:db:3a:
                    7c:49:29:06:f6:6b:65:75:b3:10:b1:26:dc:70:54:
                    71:57:12:94:5b:ff:e7:10:f7:34:01:a6:89:cf:ee:
                    13:7c:61:94:c4:7a:96:da:08:48:c3:7a:fa:92:12:
                    84:20:88:ef:17:1c:77:f1:39:68:f1:40:c7:75:49:
                    f8:34:40:3c:a8:9a:56:af:04:0e:8c:1f:1e:a0:06:
                    07:65:a0:3c:e6:80:2d:9e:37:ee:38:bc:c3:47:37:
                    7d:ea:ef:ee:37:af:27:f5:54:06:42:fd:f3:15:d2:
                    11:2d
                Exponent: 65537 (0x10001)
        X509v3 extensions:
            X509v3 Subject Key Identifier: 
                0F:64:FB:D1:36:56:4B:AF:BB:C9:3A:61:1A:C3:10:4E:5B:33:ED:11
            X509v3 Authority Key Identifier: 
                keyid:BA:E1:13:9D:12:D5:F7:5E:7B:9F:4B:1C:0F:37:C9:3E:AC:98:12:0E
                DirName:/C=US/ST=California/L=Santa Clara/O=pkg5/CN=ch3_ta1/emailAddress=ch3_ta1
                serial:0C

            X509v3 Basic Constraints: critical
                CA:TRUE, pathlen:0
            X509v3 Key Usage: critical
                Certificate Sign, CRL Sign
    Signature Algorithm: sha256WithRSAEncryption
         71:96:37:d4:d8:2b:0a:1b:9a:67:e8:b4:d1:09:69:8c:3b:32:
         53:b9:02:fa:02:56:ff:0f:42:a8:b2:31:8f:61:80:56:59:a4:
         eb:8e:93:14:fb:3f:4f:22:a6:75:39:2f:98:3b:0b:2d:9c:da:
         66:93:5e:9e:c9:04:07:d4:49:b9:24:c1:6e:c0:ae:5f:8d:98:
         12:6c:33:db:4e:24:83:80:36:07:fb:3f:26:e8:8f:51:c6:8b:
         26:a3:a9:46:10:51:bf:23:35:d2:50:88:38:36:9d:69:c1:e7:
         68:f9:6d:4a:18:15:c8:a2:68:5c:59:46:2a:8d:67:7c:52:45:
         b5:1b:15:2b:95:fc:b8:4d:a9:02:3c:0f:33:75:6a:9d:2e:1f:
         a8:b9:8f:bf:f1:de:e1:c9:4e:f4:84:7c:fd:ba:31:7e:1b:0d:
         ec:7b:0a:5d:38:04:d4:75:f7:2d:90:27:7b:be:9c:12:84:77:
         19:ac:52:f5:a6:7b:a1:b7:13:d9:1c:c0:4b:ed:b7:4b:84:4e:
         18:74:6f:d8:dd:9f:fa:a6:88:8a:8b:a0:a0:31:07:68:48:aa:
         48:56:fa:23:4b:67:3c:62:e8:ee:2b:25:0f:6e:a9:d7:d2:55:
         b8:e8:34:bb:ae:7d:75:c1:67:c0:4c:72:f9:2a:89:36:b3:33:
         49:f2:c4:ff
-----BEGIN CERTIFICATE-----
MIIESjCCAzKgAwIBAgIBDTANBgkqhkiG9w0BAQsFADB1MQswCQYDVQQGEwJVUzET
MBEGA1UECAwKQ2FsaWZvcm5pYTEUMBIGA1UEBwwLU2FudGEgQ2xhcmExDTALBgNV
BAoMBHBrZzUxEjAQBgNVBAMMCWNoNC4zX3RhMTEYMBYGCSqGSIb3DQEJARYJY2g0
LjNfdGExMB4XDTE3MTExNjEwNTg0OFoXDTIwMDgxMjEwNTg0OFowdTELMAkGA1UE
BhMCVVMxEzARBgNVBAgMCkNhbGlmb3JuaWExFDASBgNVBAcMC1NhbnRhIENsYXJh
MQ0wCwYDVQQKDARwa2c1MRIwEAYDVQQDDAljaDUuM190YTExGDAWBgkqhkiG9w0B
CQEWCWNoNS4zX3RhMTCCASIwDQYJKoZIhvcNAQEBBQADggEPADCCAQoCggEBAMNH
iO4QsqDEeLB1SF8MZLAWShH+tgVcwDnbhNtOu5Hs3SisMFIPgVdiMYiZzI6M8LOk
7+WRa5U1KOxsfXWQg9Iwvg7yBVTQ6enNGyk0AKYdfkzUpAWAx5V3FTMIdHJMaAHd
ggbpxtWAAA3Z4RWjzKPY9fQLl7xx3ikOHaaeMUXD/6ssLxry2Yyqj6pDFDbjl4W4
LNs6fEkpBvZrZXWzELEm3HBUcVcSlFv/5xD3NAGmic/uE3xhlMR6ltoISMN6+pIS
hCCI7xccd/E5aPFAx3VJ+DRAPKiaVq8EDowfHqAGB2WgPOaALZ437ji8w0c3ferv
7jevJ/VUBkL98xXSES0CAwEAAaOB5DCB4TAdBgNVHQ4EFgQUD2T70TZWS6+7yTph
GsMQTlsz7REwgZsGA1UdIwSBkzCBkIAUuuETnRLV9157n0scDzfJPqyYEg6hdaRz
MHExCzAJBgNVBAYTAlVTMRMwEQYDVQQIDApDYWxpZm9ybmlhMRQwEgYDVQQHDAtT
YW50YSBDbGFyYTENMAsGA1UECgwEcGtnNTEQMA4GA1UEAwwHY2gzX3RhMTEWMBQG
CSqGSIb3DQEJARYHY2gzX3RhMYIBDDASBgNVHRMBAf8ECDAGAQH/AgEAMA4GA1Ud
DwEB/wQEAwIBBjANBgkqhkiG9w0BAQsFAAOCAQEAcZY31NgrChuaZ+i00QlpjDsy
U7kC+gJW/w9CqLIxj2GAVlmk646TFPs/TyKmdTkvmDsLLZzaZpNenskEB9RJuSTB
bsCuX42YEmwz204kg4A2B/s/JuiPUcaLJqOpRhBRvyM10lCIODadacHnaPltShgV
yKJoXFlGKo1nfFJFtRsVK5X8uE2pAjwPM3VqnS4fqLmPv/He4clO9IR8/boxfhsN
7HsKXTgE1HX3LZAne76cEoR3GaxS9aZ7obcT2RzAS+23S4ROGHRv2N2f+qaIioug
oDEHaEiqSFb6I0tnPGLo7islD26p19JVuOg0u659dcFnwExy+SqJNrMzSfLE/w==
-----END CERTIFICATE-----
