Certificate:
    Data:
        Version: 3 (0x2)
        Serial Number: 13 (0xd)
        Signature Algorithm: sha256WithRSAEncryption
        Issuer: C=US, ST=California, L=Santa Clara, O=pkg5, CN=ch4.3_ta1/emailAddress=ch4.3_ta1
        Validity
            Not Before: Nov 17 23:01:29 2020 GMT
            Not After : Aug 14 23:01:29 2023 GMT
        Subject: C=US, ST=California, L=Santa Clara, O=pkg5, CN=ch5.3_ta1/emailAddress=ch5.3_ta1
        Subject Public Key Info:
            Public Key Algorithm: rsaEncryption
                RSA Public-Key: (2048 bit)
                Modulus:
                    00:c6:46:90:33:f0:ac:cc:46:dd:22:2f:fd:ec:73:
                    27:34:1f:74:e9:8c:56:fd:d8:a5:56:16:36:3d:29:
                    a9:f7:62:3b:45:8b:ce:c5:d4:18:59:d0:5e:95:67:
                    4a:d7:8b:de:9c:2c:cb:ea:5f:9f:b6:31:55:79:43:
                    98:bd:db:3a:52:c2:c3:41:8b:de:ed:a3:ec:3d:4f:
                    e6:c6:4e:8d:c2:0c:26:10:7d:d2:99:f8:cd:6b:bc:
                    d6:7a:6e:ae:a2:d4:08:c1:ad:47:cf:fd:40:71:41:
                    72:23:21:c0:11:4d:21:a4:44:a8:e8:43:0a:ce:33:
                    21:93:38:5a:6b:21:14:98:7a:19:7d:73:ab:77:6f:
                    65:f6:6a:55:2a:f4:d8:ae:f5:07:fb:01:58:23:a6:
                    5d:7e:84:9e:53:5c:b7:f2:a2:c3:20:92:2a:8d:e0:
                    46:c3:09:9e:4d:e6:5f:82:91:37:4f:bd:b0:8f:7b:
                    4e:8a:44:6e:22:17:55:5d:04:61:1f:ae:c5:6f:e7:
                    37:82:b8:f8:c0:84:30:54:6b:9c:79:8f:7a:60:72:
                    e1:dc:ad:93:c7:b3:0c:61:80:cd:fa:f7:1a:dc:7e:
                    96:49:c1:32:34:7f:e5:5f:2f:6b:35:b7:d5:f5:50:
                    b4:9f:e6:4a:88:8c:4d:f3:24:dc:10:e3:81:3f:00:
                    07:1b
                Exponent: 65537 (0x10001)
        X509v3 extensions:
            X509v3 Subject Key Identifier: 
                E3:A0:A0:38:2E:D3:C7:FB:07:B0:4B:08:31:C0:9C:35:23:35:73:7A
            X509v3 Authority Key Identifier: 
                keyid:9F:28:94:9F:62:31:69:C6:4F:2A:F7:C5:F0:2C:1E:23:90:84:44:A2
                DirName:/C=US/ST=California/L=Santa Clara/O=pkg5/CN=ch3_ta1/emailAddress=ch3_ta1
                serial:0C

            X509v3 Basic Constraints: critical
                CA:TRUE, pathlen:0
            X509v3 Key Usage: critical
                Certificate Sign, CRL Sign
    Signature Algorithm: sha256WithRSAEncryption
         01:49:93:d1:6f:90:02:60:d5:94:73:e5:9f:72:4e:c6:4d:b4:
         6f:b5:46:0f:ff:c7:94:77:69:8b:0f:47:31:57:9c:51:7b:5d:
         95:24:49:dd:f7:7a:2d:81:78:bc:d2:79:74:07:0d:90:70:d9:
         a1:f1:3d:66:c6:b2:83:3b:fd:b7:ae:e4:f9:a8:34:05:80:9a:
         17:36:cf:fc:58:49:54:e8:62:c2:c4:70:bc:fb:ab:c2:49:29:
         92:17:c2:a8:d4:f8:06:1f:f3:a4:3b:c4:88:3b:9d:1b:2b:ce:
         8d:4a:6a:04:86:e1:a4:e0:58:09:02:4b:41:85:4a:1d:5a:13:
         ee:b2:6e:5a:02:e1:ce:31:13:42:f7:98:3d:0a:1d:89:3e:ca:
         50:d0:14:2e:ae:aa:77:cc:09:ae:0b:73:c1:0e:dd:27:c9:69:
         c3:a6:41:0e:e0:a7:9f:ef:45:56:4a:b2:24:3a:86:b1:9f:87:
         17:04:0d:5c:cb:46:0e:68:c9:e6:0a:d8:81:32:a4:73:b5:25:
         34:d3:f9:38:cd:8f:b0:f1:5c:e8:e2:c9:e0:d9:d3:f4:5a:17:
         59:53:26:61:f3:b5:20:1d:c5:91:be:4a:c8:a5:9b:79:5e:8f:
         8f:e8:e1:6f:76:65:ce:d5:2d:92:69:8c:df:e8:72:f4:2b:fd:
         94:ca:60:26
-----BEGIN CERTIFICATE-----
MIIESjCCAzKgAwIBAgIBDTANBgkqhkiG9w0BAQsFADB1MQswCQYDVQQGEwJVUzET
MBEGA1UECAwKQ2FsaWZvcm5pYTEUMBIGA1UEBwwLU2FudGEgQ2xhcmExDTALBgNV
BAoMBHBrZzUxEjAQBgNVBAMMCWNoNC4zX3RhMTEYMBYGCSqGSIb3DQEJARYJY2g0
LjNfdGExMB4XDTIwMTExNzIzMDEyOVoXDTIzMDgxNDIzMDEyOVowdTELMAkGA1UE
BhMCVVMxEzARBgNVBAgMCkNhbGlmb3JuaWExFDASBgNVBAcMC1NhbnRhIENsYXJh
MQ0wCwYDVQQKDARwa2c1MRIwEAYDVQQDDAljaDUuM190YTExGDAWBgkqhkiG9w0B
CQEWCWNoNS4zX3RhMTCCASIwDQYJKoZIhvcNAQEBBQADggEPADCCAQoCggEBAMZG
kDPwrMxG3SIv/exzJzQfdOmMVv3YpVYWNj0pqfdiO0WLzsXUGFnQXpVnSteL3pws
y+pfn7YxVXlDmL3bOlLCw0GL3u2j7D1P5sZOjcIMJhB90pn4zWu81npurqLUCMGt
R8/9QHFBciMhwBFNIaREqOhDCs4zIZM4WmshFJh6GX1zq3dvZfZqVSr02K71B/sB
WCOmXX6EnlNct/KiwyCSKo3gRsMJnk3mX4KRN0+9sI97TopEbiIXVV0EYR+uxW/n
N4K4+MCEMFRrnHmPemBy4dytk8ezDGGAzfr3Gtx+lknBMjR/5V8vazW31fVQtJ/m
SoiMTfMk3BDjgT8ABxsCAwEAAaOB5DCB4TAdBgNVHQ4EFgQU46CgOC7Tx/sHsEsI
McCcNSM1c3owgZsGA1UdIwSBkzCBkIAUnyiUn2IxacZPKvfF8CweI5CERKKhdaRz
MHExCzAJBgNVBAYTAlVTMRMwEQYDVQQIDApDYWxpZm9ybmlhMRQwEgYDVQQHDAtT
YW50YSBDbGFyYTENMAsGA1UECgwEcGtnNTEQMA4GA1UEAwwHY2gzX3RhMTEWMBQG
CSqGSIb3DQEJARYHY2gzX3RhMYIBDDASBgNVHRMBAf8ECDAGAQH/AgEAMA4GA1Ud
DwEB/wQEAwIBBjANBgkqhkiG9w0BAQsFAAOCAQEAAUmT0W+QAmDVlHPln3JOxk20
b7VGD//HlHdpiw9HMVecUXtdlSRJ3fd6LYF4vNJ5dAcNkHDZofE9Zsaygzv9t67k
+ag0BYCaFzbP/FhJVOhiwsRwvPurwkkpkhfCqNT4Bh/zpDvEiDudGyvOjUpqBIbh
pOBYCQJLQYVKHVoT7rJuWgLhzjETQveYPQodiT7KUNAULq6qd8wJrgtzwQ7dJ8lp
w6ZBDuCnn+9FVkqyJDqGsZ+HFwQNXMtGDmjJ5grYgTKkc7UlNNP5OM2PsPFc6OLJ
4NnT9FoXWVMmYfO1IB3Fkb5KyKWbeV6Pj+jhb3ZlztUtkmmM3+hy9Cv9lMpgJg==
-----END CERTIFICATE-----
