Certificate:
    Data:
        Version: 3 (0x2)
        Serial Number: 13 (0xd)
    Signature Algorithm: sha256WithRSAEncryption
        Issuer: C=US, ST=California, L=Santa Clara, O=pkg5, CN=ch4.3_ta1/emailAddress=ch4.3_ta1
        Validity
            Not Before: Mar 20 10:20:53 2018 GMT
            Not After : Dec 14 10:20:53 2020 GMT
        Subject: C=US, ST=California, L=Santa Clara, O=pkg5, CN=ch5.3_ta1/emailAddress=ch5.3_ta1
        Subject Public Key Info:
            Public Key Algorithm: rsaEncryption
                Public-Key: (2048 bit)
                Modulus:
                    00:de:04:bd:eb:cf:c0:ef:3d:ef:ec:41:69:c5:9a:
                    33:7a:92:3d:05:52:80:6b:6a:a4:80:6b:27:52:2e:
                    af:33:1a:4c:0c:09:fa:bb:87:ca:79:cf:d5:b9:49:
                    fd:45:4b:c1:0e:d6:b7:3a:37:33:be:3c:8d:29:e4:
                    36:cf:4a:28:c9:70:fd:22:58:b7:8b:ed:e4:e1:27:
                    ee:22:97:0e:9a:0b:1f:e6:55:d3:4f:92:23:d3:fc:
                    bc:f9:e0:62:59:5a:81:3d:d1:cf:9d:a0:83:73:e3:
                    45:17:75:00:70:f8:13:43:b4:e1:0e:12:47:74:37:
                    12:13:32:03:8c:a7:e0:56:9b:54:3e:56:33:72:db:
                    ad:3f:2b:2c:6f:96:8f:f1:e0:db:69:e1:88:18:de:
                    09:4a:98:44:65:63:d8:0d:03:d8:6e:9b:78:71:49:
                    bc:83:dd:5d:2c:41:27:dc:7f:d1:0a:81:4f:4b:68:
                    fa:fd:f4:79:29:eb:d5:46:3d:b2:e2:10:4d:c5:cd:
                    a2:d5:60:f7:af:c8:e2:11:e2:3e:ad:a5:47:8a:0c:
                    39:af:a0:62:dd:8a:b1:3c:52:82:56:36:a8:00:dc:
                    9f:f4:f9:ad:cf:76:4c:64:38:61:ab:5c:aa:fe:43:
                    9a:d6:e2:3d:6c:30:f3:1b:90:c2:ef:8d:1a:49:c6:
                    b8:4b
                Exponent: 65537 (0x10001)
        X509v3 extensions:
            X509v3 Subject Key Identifier: 
                26:AA:9A:8D:D0:6A:06:82:EA:56:B9:CE:05:7A:2B:29:6A:77:44:C0
            X509v3 Authority Key Identifier: 
                keyid:D7:41:20:C9:18:B7:D9:F9:13:C5:DD:C9:EC:34:BD:FA:C8:90:E2:06
                DirName:/C=US/ST=California/L=Santa Clara/O=pkg5/CN=ch3_ta1/emailAddress=ch3_ta1
                serial:0C

            X509v3 Basic Constraints: critical
                CA:TRUE, pathlen:0
            X509v3 Key Usage: critical
                Certificate Sign, CRL Sign
    Signature Algorithm: sha256WithRSAEncryption
         43:6b:8d:21:5b:3b:fa:54:e3:51:6a:73:83:51:9f:ca:23:f7:
         a8:cf:4e:2d:bb:56:c1:6c:c0:d9:87:d3:98:d1:ad:fd:80:88:
         ff:12:bf:63:a6:fa:ef:6f:ef:52:68:c4:9e:fd:be:35:10:54:
         d4:56:92:23:ae:82:82:ec:19:88:9e:e0:e0:5c:09:65:06:3c:
         2b:e0:71:87:d7:ae:33:37:f2:f4:cc:ff:10:23:bf:4e:d1:42:
         79:de:ed:ee:06:95:1a:0f:67:ac:3b:60:f3:31:50:b5:78:bf:
         e4:6f:ca:62:1c:bd:ef:fb:a9:97:0c:03:a1:97:de:c5:c9:8f:
         a8:6d:b0:f1:66:95:56:4b:e8:5c:4e:4b:19:29:d1:7c:87:ab:
         73:de:5d:44:86:1d:e5:93:60:ff:f9:83:04:43:e5:c3:f7:db:
         e9:1c:72:44:1c:8f:4a:df:90:4d:90:fd:f6:d3:8d:50:49:90:
         dd:b3:d7:c9:97:46:7a:95:a0:51:f3:b0:d7:0a:ee:dd:3c:b4:
         94:fb:5e:75:02:af:74:30:a0:58:fd:7b:18:4e:78:e0:3c:e7:
         65:10:99:69:35:ff:eb:09:d9:bf:0e:c8:f9:c7:6d:73:68:9d:
         e0:a8:cd:b3:fa:d5:31:1b:f6:fd:22:37:0b:a7:4f:53:d2:b2:
         39:3e:98:1e
-----BEGIN CERTIFICATE-----
MIIESjCCAzKgAwIBAgIBDTANBgkqhkiG9w0BAQsFADB1MQswCQYDVQQGEwJVUzET
MBEGA1UECAwKQ2FsaWZvcm5pYTEUMBIGA1UEBwwLU2FudGEgQ2xhcmExDTALBgNV
BAoMBHBrZzUxEjAQBgNVBAMMCWNoNC4zX3RhMTEYMBYGCSqGSIb3DQEJARYJY2g0
LjNfdGExMB4XDTE4MDMyMDEwMjA1M1oXDTIwMTIxNDEwMjA1M1owdTELMAkGA1UE
BhMCVVMxEzARBgNVBAgMCkNhbGlmb3JuaWExFDASBgNVBAcMC1NhbnRhIENsYXJh
MQ0wCwYDVQQKDARwa2c1MRIwEAYDVQQDDAljaDUuM190YTExGDAWBgkqhkiG9w0B
CQEWCWNoNS4zX3RhMTCCASIwDQYJKoZIhvcNAQEBBQADggEPADCCAQoCggEBAN4E
vevPwO897+xBacWaM3qSPQVSgGtqpIBrJ1IurzMaTAwJ+ruHynnP1blJ/UVLwQ7W
tzo3M748jSnkNs9KKMlw/SJYt4vt5OEn7iKXDpoLH+ZV00+SI9P8vPngYllagT3R
z52gg3PjRRd1AHD4E0O04Q4SR3Q3EhMyA4yn4FabVD5WM3LbrT8rLG+Wj/Hg22nh
iBjeCUqYRGVj2A0D2G6beHFJvIPdXSxBJ9x/0QqBT0to+v30eSnr1UY9suIQTcXN
otVg96/I4hHiPq2lR4oMOa+gYt2KsTxSglY2qADcn/T5rc92TGQ4Yatcqv5Dmtbi
PWww8xuQwu+NGknGuEsCAwEAAaOB5DCB4TAdBgNVHQ4EFgQUJqqajdBqBoLqVrnO
BXorKWp3RMAwgZsGA1UdIwSBkzCBkIAU10EgyRi32fkTxd3J7DS9+siQ4gahdaRz
MHExCzAJBgNVBAYTAlVTMRMwEQYDVQQIDApDYWxpZm9ybmlhMRQwEgYDVQQHDAtT
YW50YSBDbGFyYTENMAsGA1UECgwEcGtnNTEQMA4GA1UEAwwHY2gzX3RhMTEWMBQG
CSqGSIb3DQEJARYHY2gzX3RhMYIBDDASBgNVHRMBAf8ECDAGAQH/AgEAMA4GA1Ud
DwEB/wQEAwIBBjANBgkqhkiG9w0BAQsFAAOCAQEAQ2uNIVs7+lTjUWpzg1GfyiP3
qM9OLbtWwWzA2YfTmNGt/YCI/xK/Y6b672/vUmjEnv2+NRBU1FaSI66CguwZiJ7g
4FwJZQY8K+Bxh9euMzfy9Mz/ECO/TtFCed7t7gaVGg9nrDtg8zFQtXi/5G/KYhy9
7/uplwwDoZfexcmPqG2w8WaVVkvoXE5LGSnRfIerc95dRIYd5ZNg//mDBEPlw/fb
6RxyRByPSt+QTZD99tONUEmQ3bPXyZdGepWgUfOw1wru3Ty0lPtedQKvdDCgWP17
GE544DznZRCZaTX/6wnZvw7I+cdtc2id4KjNs/rVMRv2/SI3C6dPU9KyOT6YHg==
-----END CERTIFICATE-----
