Certificate:
    Data:
        Version: 3 (0x2)
        Serial Number: 16 (0x10)
    Signature Algorithm: sha256WithRSAEncryption
        Issuer: C=US, ST=California, L=Santa Clara, O=pkg5, CN=ta3/emailAddress=ta3
        Validity
            Not Before: Nov 16 10:58:48 2017 GMT
            Not After : Aug 12 10:58:48 2020 GMT
        Subject: C=US, ST=California, L=Santa Clara, O=pkg5, CN=ch1_ta3/emailAddress=ch1_ta3
        Subject Public Key Info:
            Public Key Algorithm: rsaEncryption
                Public-Key: (2048 bit)
                Modulus:
                    00:cd:a9:0f:77:d6:61:c0:0b:94:99:3c:bd:94:08:
                    c8:b5:c1:c4:5d:27:a0:86:c5:4f:64:bd:9f:85:f4:
                    87:0c:23:ba:ad:93:41:e3:7d:ae:eb:35:10:2e:37:
                    83:4c:85:7f:e2:38:ef:c4:40:9f:e4:3e:b2:59:81:
                    3e:b4:67:42:21:a0:ec:ad:b8:71:81:36:c8:3d:80:
                    41:85:65:f8:7a:33:b4:c0:b9:ab:c8:91:d8:b5:19:
                    57:ac:cb:f0:c6:f0:9b:06:6b:cd:a6:09:3a:33:b7:
                    13:1b:8c:b5:b8:a7:8d:d0:f3:99:44:ed:27:00:f7:
                    2d:7a:26:b8:98:64:e6:6b:a4:13:5c:28:01:01:de:
                    01:ff:86:6d:72:84:54:ce:d9:28:3e:65:e1:91:fd:
                    ce:d9:44:fa:fd:72:4e:10:0e:c9:7f:93:81:c5:b3:
                    d2:c1:cc:20:7d:8a:21:92:43:e7:a6:a6:85:7f:40:
                    55:dc:42:7d:a4:8d:61:66:ee:64:76:ff:91:0d:bd:
                    c4:06:35:95:36:84:4b:bb:2f:fe:e2:f7:2f:9a:a4:
                    55:5d:dd:ae:ac:79:33:b6:fe:3a:67:68:d1:ae:ae:
                    19:53:2a:cc:d2:99:c4:4c:03:36:86:2c:c9:56:67:
                    73:82:db:6b:31:4b:2f:ab:56:33:78:02:30:b4:cf:
                    1f:a1
                Exponent: 65537 (0x10001)
        X509v3 extensions:
            X509v3 Subject Key Identifier: 
                E7:37:65:27:21:E9:99:77:7D:30:5F:A4:FB:E2:A9:DE:03:1A:DA:6A
            X509v3 Authority Key Identifier: 
                keyid:5E:5D:52:C3:66:EC:B1:35:4E:FC:06:50:E5:E6:20:81:D1:38:16:61
                DirName:/C=US/ST=California/L=Santa Clara/O=pkg5/CN=ta3/emailAddress=ta3
                serial:83:65:05:EF:BC:0C:05:9C

            X509v3 Basic Constraints: critical
                CA:TRUE
            X509v3 Key Usage: critical
                Certificate Sign, CRL Sign
    Signature Algorithm: sha256WithRSAEncryption
         c2:56:cc:23:eb:48:b7:73:55:4c:32:6f:14:96:32:20:15:cc:
         c9:2d:72:c0:95:ea:26:53:2a:ef:d3:3d:b3:d3:ca:b6:11:d9:
         c1:14:39:0b:2d:8d:1a:1e:d3:6f:8c:0f:79:91:e9:40:3c:33:
         fc:9f:d7:48:ae:78:00:32:70:99:9f:c2:e9:b7:4b:94:31:74:
         ff:4b:39:cb:0d:fb:d1:b3:cb:87:ae:23:05:8d:e8:80:a4:47:
         fd:73:c6:11:97:b5:f5:2e:b1:ca:52:31:db:01:fd:4c:d0:42:
         1b:97:b1:56:92:56:91:09:51:27:39:73:7f:b9:82:17:13:50:
         e8:fc:63:12:24:2a:92:48:57:e9:f4:40:53:5a:8a:82:56:44:
         da:a0:fa:21:b0:e1:1f:06:8b:3c:a2:2f:7d:f1:6f:c3:95:0d:
         12:d9:0d:58:4f:0a:51:85:26:79:12:cc:03:a2:12:ba:ef:65:
         55:40:08:0f:4f:13:19:81:74:99:71:39:b1:65:5d:5a:33:5d:
         36:61:f7:dc:93:5d:83:2b:13:64:a5:53:74:68:a4:f5:6c:08:
         31:d0:a6:15:b5:eb:7d:38:48:ec:73:bd:a5:9a:f1:7e:05:c6:
         57:78:ab:a4:cf:dd:ed:9b:28:c5:33:5e:44:58:e0:c3:06:53:
         55:40:8e:ef
-----BEGIN CERTIFICATE-----
MIIENzCCAx+gAwIBAgIBEDANBgkqhkiG9w0BAQsFADBpMQswCQYDVQQGEwJVUzET
MBEGA1UECAwKQ2FsaWZvcm5pYTEUMBIGA1UEBwwLU2FudGEgQ2xhcmExDTALBgNV
BAoMBHBrZzUxDDAKBgNVBAMMA3RhMzESMBAGCSqGSIb3DQEJARYDdGEzMB4XDTE3
MTExNjEwNTg0OFoXDTIwMDgxMjEwNTg0OFowcTELMAkGA1UEBhMCVVMxEzARBgNV
BAgMCkNhbGlmb3JuaWExFDASBgNVBAcMC1NhbnRhIENsYXJhMQ0wCwYDVQQKDARw
a2c1MRAwDgYDVQQDDAdjaDFfdGEzMRYwFAYJKoZIhvcNAQkBFgdjaDFfdGEzMIIB
IjANBgkqhkiG9w0BAQEFAAOCAQ8AMIIBCgKCAQEAzakPd9ZhwAuUmTy9lAjItcHE
XSeghsVPZL2fhfSHDCO6rZNB432u6zUQLjeDTIV/4jjvxECf5D6yWYE+tGdCIaDs
rbhxgTbIPYBBhWX4ejO0wLmryJHYtRlXrMvwxvCbBmvNpgk6M7cTG4y1uKeN0POZ
RO0nAPcteia4mGTma6QTXCgBAd4B/4ZtcoRUztkoPmXhkf3O2UT6/XJOEA7Jf5OB
xbPSwcwgfYohkkPnpqaFf0BV3EJ9pI1hZu5kdv+RDb3EBjWVNoRLuy/+4vcvmqRV
Xd2urHkztv46Z2jRrq4ZUyrM0pnETAM2hizJVmdzgttrMUsvq1YzeAIwtM8foQID
AQABo4HhMIHeMB0GA1UdDgQWBBTnN2UnIemZd30wX6T74qneAxraajCBmwYDVR0j
BIGTMIGQgBReXVLDZuyxNU78BlDl5iCB0TgWYaFtpGswaTELMAkGA1UEBhMCVVMx
EzARBgNVBAgMCkNhbGlmb3JuaWExFDASBgNVBAcMC1NhbnRhIENsYXJhMQ0wCwYD
VQQKDARwa2c1MQwwCgYDVQQDDAN0YTMxEjAQBgkqhkiG9w0BCQEWA3RhM4IJAINl
Be+8DAWcMA8GA1UdEwEB/wQFMAMBAf8wDgYDVR0PAQH/BAQDAgEGMA0GCSqGSIb3
DQEBCwUAA4IBAQDCVswj60i3c1VMMm8UljIgFczJLXLAleomUyrv0z2z08q2EdnB
FDkLLY0aHtNvjA95kelAPDP8n9dIrngAMnCZn8Lpt0uUMXT/SznLDfvRs8uHriMF
jeiApEf9c8YRl7X1LrHKUjHbAf1M0EIbl7FWklaRCVEnOXN/uYIXE1Do/GMSJCqS
SFfp9EBTWoqCVkTaoPohsOEfBos8oi998W/DlQ0S2Q1YTwpRhSZ5EswDohK672VV
QAgPTxMZgXSZcTmxZV1aM102Yffck12DKxNkpVN0aKT1bAgx0KYVtet9OEjsc72l
mvF+BcZXeKukz93tmyjFM15EWODDBlNVQI7v
-----END CERTIFICATE-----
