Certificate:
    Data:
        Version: 3 (0x2)
        Serial Number: 16 (0x10)
    Signature Algorithm: sha256WithRSAEncryption
        Issuer: C=US, ST=California, L=Santa Clara, O=pkg5, CN=ta3/emailAddress=ta3
        Validity
            Not Before: Mar 20 10:20:53 2018 GMT
            Not After : Dec 14 10:20:53 2020 GMT
        Subject: C=US, ST=California, L=Santa Clara, O=pkg5, CN=ch1_ta3/emailAddress=ch1_ta3
        Subject Public Key Info:
            Public Key Algorithm: rsaEncryption
                Public-Key: (2048 bit)
                Modulus:
                    00:a0:03:21:8f:f2:ae:84:78:0f:28:fc:a2:2b:26:
                    28:81:83:d6:ad:e3:67:8f:4b:33:d8:bc:c0:89:7c:
                    72:65:c9:95:93:72:59:f5:9d:9e:60:8f:81:48:96:
                    04:a8:10:cd:d8:95:5c:bf:c0:11:67:f2:20:f1:38:
                    d0:5e:f1:f0:8a:30:c8:8e:3c:47:87:90:38:18:f5:
                    69:38:dc:c8:d4:06:80:b4:3b:b3:da:98:e5:86:7d:
                    e6:a2:05:94:c0:93:01:eb:ba:7f:14:3f:b1:25:69:
                    7f:a6:ac:ea:c4:01:1d:76:a2:8a:b1:78:95:56:b0:
                    cd:6d:6a:b6:f7:c4:9a:67:d1:9a:c9:8f:e1:ae:7d:
                    bf:5a:10:1a:d6:71:da:4b:b0:f5:bc:5f:87:ec:65:
                    f5:6f:9e:f5:5b:8c:ec:ab:83:19:13:f3:1e:13:be:
                    37:85:c4:dd:d5:a2:f9:48:83:a6:97:d3:52:87:e2:
                    11:02:de:9f:cd:71:1c:55:fc:e7:da:31:e5:ee:22:
                    9d:93:4d:28:b4:93:9f:5c:ab:d1:29:ea:5a:4e:e4:
                    67:b2:8c:f6:fe:22:88:0b:6c:93:f8:c8:cb:96:c5:
                    6d:29:8a:b4:e8:df:ea:d7:66:ce:9a:ce:af:54:bb:
                    70:2e:b0:c7:b5:23:6d:39:2b:3b:3c:f8:ea:0a:c5:
                    45:b9
                Exponent: 65537 (0x10001)
        X509v3 extensions:
            X509v3 Subject Key Identifier: 
                88:00:0C:77:9E:C4:D2:17:4A:B2:31:66:82:A1:0A:5D:91:73:6D:51
            X509v3 Authority Key Identifier: 
                keyid:05:4A:64:CF:6C:39:57:EB:DD:04:B1:24:67:93:9A:D7:7F:AE:3D:3F
                DirName:/C=US/ST=California/L=Santa Clara/O=pkg5/CN=ta3/emailAddress=ta3
                serial:CA:FC:34:24:A4:24:1F:39

            X509v3 Basic Constraints: critical
                CA:TRUE
            X509v3 Key Usage: critical
                Certificate Sign, CRL Sign
            X509v3 Subject Alternative Name: 
                email:ch1_ta3
    Signature Algorithm: sha256WithRSAEncryption
         87:22:f0:fb:20:67:07:31:f6:6c:de:01:a7:9f:b6:68:aa:92:
         15:4d:7c:0d:12:e8:aa:e7:79:96:15:19:87:d7:e0:4e:c9:2f:
         74:81:b2:dd:3c:19:03:37:8e:76:e4:50:a8:22:24:f5:bc:b5:
         23:8f:5b:e8:84:7c:a1:51:05:a9:23:14:56:e5:d2:04:47:2b:
         f1:8f:78:89:27:80:bc:65:bb:ec:19:d8:23:79:c3:81:78:23:
         6f:19:14:27:ca:3d:c2:4a:79:1c:5d:7a:77:20:ec:b8:ef:ca:
         9e:23:13:e5:ef:1d:32:29:6b:2f:8b:58:df:bd:3a:6b:25:a5:
         3c:4e:ad:72:7a:19:8d:0c:5c:78:59:10:fb:3e:32:44:28:0d:
         d2:a8:c1:51:7a:cf:63:c2:d9:be:0e:d2:6f:4f:7d:f0:c7:9d:
         88:f5:5d:aa:64:8c:6f:0f:04:a9:16:21:05:be:39:a9:7c:ff:
         76:98:80:bb:74:85:c6:6f:f2:09:4f:1c:82:fd:23:27:52:e0:
         db:4b:48:93:3c:65:d6:b3:d7:49:6b:1d:f6:76:37:80:50:34:
         35:90:80:d8:31:d2:d1:7f:1e:54:b7:11:9c:b2:6e:87:d9:d6:
         38:96:47:2b:48:7e:32:bc:a5:78:c3:81:2c:a6:e8:02:8e:4e:
         e0:db:44:38
-----BEGIN CERTIFICATE-----
MIIESzCCAzOgAwIBAgIBEDANBgkqhkiG9w0BAQsFADBpMQswCQYDVQQGEwJVUzET
MBEGA1UECAwKQ2FsaWZvcm5pYTEUMBIGA1UEBwwLU2FudGEgQ2xhcmExDTALBgNV
BAoMBHBrZzUxDDAKBgNVBAMMA3RhMzESMBAGCSqGSIb3DQEJARYDdGEzMB4XDTE4
MDMyMDEwMjA1M1oXDTIwMTIxNDEwMjA1M1owcTELMAkGA1UEBhMCVVMxEzARBgNV
BAgMCkNhbGlmb3JuaWExFDASBgNVBAcMC1NhbnRhIENsYXJhMQ0wCwYDVQQKDARw
a2c1MRAwDgYDVQQDDAdjaDFfdGEzMRYwFAYJKoZIhvcNAQkBFgdjaDFfdGEzMIIB
IjANBgkqhkiG9w0BAQEFAAOCAQ8AMIIBCgKCAQEAoAMhj/KuhHgPKPyiKyYogYPW
reNnj0sz2LzAiXxyZcmVk3JZ9Z2eYI+BSJYEqBDN2JVcv8ARZ/Ig8TjQXvHwijDI
jjxHh5A4GPVpONzI1AaAtDuz2pjlhn3mogWUwJMB67p/FD+xJWl/pqzqxAEddqKK
sXiVVrDNbWq298SaZ9GayY/hrn2/WhAa1nHaS7D1vF+H7GX1b571W4zsq4MZE/Me
E743hcTd1aL5SIOml9NSh+IRAt6fzXEcVfzn2jHl7iKdk00otJOfXKvRKepaTuRn
soz2/iKIC2yT+MjLlsVtKYq06N/q12bOms6vVLtwLrDHtSNtOSs7PPjqCsVFuQID
AQABo4H1MIHyMB0GA1UdDgQWBBSIAAx3nsTSF0qyMWaCoQpdkXNtUTCBmwYDVR0j
BIGTMIGQgBQFSmTPbDlX690EsSRnk5rXf649P6FtpGswaTELMAkGA1UEBhMCVVMx
EzARBgNVBAgMCkNhbGlmb3JuaWExFDASBgNVBAcMC1NhbnRhIENsYXJhMQ0wCwYD
VQQKDARwa2c1MQwwCgYDVQQDDAN0YTMxEjAQBgkqhkiG9w0BCQEWA3RhM4IJAMr8
NCSkJB85MA8GA1UdEwEB/wQFMAMBAf8wDgYDVR0PAQH/BAQDAgEGMBIGA1UdEQQL
MAmBB2NoMV90YTMwDQYJKoZIhvcNAQELBQADggEBAIci8PsgZwcx9mzeAaeftmiq
khVNfA0S6KrneZYVGYfX4E7JL3SBst08GQM3jnbkUKgiJPW8tSOPW+iEfKFRBakj
FFbl0gRHK/GPeIkngLxlu+wZ2CN5w4F4I28ZFCfKPcJKeRxdencg7Ljvyp4jE+Xv
HTIpay+LWN+9OmslpTxOrXJ6GY0MXHhZEPs+MkQoDdKowVF6z2PC2b4O0m9PffDH
nYj1XapkjG8PBKkWIQW+Oal8/3aYgLt0hcZv8glPHIL9IydS4NtLSJM8Zdaz10lr
HfZ2N4BQNDWQgNgx0tF/HlS3EZyybofZ1jiWRytIfjK8pXjDgSym6AKOTuDbRDg=
-----END CERTIFICATE-----
