Certificate:
    Data:
        Version: 3 (0x2)
        Serial Number: 16 (0x10)
    Signature Algorithm: sha256WithRSAEncryption
        Issuer: C=US, ST=California, L=Santa Clara, O=pkg5, CN=ta3/emailAddress=ta3
        Validity
            Not Before: Nov 28 22:50:56 2016 GMT
            Not After : Aug 25 22:50:56 2019 GMT
        Subject: C=US, ST=California, L=Santa Clara, O=pkg5, CN=ch1_ta3/emailAddress=ch1_ta3
        Subject Public Key Info:
            Public Key Algorithm: rsaEncryption
                Public-Key: (2048 bit)
                Modulus:
                    00:d1:b7:91:31:44:44:74:92:d0:a9:2e:1b:5d:9a:
                    b1:38:69:9b:82:52:a0:83:e6:dd:97:d0:aa:6b:e1:
                    25:61:d5:41:c2:12:8e:94:5b:4a:2b:cb:0f:8d:06:
                    22:d4:10:59:88:b0:b0:5e:0b:b8:9d:e7:fc:92:8f:
                    a7:39:ee:17:82:1a:5a:20:d2:ac:f9:56:b4:a1:3c:
                    f6:db:6a:fb:58:24:28:9e:ad:b8:e2:b0:6c:ba:09:
                    0d:bc:b8:13:60:8b:9c:ec:47:c1:0d:14:df:cd:89:
                    b2:96:ec:ac:89:ce:44:7e:1f:37:72:db:77:9f:3b:
                    33:7a:c7:c4:47:e7:d0:a5:bf:ad:81:e5:ad:fc:48:
                    04:4b:cd:78:3f:16:48:df:78:3e:de:85:f7:e9:59:
                    a3:7a:4d:ae:c9:94:8e:1d:ea:a5:41:08:7a:00:67:
                    bb:d7:6b:66:cf:78:94:31:8d:69:a6:6d:00:01:45:
                    ff:6d:8a:b3:87:5a:0b:b4:ff:91:c8:ba:f8:c1:15:
                    8e:f7:2f:c5:38:b9:55:3c:19:86:67:49:b9:de:02:
                    b2:00:7b:cd:f9:67:a7:61:5a:d5:16:c3:d4:e3:9f:
                    19:e9:e9:9b:24:0b:1b:9f:2a:f6:26:d2:ae:8c:de:
                    46:3b:77:ea:52:59:01:c9:0e:74:1b:12:18:a9:41:
                    65:6f
                Exponent: 65537 (0x10001)
        X509v3 extensions:
            X509v3 Subject Key Identifier: 
                DF:6A:85:02:87:CD:0B:5A:BF:67:A6:93:7A:D3:75:80:12:F0:D8:C9
            X509v3 Authority Key Identifier: 
                keyid:2D:C5:9A:44:A1:9A:A4:7F:DA:BE:34:36:07:5C:E8:FC:60:3E:91:6E
                DirName:/C=US/ST=California/L=Santa Clara/O=pkg5/CN=ta3/emailAddress=ta3
                serial:AA:19:69:50:F6:91:C5:BD

            X509v3 Basic Constraints: critical
                CA:TRUE
            X509v3 Key Usage: critical
                Certificate Sign, CRL Sign
    Signature Algorithm: sha256WithRSAEncryption
         6e:4b:29:12:23:aa:ef:81:3b:32:12:02:1c:be:b7:d8:51:42:
         59:2b:11:ec:3d:c2:df:6e:5e:3c:d8:68:91:d3:9b:9d:30:6c:
         a9:60:5f:b2:06:af:7a:35:67:1c:cd:d6:d1:5c:ff:56:6e:fb:
         2a:15:63:e0:89:bd:7a:ca:5e:b1:04:67:ec:df:25:9c:9b:d1:
         6d:3d:44:b2:78:da:dd:e7:58:8f:df:95:90:b4:a7:19:0e:d4:
         c8:7f:4f:1f:3b:f1:fd:53:54:0a:23:4a:c4:ba:21:3e:ea:76:
         44:12:d1:e0:7c:4a:e4:51:c2:ac:6d:d8:88:8d:5d:15:1c:d6:
         d5:f1:9d:fb:f7:9e:7c:3e:28:af:be:bf:e0:49:08:1e:07:68:
         91:0a:a6:36:79:d2:12:ab:83:78:72:fd:1a:f1:e3:52:77:92:
         89:8b:a6:4d:67:5b:86:bb:c4:6d:71:7d:94:b4:b2:ae:1b:9a:
         e5:b6:54:4e:32:03:06:ad:e9:b6:e6:4f:8e:b1:82:d1:9b:fe:
         0d:12:0b:d0:af:7e:8c:24:19:0b:d7:e6:02:29:34:26:20:c9:
         6c:e2:5b:79:a7:31:d0:25:92:74:a2:5a:b4:a1:a3:6b:53:b4:
         13:96:47:87:1d:1a:fc:e8:7e:bb:dd:30:11:7e:42:72:fa:61:
         0c:89:e6:e2
-----BEGIN CERTIFICATE-----
MIIENzCCAx+gAwIBAgIBEDANBgkqhkiG9w0BAQsFADBpMQswCQYDVQQGEwJVUzET
MBEGA1UECAwKQ2FsaWZvcm5pYTEUMBIGA1UEBwwLU2FudGEgQ2xhcmExDTALBgNV
BAoMBHBrZzUxDDAKBgNVBAMMA3RhMzESMBAGCSqGSIb3DQEJARYDdGEzMB4XDTE2
MTEyODIyNTA1NloXDTE5MDgyNTIyNTA1NlowcTELMAkGA1UEBhMCVVMxEzARBgNV
BAgMCkNhbGlmb3JuaWExFDASBgNVBAcMC1NhbnRhIENsYXJhMQ0wCwYDVQQKDARw
a2c1MRAwDgYDVQQDDAdjaDFfdGEzMRYwFAYJKoZIhvcNAQkBFgdjaDFfdGEzMIIB
IjANBgkqhkiG9w0BAQEFAAOCAQ8AMIIBCgKCAQEA0beRMUREdJLQqS4bXZqxOGmb
glKgg+bdl9Cqa+ElYdVBwhKOlFtKK8sPjQYi1BBZiLCwXgu4nef8ko+nOe4Xghpa
INKs+Va0oTz222r7WCQonq244rBsugkNvLgTYIuc7EfBDRTfzYmyluysic5Efh83
ctt3nzszesfER+fQpb+tgeWt/EgES814PxZI33g+3oX36Vmjek2uyZSOHeqlQQh6
AGe712tmz3iUMY1ppm0AAUX/bYqzh1oLtP+RyLr4wRWO9y/FOLlVPBmGZ0m53gKy
AHvN+WenYVrVFsPU458Z6embJAsbnyr2JtKujN5GO3fqUlkByQ50GxIYqUFlbwID
AQABo4HhMIHeMB0GA1UdDgQWBBTfaoUCh80LWr9nppN603WAEvDYyTCBmwYDVR0j
BIGTMIGQgBQtxZpEoZqkf9q+NDYHXOj8YD6RbqFtpGswaTELMAkGA1UEBhMCVVMx
EzARBgNVBAgMCkNhbGlmb3JuaWExFDASBgNVBAcMC1NhbnRhIENsYXJhMQ0wCwYD
VQQKDARwa2c1MQwwCgYDVQQDDAN0YTMxEjAQBgkqhkiG9w0BCQEWA3RhM4IJAKoZ
aVD2kcW9MA8GA1UdEwEB/wQFMAMBAf8wDgYDVR0PAQH/BAQDAgEGMA0GCSqGSIb3
DQEBCwUAA4IBAQBuSykSI6rvgTsyEgIcvrfYUUJZKxHsPcLfbl482GiR05udMGyp
YF+yBq96NWcczdbRXP9WbvsqFWPgib16yl6xBGfs3yWcm9FtPUSyeNrd51iP35WQ
tKcZDtTIf08fO/H9U1QKI0rEuiE+6nZEEtHgfErkUcKsbdiIjV0VHNbV8Z379558
Piivvr/gSQgeB2iRCqY2edISq4N4cv0a8eNSd5KJi6ZNZ1uGu8RtcX2UtLKuG5rl
tlROMgMGrem25k+OsYLRm/4NEgvQr36MJBkL1+YCKTQmIMls4lt5pzHQJZJ0olq0
oaNrU7QTlkeHHRr86H673TARfkJy+mEMiebi
-----END CERTIFICATE-----
