Certificate:
    Data:
        Version: 3 (0x2)
        Serial Number: 16 (0x10)
        Signature Algorithm: sha256WithRSAEncryption
        Issuer: C=US, ST=California, L=Santa Clara, O=pkg5, CN=ta3/emailAddress=ta3
        Validity
            Not Before: Oct 22 10:15:11 2021 GMT
            Not After : Jul 18 10:15:11 2024 GMT
        Subject: C=US, ST=California, L=Santa Clara, O=pkg5, CN=ch1_ta3/emailAddress=ch1_ta3
        Subject Public Key Info:
            Public Key Algorithm: rsaEncryption
                Public-Key: (2048 bit)
                Modulus:
                    00:c8:5d:34:c8:b0:99:6c:92:ff:c6:9b:c4:ef:d3:
                    c6:a7:17:23:3d:b5:b2:f0:1f:67:3d:37:44:74:38:
                    e8:b1:99:74:47:dd:83:d3:4b:82:bf:03:77:2f:00:
                    91:a0:69:a9:6a:bd:ed:91:53:db:34:a4:dd:cc:db:
                    3d:8c:d8:9e:73:84:81:f3:48:6f:ac:fb:26:05:04:
                    3c:6b:a6:26:90:5a:a8:61:eb:41:ed:c8:4f:6d:07:
                    74:9c:95:ab:ef:26:0e:8b:d3:83:c1:b3:91:89:8b:
                    0f:d2:4f:c1:eb:17:65:db:2c:af:f1:16:40:0b:d3:
                    31:d1:b2:3b:56:90:d2:8e:55:c6:2c:64:5a:8b:4d:
                    ec:86:06:77:07:02:22:e5:60:ab:22:b9:bd:88:6d:
                    39:d0:5c:7a:18:42:e7:4f:b6:24:79:1d:34:fc:c5:
                    4d:56:7b:ee:f8:45:02:e9:5e:9e:bb:54:97:f1:57:
                    84:be:b8:95:28:c0:fe:16:09:8f:de:9b:4c:49:b1:
                    ae:25:52:50:af:44:e0:a1:9b:79:86:52:53:e9:d5:
                    e0:8a:10:1d:24:e9:60:95:a5:7c:46:11:64:ef:b8:
                    12:fc:81:c0:af:ec:3d:89:67:4f:10:9f:33:c6:f1:
                    2c:37:d0:ea:54:7c:fa:12:cf:d5:e0:65:7b:57:14:
                    f7:35
                Exponent: 65537 (0x10001)
        X509v3 extensions:
            X509v3 Subject Key Identifier: 
                D5:A6:1E:11:8A:90:CB:66:0F:10:66:77:01:DD:3A:8F:14:F0:85:C0
            X509v3 Authority Key Identifier: 
                keyid:31:E7:12:49:AC:32:CC:03:A0:C3:60:99:F6:3E:5D:1C:A3:84:D8:3B
                DirName:/C=US/ST=California/L=Santa Clara/O=pkg5/CN=ta3/emailAddress=ta3
                serial:67:24:4B:8D:A6:63:4B:01:0D:6C:DC:60:C0:93:C2:BE:F7:9A:BD:2F
            X509v3 Basic Constraints: critical
                CA:TRUE
            X509v3 Key Usage: critical
                Certificate Sign, CRL Sign
            X509v3 Subject Alternative Name: 
                email:ch1_ta3
    Signature Algorithm: sha256WithRSAEncryption
    Signature Value:
        02:64:b5:6f:0a:be:0b:84:77:eb:46:ab:34:e9:e8:0d:7e:2c:
        e2:a9:a0:90:87:5e:94:62:47:ff:37:fb:cb:e1:2d:6e:16:9b:
        47:11:ce:ae:f9:ff:b5:ed:3d:6d:d6:3e:e0:05:8e:23:ef:95:
        f2:b5:be:f4:b6:75:37:e1:d4:92:c4:8b:ab:28:19:6c:c5:5b:
        57:ee:10:c4:45:bf:e1:9c:ff:18:04:b8:c4:0c:ca:68:a7:fd:
        04:d9:6d:d3:7f:a7:6d:bf:b8:2f:07:da:6a:ed:3d:5c:7d:45:
        57:a3:de:01:85:d3:30:0f:fe:7d:1f:16:60:35:7c:e7:61:c3:
        bf:66:68:ae:20:df:c6:66:01:23:06:a0:f6:ec:29:72:de:a5:
        1c:1b:43:54:ff:4e:64:2c:9b:ac:14:ee:fb:22:ce:22:ac:4b:
        01:c9:e6:35:b4:ee:6b:b3:62:bb:31:dc:8c:08:3d:83:3c:ea:
        9c:cd:23:6d:8a:eb:59:5e:77:ad:f9:61:66:f8:9b:a5:3d:98:
        67:e8:ba:90:e2:fa:80:f7:9e:9d:1e:f8:58:9b:ad:c2:e1:f2:
        0b:f2:24:e5:54:c4:42:0c:21:10:e4:6f:44:cd:bc:04:f0:68:
        05:4d:99:1d:d4:b0:85:95:79:bd:16:27:3d:c4:45:87:79:ce:
        99:88:7c:90
-----BEGIN CERTIFICATE-----
MIIEVzCCAz+gAwIBAgIBEDANBgkqhkiG9w0BAQsFADBpMQswCQYDVQQGEwJVUzET
MBEGA1UECAwKQ2FsaWZvcm5pYTEUMBIGA1UEBwwLU2FudGEgQ2xhcmExDTALBgNV
BAoMBHBrZzUxDDAKBgNVBAMMA3RhMzESMBAGCSqGSIb3DQEJARYDdGEzMB4XDTIx
MTAyMjEwMTUxMVoXDTI0MDcxODEwMTUxMVowcTELMAkGA1UEBhMCVVMxEzARBgNV
BAgMCkNhbGlmb3JuaWExFDASBgNVBAcMC1NhbnRhIENsYXJhMQ0wCwYDVQQKDARw
a2c1MRAwDgYDVQQDDAdjaDFfdGEzMRYwFAYJKoZIhvcNAQkBFgdjaDFfdGEzMIIB
IjANBgkqhkiG9w0BAQEFAAOCAQ8AMIIBCgKCAQEAyF00yLCZbJL/xpvE79PGpxcj
PbWy8B9nPTdEdDjosZl0R92D00uCvwN3LwCRoGmpar3tkVPbNKTdzNs9jNiec4SB
80hvrPsmBQQ8a6YmkFqoYetB7chPbQd0nJWr7yYOi9ODwbORiYsP0k/B6xdl2yyv
8RZAC9Mx0bI7VpDSjlXGLGRai03shgZ3BwIi5WCrIrm9iG050Fx6GELnT7YkeR00
/MVNVnvu+EUC6V6eu1SX8VeEvriVKMD+FgmP3ptMSbGuJVJQr0TgoZt5hlJT6dXg
ihAdJOlglaV8RhFk77gS/IHAr+w9iWdPEJ8zxvEsN9DqVHz6Es/V4GV7VxT3NQID
AQABo4IBADCB/TAdBgNVHQ4EFgQU1aYeEYqQy2YPEGZ3Ad06jxTwhcAwgaYGA1Ud
IwSBnjCBm4AUMecSSawyzAOgw2CZ9j5dHKOE2DuhbaRrMGkxCzAJBgNVBAYTAlVT
MRMwEQYDVQQIDApDYWxpZm9ybmlhMRQwEgYDVQQHDAtTYW50YSBDbGFyYTENMAsG
A1UECgwEcGtnNTEMMAoGA1UEAwwDdGEzMRIwEAYJKoZIhvcNAQkBFgN0YTOCFGck
S42mY0sBDWzcYMCTwr73mr0vMA8GA1UdEwEB/wQFMAMBAf8wDgYDVR0PAQH/BAQD
AgEGMBIGA1UdEQQLMAmBB2NoMV90YTMwDQYJKoZIhvcNAQELBQADggEBAAJktW8K
vguEd+tGqzTp6A1+LOKpoJCHXpRiR/83+8vhLW4Wm0cRzq75/7XtPW3WPuAFjiPv
lfK1vvS2dTfh1JLEi6soGWzFW1fuEMRFv+Gc/xgEuMQMymin/QTZbdN/p22/uC8H
2mrtPVx9RVej3gGF0zAP/n0fFmA1fOdhw79maK4g38ZmASMGoPbsKXLepRwbQ1T/
TmQsm6wU7vsiziKsSwHJ5jW07muzYrsx3IwIPYM86pzNI22K61led635YWb4m6U9
mGfoupDi+oD3np0e+FibrcLh8gvyJOVUxEIMIRDkb0TNvATwaAVNmR3UsIWVeb0W
Jz3ERYd5zpmIfJA=
-----END CERTIFICATE-----
