Certificate:
    Data:
        Version: 3 (0x2)
        Serial Number: 16 (0x10)
        Signature Algorithm: sha256WithRSAEncryption
        Issuer: C=US, ST=California, L=Santa Clara, O=pkg5, CN=ta3/emailAddress=ta3
        Validity
            Not Before: May 23 15:47:17 2024 GMT
            Not After : Feb 17 15:47:17 2027 GMT
        Subject: C=US, ST=California, L=Santa Clara, O=pkg5, CN=ch1_ta3/emailAddress=ch1_ta3
        Subject Public Key Info:
            Public Key Algorithm: rsaEncryption
                Public-Key: (2048 bit)
                Modulus:
                    00:b1:fc:97:6f:b1:df:57:e1:a4:82:cd:82:49:02:
                    71:7a:75:cf:33:e3:51:a6:b7:7b:8e:01:73:23:55:
                    a2:cd:46:a9:ce:13:9d:22:14:8f:d8:84:d5:13:d3:
                    64:34:b9:65:5b:e3:a8:36:b0:3a:31:7a:9b:a7:ea:
                    e7:5e:d6:f8:f7:ba:d8:9d:61:68:b6:9d:fd:43:37:
                    d1:f7:fc:26:21:04:6c:59:c9:79:9a:1d:7c:8c:3c:
                    c4:e4:91:f6:0a:9a:60:96:9c:17:b7:4e:35:7b:cc:
                    1c:c7:34:ed:f4:e5:4a:96:ea:be:3f:a1:3d:bb:c3:
                    b1:75:85:b0:ac:8b:96:de:fb:c8:5c:6d:55:01:92:
                    12:d2:ff:c0:e3:4d:14:94:a1:7d:fe:e5:81:7e:57:
                    98:e0:25:28:63:40:05:a5:17:a3:5f:73:e3:cd:0d:
                    be:57:22:c1:0c:37:cc:13:68:e4:04:aa:bc:d3:62:
                    16:37:af:9b:89:8c:bc:a1:9c:fe:00:be:6d:8a:2b:
                    d3:8b:20:e5:ae:21:80:6f:50:7e:96:d4:97:d8:4f:
                    24:7a:04:4e:0e:4b:68:3f:54:ca:9d:78:99:cc:d4:
                    ed:ea:b3:85:ac:e1:ee:b3:44:ae:40:bd:42:f0:3e:
                    b4:21:18:20:c7:55:35:5e:ae:67:5a:a5:a8:a7:7e:
                    9c:7d
                Exponent: 65537 (0x10001)
        X509v3 extensions:
            X509v3 Subject Key Identifier: 
                69:A7:F1:E4:B7:F3:AC:28:7C:E9:9A:78:E3:CC:EF:00:89:C5:A4:C5
            X509v3 Authority Key Identifier: 
                keyid:A0:1E:8E:B9:8B:09:76:33:B8:CE:59:F1:BA:1B:5F:EC:D9:38:76:58
                DirName:/C=US/ST=California/L=Santa Clara/O=pkg5/CN=ta3/emailAddress=ta3
                serial:3D:AB:7C:D1:27:67:54:57:2B:F8:A5:2C:43:8D:D7:BE:D9:A5:57:64
            X509v3 Basic Constraints: critical
                CA:TRUE
            X509v3 Key Usage: critical
                Certificate Sign, CRL Sign
            X509v3 Subject Alternative Name: 
                email:ch1_ta3
    Signature Algorithm: sha256WithRSAEncryption
    Signature Value:
        a3:45:22:84:68:fc:34:ec:59:77:ad:f8:87:9f:2f:11:bd:f4:
        3e:ca:b1:27:37:fb:47:76:26:44:64:91:19:66:fb:f0:2b:9d:
        21:2a:90:d9:96:1f:34:76:9b:67:2a:fa:3e:ea:09:a8:60:9e:
        db:a3:d8:ca:8b:a5:13:22:d1:8e:cd:55:3b:1b:01:8d:d6:aa:
        2e:06:f2:50:0d:b4:74:c8:89:dd:b2:55:0f:d4:ba:8d:43:10:
        0b:25:4b:4c:3b:cb:3e:32:86:fb:a0:da:71:e6:63:7c:0c:b8:
        e6:0b:ed:b1:5b:cc:d5:db:cc:a2:2c:ec:12:8c:5d:f8:df:95:
        2b:34:e7:c4:cf:62:03:05:8f:e7:19:3d:57:df:e5:3e:33:b0:
        2e:17:a8:7e:37:0a:c7:99:c4:a7:27:4f:e8:d6:b8:28:d8:ac:
        b1:da:3b:ba:7b:19:94:ae:23:42:08:88:5d:72:6a:8a:b1:04:
        a4:fc:be:74:3b:46:46:ca:4d:9f:df:6d:df:1c:dc:b5:0f:a2:
        fa:08:cb:89:8d:8e:fd:28:48:05:4a:dd:86:1c:20:a7:8b:2b:
        67:f5:b0:a1:b3:4f:39:3c:6d:d8:52:eb:26:05:97:85:bf:23:
        66:0e:f4:91:ce:89:42:0e:8c:ac:f3:c1:75:06:e9:66:84:11:
        67:a2:c7:e0
-----BEGIN CERTIFICATE-----
MIIEVzCCAz+gAwIBAgIBEDANBgkqhkiG9w0BAQsFADBpMQswCQYDVQQGEwJVUzET
MBEGA1UECAwKQ2FsaWZvcm5pYTEUMBIGA1UEBwwLU2FudGEgQ2xhcmExDTALBgNV
BAoMBHBrZzUxDDAKBgNVBAMMA3RhMzESMBAGCSqGSIb3DQEJARYDdGEzMB4XDTI0
MDUyMzE1NDcxN1oXDTI3MDIxNzE1NDcxN1owcTELMAkGA1UEBhMCVVMxEzARBgNV
BAgMCkNhbGlmb3JuaWExFDASBgNVBAcMC1NhbnRhIENsYXJhMQ0wCwYDVQQKDARw
a2c1MRAwDgYDVQQDDAdjaDFfdGEzMRYwFAYJKoZIhvcNAQkBFgdjaDFfdGEzMIIB
IjANBgkqhkiG9w0BAQEFAAOCAQ8AMIIBCgKCAQEAsfyXb7HfV+Gkgs2CSQJxenXP
M+NRprd7jgFzI1WizUapzhOdIhSP2ITVE9NkNLllW+OoNrA6MXqbp+rnXtb497rY
nWFotp39QzfR9/wmIQRsWcl5mh18jDzE5JH2CppglpwXt041e8wcxzTt9OVKluq+
P6E9u8OxdYWwrIuW3vvIXG1VAZIS0v/A400UlKF9/uWBfleY4CUoY0AFpRejX3Pj
zQ2+VyLBDDfME2jkBKq802IWN6+biYy8oZz+AL5tiivTiyDlriGAb1B+ltSX2E8k
egRODktoP1TKnXiZzNTt6rOFrOHus0SuQL1C8D60IRggx1U1Xq5nWqWop36cfQID
AQABo4IBADCB/TAdBgNVHQ4EFgQUaafx5LfzrCh86Zp448zvAInFpMUwgaYGA1Ud
IwSBnjCBm4AUoB6OuYsJdjO4zlnxuhtf7Nk4dlihbaRrMGkxCzAJBgNVBAYTAlVT
MRMwEQYDVQQIDApDYWxpZm9ybmlhMRQwEgYDVQQHDAtTYW50YSBDbGFyYTENMAsG
A1UECgwEcGtnNTEMMAoGA1UEAwwDdGEzMRIwEAYJKoZIhvcNAQkBFgN0YTOCFD2r
fNEnZ1RXK/ilLEON177ZpVdkMA8GA1UdEwEB/wQFMAMBAf8wDgYDVR0PAQH/BAQD
AgEGMBIGA1UdEQQLMAmBB2NoMV90YTMwDQYJKoZIhvcNAQELBQADggEBAKNFIoRo
/DTsWXet+IefLxG99D7KsSc3+0d2JkRkkRlm+/ArnSEqkNmWHzR2m2cq+j7qCahg
ntuj2MqLpRMi0Y7NVTsbAY3Wqi4G8lANtHTIid2yVQ/Uuo1DEAslS0w7yz4yhvug
2nHmY3wMuOYL7bFbzNXbzKIs7BKMXfjflSs058TPYgMFj+cZPVff5T4zsC4XqH43
CseZxKcnT+jWuCjYrLHaO7p7GZSuI0IIiF1yaoqxBKT8vnQ7RkbKTZ/fbd8c3LUP
ovoIy4mNjv0oSAVK3YYcIKeLK2f1sKGzTzk8bdhS6yYFl4W/I2YO9JHOiUIOjKzz
wXUG6WaEEWeix+A=
-----END CERTIFICATE-----
