Certificate:
    Data:
        Version: 3 (0x2)
        Serial Number: 27 (0x1b)
    Signature Algorithm: sha256WithRSAEncryption
        Issuer: C=US, ST=California, L=Santa Clara, O=pkg5, CN=ta3/emailAddress=ta3
        Validity
            Not Before: Nov 16 10:58:49 2017 GMT
            Not After : Aug 12 10:58:49 2020 GMT
        Subject: C=US, ST=California, L=Santa Clara, O=pkg5, CN=ch1.1_ta3/emailAddress=ch1.1_ta3
        Subject Public Key Info:
            Public Key Algorithm: rsaEncryption
                Public-Key: (2048 bit)
                Modulus:
                    00:c0:ea:09:4d:dc:76:d8:ae:f7:0c:78:69:8d:c5:
                    a7:7a:1f:4a:92:78:ad:b7:de:bd:fd:37:81:b1:24:
                    cb:37:37:ed:6d:10:b4:e4:ae:56:06:f3:19:2b:99:
                    35:d1:cb:90:7b:f4:4e:71:56:a5:73:ee:50:43:b2:
                    57:c7:80:5d:6a:67:dc:78:e0:83:8d:10:07:70:35:
                    92:64:d3:ad:3c:fd:24:f9:89:e9:24:0a:42:b3:67:
                    82:f6:3c:5b:09:e1:4e:8a:59:c1:28:16:a4:9a:e3:
                    83:d9:86:f6:89:65:98:5b:ed:dc:1e:f8:90:31:17:
                    33:68:40:55:7a:b6:68:a7:e0:7f:b1:c1:aa:c3:94:
                    65:ce:1a:5d:47:ae:ec:b8:f8:21:ec:87:c9:37:c8:
                    ad:ed:76:2e:7f:c3:30:39:81:51:2a:d5:7d:17:d2:
                    db:fd:eb:2d:ba:13:e2:84:11:63:6b:6b:9c:30:bb:
                    4b:0e:bd:b1:bc:13:b9:14:85:1f:63:22:75:1b:37:
                    ad:ea:54:36:ef:94:f0:a5:67:db:ae:b0:f4:62:43:
                    fd:7a:70:b8:1d:96:10:74:8b:20:8f:35:92:f6:98:
                    2d:83:47:0a:98:75:bb:86:fd:fd:4a:ae:de:4e:60:
                    b1:1b:42:02:22:12:1e:2a:67:9a:21:89:48:e2:55:
                    bf:8d
                Exponent: 65537 (0x10001)
        X509v3 extensions:
            X509v3 Basic Constraints: critical
                CA:TRUE
            X509v3 Issuer Alternative Name: critical
                <EMPTY>

    Signature Algorithm: sha256WithRSAEncryption
         2e:05:3a:54:9a:51:1d:ee:8c:d8:07:58:76:00:5d:e5:95:0f:
         98:0b:76:b5:e4:28:0e:e6:2a:af:83:e0:ea:46:d7:d2:22:c8:
         63:ae:52:dc:e2:e1:79:b1:f5:00:49:df:54:63:ac:97:3f:33:
         ba:e7:b2:06:41:47:3a:06:ce:e4:17:cf:fe:4e:2b:c5:08:2c:
         de:d5:15:ea:45:cc:be:15:cd:4b:ba:d0:98:93:b3:62:a8:20:
         5b:47:ca:4c:da:fe:b9:a5:38:75:8b:40:2f:94:0b:bb:bf:ff:
         22:db:b0:7b:4c:a1:4c:da:55:2d:2d:d0:7b:7e:c9:2f:26:b6:
         5a:a9:e0:9f:c1:ee:2b:33:98:c6:22:ed:5a:4d:08:10:b1:0e:
         d2:da:1f:76:e4:8a:31:cd:63:7e:96:22:de:3f:e1:cd:0a:99:
         28:f4:7c:76:a8:28:66:35:12:3e:1c:04:27:f7:8e:1d:41:71:
         65:aa:64:22:f4:fe:2e:79:0b:66:67:0a:1b:22:4d:33:fb:57:
         2e:89:19:36:d0:df:0d:36:a6:30:51:9b:97:f5:71:56:49:55:
         0b:c7:29:41:fe:59:27:55:98:cb:e6:50:3e:8a:23:a1:92:42:
         c6:4d:2f:00:22:a4:c1:6b:62:08:68:8d:5d:56:75:12:ea:ca:
         8f:43:6d:33
-----BEGIN CERTIFICATE-----
MIIDejCCAmKgAwIBAgIBGzANBgkqhkiG9w0BAQsFADBpMQswCQYDVQQGEwJVUzET
MBEGA1UECAwKQ2FsaWZvcm5pYTEUMBIGA1UEBwwLU2FudGEgQ2xhcmExDTALBgNV
BAoMBHBrZzUxDDAKBgNVBAMMA3RhMzESMBAGCSqGSIb3DQEJARYDdGEzMB4XDTE3
MTExNjEwNTg0OVoXDTIwMDgxMjEwNTg0OVowdTELMAkGA1UEBhMCVVMxEzARBgNV
BAgMCkNhbGlmb3JuaWExFDASBgNVBAcMC1NhbnRhIENsYXJhMQ0wCwYDVQQKDARw
a2c1MRIwEAYDVQQDDAljaDEuMV90YTMxGDAWBgkqhkiG9w0BCQEWCWNoMS4xX3Rh
MzCCASIwDQYJKoZIhvcNAQEBBQADggEPADCCAQoCggEBAMDqCU3cdtiu9wx4aY3F
p3ofSpJ4rbfevf03gbEkyzc37W0QtOSuVgbzGSuZNdHLkHv0TnFWpXPuUEOyV8eA
XWpn3Hjgg40QB3A1kmTTrTz9JPmJ6SQKQrNngvY8WwnhTopZwSgWpJrjg9mG9oll
mFvt3B74kDEXM2hAVXq2aKfgf7HBqsOUZc4aXUeu7Lj4IeyHyTfIre12Ln/DMDmB
USrVfRfS2/3rLboT4oQRY2trnDC7Sw69sbwTuRSFH2MidRs3repUNu+U8KVn266w
9GJD/XpwuB2WEHSLII81kvaYLYNHCph1u4b9/Uqu3k5gsRtCAiISHipnmiGJSOJV
v40CAwEAAaMhMB8wDwYDVR0TAQH/BAUwAwEB/zAMBgNVHRIBAf8EAjAAMA0GCSqG
SIb3DQEBCwUAA4IBAQAuBTpUmlEd7ozYB1h2AF3llQ+YC3a15CgO5iqvg+DqRtfS
IshjrlLc4uF5sfUASd9UY6yXPzO657IGQUc6Bs7kF8/+TivFCCze1RXqRcy+Fc1L
utCYk7NiqCBbR8pM2v65pTh1i0AvlAu7v/8i27B7TKFM2lUtLdB7fskvJrZaqeCf
we4rM5jGIu1aTQgQsQ7S2h925IoxzWN+liLeP+HNCpko9Hx2qChmNRI+HAQn944d
QXFlqmQi9P4ueQtmZwobIk0z+1cuiRk20N8NNqYwUZuX9XFWSVULxylB/lknVZjL
5lA+iiOhkkLGTS8AIqTBa2IIaI1dVnUS6sqPQ20z
-----END CERTIFICATE-----
