Certificate:
    Data:
        Version: 3 (0x2)
        Serial Number: 27 (0x1b)
        Signature Algorithm: sha256WithRSAEncryption
        Issuer: C=US, ST=California, L=Santa Clara, O=pkg5, CN=ta3/emailAddress=ta3
        Validity
            Not Before: Dec 15 15:37:25 2022 GMT
            Not After : Sep 10 15:37:25 2025 GMT
        Subject: C=US, ST=California, L=Santa Clara, O=pkg5, CN=ch1.1_ta3/emailAddress=ch1.1_ta3
        Subject Public Key Info:
            Public Key Algorithm: rsaEncryption
                Public-Key: (2048 bit)
                Modulus:
                    00:c0:d4:88:71:5b:db:f4:c1:02:20:b3:0b:f1:0c:
                    25:d8:f8:c7:8b:2a:07:6c:4d:b8:9a:8d:3a:71:53:
                    3a:aa:6a:5f:93:f6:c0:45:50:0f:30:21:60:0b:60:
                    03:f7:e7:4a:66:80:73:9c:02:3d:ab:86:7e:37:58:
                    0e:a3:a2:48:25:6c:83:26:e6:d0:06:ce:b0:e5:77:
                    40:ce:48:3e:ba:6b:dd:29:4e:16:3b:4d:3b:f2:3e:
                    b1:0d:4d:fd:2c:08:30:db:5c:4a:6a:c3:f5:5e:b0:
                    79:e9:ea:6f:13:f5:98:ed:e5:ab:df:56:ce:15:c7:
                    c3:aa:df:59:b1:18:97:ce:d5:21:f0:09:53:0c:18:
                    e5:8a:3b:f1:ab:b0:37:45:dd:3e:e5:35:0e:2f:28:
                    b2:87:f6:69:6e:21:96:56:9c:28:a8:e6:a7:09:12:
                    76:fa:58:00:13:d1:1c:3f:af:ed:24:4c:91:35:66:
                    28:f4:cb:82:3d:3d:5f:4c:37:f0:73:af:1c:c1:35:
                    13:a8:55:67:e8:51:47:cc:d3:c5:1c:ad:74:81:35:
                    e8:68:91:7d:b1:f2:14:8a:d3:73:12:17:9d:b0:4a:
                    53:2a:c8:9a:73:3e:f1:76:15:ec:32:7a:7d:72:12:
                    5c:cb:7f:4a:25:e2:f6:e8:3a:d1:d1:aa:93:99:f9:
                    1a:93
                Exponent: 65537 (0x10001)
        X509v3 extensions:
            X509v3 Basic Constraints: critical
                CA:TRUE
            X509v3 Subject Alternative Name: 
                email:ch1.1_ta3
            X509v3 Issuer Alternative Name: critical
                email:ca
            X509v3 Subject Key Identifier: 
                F9:87:9D:2E:D0:DC:EC:DB:95:BD:A1:B6:FA:24:AB:3E:F3:2E:4C:A3
            X509v3 Authority Key Identifier: 
                EF:5A:9F:1D:45:27:6D:44:D8:59:31:21:A6:13:90:C9:6A:06:8C:1C
    Signature Algorithm: sha256WithRSAEncryption
    Signature Value:
        5d:19:10:fe:8d:c5:8e:1b:e5:1c:04:98:c1:24:9b:91:1a:b6:
        63:bb:b5:49:98:45:9c:a5:af:88:ca:f0:81:21:32:5e:e4:04:
        a2:86:bf:d7:7b:ca:e6:33:98:2e:c2:63:d3:e9:ab:08:c5:12:
        35:7d:b9:2f:56:80:d2:8f:c3:5c:40:e1:9c:b1:f7:ce:3a:92:
        e1:ec:f5:59:c9:90:f0:0b:89:2b:9d:05:a2:15:93:7c:a8:ac:
        f9:24:2b:57:94:c3:78:bb:9f:0d:31:34:e0:28:ad:59:d2:86:
        b6:74:9f:80:9f:46:9e:13:bf:77:2c:d7:bd:68:dc:60:85:dd:
        03:cf:2e:69:db:52:be:07:5f:d4:4c:d8:9a:5e:f1:da:dc:92:
        17:e2:35:d0:f6:01:d5:51:31:dc:7f:c1:fd:d4:ee:b6:6e:4f:
        72:88:d1:ee:c4:cc:7f:a7:60:b8:99:37:dd:81:8e:70:ae:72:
        be:aa:dc:3e:80:56:7d:75:65:cd:95:d0:aa:3f:49:d1:c8:36:
        b2:94:79:9b:5d:c8:e8:59:24:b1:23:87:5a:59:6f:9e:8e:ea:
        7e:50:1e:a8:96:47:d6:6c:57:9e:85:63:10:c3:96:6c:b9:64:
        06:ef:b9:53:07:11:cc:e5:91:e0:bc:31:ed:10:9b:73:22:62:
        4d:d4:31:84
-----BEGIN CERTIFICATE-----
MIID1DCCArygAwIBAgIBGzANBgkqhkiG9w0BAQsFADBpMQswCQYDVQQGEwJVUzET
MBEGA1UECAwKQ2FsaWZvcm5pYTEUMBIGA1UEBwwLU2FudGEgQ2xhcmExDTALBgNV
BAoMBHBrZzUxDDAKBgNVBAMMA3RhMzESMBAGCSqGSIb3DQEJARYDdGEzMB4XDTIy
MTIxNTE1MzcyNVoXDTI1MDkxMDE1MzcyNVowdTELMAkGA1UEBhMCVVMxEzARBgNV
BAgMCkNhbGlmb3JuaWExFDASBgNVBAcMC1NhbnRhIENsYXJhMQ0wCwYDVQQKDARw
a2c1MRIwEAYDVQQDDAljaDEuMV90YTMxGDAWBgkqhkiG9w0BCQEWCWNoMS4xX3Rh
MzCCASIwDQYJKoZIhvcNAQEBBQADggEPADCCAQoCggEBAMDUiHFb2/TBAiCzC/EM
Jdj4x4sqB2xNuJqNOnFTOqpqX5P2wEVQDzAhYAtgA/fnSmaAc5wCPauGfjdYDqOi
SCVsgybm0AbOsOV3QM5IPrpr3SlOFjtNO/I+sQ1N/SwIMNtcSmrD9V6weenqbxP1
mO3lq99WzhXHw6rfWbEYl87VIfAJUwwY5Yo78auwN0XdPuU1Di8osof2aW4hllac
KKjmpwkSdvpYABPRHD+v7SRMkTVmKPTLgj09X0w38HOvHME1E6hVZ+hRR8zTxRyt
dIE16GiRfbHyFIrTcxIXnbBKUyrImnM+8XYV7DJ6fXISXMt/SiXi9ug60dGqk5n5
GpMCAwEAAaN7MHkwDwYDVR0TAQH/BAUwAwEB/zAUBgNVHREEDTALgQljaDEuMV90
YTMwEAYDVR0SAQH/BAYwBIECY2EwHQYDVR0OBBYEFPmHnS7Q3Ozblb2htvokqz7z
LkyjMB8GA1UdIwQYMBaAFO9anx1FJ21E2FkxIaYTkMlqBowcMA0GCSqGSIb3DQEB
CwUAA4IBAQBdGRD+jcWOG+UcBJjBJJuRGrZju7VJmEWcpa+IyvCBITJe5ASihr/X
e8rmM5guwmPT6asIxRI1fbkvVoDSj8NcQOGcsffOOpLh7PVZyZDwC4krnQWiFZN8
qKz5JCtXlMN4u58NMTTgKK1Z0oa2dJ+An0aeE793LNe9aNxghd0Dzy5p21K+B1/U
TNiaXvHa3JIX4jXQ9gHVUTHcf8H91O62bk9yiNHuxMx/p2C4mTfdgY5wrnK+qtw+
gFZ9dWXNldCqP0nRyDaylHmbXcjoWSSxI4daWW+ejup+UB6olkfWbFeehWMQw5Zs
uWQG77lTBxHM5ZHgvDHtEJtzImJN1DGE
-----END CERTIFICATE-----
