Certificate:
    Data:
        Version: 3 (0x2)
        Serial Number: 27 (0x1b)
        Signature Algorithm: sha256WithRSAEncryption
        Issuer: C=US, ST=California, L=Santa Clara, O=pkg5, CN=ta3/emailAddress=ta3
        Validity
            Not Before: Oct 24 21:43:08 2023 GMT
            Not After : Jul 20 21:43:08 2026 GMT
        Subject: C=US, ST=California, L=Santa Clara, O=pkg5, CN=ch1.1_ta3/emailAddress=ch1.1_ta3
        Subject Public Key Info:
            Public Key Algorithm: rsaEncryption
                Public-Key: (2048 bit)
                Modulus:
                    00:c0:d8:20:21:74:66:99:90:ee:6f:8a:49:21:c4:
                    41:92:da:71:7c:a9:e4:49:30:f3:df:b4:a7:75:8e:
                    89:f7:70:67:8c:0a:fa:1c:13:41:2b:e2:5d:71:51:
                    d5:61:9d:f2:95:3e:78:e7:ff:cd:96:36:38:ff:c5:
                    49:0c:42:dc:59:52:de:61:9d:45:b7:4b:b8:66:2d:
                    08:97:71:dc:23:f5:b6:cb:70:c9:e2:60:fa:d3:a6:
                    4e:f9:7e:2b:35:c7:73:50:b4:56:af:41:f9:4b:93:
                    03:b8:b9:19:b9:1f:2d:53:af:61:9d:18:81:c3:5b:
                    dc:36:1e:c0:ff:50:b9:fb:ab:54:06:d2:03:46:c3:
                    31:7f:33:cb:8a:21:d9:81:23:51:80:ca:49:3a:dd:
                    80:f6:b1:fb:3b:1b:ac:0d:0a:f8:b2:f8:97:c0:a1:
                    00:47:b5:cf:02:7a:5a:30:cd:87:52:1d:df:7a:fe:
                    1d:16:ce:c4:df:76:9d:8d:e1:f0:d7:16:24:fa:53:
                    ae:1a:e2:e6:0a:cb:a9:8a:ef:81:f3:e5:5e:1e:53:
                    3e:5f:b4:db:2f:00:aa:99:b6:54:0f:7b:3d:e3:0e:
                    b6:2d:d4:51:2a:c6:d5:34:e4:a9:39:53:e6:4e:ec:
                    83:39:f1:b0:5b:3c:af:65:8b:59:75:02:ec:41:b3:
                    b8:41
                Exponent: 65537 (0x10001)
        X509v3 extensions:
            X509v3 Basic Constraints: critical
                CA:TRUE
            X509v3 Subject Alternative Name: 
                email:ch1.1_ta3
            X509v3 Issuer Alternative Name: critical
                email:ca
            X509v3 Subject Key Identifier: 
                06:33:22:4B:03:FF:39:B0:4F:E9:3B:66:D6:E5:55:67:EF:E6:39:C0
            X509v3 Authority Key Identifier: 
                DC:83:FD:15:4A:D3:A8:E9:0B:C4:90:16:2F:FE:AA:F4:AB:B7:EC:E3
    Signature Algorithm: sha256WithRSAEncryption
    Signature Value:
        51:82:80:26:40:04:75:24:5e:31:6f:e3:98:9c:e0:bc:54:bd:
        ae:c1:be:8a:c7:c9:63:b4:6c:08:08:dc:dd:89:ed:50:a0:28:
        f6:5c:f0:58:f9:db:4d:0a:3d:5c:b5:8c:6b:8f:f1:ce:ad:d7:
        8f:0b:fd:2b:90:b5:c0:6c:58:6d:62:35:cd:30:3e:71:32:92:
        44:e4:89:8f:86:bb:b0:fd:61:b6:0a:f2:45:ad:45:46:53:5e:
        20:9d:f0:da:18:e2:ef:50:6d:f5:cc:e5:79:cd:12:71:26:b5:
        46:fb:c3:67:8a:93:77:2b:96:11:01:1e:be:f7:f1:66:29:fb:
        d3:d4:c8:99:d5:5c:b0:c0:13:2b:93:e0:de:16:0a:ef:f6:0c:
        16:a4:e3:ab:0d:8e:7e:9e:42:94:f8:c9:50:af:23:01:88:75:
        08:43:d2:96:86:0f:95:e0:7b:d3:21:75:d6:8b:cb:00:18:a8:
        61:07:ae:94:59:60:c6:4a:5c:be:7c:68:f7:12:31:f0:80:85:
        1a:96:88:be:b5:aa:ca:3c:66:ff:ce:62:ca:71:cd:1f:7e:eb:
        9e:58:48:26:9e:79:06:25:36:09:df:ef:55:2a:e6:ab:15:73:
        9c:6a:62:73:3c:06:57:ff:b6:68:0c:e9:dc:bb:a8:3a:9c:10:
        fb:43:03:27
-----BEGIN CERTIFICATE-----
MIID1DCCArygAwIBAgIBGzANBgkqhkiG9w0BAQsFADBpMQswCQYDVQQGEwJVUzET
MBEGA1UECAwKQ2FsaWZvcm5pYTEUMBIGA1UEBwwLU2FudGEgQ2xhcmExDTALBgNV
BAoMBHBrZzUxDDAKBgNVBAMMA3RhMzESMBAGCSqGSIb3DQEJARYDdGEzMB4XDTIz
MTAyNDIxNDMwOFoXDTI2MDcyMDIxNDMwOFowdTELMAkGA1UEBhMCVVMxEzARBgNV
BAgMCkNhbGlmb3JuaWExFDASBgNVBAcMC1NhbnRhIENsYXJhMQ0wCwYDVQQKDARw
a2c1MRIwEAYDVQQDDAljaDEuMV90YTMxGDAWBgkqhkiG9w0BCQEWCWNoMS4xX3Rh
MzCCASIwDQYJKoZIhvcNAQEBBQADggEPADCCAQoCggEBAMDYICF0ZpmQ7m+KSSHE
QZLacXyp5Ekw89+0p3WOifdwZ4wK+hwTQSviXXFR1WGd8pU+eOf/zZY2OP/FSQxC
3FlS3mGdRbdLuGYtCJdx3CP1tstwyeJg+tOmTvl+KzXHc1C0Vq9B+UuTA7i5Gbkf
LVOvYZ0YgcNb3DYewP9QufurVAbSA0bDMX8zy4oh2YEjUYDKSTrdgPax+zsbrA0K
+LL4l8ChAEe1zwJ6WjDNh1Id33r+HRbOxN92nY3h8NcWJPpTrhri5grLqYrvgfPl
Xh5TPl+02y8Aqpm2VA97PeMOti3UUSrG1TTkqTlT5k7sgznxsFs8r2WLWXUC7EGz
uEECAwEAAaN7MHkwDwYDVR0TAQH/BAUwAwEB/zAUBgNVHREEDTALgQljaDEuMV90
YTMwEAYDVR0SAQH/BAYwBIECY2EwHQYDVR0OBBYEFAYzIksD/zmwT+k7ZtblVWfv
5jnAMB8GA1UdIwQYMBaAFNyD/RVK06jpC8SQFi/+qvSrt+zjMA0GCSqGSIb3DQEB
CwUAA4IBAQBRgoAmQAR1JF4xb+OYnOC8VL2uwb6Kx8ljtGwICNzdie1QoCj2XPBY
+dtNCj1ctYxrj/HOrdePC/0rkLXAbFhtYjXNMD5xMpJE5ImPhruw/WG2CvJFrUVG
U14gnfDaGOLvUG31zOV5zRJxJrVG+8NnipN3K5YRAR6+9/FmKfvT1MiZ1VywwBMr
k+DeFgrv9gwWpOOrDY5+nkKU+MlQryMBiHUIQ9KWhg+V4HvTIXXWi8sAGKhhB66U
WWDGSly+fGj3EjHwgIUaloi+tarKPGb/zmLKcc0ffuueWEgmnnkGJTYJ3+9VKuar
FXOcamJzPAZX/7ZoDOncu6g6nBD7QwMn
-----END CERTIFICATE-----
