Certificate:
    Data:
        Version: 3 (0x2)
        Serial Number: 29 (0x1d)
        Signature Algorithm: sha256WithRSAEncryption
        Issuer: C=US, ST=California, L=Santa Clara, O=pkg5, CN=ta3/emailAddress=ta3
        Validity
            Not Before: Jan  1 01:01:01 2009 GMT
            Not After : Jan  2 01:01:01 2009 GMT
        Subject: C=US, ST=California, L=Santa Clara, O=pkg5, CN=ch1.2_ta3/emailAddress=ch1.2_ta3
        Subject Public Key Info:
            Public Key Algorithm: rsaEncryption
                Public-Key: (2048 bit)
                Modulus:
                    00:9b:a0:c2:34:c1:3b:ec:47:35:bf:d9:c9:8d:90:
                    d3:21:c3:08:d8:0c:9c:a3:07:55:24:51:38:9e:8a:
                    4c:24:6a:99:eb:11:da:aa:72:72:a4:45:33:06:11:
                    b6:b5:27:c9:c8:73:df:62:5d:d5:41:e2:a7:9b:05:
                    28:86:e1:34:7c:5d:1b:7a:f0:c5:2e:90:76:f1:67:
                    d7:52:5a:7a:46:2e:8f:a2:7d:5d:67:8f:07:c7:eb:
                    2a:2c:2e:69:f4:98:3c:7a:a8:ba:7d:d2:9f:d2:07:
                    96:b4:a1:30:ff:92:46:a6:4c:41:82:aa:1a:20:99:
                    c2:f7:1d:3d:eb:94:f8:8a:40:72:87:70:51:d3:57:
                    0f:e7:64:9a:5f:d2:b7:c6:72:4a:20:1c:0e:fe:1f:
                    f8:1e:67:6a:af:cc:ac:3d:72:6c:32:57:0f:2b:54:
                    fb:0a:4a:f2:b6:5f:3d:13:ca:93:55:cd:d7:07:3e:
                    ce:34:09:3d:e0:2a:b7:f3:4a:a3:9f:9f:42:64:e0:
                    3c:3a:aa:17:cb:a6:bb:d0:90:b5:52:6c:ed:18:6e:
                    36:e1:ca:9e:40:88:91:61:53:78:5b:fa:b7:0d:8a:
                    7b:51:97:98:8e:db:9d:1b:0c:95:ee:2c:2e:bd:e4:
                    8a:7d:fb:75:78:f6:91:21:30:c7:de:17:a0:7d:19:
                    0e:59
                Exponent: 65537 (0x10001)
        X509v3 extensions:
            X509v3 Subject Key Identifier: 
                7C:C2:BD:53:47:9A:F5:B0:16:D8:C7:4F:03:1C:60:D9:32:F4:8B:A3
            X509v3 Authority Key Identifier: 
                keyid:C0:41:94:DE:CD:5D:DB:27:3B:CD:AB:4A:D5:3A:6F:DA:A7:7F:17:36
                DirName:/C=US/ST=California/L=Santa Clara/O=pkg5/CN=ta3/emailAddress=ta3
                serial:1B:62:5C:BC:2D:8D:5F:A5:80:A5:B4:97:A6:97:F7:C0:E8:74:B0:39
            X509v3 Basic Constraints: critical
                CA:TRUE
            X509v3 Key Usage: critical
                Certificate Sign, CRL Sign
            X509v3 Subject Alternative Name: 
                email:ch1.2_ta3
    Signature Algorithm: sha256WithRSAEncryption
    Signature Value:
        89:e6:19:48:e8:8e:a1:4e:1d:23:64:8e:94:19:af:a8:43:2a:
        4d:54:f4:ac:3f:5a:36:8b:36:52:81:03:de:c7:a0:52:e3:c3:
        02:56:4b:bb:2b:d2:18:ed:ca:1a:30:4e:5d:1e:fd:4b:09:b2:
        aa:8b:5c:d4:d3:52:cf:79:4e:93:3c:61:19:17:69:5c:23:61:
        bd:11:c5:8a:b7:67:c4:3f:d2:0b:e6:70:88:5e:5d:05:fa:0d:
        f4:30:7d:97:90:70:10:ad:da:38:88:6d:cf:f1:26:f6:49:72:
        24:d7:ff:9a:55:b1:87:7e:45:f7:15:f2:38:9c:02:38:7f:f5:
        0d:64:55:8f:cf:96:ef:b6:64:ec:e6:f9:85:ac:32:c2:61:a7:
        36:a7:d2:c6:17:59:22:ed:fe:1f:71:82:88:7d:76:6b:27:97:
        12:bd:b6:01:ac:c3:14:3e:0c:9a:a9:c2:9b:aa:9a:d4:4b:c3:
        50:8d:f4:62:7a:4d:f7:18:60:4c:03:84:80:d7:2e:ba:77:e3:
        08:1f:26:fe:89:2b:2f:e5:0b:c1:10:e5:c6:da:30:b9:af:d1:
        03:ed:e1:52:08:b2:a4:9c:f7:b3:85:f9:e3:61:4a:0d:da:66:
        11:7e:00:d1:2a:cb:ea:d7:e9:7a:ff:2d:7e:42:cc:80:e9:65:
        d7:3f:e5:2b
-----BEGIN CERTIFICATE-----
MIIEXTCCA0WgAwIBAgIBHTANBgkqhkiG9w0BAQsFADBpMQswCQYDVQQGEwJVUzET
MBEGA1UECAwKQ2FsaWZvcm5pYTEUMBIGA1UEBwwLU2FudGEgQ2xhcmExDTALBgNV
BAoMBHBrZzUxDDAKBgNVBAMMA3RhMzESMBAGCSqGSIb3DQEJARYDdGEzMB4XDTA5
MDEwMTAxMDEwMVoXDTA5MDEwMjAxMDEwMVowdTELMAkGA1UEBhMCVVMxEzARBgNV
BAgMCkNhbGlmb3JuaWExFDASBgNVBAcMC1NhbnRhIENsYXJhMQ0wCwYDVQQKDARw
a2c1MRIwEAYDVQQDDAljaDEuMl90YTMxGDAWBgkqhkiG9w0BCQEWCWNoMS4yX3Rh
MzCCASIwDQYJKoZIhvcNAQEBBQADggEPADCCAQoCggEBAJugwjTBO+xHNb/ZyY2Q
0yHDCNgMnKMHVSRROJ6KTCRqmesR2qpycqRFMwYRtrUnychz32Jd1UHip5sFKIbh
NHxdG3rwxS6QdvFn11JaekYuj6J9XWePB8frKiwuafSYPHqoun3Sn9IHlrShMP+S
RqZMQYKqGiCZwvcdPeuU+IpAcodwUdNXD+dkml/St8ZySiAcDv4f+B5naq/MrD1y
bDJXDytU+wpK8rZfPRPKk1XN1wc+zjQJPeAqt/NKo5+fQmTgPDqqF8umu9CQtVJs
7RhuNuHKnkCIkWFTeFv6tw2Ke1GXmI7bnRsMle4sLr3kin37dXj2kSEwx94XoH0Z
DlkCAwEAAaOCAQIwgf8wHQYDVR0OBBYEFHzCvVNHmvWwFtjHTwMcYNky9IujMIGm
BgNVHSMEgZ4wgZuAFMBBlN7NXdsnO82rStU6b9qnfxc2oW2kazBpMQswCQYDVQQG
EwJVUzETMBEGA1UECAwKQ2FsaWZvcm5pYTEUMBIGA1UEBwwLU2FudGEgQ2xhcmEx
DTALBgNVBAoMBHBrZzUxDDAKBgNVBAMMA3RhMzESMBAGCSqGSIb3DQEJARYDdGEz
ghQbYly8LY1fpYCltJeml/fA6HSwOTAPBgNVHRMBAf8EBTADAQH/MA4GA1UdDwEB
/wQEAwIBBjAUBgNVHREEDTALgQljaDEuMl90YTMwDQYJKoZIhvcNAQELBQADggEB
AInmGUjojqFOHSNkjpQZr6hDKk1U9Kw/WjaLNlKBA97HoFLjwwJWS7sr0hjtyhow
Tl0e/UsJsqqLXNTTUs95TpM8YRkXaVwjYb0RxYq3Z8Q/0gvmcIheXQX6DfQwfZeQ
cBCt2jiIbc/xJvZJciTX/5pVsYd+RfcV8jicAjh/9Q1kVY/Plu+2ZOzm+YWsMsJh
pzan0sYXWSLt/h9xgoh9dmsnlxK9tgGswxQ+DJqpwpuqmtRLw1CN9GJ6TfcYYEwD
hIDXLrp34wgfJv6JKy/lC8EQ5cbaMLmv0QPt4VIIsqSc97OF+eNhSg3aZhF+ANEq
y+rX6Xr/LX5CzIDpZdc/5Ss=
-----END CERTIFICATE-----
