Certificate:
    Data:
        Version: 3 (0x2)
        Serial Number: 29 (0x1d)
    Signature Algorithm: sha256WithRSAEncryption
        Issuer: C=US, ST=California, L=Santa Clara, O=pkg5, CN=ta3/emailAddress=ta3
        Validity
            Not Before: Jan  1 01:01:01 2009 GMT
            Not After : Jan  2 01:01:01 2009 GMT
        Subject: C=US, ST=California, L=Santa Clara, O=pkg5, CN=ch1.2_ta3/emailAddress=ch1.2_ta3
        Subject Public Key Info:
            Public Key Algorithm: rsaEncryption
                Public-Key: (2048 bit)
                Modulus:
                    00:9c:90:c2:d0:5f:c7:4a:c3:3b:c7:9d:ce:83:7e:
                    db:7f:54:37:a6:11:a6:eb:e2:d1:e0:f8:fb:fa:11:
                    90:b7:12:60:8f:f9:d4:94:7f:3d:d2:9c:21:ec:5e:
                    0b:ec:26:14:d5:c3:8d:e9:ef:35:7e:ed:5c:52:f0:
                    60:66:e3:0c:58:a4:7e:0a:25:8a:c0:13:7b:30:d6:
                    89:f3:6d:82:f3:fc:af:5c:cf:db:b1:5a:3e:fc:87:
                    f5:44:1f:c5:e5:0d:e9:be:0c:29:1d:04:76:fc:33:
                    8d:da:48:f3:e5:ab:55:de:68:70:2e:7b:e7:78:56:
                    52:69:a9:33:bf:26:b3:34:2d:33:10:e0:09:01:f0:
                    19:36:e9:99:71:e5:bd:c7:ca:b1:10:95:4e:dd:58:
                    40:45:ba:4c:29:e5:0a:96:e0:46:6b:e8:f9:26:79:
                    15:c2:7c:cc:d5:f7:60:eb:8f:9b:08:6b:ab:f2:12:
                    b2:a6:40:28:7e:b2:91:69:f1:ca:8a:56:f9:0d:a8:
                    b3:45:3c:c5:64:e6:42:be:39:e9:f0:fe:33:3e:1d:
                    92:bb:63:3c:32:c9:a4:85:5b:5a:d4:66:1e:af:a8:
                    34:ad:fa:50:c2:4b:ab:4a:5a:98:48:24:d4:4f:03:
                    a7:c3:16:bc:93:d6:48:84:03:8e:49:7a:31:eb:4c:
                    87:33
                Exponent: 65537 (0x10001)
        X509v3 extensions:
            X509v3 Subject Key Identifier: 
                C1:0A:E4:A6:E8:30:A4:44:1C:79:08:4B:51:60:86:EF:F0:F8:A3:94
            X509v3 Authority Key Identifier: 
                keyid:5E:5D:52:C3:66:EC:B1:35:4E:FC:06:50:E5:E6:20:81:D1:38:16:61
                DirName:/C=US/ST=California/L=Santa Clara/O=pkg5/CN=ta3/emailAddress=ta3
                serial:83:65:05:EF:BC:0C:05:9C

            X509v3 Basic Constraints: critical
                CA:TRUE
            X509v3 Key Usage: critical
                Certificate Sign, CRL Sign
    Signature Algorithm: sha256WithRSAEncryption
         25:ff:62:21:4f:08:53:0b:fa:d6:cc:72:42:78:78:01:b6:28:
         f1:5c:1c:d3:11:a9:f3:b8:3b:5f:3b:38:d4:83:8b:83:3c:9e:
         ee:4b:7e:20:93:99:13:f4:47:a6:5a:0e:5a:63:e7:43:96:28:
         b5:e4:ff:df:f9:c6:ac:28:6f:24:1d:6c:33:49:62:40:8c:50:
         de:e2:2a:bf:c5:91:b4:ce:a6:49:94:c0:c2:25:3f:df:4b:b4:
         e4:d8:c8:15:af:28:0e:e8:c5:be:63:a9:1d:c3:61:69:c3:44:
         ee:ea:d5:27:e3:95:82:30:59:5e:24:c1:68:0d:e5:b6:bd:9f:
         a1:be:ab:4c:df:91:d0:07:3c:99:57:47:26:16:7b:48:86:d8:
         5b:7e:49:9d:fe:67:eb:45:73:13:32:1a:d3:19:ab:41:02:ac:
         dc:fd:bf:7c:46:61:bd:f2:64:c8:88:5c:9c:92:48:8c:b0:14:
         46:68:ed:d6:92:f3:a0:91:b6:22:36:7e:b3:d3:36:10:f9:29:
         1a:91:a5:68:b2:6f:48:c4:bf:b0:4d:79:64:b6:e3:c7:ba:f8:
         8a:a5:ee:5a:47:63:9c:e5:02:46:4a:76:db:37:1b:a5:03:ef:
         1e:57:25:66:04:95:f9:13:13:5b:b5:7e:8c:e6:f3:da:c4:09:
         13:dc:44:58
-----BEGIN CERTIFICATE-----
MIIEOzCCAyOgAwIBAgIBHTANBgkqhkiG9w0BAQsFADBpMQswCQYDVQQGEwJVUzET
MBEGA1UECAwKQ2FsaWZvcm5pYTEUMBIGA1UEBwwLU2FudGEgQ2xhcmExDTALBgNV
BAoMBHBrZzUxDDAKBgNVBAMMA3RhMzESMBAGCSqGSIb3DQEJARYDdGEzMB4XDTA5
MDEwMTAxMDEwMVoXDTA5MDEwMjAxMDEwMVowdTELMAkGA1UEBhMCVVMxEzARBgNV
BAgMCkNhbGlmb3JuaWExFDASBgNVBAcMC1NhbnRhIENsYXJhMQ0wCwYDVQQKDARw
a2c1MRIwEAYDVQQDDAljaDEuMl90YTMxGDAWBgkqhkiG9w0BCQEWCWNoMS4yX3Rh
MzCCASIwDQYJKoZIhvcNAQEBBQADggEPADCCAQoCggEBAJyQwtBfx0rDO8edzoN+
239UN6YRpuvi0eD4+/oRkLcSYI/51JR/PdKcIexeC+wmFNXDjenvNX7tXFLwYGbj
DFikfgolisATezDWifNtgvP8r1zP27FaPvyH9UQfxeUN6b4MKR0EdvwzjdpI8+Wr
Vd5ocC5753hWUmmpM78mszQtMxDgCQHwGTbpmXHlvcfKsRCVTt1YQEW6TCnlCpbg
Rmvo+SZ5FcJ8zNX3YOuPmwhrq/ISsqZAKH6ykWnxyopW+Q2os0U8xWTmQr456fD+
Mz4dkrtjPDLJpIVbWtRmHq+oNK36UMJLq0pamEgk1E8Dp8MWvJPWSIQDjkl6MetM
hzMCAwEAAaOB4TCB3jAdBgNVHQ4EFgQUwQrkpugwpEQceQhLUWCG7/D4o5QwgZsG
A1UdIwSBkzCBkIAUXl1Sw2bssTVO/AZQ5eYggdE4FmGhbaRrMGkxCzAJBgNVBAYT
AlVTMRMwEQYDVQQIDApDYWxpZm9ybmlhMRQwEgYDVQQHDAtTYW50YSBDbGFyYTEN
MAsGA1UECgwEcGtnNTEMMAoGA1UEAwwDdGEzMRIwEAYJKoZIhvcNAQkBFgN0YTOC
CQCDZQXvvAwFnDAPBgNVHRMBAf8EBTADAQH/MA4GA1UdDwEB/wQEAwIBBjANBgkq
hkiG9w0BAQsFAAOCAQEAJf9iIU8IUwv61sxyQnh4AbYo8Vwc0xGp87g7Xzs41IOL
gzye7kt+IJOZE/RHploOWmPnQ5YoteT/3/nGrChvJB1sM0liQIxQ3uIqv8WRtM6m
SZTAwiU/30u05NjIFa8oDujFvmOpHcNhacNE7urVJ+OVgjBZXiTBaA3ltr2fob6r
TN+R0Ac8mVdHJhZ7SIbYW35Jnf5n60VzEzIa0xmrQQKs3P2/fEZhvfJkyIhcnJJI
jLAURmjt1pLzoJG2IjZ+s9M2EPkpGpGlaLJvSMS/sE15ZLbjx7r4iqXuWkdjnOUC
Rkp22zcbpQPvHlclZgSV+RMTW7V+jObz2sQJE9xEWA==
-----END CERTIFICATE-----
