Certificate:
    Data:
        Version: 3 (0x2)
        Serial Number: 29 (0x1d)
        Signature Algorithm: sha256WithRSAEncryption
        Issuer: C=US, ST=California, L=Santa Clara, O=pkg5, CN=ta3/emailAddress=ta3
        Validity
            Not Before: Jan  1 01:01:01 2009 GMT
            Not After : Jan  2 01:01:01 2009 GMT
        Subject: C=US, ST=California, L=Santa Clara, O=pkg5, CN=ch1.2_ta3/emailAddress=ch1.2_ta3
        Subject Public Key Info:
            Public Key Algorithm: rsaEncryption
                Public-Key: (2048 bit)
                Modulus:
                    00:a0:ec:82:30:a9:d6:79:7c:47:11:85:ea:68:29:
                    1d:c9:03:07:ff:c6:b8:4e:8c:89:59:0e:d4:4a:0e:
                    33:19:2f:0b:9b:87:10:24:d0:44:39:66:eb:cb:85:
                    01:5b:29:f3:e2:e5:f0:82:e3:0c:ac:bb:7d:9b:f0:
                    58:25:3b:83:1c:0f:68:2c:74:bb:f8:90:f2:76:c5:
                    ea:6b:be:d7:61:85:38:50:85:c7:7f:fd:e2:ee:89:
                    da:b7:70:ff:86:d5:de:df:19:2c:fd:84:48:a4:5d:
                    2c:2e:e2:12:0f:4f:c8:38:c7:36:2a:7e:59:ea:1d:
                    d5:cf:64:51:cb:34:ef:42:a7:e1:e6:d1:12:75:0e:
                    07:f3:8d:73:c0:1e:a4:d3:7f:ad:49:ee:4b:cc:b4:
                    5f:4e:07:b2:c6:aa:dc:fa:7d:e1:48:93:51:8c:7b:
                    d8:e4:6b:27:37:ee:9d:17:b5:c5:da:82:db:67:a4:
                    8e:4a:ab:d8:3a:85:b7:c3:0a:97:1d:c6:6e:67:49:
                    9b:65:f3:19:07:b0:5f:b1:ae:d4:f2:bc:86:7a:d4:
                    62:20:40:3d:e0:9f:4d:ee:e4:d2:59:53:b3:3f:b9:
                    06:07:45:71:56:8c:87:8d:0a:32:af:d8:3c:de:0c:
                    8f:9d:14:7f:7f:df:ea:66:0b:3b:81:cf:29:19:25:
                    0f:23
                Exponent: 65537 (0x10001)
        X509v3 extensions:
            X509v3 Subject Key Identifier: 
                11:C3:11:2F:8D:B0:12:6C:DA:B7:96:F8:B9:10:78:F7:39:82:FF:86
            X509v3 Authority Key Identifier: 
                keyid:31:E7:12:49:AC:32:CC:03:A0:C3:60:99:F6:3E:5D:1C:A3:84:D8:3B
                DirName:/C=US/ST=California/L=Santa Clara/O=pkg5/CN=ta3/emailAddress=ta3
                serial:67:24:4B:8D:A6:63:4B:01:0D:6C:DC:60:C0:93:C2:BE:F7:9A:BD:2F
            X509v3 Basic Constraints: critical
                CA:TRUE
            X509v3 Key Usage: critical
                Certificate Sign, CRL Sign
            X509v3 Subject Alternative Name: 
                email:ch1.2_ta3
    Signature Algorithm: sha256WithRSAEncryption
    Signature Value:
        13:38:6e:41:0a:d0:db:e4:ab:f4:79:d4:83:8d:17:8c:ce:ac:
        d9:60:88:79:0c:e4:1b:26:e6:cb:8c:3e:b4:a4:d1:c0:a0:cf:
        42:ce:52:04:ce:d7:ee:bd:6f:db:5f:a2:ea:22:e1:35:0e:26:
        9f:51:93:3f:7e:01:73:9a:a0:63:8f:43:29:81:5e:95:7a:95:
        84:f4:da:8c:13:7a:70:71:df:fe:b5:e5:88:3e:6b:83:76:0e:
        25:a5:b1:d0:93:81:6c:fd:86:d9:91:20:22:a1:7a:f4:df:67:
        7a:8d:a1:59:13:9f:c8:02:3e:ca:96:fa:0c:75:a1:76:27:02:
        71:ce:12:9e:6e:60:a7:89:61:c8:1e:97:bd:d5:d6:d6:3c:e9:
        6e:e5:35:6c:c1:e3:c4:7e:79:a0:d9:d8:1e:c3:5f:a4:43:27:
        6d:fe:e4:d3:1d:3f:c4:4b:7b:19:82:85:71:2b:17:ae:bd:1c:
        b7:10:20:db:7d:0c:44:11:c0:bc:e2:fa:f6:f6:69:ea:ac:d6:
        dd:46:96:4a:6a:cb:d1:2c:a8:f7:0d:ed:d1:ce:0a:67:06:61:
        01:25:5e:5a:47:18:6e:52:5d:66:4b:35:d1:45:7b:84:3d:28:
        fd:74:6e:ca:d4:d4:f3:8c:74:54:9b:03:c8:78:16:f5:ff:87:
        fe:c5:64:36
-----BEGIN CERTIFICATE-----
MIIEXTCCA0WgAwIBAgIBHTANBgkqhkiG9w0BAQsFADBpMQswCQYDVQQGEwJVUzET
MBEGA1UECAwKQ2FsaWZvcm5pYTEUMBIGA1UEBwwLU2FudGEgQ2xhcmExDTALBgNV
BAoMBHBrZzUxDDAKBgNVBAMMA3RhMzESMBAGCSqGSIb3DQEJARYDdGEzMB4XDTA5
MDEwMTAxMDEwMVoXDTA5MDEwMjAxMDEwMVowdTELMAkGA1UEBhMCVVMxEzARBgNV
BAgMCkNhbGlmb3JuaWExFDASBgNVBAcMC1NhbnRhIENsYXJhMQ0wCwYDVQQKDARw
a2c1MRIwEAYDVQQDDAljaDEuMl90YTMxGDAWBgkqhkiG9w0BCQEWCWNoMS4yX3Rh
MzCCASIwDQYJKoZIhvcNAQEBBQADggEPADCCAQoCggEBAKDsgjCp1nl8RxGF6mgp
HckDB//GuE6MiVkO1EoOMxkvC5uHECTQRDlm68uFAVsp8+Ll8ILjDKy7fZvwWCU7
gxwPaCx0u/iQ8nbF6mu+12GFOFCFx3/94u6J2rdw/4bV3t8ZLP2ESKRdLC7iEg9P
yDjHNip+Weod1c9kUcs070Kn4ebREnUOB/ONc8AepNN/rUnuS8y0X04Hssaq3Pp9
4UiTUYx72ORrJzfunRe1xdqC22ekjkqr2DqFt8MKlx3GbmdJm2XzGQewX7Gu1PK8
hnrUYiBAPeCfTe7k0llTsz+5BgdFcVaMh40KMq/YPN4Mj50Uf3/f6mYLO4HPKRkl
DyMCAwEAAaOCAQIwgf8wHQYDVR0OBBYEFBHDES+NsBJs2reW+LkQePc5gv+GMIGm
BgNVHSMEgZ4wgZuAFDHnEkmsMswDoMNgmfY+XRyjhNg7oW2kazBpMQswCQYDVQQG
EwJVUzETMBEGA1UECAwKQ2FsaWZvcm5pYTEUMBIGA1UEBwwLU2FudGEgQ2xhcmEx
DTALBgNVBAoMBHBrZzUxDDAKBgNVBAMMA3RhMzESMBAGCSqGSIb3DQEJARYDdGEz
ghRnJEuNpmNLAQ1s3GDAk8K+95q9LzAPBgNVHRMBAf8EBTADAQH/MA4GA1UdDwEB
/wQEAwIBBjAUBgNVHREEDTALgQljaDEuMl90YTMwDQYJKoZIhvcNAQELBQADggEB
ABM4bkEK0Nvkq/R51IONF4zOrNlgiHkM5Bsm5suMPrSk0cCgz0LOUgTO1+69b9tf
ouoi4TUOJp9Rkz9+AXOaoGOPQymBXpV6lYT02owTenBx3/615Yg+a4N2DiWlsdCT
gWz9htmRICKhevTfZ3qNoVkTn8gCPsqW+gx1oXYnAnHOEp5uYKeJYcgel73V1tY8
6W7lNWzB48R+eaDZ2B7DX6RDJ23+5NMdP8RLexmChXErF669HLcQINt9DEQRwLzi
+vb2aeqs1t1Glkpqy9EsqPcN7dHOCmcGYQElXlpHGG5SXWZLNdFFe4Q9KP10bsrU
1POMdFSbA8h4FvX/h/7FZDY=
-----END CERTIFICATE-----
