Certificate:
    Data:
        Version: 3 (0x2)
        Serial Number: 29 (0x1d)
        Signature Algorithm: sha256WithRSAEncryption
        Issuer: C=US, ST=California, L=Santa Clara, O=pkg5, CN=ta3/emailAddress=ta3
        Validity
            Not Before: Jan  1 01:01:01 2009 GMT
            Not After : Jan  2 01:01:01 2009 GMT
        Subject: C=US, ST=California, L=Santa Clara, O=pkg5, CN=ch1.2_ta3/emailAddress=ch1.2_ta3
        Subject Public Key Info:
            Public Key Algorithm: rsaEncryption
                Public-Key: (2048 bit)
                Modulus:
                    00:ae:4f:92:e1:3b:45:25:e8:5e:b1:59:92:4e:d7:
                    a9:46:2e:33:5f:e6:8e:95:98:1c:bb:77:3d:f9:0d:
                    ff:05:72:39:1e:9f:e5:26:b3:18:fb:9e:d7:30:46:
                    25:46:9b:41:cf:84:d6:04:45:69:b3:49:6c:f0:33:
                    b2:cf:f4:0f:a3:3a:e6:4d:be:ee:e0:6d:44:86:e9:
                    84:5b:24:62:00:1a:ca:0d:a7:c7:72:19:bb:e3:98:
                    8f:13:eb:61:ca:c9:06:67:b5:76:20:28:03:d4:63:
                    a1:8e:dc:57:9b:69:ed:da:11:73:97:53:42:01:7d:
                    d7:23:f7:76:5c:31:42:16:a2:0f:11:26:28:ab:b5:
                    f1:01:67:7f:8a:be:8f:82:dc:9e:da:e4:14:28:67:
                    06:fd:5e:e0:5e:6d:c9:dd:1e:52:2b:44:8b:f1:dd:
                    5e:5f:2e:b7:38:9f:7b:42:44:7b:a1:6d:bb:8c:e4:
                    9b:94:37:1f:9d:40:f0:2c:69:d6:1f:85:94:83:f1:
                    44:fc:86:5a:b0:c2:bc:c8:aa:f6:94:77:59:5f:2d:
                    f5:13:87:8c:e5:b5:49:8f:04:d1:09:61:4a:85:a3:
                    48:fb:1d:7f:62:8a:dc:c8:a8:af:41:9b:f0:32:82:
                    17:91:92:85:da:58:31:2d:3f:db:15:fd:21:49:7e:
                    b7:0d
                Exponent: 65537 (0x10001)
        X509v3 extensions:
            X509v3 Subject Key Identifier: 
                D8:B4:08:C9:10:32:12:54:FB:77:BC:4E:08:15:10:AF:30:8E:61:3F
            X509v3 Authority Key Identifier: 
                keyid:EF:5A:9F:1D:45:27:6D:44:D8:59:31:21:A6:13:90:C9:6A:06:8C:1C
                DirName:/C=US/ST=California/L=Santa Clara/O=pkg5/CN=ta3/emailAddress=ta3
                serial:03:03:B7:3D:13:47:F5:0C:71:63:49:3A:98:BE:46:C0:AE:25:93:49
            X509v3 Basic Constraints: critical
                CA:TRUE
            X509v3 Key Usage: critical
                Certificate Sign, CRL Sign
            X509v3 Subject Alternative Name: 
                email:ch1.2_ta3
    Signature Algorithm: sha256WithRSAEncryption
    Signature Value:
        1b:35:5f:6e:76:50:f1:52:c7:06:17:b2:51:22:75:89:03:f2:
        e6:8a:74:df:6b:fb:e1:c1:40:32:5a:e2:6a:db:6d:20:1c:3d:
        cb:0a:29:a0:d3:dc:d6:a6:63:c9:5f:15:86:68:8f:44:4d:61:
        46:7a:99:39:a8:d7:bd:35:8a:c8:d0:ff:e0:55:22:ed:b3:ed:
        d5:1b:cd:39:aa:e9:f8:47:2c:07:8c:42:03:cd:d8:e4:3e:a8:
        eb:76:15:56:a5:78:f9:d4:53:b1:2f:a0:75:22:b4:5d:4d:d2:
        6d:e1:58:05:79:a9:0c:55:9d:a1:bb:be:0c:e9:de:6d:6a:9e:
        79:35:ad:90:b4:e1:d7:e1:9c:72:b3:2f:9e:2f:70:5e:f6:25:
        64:ec:31:2b:30:c0:35:3a:24:f5:2f:75:b8:64:9a:0d:5c:2b:
        50:b6:3d:26:a1:10:d8:b1:2c:98:d3:53:df:06:27:ae:ce:4a:
        12:82:2a:db:f2:5d:28:79:16:18:e1:2a:3d:31:00:0d:d9:07:
        45:ea:cb:ca:54:00:70:7f:73:16:25:8c:85:2b:27:d7:96:8f:
        5b:f0:90:72:f0:d8:ad:e0:15:8d:d0:d7:f0:2f:98:c4:6b:ec:
        bd:32:0b:f6:72:32:2a:30:f3:e6:1f:83:35:45:c2:90:0d:7d:
        af:91:83:a8
-----BEGIN CERTIFICATE-----
MIIEXTCCA0WgAwIBAgIBHTANBgkqhkiG9w0BAQsFADBpMQswCQYDVQQGEwJVUzET
MBEGA1UECAwKQ2FsaWZvcm5pYTEUMBIGA1UEBwwLU2FudGEgQ2xhcmExDTALBgNV
BAoMBHBrZzUxDDAKBgNVBAMMA3RhMzESMBAGCSqGSIb3DQEJARYDdGEzMB4XDTA5
MDEwMTAxMDEwMVoXDTA5MDEwMjAxMDEwMVowdTELMAkGA1UEBhMCVVMxEzARBgNV
BAgMCkNhbGlmb3JuaWExFDASBgNVBAcMC1NhbnRhIENsYXJhMQ0wCwYDVQQKDARw
a2c1MRIwEAYDVQQDDAljaDEuMl90YTMxGDAWBgkqhkiG9w0BCQEWCWNoMS4yX3Rh
MzCCASIwDQYJKoZIhvcNAQEBBQADggEPADCCAQoCggEBAK5PkuE7RSXoXrFZkk7X
qUYuM1/mjpWYHLt3PfkN/wVyOR6f5SazGPue1zBGJUabQc+E1gRFabNJbPAzss/0
D6M65k2+7uBtRIbphFskYgAayg2nx3IZu+OYjxPrYcrJBme1diAoA9RjoY7cV5tp
7doRc5dTQgF91yP3dlwxQhaiDxEmKKu18QFnf4q+j4LcntrkFChnBv1e4F5tyd0e
UitEi/HdXl8utzife0JEe6Ftu4zkm5Q3H51A8Cxp1h+FlIPxRPyGWrDCvMiq9pR3
WV8t9ROHjOW1SY8E0QlhSoWjSPsdf2KK3Mior0Gb8DKCF5GShdpYMS0/2xX9IUl+
tw0CAwEAAaOCAQIwgf8wHQYDVR0OBBYEFNi0CMkQMhJU+3e8TggVEK8wjmE/MIGm
BgNVHSMEgZ4wgZuAFO9anx1FJ21E2FkxIaYTkMlqBowcoW2kazBpMQswCQYDVQQG
EwJVUzETMBEGA1UECAwKQ2FsaWZvcm5pYTEUMBIGA1UEBwwLU2FudGEgQ2xhcmEx
DTALBgNVBAoMBHBrZzUxDDAKBgNVBAMMA3RhMzESMBAGCSqGSIb3DQEJARYDdGEz
ghQDA7c9E0f1DHFjSTqYvkbAriWTSTAPBgNVHRMBAf8EBTADAQH/MA4GA1UdDwEB
/wQEAwIBBjAUBgNVHREEDTALgQljaDEuMl90YTMwDQYJKoZIhvcNAQELBQADggEB
ABs1X252UPFSxwYXslEidYkD8uaKdN9r++HBQDJa4mrbbSAcPcsKKaDT3NamY8lf
FYZoj0RNYUZ6mTmo1701isjQ/+BVIu2z7dUbzTmq6fhHLAeMQgPN2OQ+qOt2FVal
ePnUU7EvoHUitF1N0m3hWAV5qQxVnaG7vgzp3m1qnnk1rZC04dfhnHKzL54vcF72
JWTsMSswwDU6JPUvdbhkmg1cK1C2PSahENixLJjTU98GJ67OShKCKtvyXSh5Fhjh
Kj0xAA3ZB0Xqy8pUAHB/cxYljIUrJ9eWj1vwkHLw2K3gFY3Q1/AvmMRr7L0yC/Zy
Miow8+YfgzVFwpANfa+Rg6g=
-----END CERTIFICATE-----
