Certificate:
    Data:
        Version: 3 (0x2)
        Serial Number: 29 (0x1d)
    Signature Algorithm: sha256WithRSAEncryption
        Issuer: C=US, ST=California, L=Santa Clara, O=pkg5, CN=ta3/emailAddress=ta3
        Validity
            Not Before: Jan  1 01:01:01 2009 GMT
            Not After : Jan  2 01:01:01 2009 GMT
        Subject: C=US, ST=California, L=Santa Clara, O=pkg5, CN=ch1.2_ta3/emailAddress=ch1.2_ta3
        Subject Public Key Info:
            Public Key Algorithm: rsaEncryption
                Public-Key: (2048 bit)
                Modulus:
                    00:cd:62:5c:ac:8c:4f:a5:35:7b:e2:44:3b:8a:d0:
                    6c:1e:85:cd:9c:5f:6f:59:15:bd:ed:38:c8:8c:0b:
                    1f:41:2e:35:4a:0f:10:8f:4f:aa:c8:73:3e:52:32:
                    e6:50:0b:16:58:dc:54:41:95:e1:f7:66:b9:44:44:
                    c1:ce:70:32:c5:38:3b:26:d7:32:ae:83:fc:a3:c1:
                    cd:99:87:31:48:94:3e:e6:00:97:0b:31:86:fd:e1:
                    3b:af:9f:66:f1:c5:8e:eb:01:b9:99:89:70:21:f9:
                    1d:7d:f2:55:44:3d:bc:19:55:30:38:ca:b7:c4:04:
                    90:b5:8d:57:60:99:3b:d4:28:0c:cb:69:06:6a:b8:
                    99:47:ea:f7:39:70:95:2d:f6:5b:d0:a3:5b:54:f1:
                    11:83:07:ac:fa:7b:07:7f:da:f6:b6:1e:06:f1:7c:
                    02:24:9e:59:94:15:18:5a:b1:ff:66:4a:6c:28:7c:
                    fe:30:78:e8:7c:f4:13:ba:f2:44:0c:a5:90:02:b3:
                    6a:5a:52:ed:76:16:da:5e:01:8b:81:61:f3:7b:03:
                    06:17:a9:b8:53:3b:a3:17:e6:c2:b1:2d:de:0a:79:
                    d6:21:a1:4f:73:c2:0c:8b:36:ac:02:08:8c:45:f7:
                    9b:6c:4f:bf:d9:7c:9d:c3:51:5b:c8:0c:1d:d6:c0:
                    46:25
                Exponent: 65537 (0x10001)
        X509v3 extensions:
            X509v3 Subject Key Identifier: 
                9C:5E:70:E0:FD:73:64:1F:A2:74:CE:7D:4F:F7:D2:CD:72:4F:A3:30
            X509v3 Authority Key Identifier: 
                keyid:05:4A:64:CF:6C:39:57:EB:DD:04:B1:24:67:93:9A:D7:7F:AE:3D:3F
                DirName:/C=US/ST=California/L=Santa Clara/O=pkg5/CN=ta3/emailAddress=ta3
                serial:CA:FC:34:24:A4:24:1F:39

            X509v3 Basic Constraints: critical
                CA:TRUE
            X509v3 Key Usage: critical
                Certificate Sign, CRL Sign
            X509v3 Subject Alternative Name: 
                email:ch1.2_ta3
    Signature Algorithm: sha256WithRSAEncryption
         44:8b:4d:3f:3d:ce:64:8c:0e:5b:ea:2d:24:5b:42:e4:2a:ff:
         6e:88:cb:3b:85:db:73:c9:56:3f:56:d9:08:68:82:6d:da:1c:
         5c:1a:ed:fe:df:3f:5a:1a:7c:cc:43:9a:08:b0:37:83:e5:9b:
         bc:57:88:d0:7f:f9:07:8a:bc:5d:e4:11:09:b7:cf:cb:52:aa:
         85:a2:40:15:a9:c2:be:84:ce:11:ad:55:fc:b0:63:9e:4e:0d:
         f6:0a:0b:f0:a8:77:a0:76:96:4c:5f:a2:c3:34:f0:b1:54:b3:
         4b:6f:dc:c8:84:45:88:e8:76:92:ff:ac:3f:87:89:50:a0:c0:
         52:d9:d2:c7:e7:11:2a:72:b5:13:bc:6b:96:13:cc:98:e4:84:
         e8:c9:e8:46:cc:11:aa:96:d4:8c:22:17:6b:21:dc:2a:ea:e7:
         20:f9:e8:38:3a:41:2b:74:de:9e:0c:d8:3d:4e:e6:de:72:8f:
         64:c7:04:2c:9d:d9:67:01:fa:e9:44:bc:c2:96:e9:ce:ab:69:
         66:18:07:cd:25:e9:64:5b:c3:4c:66:c5:5d:51:83:db:f9:f4:
         8c:bc:2b:2c:44:24:8e:97:ab:1e:1b:c8:31:74:0d:77:96:fb:
         63:d7:13:22:e7:b6:a5:cd:03:55:20:96:5b:30:6d:3c:d3:dc:
         93:aa:30:99
-----BEGIN CERTIFICATE-----
MIIEUTCCAzmgAwIBAgIBHTANBgkqhkiG9w0BAQsFADBpMQswCQYDVQQGEwJVUzET
MBEGA1UECAwKQ2FsaWZvcm5pYTEUMBIGA1UEBwwLU2FudGEgQ2xhcmExDTALBgNV
BAoMBHBrZzUxDDAKBgNVBAMMA3RhMzESMBAGCSqGSIb3DQEJARYDdGEzMB4XDTA5
MDEwMTAxMDEwMVoXDTA5MDEwMjAxMDEwMVowdTELMAkGA1UEBhMCVVMxEzARBgNV
BAgMCkNhbGlmb3JuaWExFDASBgNVBAcMC1NhbnRhIENsYXJhMQ0wCwYDVQQKDARw
a2c1MRIwEAYDVQQDDAljaDEuMl90YTMxGDAWBgkqhkiG9w0BCQEWCWNoMS4yX3Rh
MzCCASIwDQYJKoZIhvcNAQEBBQADggEPADCCAQoCggEBAM1iXKyMT6U1e+JEO4rQ
bB6FzZxfb1kVve04yIwLH0EuNUoPEI9PqshzPlIy5lALFljcVEGV4fdmuUREwc5w
MsU4OybXMq6D/KPBzZmHMUiUPuYAlwsxhv3hO6+fZvHFjusBuZmJcCH5HX3yVUQ9
vBlVMDjKt8QEkLWNV2CZO9QoDMtpBmq4mUfq9zlwlS32W9CjW1TxEYMHrPp7B3/a
9rYeBvF8AiSeWZQVGFqx/2ZKbCh8/jB46Hz0E7ryRAylkAKzalpS7XYW2l4Bi4Fh
83sDBhepuFM7oxfmwrEt3gp51iGhT3PCDIs2rAIIjEX3m2xPv9l8ncNRW8gMHdbA
RiUCAwEAAaOB9zCB9DAdBgNVHQ4EFgQUnF5w4P1zZB+idM59T/fSzXJPozAwgZsG
A1UdIwSBkzCBkIAUBUpkz2w5V+vdBLEkZ5Oa13+uPT+hbaRrMGkxCzAJBgNVBAYT
AlVTMRMwEQYDVQQIDApDYWxpZm9ybmlhMRQwEgYDVQQHDAtTYW50YSBDbGFyYTEN
MAsGA1UECgwEcGtnNTEMMAoGA1UEAwwDdGEzMRIwEAYJKoZIhvcNAQkBFgN0YTOC
CQDK/DQkpCQfOTAPBgNVHRMBAf8EBTADAQH/MA4GA1UdDwEB/wQEAwIBBjAUBgNV
HREEDTALgQljaDEuMl90YTMwDQYJKoZIhvcNAQELBQADggEBAESLTT89zmSMDlvq
LSRbQuQq/26IyzuF23PJVj9W2Qhogm3aHFwa7f7fP1oafMxDmgiwN4Plm7xXiNB/
+QeKvF3kEQm3z8tSqoWiQBWpwr6EzhGtVfywY55ODfYKC/Cod6B2lkxfosM08LFU
s0tv3MiERYjodpL/rD+HiVCgwFLZ0sfnESpytRO8a5YTzJjkhOjJ6EbMEaqW1Iwi
F2sh3Crq5yD56Dg6QSt03p4M2D1O5t5yj2THBCyd2WcB+ulEvMKW6c6raWYYB80l
6WRbw0xmxV1Rg9v59Iy8KyxEJI6Xqx4byDF0DXeW+2PXEyLntqXNA1UgllswbTzT
3JOqMJk=
-----END CERTIFICATE-----
