Certificate:
    Data:
        Version: 3 (0x2)
        Serial Number: 29 (0x1d)
        Signature Algorithm: sha256WithRSAEncryption
        Issuer: C=US, ST=California, L=Santa Clara, O=pkg5, CN=ta3/emailAddress=ta3
        Validity
            Not Before: Jan  1 01:01:01 2009 GMT
            Not After : Jan  2 01:01:01 2009 GMT
        Subject: C=US, ST=California, L=Santa Clara, O=pkg5, CN=ch1.2_ta3/emailAddress=ch1.2_ta3
        Subject Public Key Info:
            Public Key Algorithm: rsaEncryption
                Public-Key: (2048 bit)
                Modulus:
                    00:d6:8c:4a:72:8a:33:e0:f8:6e:71:0b:1e:f2:01:
                    2f:5c:6d:a7:77:f6:31:b8:ed:db:a8:37:46:72:43:
                    6d:3b:41:39:48:16:5e:f7:47:d7:2c:a8:f7:98:0d:
                    b0:5c:e8:6e:1f:46:ed:05:c6:26:6b:4f:b4:13:02:
                    b2:6a:98:d7:b0:f5:88:53:d1:a0:a9:35:7a:a6:c4:
                    6a:b2:f5:36:8f:79:36:8b:84:2b:90:f0:97:14:18:
                    41:7e:bf:34:10:03:1e:12:14:0c:9b:60:09:8f:33:
                    5a:d4:db:2c:71:95:6a:e8:04:92:fb:89:6a:3c:91:
                    6e:e0:6d:92:01:87:c3:96:07:03:eb:3d:63:83:24:
                    14:08:4d:22:71:93:26:b0:c0:b2:f7:18:11:32:49:
                    e0:c4:d5:b2:92:92:26:ce:48:d5:9a:6e:85:57:6c:
                    70:5e:05:5e:14:01:dd:a1:84:97:61:90:0f:8a:19:
                    4a:6a:47:ff:1a:39:fb:04:8a:f3:8a:1e:45:87:fd:
                    ce:00:92:f5:a8:8c:34:89:9f:f7:00:68:b3:6a:31:
                    49:fa:39:85:fd:94:94:07:0c:fe:5a:17:ab:7f:1b:
                    91:e6:a3:12:f4:99:db:ff:a3:98:f7:ba:e1:94:0b:
                    53:f1:16:f1:db:d3:07:42:b3:5f:f6:8d:f7:de:50:
                    af:11
                Exponent: 65537 (0x10001)
        X509v3 extensions:
            X509v3 Subject Key Identifier: 
                2D:5F:DA:BD:27:52:33:6A:9D:56:F1:6F:76:42:86:8A:B7:1D:32:E6
            X509v3 Authority Key Identifier: 
                keyid:DC:83:FD:15:4A:D3:A8:E9:0B:C4:90:16:2F:FE:AA:F4:AB:B7:EC:E3
                DirName:/C=US/ST=California/L=Santa Clara/O=pkg5/CN=ta3/emailAddress=ta3
                serial:54:04:4F:D7:5E:93:DA:45:DC:6F:3A:6E:37:AE:D3:81:91:BE:7E:72
            X509v3 Basic Constraints: critical
                CA:TRUE
            X509v3 Key Usage: critical
                Certificate Sign, CRL Sign
            X509v3 Subject Alternative Name: 
                email:ch1.2_ta3
    Signature Algorithm: sha256WithRSAEncryption
    Signature Value:
        5e:b8:6d:fd:40:75:d6:d7:97:3c:e0:61:96:36:87:0c:8f:7b:
        9a:8c:e2:8b:f0:57:1e:78:4c:f2:c7:35:18:78:ca:56:ea:3d:
        a5:aa:bf:62:d5:72:d8:67:c0:20:09:68:46:d5:05:fb:5f:c6:
        ff:95:4d:af:af:0d:ae:d9:32:b7:b7:be:c4:7c:83:71:27:bb:
        4b:60:45:fa:71:e1:53:fd:cf:7e:cc:3a:fa:1e:cb:e7:bb:4c:
        cc:4c:4f:da:7c:05:09:b7:e3:ad:92:91:f2:10:b0:e3:fe:c5:
        ed:e5:52:af:ce:61:1e:db:39:cf:60:f3:c9:3f:ba:7d:6f:24:
        2c:73:cf:39:db:7c:80:13:32:03:a4:ab:9b:68:45:36:3f:3c:
        39:99:71:0a:cc:7a:6c:2f:3c:94:01:aa:53:72:db:45:06:61:
        8f:fd:e0:7b:4d:24:4f:08:bc:cc:29:68:12:4c:ac:f2:0a:5e:
        6e:7e:f5:3b:3e:74:ed:50:7a:e0:aa:7d:0a:0b:07:3e:5c:57:
        f0:a8:d2:d6:0b:ea:e0:f5:d7:b0:09:6d:cc:f5:67:0e:fd:db:
        e6:81:6e:79:41:d6:08:45:69:09:85:f2:8d:e9:6d:f9:eb:3c:
        22:cd:8e:bb:9c:72:b4:25:18:47:83:ef:63:60:78:3f:c4:a2:
        ba:5f:02:fb
-----BEGIN CERTIFICATE-----
MIIEXTCCA0WgAwIBAgIBHTANBgkqhkiG9w0BAQsFADBpMQswCQYDVQQGEwJVUzET
MBEGA1UECAwKQ2FsaWZvcm5pYTEUMBIGA1UEBwwLU2FudGEgQ2xhcmExDTALBgNV
BAoMBHBrZzUxDDAKBgNVBAMMA3RhMzESMBAGCSqGSIb3DQEJARYDdGEzMB4XDTA5
MDEwMTAxMDEwMVoXDTA5MDEwMjAxMDEwMVowdTELMAkGA1UEBhMCVVMxEzARBgNV
BAgMCkNhbGlmb3JuaWExFDASBgNVBAcMC1NhbnRhIENsYXJhMQ0wCwYDVQQKDARw
a2c1MRIwEAYDVQQDDAljaDEuMl90YTMxGDAWBgkqhkiG9w0BCQEWCWNoMS4yX3Rh
MzCCASIwDQYJKoZIhvcNAQEBBQADggEPADCCAQoCggEBANaMSnKKM+D4bnELHvIB
L1xtp3f2Mbjt26g3RnJDbTtBOUgWXvdH1yyo95gNsFzobh9G7QXGJmtPtBMCsmqY
17D1iFPRoKk1eqbEarL1No95NouEK5DwlxQYQX6/NBADHhIUDJtgCY8zWtTbLHGV
augEkvuJajyRbuBtkgGHw5YHA+s9Y4MkFAhNInGTJrDAsvcYETJJ4MTVspKSJs5I
1ZpuhVdscF4FXhQB3aGEl2GQD4oZSmpH/xo5+wSK84oeRYf9zgCS9aiMNImf9wBo
s2oxSfo5hf2UlAcM/loXq38bkeajEvSZ2/+jmPe64ZQLU/EW8dvTB0KzX/aN995Q
rxECAwEAAaOCAQIwgf8wHQYDVR0OBBYEFC1f2r0nUjNqnVbxb3ZChoq3HTLmMIGm
BgNVHSMEgZ4wgZuAFNyD/RVK06jpC8SQFi/+qvSrt+zjoW2kazBpMQswCQYDVQQG
EwJVUzETMBEGA1UECAwKQ2FsaWZvcm5pYTEUMBIGA1UEBwwLU2FudGEgQ2xhcmEx
DTALBgNVBAoMBHBrZzUxDDAKBgNVBAMMA3RhMzESMBAGCSqGSIb3DQEJARYDdGEz
ghRUBE/XXpPaRdxvOm43rtOBkb5+cjAPBgNVHRMBAf8EBTADAQH/MA4GA1UdDwEB
/wQEAwIBBjAUBgNVHREEDTALgQljaDEuMl90YTMwDQYJKoZIhvcNAQELBQADggEB
AF64bf1AddbXlzzgYZY2hwyPe5qM4ovwVx54TPLHNRh4ylbqPaWqv2LVcthnwCAJ
aEbVBftfxv+VTa+vDa7ZMre3vsR8g3Enu0tgRfpx4VP9z37MOvoey+e7TMxMT9p8
BQm3462SkfIQsOP+xe3lUq/OYR7bOc9g88k/un1vJCxzzznbfIATMgOkq5toRTY/
PDmZcQrMemwvPJQBqlNy20UGYY/94HtNJE8IvMwpaBJMrPIKXm5+9Ts+dO1QeuCq
fQoLBz5cV/Co0tYL6uD117AJbcz1Zw792+aBbnlB1ghFaQmF8o3pbfnrPCLNjruc
crQlGEeD72NgeD/EorpfAvs=
-----END CERTIFICATE-----
