Certificate:
    Data:
        Version: 3 (0x2)
        Serial Number: 29 (0x1d)
        Signature Algorithm: sha256WithRSAEncryption
        Issuer: C=US, ST=California, L=Santa Clara, O=pkg5, CN=ta3/emailAddress=ta3
        Validity
            Not Before: Jan  1 01:01:01 2009 GMT
            Not After : Jan  2 01:01:01 2009 GMT
        Subject: C=US, ST=California, L=Santa Clara, O=pkg5, CN=ch1.2_ta3/emailAddress=ch1.2_ta3
        Subject Public Key Info:
            Public Key Algorithm: rsaEncryption
                RSA Public-Key: (2048 bit)
                Modulus:
                    00:e6:97:ea:c9:9e:d6:5d:1a:2b:3b:ef:a8:74:5a:
                    3e:3e:66:17:89:53:5d:84:2e:06:92:1f:21:5a:c8:
                    5a:3a:b1:ff:d7:ae:5b:d4:dc:34:59:ff:4b:1b:a1:
                    41:e9:52:51:0c:60:74:4d:eb:fd:e5:1f:fb:79:86:
                    39:2d:00:1d:d3:6f:db:a6:0e:c5:e5:81:c1:dd:ad:
                    5d:3c:b9:d6:9a:b5:a4:fb:ed:48:92:2b:29:2a:d1:
                    4d:72:85:5e:c2:3a:08:6d:f5:1a:ae:50:42:26:37:
                    86:84:e1:53:fd:01:63:16:08:08:8a:e2:c7:44:3c:
                    8e:9e:b7:c9:e7:9a:7d:77:8e:68:86:e5:88:66:32:
                    7c:cf:42:0d:d5:14:ef:c4:b3:43:d3:3d:a6:a5:27:
                    4f:69:e3:5f:14:ee:32:1d:16:68:ae:4d:40:bf:36:
                    7c:e7:ae:85:9b:62:d2:4d:94:be:de:52:a6:fc:68:
                    3b:bc:74:91:94:93:32:e6:44:ea:05:78:ee:6c:4a:
                    b1:89:d5:9c:f4:88:6e:96:ce:b6:3a:fd:d7:20:7d:
                    e4:10:43:ba:b5:10:37:26:86:1a:4c:61:37:53:3e:
                    ff:1d:70:9a:b4:14:58:cf:f6:8f:b2:bd:fc:f0:e2:
                    87:8a:5d:5f:9e:31:61:25:3e:f7:f3:15:5b:a1:1b:
                    35:49
                Exponent: 65537 (0x10001)
        X509v3 extensions:
            X509v3 Subject Key Identifier: 
                83:D1:00:00:65:08:29:6A:83:59:63:B9:6E:24:57:99:AE:79:F2:9C
            X509v3 Authority Key Identifier: 
                keyid:A2:40:C4:DE:F2:7E:C6:C5:85:D5:CC:0E:28:07:4F:C6:FC:7E:A1:27
                DirName:/C=US/ST=California/L=Santa Clara/O=pkg5/CN=ta3/emailAddress=ta3
                serial:74:45:D3:D5:3A:84:B9:06:57:8F:B0:E1:16:54:ED:0C:D1:24:59:9E

            X509v3 Basic Constraints: critical
                CA:TRUE
            X509v3 Key Usage: critical
                Certificate Sign, CRL Sign
            X509v3 Subject Alternative Name: 
                email:ch1.2_ta3
    Signature Algorithm: sha256WithRSAEncryption
         a7:46:93:82:76:75:44:51:a3:f1:be:46:b8:c2:b3:03:9e:0e:
         4b:b8:bb:7c:63:65:ae:52:10:75:ce:4a:98:ba:16:c6:ba:b5:
         91:ab:82:61:ed:e3:1a:93:b4:d4:6f:09:e7:df:67:14:07:02:
         11:f0:1e:43:0a:5a:83:e3:9f:c1:f9:c8:de:11:cf:67:18:4b:
         61:c0:97:b6:49:e8:b6:e1:69:fb:fd:9f:2c:d8:30:e2:64:76:
         aa:77:0c:d6:da:a9:5f:33:57:da:bd:80:c6:07:aa:d9:7f:81:
         5d:7e:7d:82:7e:e3:6c:e5:67:6e:c1:3d:07:63:e3:3f:c9:20:
         a1:76:e2:e1:d5:4e:a5:d0:7c:f6:1b:e6:c1:52:2c:1e:bf:bd:
         2b:bb:9c:e8:f8:38:f5:68:43:0f:c9:5c:e6:d7:0c:07:61:20:
         b8:a4:20:6a:1d:42:c5:5d:c4:69:7d:f6:7b:79:98:ee:47:8c:
         04:24:9a:a5:35:05:22:de:a4:02:0e:c0:14:8a:bc:5e:3e:9b:
         b9:f6:16:8f:d5:0b:01:dc:7d:68:8b:ab:5c:05:be:30:68:8f:
         7b:29:75:47:24:bb:d1:9f:dc:91:df:7b:11:2d:cf:2b:19:8e:
         11:3b:5e:42:e8:d6:60:50:e7:f8:44:07:51:7b:0e:48:84:33:
         d2:15:f0:32
-----BEGIN CERTIFICATE-----
MIIEXTCCA0WgAwIBAgIBHTANBgkqhkiG9w0BAQsFADBpMQswCQYDVQQGEwJVUzET
MBEGA1UECAwKQ2FsaWZvcm5pYTEUMBIGA1UEBwwLU2FudGEgQ2xhcmExDTALBgNV
BAoMBHBrZzUxDDAKBgNVBAMMA3RhMzESMBAGCSqGSIb3DQEJARYDdGEzMB4XDTA5
MDEwMTAxMDEwMVoXDTA5MDEwMjAxMDEwMVowdTELMAkGA1UEBhMCVVMxEzARBgNV
BAgMCkNhbGlmb3JuaWExFDASBgNVBAcMC1NhbnRhIENsYXJhMQ0wCwYDVQQKDARw
a2c1MRIwEAYDVQQDDAljaDEuMl90YTMxGDAWBgkqhkiG9w0BCQEWCWNoMS4yX3Rh
MzCCASIwDQYJKoZIhvcNAQEBBQADggEPADCCAQoCggEBAOaX6sme1l0aKzvvqHRa
Pj5mF4lTXYQuBpIfIVrIWjqx/9euW9TcNFn/SxuhQelSUQxgdE3r/eUf+3mGOS0A
HdNv26YOxeWBwd2tXTy51pq1pPvtSJIrKSrRTXKFXsI6CG31Gq5QQiY3hoThU/0B
YxYICIrix0Q8jp63yeeafXeOaIbliGYyfM9CDdUU78SzQ9M9pqUnT2njXxTuMh0W
aK5NQL82fOeuhZti0k2Uvt5SpvxoO7x0kZSTMuZE6gV47mxKsYnVnPSIbpbOtjr9
1yB95BBDurUQNyaGGkxhN1M+/x1wmrQUWM/2j7K9/PDih4pdX54xYSU+9/MVW6Eb
NUkCAwEAAaOCAQIwgf8wHQYDVR0OBBYEFIPRAABlCClqg1ljuW4kV5muefKcMIGm
BgNVHSMEgZ4wgZuAFKJAxN7yfsbFhdXMDigHT8b8fqEnoW2kazBpMQswCQYDVQQG
EwJVUzETMBEGA1UECAwKQ2FsaWZvcm5pYTEUMBIGA1UEBwwLU2FudGEgQ2xhcmEx
DTALBgNVBAoMBHBrZzUxDDAKBgNVBAMMA3RhMzESMBAGCSqGSIb3DQEJARYDdGEz
ghR0RdPVOoS5BlePsOEWVO0M0SRZnjAPBgNVHRMBAf8EBTADAQH/MA4GA1UdDwEB
/wQEAwIBBjAUBgNVHREEDTALgQljaDEuMl90YTMwDQYJKoZIhvcNAQELBQADggEB
AKdGk4J2dURRo/G+RrjCswOeDku4u3xjZa5SEHXOSpi6Fsa6tZGrgmHt4xqTtNRv
CeffZxQHAhHwHkMKWoPjn8H5yN4Rz2cYS2HAl7ZJ6Lbhafv9nyzYMOJkdqp3DNba
qV8zV9q9gMYHqtl/gV1+fYJ+42zlZ27BPQdj4z/JIKF24uHVTqXQfPYb5sFSLB6/
vSu7nOj4OPVoQw/JXObXDAdhILikIGodQsVdxGl99nt5mO5HjAQkmqU1BSLepAIO
wBSKvF4+m7n2Fo/VCwHcfWiLq1wFvjBoj3spdUcku9Gf3JHfexEtzysZjhE7XkLo
1mBQ5/hEB1F7DkiEM9IV8DI=
-----END CERTIFICATE-----
