Certificate:
    Data:
        Version: 3 (0x2)
        Serial Number: 30 (0x1e)
    Signature Algorithm: sha256WithRSAEncryption
        Issuer: C=US, ST=California, L=Santa Clara, O=pkg5, CN=ta3/emailAddress=ta3
        Validity
            Not Before: Jan  1 01:01:01 2035 GMT
            Not After : Jan  2 01:01:01 2035 GMT
        Subject: C=US, ST=California, L=Santa Clara, O=pkg5, CN=ch1.3_ta3/emailAddress=ch1.3_ta3
        Subject Public Key Info:
            Public Key Algorithm: rsaEncryption
                Public-Key: (1024 bit)
                Modulus:
                    00:cf:73:e4:6e:dd:38:b9:3e:88:ee:8e:cb:8d:8f:
                    a7:2a:48:61:37:30:18:1c:1b:6b:ce:26:51:56:9f:
                    65:d6:de:86:fd:8d:9a:e6:d8:99:d2:00:45:23:cd:
                    3c:3b:0f:56:ad:8b:8d:77:35:24:5e:ea:e5:8e:99:
                    57:d2:f7:e8:1d:93:82:65:a9:80:fd:27:3f:c5:72:
                    5f:60:5e:80:cc:48:91:2b:80:44:be:82:08:77:58:
                    44:02:01:2e:e5:22:7b:c9:b1:17:0f:71:b7:71:8f:
                    f9:29:50:17:cd:a0:d7:d7:4b:77:c4:38:83:79:8a:
                    b9:0d:a9:e7:4e:3f:b2:ca:63
                Exponent: 65537 (0x10001)
        X509v3 extensions:
            X509v3 Subject Key Identifier: 
                F4:A2:E8:A1:78:E1:A0:99:FF:3E:BF:AF:FC:08:FB:BF:F0:BB:12:19
            X509v3 Authority Key Identifier: 
                keyid:96:DC:B7:E9:9F:4E:3E:E7:7D:6D:D3:FC:4D:AA:7B:32:A1:2B:5A:6C
                DirName:/C=US/ST=California/L=Santa Clara/O=pkg5/CN=ta3/emailAddress=ta3
                serial:93:E7:9B:62:38:5C:7D:DF

            X509v3 Basic Constraints: critical
                CA:TRUE
            X509v3 Key Usage: critical
                Certificate Sign, CRL Sign
    Signature Algorithm: sha256WithRSAEncryption
         54:f6:c6:29:97:60:ec:a2:f1:8f:4b:1c:90:b5:b8:d3:0b:07:
         e1:70:b1:8f:7b:24:b9:49:5d:7c:8c:a2:b0:f4:04:3e:c1:8d:
         6c:bc:5b:b4:4c:bc:b8:96:8b:86:83:36:48:02:cc:b1:42:d1:
         7b:ac:51:24:19:bf:54:b1:ae:a8:83:2c:7c:22:56:62:8a:4c:
         fb:5a:6c:b1:fe:21:ac:c1:c2:5a:b9:97:41:ab:ff:9d:2d:75:
         14:1b:e9:40:f0:77:9b:76:27:ab:35:0d:97:5a:01:a6:84:47:
         6c:16:a2:57:1d:97:55:19:cd:a4:58:6d:f1:bb:12:2d:45:6c:
         14:89
-----BEGIN CERTIFICATE-----
MIIDNjCCAp+gAwIBAgIBHjANBgkqhkiG9w0BAQsFADBpMQswCQYDVQQGEwJVUzET
MBEGA1UECAwKQ2FsaWZvcm5pYTEUMBIGA1UEBwwLU2FudGEgQ2xhcmExDTALBgNV
BAoMBHBrZzUxDDAKBgNVBAMMA3RhMzESMBAGCSqGSIb3DQEJARYDdGEzMB4XDTM1
MDEwMTAxMDEwMVoXDTM1MDEwMjAxMDEwMVowdTELMAkGA1UEBhMCVVMxEzARBgNV
BAgMCkNhbGlmb3JuaWExFDASBgNVBAcMC1NhbnRhIENsYXJhMQ0wCwYDVQQKDARw
a2c1MRIwEAYDVQQDDAljaDEuM190YTMxGDAWBgkqhkiG9w0BCQEWCWNoMS4zX3Rh
MzCBnzANBgkqhkiG9w0BAQEFAAOBjQAwgYkCgYEAz3Pkbt04uT6I7o7LjY+nKkhh
NzAYHBtrziZRVp9l1t6G/Y2a5tiZ0gBFI808Ow9WrYuNdzUkXurljplX0vfoHZOC
ZamA/Sc/xXJfYF6AzEiRK4BEvoIId1hEAgEu5SJ7ybEXD3G3cY/5KVAXzaDX10t3
xDiDeYq5DannTj+yymMCAwEAAaOB4TCB3jAdBgNVHQ4EFgQU9KLooXjhoJn/Pr+v
/Aj7v/C7EhkwgZsGA1UdIwSBkzCBkIAUlty36Z9OPud9bdP8Tap7MqErWmyhbaRr
MGkxCzAJBgNVBAYTAlVTMRMwEQYDVQQIDApDYWxpZm9ybmlhMRQwEgYDVQQHDAtT
YW50YSBDbGFyYTENMAsGA1UECgwEcGtnNTEMMAoGA1UEAwwDdGEzMRIwEAYJKoZI
hvcNAQkBFgN0YTOCCQCT55tiOFx93zAPBgNVHRMBAf8EBTADAQH/MA4GA1UdDwEB
/wQEAwIBBjANBgkqhkiG9w0BAQsFAAOBgQBU9sYpl2DsovGPSxyQtbjTCwfhcLGP
eyS5SV18jKKw9AQ+wY1svFu0TLy4louGgzZIAsyxQtF7rFEkGb9Usa6ogyx8IlZi
ikz7Wmyx/iGswcJauZdBq/+dLXUUG+lA8HebdierNQ2XWgGmhEdsFqJXHZdVGc2k
WG3xuxItRWwUiQ==
-----END CERTIFICATE-----
