Certificate:
    Data:
        Version: 3 (0x2)
        Serial Number: 31 (0x1f)
        Signature Algorithm: sha256WithRSAEncryption
        Issuer: C=US, ST=California, L=Santa Clara, O=pkg5, CN=ta3/emailAddress=ta3
        Validity
            Not Before: Jan  1 01:01:01 2035 GMT
            Not After : Jan  2 01:01:01 2035 GMT
        Subject: C=US, ST=California, L=Santa Clara, O=pkg5, CN=ch1.3_ta3/emailAddress=ch1.3_ta3
        Subject Public Key Info:
            Public Key Algorithm: rsaEncryption
                Public-Key: (2048 bit)
                Modulus:
                    00:ea:6d:d7:0e:8a:12:57:97:0c:e2:8e:bc:fd:2a:
                    ad:f5:55:d3:be:6e:4d:01:7e:5d:a0:a4:bd:05:36:
                    4d:ff:4a:1d:51:fd:4b:f9:06:c7:53:6e:dd:fd:09:
                    e8:d4:9c:97:67:70:dd:7f:4d:52:7d:2d:e6:f6:53:
                    2d:6c:70:52:80:54:00:78:14:82:12:7d:14:72:c7:
                    40:88:d6:c8:01:79:c3:48:21:25:34:e5:cf:1c:10:
                    79:38:a5:a8:2f:f7:9b:8a:fb:27:92:1c:6b:b3:10:
                    3d:97:69:82:21:8b:48:05:67:c5:a3:7e:d3:48:af:
                    b9:87:d0:d7:22:9b:ef:05:3f:17:fc:84:00:c5:76:
                    20:20:e5:55:0e:30:ae:00:65:4d:c4:ee:3f:50:9a:
                    21:35:b7:5c:57:86:81:8f:df:8f:86:f9:10:11:10:
                    b7:7f:7a:93:8c:ec:60:2e:6c:b6:78:97:b0:65:e5:
                    cd:73:9c:42:8a:33:f1:4d:ae:8c:5c:62:fd:4b:f5:
                    dd:de:30:13:9e:ad:d6:be:61:41:d0:a8:9f:08:36:
                    78:91:86:f6:b2:04:74:fc:ba:e9:be:b3:9e:e3:65:
                    31:a0:23:24:f1:e2:7e:e3:64:71:95:e1:f2:3a:f2:
                    a2:80:6e:53:ce:f4:6f:4e:55:45:5d:26:aa:f9:b8:
                    76:e3
                Exponent: 65537 (0x10001)
        X509v3 extensions:
            X509v3 Subject Key Identifier: 
                91:E2:DD:E9:B9:7E:BF:87:AD:E2:CB:1D:7E:4F:0B:3A:85:D6:58:2D
            X509v3 Authority Key Identifier: 
                keyid:A0:1E:8E:B9:8B:09:76:33:B8:CE:59:F1:BA:1B:5F:EC:D9:38:76:58
                DirName:/C=US/ST=California/L=Santa Clara/O=pkg5/CN=ta3/emailAddress=ta3
                serial:3D:AB:7C:D1:27:67:54:57:2B:F8:A5:2C:43:8D:D7:BE:D9:A5:57:64
            X509v3 Basic Constraints: critical
                CA:TRUE
            X509v3 Key Usage: critical
                Certificate Sign, CRL Sign
            X509v3 Subject Alternative Name: 
                email:ch1.3_ta3
    Signature Algorithm: sha256WithRSAEncryption
    Signature Value:
        79:86:9a:15:5b:89:98:83:95:ef:22:3c:a5:da:f9:89:64:73:
        8f:d8:ae:95:78:79:06:e0:58:4d:80:cf:36:fe:9c:c0:d4:c7:
        c1:61:90:0d:2f:8b:f1:00:74:c5:ac:31:ec:84:60:0d:c6:92:
        88:03:b7:ad:c7:81:a5:c8:1d:57:da:b7:d9:43:83:f8:88:e9:
        d8:db:7b:2e:e6:68:03:a2:1d:df:3d:d1:e5:80:8e:d6:c5:37:
        25:0e:cc:1e:1f:32:ad:13:ca:d2:2a:b1:9c:77:10:34:50:b4:
        60:c8:9f:56:d6:3e:83:ca:81:52:33:9d:18:ef:b0:da:f9:8f:
        b4:43:f3:40:dd:83:09:f5:40:62:af:a7:ba:a9:5c:24:41:fd:
        c9:f9:67:a6:e9:f8:9e:5f:6c:7b:cb:39:99:f8:8c:eb:2a:65:
        a8:e2:62:22:73:5d:c7:ed:c3:13:ab:4c:d8:b6:35:9d:8f:e6:
        6a:97:3d:5c:aa:20:87:01:9a:b0:94:65:d6:04:06:8b:96:05:
        f6:e3:b7:51:54:a4:00:8d:e0:02:3b:71:d0:46:5c:bc:01:1f:
        5e:43:8b:ba:92:30:d1:5c:c3:54:89:18:dd:a9:d3:b4:9b:5a:
        0a:ee:43:a7:92:1a:b7:80:96:49:30:34:15:f6:3c:3b:51:8e:
        91:a9:e4:28
-----BEGIN CERTIFICATE-----
MIIEXTCCA0WgAwIBAgIBHzANBgkqhkiG9w0BAQsFADBpMQswCQYDVQQGEwJVUzET
MBEGA1UECAwKQ2FsaWZvcm5pYTEUMBIGA1UEBwwLU2FudGEgQ2xhcmExDTALBgNV
BAoMBHBrZzUxDDAKBgNVBAMMA3RhMzESMBAGCSqGSIb3DQEJARYDdGEzMB4XDTM1
MDEwMTAxMDEwMVoXDTM1MDEwMjAxMDEwMVowdTELMAkGA1UEBhMCVVMxEzARBgNV
BAgMCkNhbGlmb3JuaWExFDASBgNVBAcMC1NhbnRhIENsYXJhMQ0wCwYDVQQKDARw
a2c1MRIwEAYDVQQDDAljaDEuM190YTMxGDAWBgkqhkiG9w0BCQEWCWNoMS4zX3Rh
MzCCASIwDQYJKoZIhvcNAQEBBQADggEPADCCAQoCggEBAOpt1w6KEleXDOKOvP0q
rfVV075uTQF+XaCkvQU2Tf9KHVH9S/kGx1Nu3f0J6NScl2dw3X9NUn0t5vZTLWxw
UoBUAHgUghJ9FHLHQIjWyAF5w0ghJTTlzxwQeTilqC/3m4r7J5Ica7MQPZdpgiGL
SAVnxaN+00ivuYfQ1yKb7wU/F/yEAMV2ICDlVQ4wrgBlTcTuP1CaITW3XFeGgY/f
j4b5EBEQt396k4zsYC5stniXsGXlzXOcQooz8U2ujFxi/Uv13d4wE56t1r5hQdCo
nwg2eJGG9rIEdPy66b6znuNlMaAjJPHifuNkcZXh8jryooBuU870b05VRV0mqvm4
duMCAwEAAaOCAQIwgf8wHQYDVR0OBBYEFJHi3em5fr+HreLLHX5PCzqF1lgtMIGm
BgNVHSMEgZ4wgZuAFKAejrmLCXYzuM5Z8bobX+zZOHZYoW2kazBpMQswCQYDVQQG
EwJVUzETMBEGA1UECAwKQ2FsaWZvcm5pYTEUMBIGA1UEBwwLU2FudGEgQ2xhcmEx
DTALBgNVBAoMBHBrZzUxDDAKBgNVBAMMA3RhMzESMBAGCSqGSIb3DQEJARYDdGEz
ghQ9q3zRJ2dUVyv4pSxDjde+2aVXZDAPBgNVHRMBAf8EBTADAQH/MA4GA1UdDwEB
/wQEAwIBBjAUBgNVHREEDTALgQljaDEuM190YTMwDQYJKoZIhvcNAQELBQADggEB
AHmGmhVbiZiDle8iPKXa+Ylkc4/YrpV4eQbgWE2Azzb+nMDUx8FhkA0vi/EAdMWs
MeyEYA3GkogDt63HgaXIHVfat9lDg/iI6djbey7maAOiHd890eWAjtbFNyUOzB4f
Mq0TytIqsZx3EDRQtGDIn1bWPoPKgVIznRjvsNr5j7RD80Ddgwn1QGKvp7qpXCRB
/cn5Z6bp+J5fbHvLOZn4jOsqZajiYiJzXcftwxOrTNi2NZ2P5mqXPVyqIIcBmrCU
ZdYEBouWBfbjt1FUpACN4AI7cdBGXLwBH15Di7qSMNFcw1SJGN2p07SbWgruQ6eS
GreAlkkwNBX2PDtRjpGp5Cg=
-----END CERTIFICATE-----
