Certificate:
    Data:
        Version: 3 (0x2)
        Serial Number: 31 (0x1f)
    Signature Algorithm: sha256WithRSAEncryption
        Issuer: C=US, ST=California, L=Santa Clara, O=pkg5, CN=ta3/emailAddress=ta3
        Validity
            Not Before: Jan  1 01:01:01 2035 GMT
            Not After : Jan  2 01:01:01 2035 GMT
        Subject: C=US, ST=California, L=Santa Clara, O=pkg5, CN=ch1.3_ta3/emailAddress=ch1.3_ta3
        Subject Public Key Info:
            Public Key Algorithm: rsaEncryption
                Public-Key: (2048 bit)
                Modulus:
                    00:c4:3f:47:07:46:8c:f4:5c:77:99:e9:46:c8:92:
                    aa:e9:33:50:1f:51:06:33:e6:60:29:25:d3:0c:0f:
                    47:8c:67:c5:62:aa:62:df:a6:0e:40:0e:67:49:d0:
                    3e:b9:b9:8a:2d:d4:08:ef:b4:a0:27:3d:23:ec:f4:
                    b7:dd:d2:b7:bf:28:bf:ed:db:2a:f1:67:a1:c1:2e:
                    23:6d:7a:fd:45:1b:ab:37:d9:d0:ee:67:e0:09:e4:
                    e0:85:d8:29:c3:ca:0b:39:6c:bf:fe:e8:7f:20:f5:
                    30:7a:34:0d:7d:03:17:22:4b:9f:ce:e7:74:80:92:
                    c0:87:86:83:25:e1:af:61:d5:3c:6c:d4:60:bd:7d:
                    b2:8e:c4:3e:84:8a:43:75:3c:34:67:dd:1b:15:ea:
                    3e:84:f4:f8:ef:db:41:6c:a2:ad:de:91:44:2d:8a:
                    b5:35:6b:92:e8:7d:d1:4c:cd:b1:db:c5:95:03:08:
                    8f:aa:09:52:61:5e:dd:0c:a6:f3:cc:8e:a7:91:26:
                    d1:94:d0:f5:51:32:84:08:27:69:64:2a:de:9c:5d:
                    31:d1:8f:b5:52:ac:6d:45:dc:b2:20:bd:31:fd:61:
                    a1:be:96:af:7c:65:7d:32:58:7f:6d:91:71:8d:62:
                    eb:b0:61:97:d3:c2:3c:41:2c:92:dd:8a:8a:bc:68:
                    3f:65
                Exponent: 65537 (0x10001)
        X509v3 extensions:
            X509v3 Subject Key Identifier: 
                F1:EF:72:60:0F:9A:88:F8:24:EC:26:07:A2:94:17:53:B6:10:F9:4C
            X509v3 Authority Key Identifier: 
                keyid:5E:5D:52:C3:66:EC:B1:35:4E:FC:06:50:E5:E6:20:81:D1:38:16:61
                DirName:/C=US/ST=California/L=Santa Clara/O=pkg5/CN=ta3/emailAddress=ta3
                serial:83:65:05:EF:BC:0C:05:9C

            X509v3 Basic Constraints: critical
                CA:TRUE
            X509v3 Key Usage: critical
                Certificate Sign, CRL Sign
    Signature Algorithm: sha256WithRSAEncryption
         ab:ab:eb:29:74:bc:be:92:a4:23:9d:70:5d:ee:f0:26:40:4f:
         ef:59:2c:f0:61:5b:30:91:cb:4e:19:a3:75:f9:55:b6:d7:4a:
         01:a2:d9:37:e8:fe:4d:a0:af:94:e3:b0:74:7f:7a:67:31:91:
         84:b3:ca:6a:b9:b0:aa:19:c6:8e:7e:25:79:19:5c:8e:93:6b:
         51:79:e7:b0:a4:0e:89:42:30:e4:9b:09:88:05:28:30:31:53:
         8e:dc:2f:d5:12:5a:88:d7:dd:19:20:c3:b2:56:89:af:67:7d:
         5b:f5:12:1b:25:51:48:ba:36:96:e9:c6:41:57:05:12:3f:3f:
         43:90:bc:e8:23:98:94:79:5d:cc:6d:90:7e:5b:51:87:97:c5:
         51:33:97:7a:77:15:eb:71:a9:c6:67:36:75:67:cd:ef:d4:7e:
         29:61:7f:9d:8c:1f:3d:85:41:45:ba:fc:e8:50:de:7e:8b:74:
         97:59:1f:9c:89:3a:79:86:89:92:7f:ee:14:85:32:ad:de:23:
         3d:e2:23:b5:e8:29:d7:55:41:5a:b5:a5:4c:99:02:6d:65:3f:
         18:8b:37:9e:4d:19:21:58:a2:d3:f0:d0:47:0f:20:69:9f:d3:
         16:ca:c4:53:c0:47:9b:2f:a9:9b:27:94:63:a1:9f:01:39:3a:
         03:41:12:f8
-----BEGIN CERTIFICATE-----
MIIEOzCCAyOgAwIBAgIBHzANBgkqhkiG9w0BAQsFADBpMQswCQYDVQQGEwJVUzET
MBEGA1UECAwKQ2FsaWZvcm5pYTEUMBIGA1UEBwwLU2FudGEgQ2xhcmExDTALBgNV
BAoMBHBrZzUxDDAKBgNVBAMMA3RhMzESMBAGCSqGSIb3DQEJARYDdGEzMB4XDTM1
MDEwMTAxMDEwMVoXDTM1MDEwMjAxMDEwMVowdTELMAkGA1UEBhMCVVMxEzARBgNV
BAgMCkNhbGlmb3JuaWExFDASBgNVBAcMC1NhbnRhIENsYXJhMQ0wCwYDVQQKDARw
a2c1MRIwEAYDVQQDDAljaDEuM190YTMxGDAWBgkqhkiG9w0BCQEWCWNoMS4zX3Rh
MzCCASIwDQYJKoZIhvcNAQEBBQADggEPADCCAQoCggEBAMQ/RwdGjPRcd5npRsiS
qukzUB9RBjPmYCkl0wwPR4xnxWKqYt+mDkAOZ0nQPrm5ii3UCO+0oCc9I+z0t93S
t78ov+3bKvFnocEuI216/UUbqzfZ0O5n4Ank4IXYKcPKCzlsv/7ofyD1MHo0DX0D
FyJLn87ndICSwIeGgyXhr2HVPGzUYL19so7EPoSKQ3U8NGfdGxXqPoT0+O/bQWyi
rd6RRC2KtTVrkuh90UzNsdvFlQMIj6oJUmFe3Qym88yOp5Em0ZTQ9VEyhAgnaWQq
3pxdMdGPtVKsbUXcsiC9Mf1hob6Wr3xlfTJYf22RcY1i67Bhl9PCPEEskt2Kirxo
P2UCAwEAAaOB4TCB3jAdBgNVHQ4EFgQU8e9yYA+aiPgk7CYHopQXU7YQ+UwwgZsG
A1UdIwSBkzCBkIAUXl1Sw2bssTVO/AZQ5eYggdE4FmGhbaRrMGkxCzAJBgNVBAYT
AlVTMRMwEQYDVQQIDApDYWxpZm9ybmlhMRQwEgYDVQQHDAtTYW50YSBDbGFyYTEN
MAsGA1UECgwEcGtnNTEMMAoGA1UEAwwDdGEzMRIwEAYJKoZIhvcNAQkBFgN0YTOC
CQCDZQXvvAwFnDAPBgNVHRMBAf8EBTADAQH/MA4GA1UdDwEB/wQEAwIBBjANBgkq
hkiG9w0BAQsFAAOCAQEAq6vrKXS8vpKkI51wXe7wJkBP71ks8GFbMJHLThmjdflV
ttdKAaLZN+j+TaCvlOOwdH96ZzGRhLPKarmwqhnGjn4leRlcjpNrUXnnsKQOiUIw
5JsJiAUoMDFTjtwv1RJaiNfdGSDDslaJr2d9W/USGyVRSLo2lunGQVcFEj8/Q5C8
6COYlHldzG2QfltRh5fFUTOXencV63Gpxmc2dWfN79R+KWF/nYwfPYVBRbr86FDe
fot0l1kfnIk6eYaJkn/uFIUyrd4jPeIjtegp11VBWrWlTJkCbWU/GIs3nk0ZIVii
0/DQRw8gaZ/TFsrEU8BHmy+pmyeUY6GfATk6A0ES+A==
-----END CERTIFICATE-----
