Certificate:
    Data:
        Version: 3 (0x2)
        Serial Number: 31 (0x1f)
        Signature Algorithm: sha256WithRSAEncryption
        Issuer: C=US, ST=California, L=Santa Clara, O=pkg5, CN=ta3/emailAddress=ta3
        Validity
            Not Before: Jan  1 01:01:01 2035 GMT
            Not After : Jan  2 01:01:01 2035 GMT
        Subject: C=US, ST=California, L=Santa Clara, O=pkg5, CN=ch1.3_ta3/emailAddress=ch1.3_ta3
        Subject Public Key Info:
            Public Key Algorithm: rsaEncryption
                Public-Key: (2048 bit)
                Modulus:
                    00:d6:3b:95:77:6d:d5:ec:e3:ea:b3:60:6d:af:0c:
                    26:cf:e0:c6:8b:8e:e2:f7:48:c5:fd:a4:83:85:9f:
                    85:bb:e8:83:65:ac:97:56:b1:48:22:02:25:5d:ba:
                    04:2f:4f:48:a7:78:5d:b2:59:a1:4f:2b:b6:7a:0e:
                    18:0f:84:a6:e3:cc:c0:16:45:30:16:fd:67:f2:32:
                    7e:3e:71:7c:2e:da:a8:58:2a:9a:b6:a0:bc:8c:c9:
                    e7:39:f2:18:fb:53:92:f5:18:4e:ed:aa:6e:68:c0:
                    a9:56:55:f0:39:3d:a3:f2:d2:b5:ac:e4:80:00:8a:
                    33:74:d0:53:f4:4f:dc:79:83:5a:fe:61:f3:55:ef:
                    cf:14:b1:03:e5:57:54:08:9b:18:22:2f:b6:02:14:
                    cb:ec:2e:ff:ff:27:e7:77:cf:1a:47:aa:47:e5:93:
                    cc:ca:5c:94:30:e7:66:81:bd:6a:4f:b8:6e:f4:1c:
                    73:3b:bd:1a:a4:6e:3f:d8:9d:8f:8d:21:c9:96:3b:
                    38:19:17:36:a4:3c:ce:b1:8c:43:0b:11:d9:50:3d:
                    15:50:65:4f:da:dd:4e:68:6c:9f:88:44:41:36:ae:
                    78:a0:cc:82:07:58:1f:a8:10:9c:d1:c7:6b:49:34:
                    ca:21:2c:ef:01:f0:e8:ac:0e:63:88:50:68:10:89:
                    0b:7f
                Exponent: 65537 (0x10001)
        X509v3 extensions:
            X509v3 Subject Key Identifier: 
                CA:DB:25:10:54:61:97:E1:AD:50:E3:47:61:EA:F1:FC:C3:81:79:D7
            X509v3 Authority Key Identifier: 
                keyid:C0:41:94:DE:CD:5D:DB:27:3B:CD:AB:4A:D5:3A:6F:DA:A7:7F:17:36
                DirName:/C=US/ST=California/L=Santa Clara/O=pkg5/CN=ta3/emailAddress=ta3
                serial:1B:62:5C:BC:2D:8D:5F:A5:80:A5:B4:97:A6:97:F7:C0:E8:74:B0:39
            X509v3 Basic Constraints: critical
                CA:TRUE
            X509v3 Key Usage: critical
                Certificate Sign, CRL Sign
            X509v3 Subject Alternative Name: 
                email:ch1.3_ta3
    Signature Algorithm: sha256WithRSAEncryption
    Signature Value:
        11:f0:e8:f1:79:a4:db:a4:b5:16:e4:60:38:90:93:f1:b1:9a:
        f3:46:c9:ab:85:24:86:bb:df:83:e6:fe:fe:19:33:11:e8:3b:
        c8:c2:3c:61:c9:53:a4:61:39:69:3c:d9:16:df:5c:fa:ed:39:
        61:e5:06:26:67:cc:ce:36:41:09:47:87:df:5f:54:51:a3:bb:
        d2:23:9b:9d:a5:37:b4:e1:e9:18:81:b9:0b:76:51:a9:8e:79:
        0c:0b:03:22:f2:69:38:2f:3e:ef:6e:7a:60:2f:83:da:6c:9c:
        23:a6:bd:6e:8a:16:12:18:b4:05:5c:b9:ab:ba:b4:19:3c:b6:
        1f:eb:c4:32:62:d3:52:20:a8:e2:0c:f7:e8:8e:c1:f0:63:5f:
        44:d9:e7:2c:ce:f7:66:2a:c7:cf:95:63:92:a1:9f:e3:a9:46:
        c7:7f:1e:d8:56:1f:f1:7b:e8:97:ee:dd:d3:4e:5e:0f:3d:13:
        9c:74:a2:31:f2:3f:8b:db:50:71:ae:5c:5e:16:f7:a4:24:9e:
        b4:42:22:97:f7:3c:36:5d:a4:dd:b8:af:d9:54:76:2d:a1:7b:
        1a:2f:4d:74:80:5f:7a:76:88:3c:b2:43:ae:05:2a:fe:2f:e2:
        8c:03:05:69:e5:5c:b5:62:4a:8c:8b:aa:d5:cc:2f:73:80:3c:
        86:ac:44:c4
-----BEGIN CERTIFICATE-----
MIIEXTCCA0WgAwIBAgIBHzANBgkqhkiG9w0BAQsFADBpMQswCQYDVQQGEwJVUzET
MBEGA1UECAwKQ2FsaWZvcm5pYTEUMBIGA1UEBwwLU2FudGEgQ2xhcmExDTALBgNV
BAoMBHBrZzUxDDAKBgNVBAMMA3RhMzESMBAGCSqGSIb3DQEJARYDdGEzMB4XDTM1
MDEwMTAxMDEwMVoXDTM1MDEwMjAxMDEwMVowdTELMAkGA1UEBhMCVVMxEzARBgNV
BAgMCkNhbGlmb3JuaWExFDASBgNVBAcMC1NhbnRhIENsYXJhMQ0wCwYDVQQKDARw
a2c1MRIwEAYDVQQDDAljaDEuM190YTMxGDAWBgkqhkiG9w0BCQEWCWNoMS4zX3Rh
MzCCASIwDQYJKoZIhvcNAQEBBQADggEPADCCAQoCggEBANY7lXdt1ezj6rNgba8M
Js/gxouO4vdIxf2kg4Wfhbvog2Wsl1axSCICJV26BC9PSKd4XbJZoU8rtnoOGA+E
puPMwBZFMBb9Z/Iyfj5xfC7aqFgqmragvIzJ5znyGPtTkvUYTu2qbmjAqVZV8Dk9
o/LStazkgACKM3TQU/RP3HmDWv5h81XvzxSxA+VXVAibGCIvtgIUy+wu//8n53fP
GkeqR+WTzMpclDDnZoG9ak+4bvQcczu9GqRuP9idj40hyZY7OBkXNqQ8zrGMQwsR
2VA9FVBlT9rdTmhsn4hEQTaueKDMggdYH6gQnNHHa0k0yiEs7wHw6KwOY4hQaBCJ
C38CAwEAAaOCAQIwgf8wHQYDVR0OBBYEFMrbJRBUYZfhrVDjR2Hq8fzDgXnXMIGm
BgNVHSMEgZ4wgZuAFMBBlN7NXdsnO82rStU6b9qnfxc2oW2kazBpMQswCQYDVQQG
EwJVUzETMBEGA1UECAwKQ2FsaWZvcm5pYTEUMBIGA1UEBwwLU2FudGEgQ2xhcmEx
DTALBgNVBAoMBHBrZzUxDDAKBgNVBAMMA3RhMzESMBAGCSqGSIb3DQEJARYDdGEz
ghQbYly8LY1fpYCltJeml/fA6HSwOTAPBgNVHRMBAf8EBTADAQH/MA4GA1UdDwEB
/wQEAwIBBjAUBgNVHREEDTALgQljaDEuM190YTMwDQYJKoZIhvcNAQELBQADggEB
ABHw6PF5pNuktRbkYDiQk/GxmvNGyauFJIa734Pm/v4ZMxHoO8jCPGHJU6RhOWk8
2RbfXPrtOWHlBiZnzM42QQlHh99fVFGju9Ijm52lN7Th6RiBuQt2UamOeQwLAyLy
aTgvPu9uemAvg9psnCOmvW6KFhIYtAVcuau6tBk8th/rxDJi01IgqOIM9+iOwfBj
X0TZ5yzO92Yqx8+VY5Khn+OpRsd/HthWH/F76Jfu3dNOXg89E5x0ojHyP4vbUHGu
XF4W96QknrRCIpf3PDZdpN24r9lUdi2hexovTXSAX3p2iDyyQ64FKv4v4owDBWnl
XLViSoyLqtXML3OAPIasRMQ=
-----END CERTIFICATE-----
