Certificate:
    Data:
        Version: 3 (0x2)
        Serial Number: 32 (0x20)
    Signature Algorithm: sha256WithRSAEncryption
        Issuer: C=US, ST=California, L=Santa Clara, O=pkg5, CN=ta3/emailAddress=ta3
        Validity
            Not Before: Jan  1 01:01:01 2035 GMT
            Not After : Jan  2 01:01:01 2035 GMT
        Subject: C=US, ST=California, L=Santa Clara, O=pkg5, CN=ch1.4_ta3/emailAddress=ch1.4_ta3
        Subject Public Key Info:
            Public Key Algorithm: rsaEncryption
                Public-Key: (1024 bit)
                Modulus:
                    00:99:a3:6d:f2:d8:56:e9:83:8f:ac:94:77:0c:c2:
                    0e:47:e9:7b:60:b5:6e:a1:a7:7e:a5:f1:75:76:c2:
                    2c:6a:ba:10:8c:4a:82:07:aa:9e:a9:4a:d5:b0:c4:
                    e1:3d:d9:f2:7a:10:41:c8:06:2a:52:05:a1:70:98:
                    0a:05:58:ec:9f:46:02:0e:c4:77:b9:8e:d9:ec:b4:
                    a8:95:74:93:7d:cb:f6:a0:7d:51:18:fc:41:bb:e3:
                    97:bb:c2:8b:d7:58:18:2c:69:ac:8d:2d:ee:b1:6e:
                    d6:fd:2d:6c:e4:f5:05:fc:d6:41:50:5f:ba:8b:f7:
                    ad:cf:c8:04:3d:d5:50:ba:df
                Exponent: 65537 (0x10001)
        X509v3 extensions:
            X509v3 Subject Key Identifier: 
                E7:BF:9C:A7:43:8C:96:C8:28:E2:59:6F:79:4B:C4:98:F0:80:AD:4A
            X509v3 Authority Key Identifier: 
                keyid:96:DC:B7:E9:9F:4E:3E:E7:7D:6D:D3:FC:4D:AA:7B:32:A1:2B:5A:6C
                DirName:/C=US/ST=California/L=Santa Clara/O=pkg5/CN=ta3/emailAddress=ta3
                serial:93:E7:9B:62:38:5C:7D:DF

            X509v3 Basic Constraints: critical
                CA:TRUE
    Signature Algorithm: sha256WithRSAEncryption
         7f:8e:89:90:83:aa:86:02:72:e1:09:42:d8:42:9d:a8:42:a6:
         ae:1e:4d:42:00:40:92:5a:4e:79:ba:a7:8b:be:2f:33:68:b6:
         92:1c:05:84:7f:51:c3:fc:d7:4e:f9:e6:04:8b:27:b0:63:25:
         16:fe:60:d5:ff:bd:13:f0:35:37:c7:3a:be:4d:ef:d6:5f:5d:
         cb:82:38:44:b4:f2:47:0a:ea:39:71:a7:1f:ce:ed:d2:c7:96:
         a9:47:1d:e3:bb:ef:02:8c:4b:60:20:da:2f:df:61:9d:16:6c:
         df:10:ad:0d:0c:10:31:83:b2:4b:26:70:b3:c3:86:ec:92:18:
         a4:62
-----BEGIN CERTIFICATE-----
MIIDJjCCAo+gAwIBAgIBIDANBgkqhkiG9w0BAQsFADBpMQswCQYDVQQGEwJVUzET
MBEGA1UECAwKQ2FsaWZvcm5pYTEUMBIGA1UEBwwLU2FudGEgQ2xhcmExDTALBgNV
BAoMBHBrZzUxDDAKBgNVBAMMA3RhMzESMBAGCSqGSIb3DQEJARYDdGEzMB4XDTM1
MDEwMTAxMDEwMVoXDTM1MDEwMjAxMDEwMVowdTELMAkGA1UEBhMCVVMxEzARBgNV
BAgMCkNhbGlmb3JuaWExFDASBgNVBAcMC1NhbnRhIENsYXJhMQ0wCwYDVQQKDARw
a2c1MRIwEAYDVQQDDAljaDEuNF90YTMxGDAWBgkqhkiG9w0BCQEWCWNoMS40X3Rh
MzCBnzANBgkqhkiG9w0BAQEFAAOBjQAwgYkCgYEAmaNt8thW6YOPrJR3DMIOR+l7
YLVuoad+pfF1dsIsaroQjEqCB6qeqUrVsMThPdnyehBByAYqUgWhcJgKBVjsn0YC
DsR3uY7Z7LSolXSTfcv2oH1RGPxBu+OXu8KL11gYLGmsjS3usW7W/S1s5PUF/NZB
UF+6i/etz8gEPdVQut8CAwEAAaOB0TCBzjAdBgNVHQ4EFgQU57+cp0OMlsgo4llv
eUvEmPCArUowgZsGA1UdIwSBkzCBkIAUlty36Z9OPud9bdP8Tap7MqErWmyhbaRr
MGkxCzAJBgNVBAYTAlVTMRMwEQYDVQQIDApDYWxpZm9ybmlhMRQwEgYDVQQHDAtT
YW50YSBDbGFyYTENMAsGA1UECgwEcGtnNTEMMAoGA1UEAwwDdGEzMRIwEAYJKoZI
hvcNAQkBFgN0YTOCCQCT55tiOFx93zAPBgNVHRMBAf8EBTADAQH/MA0GCSqGSIb3
DQEBCwUAA4GBAH+OiZCDqoYCcuEJQthCnahCpq4eTUIAQJJaTnm6p4u+LzNotpIc
BYR/UcP810755gSLJ7BjJRb+YNX/vRPwNTfHOr5N79ZfXcuCOES08kcK6jlxpx/O
7dLHlqlHHeO77wKMS2Ag2i/fYZ0WbN8QrQ0MEDGDsksmcLPDhuySGKRi
-----END CERTIFICATE-----
