Certificate:
    Data:
        Version: 3 (0x2)
        Serial Number: 32 (0x20)
    Signature Algorithm: sha256WithRSAEncryption
        Issuer: C=US, ST=California, L=Santa Clara, O=pkg5, CN=ta3/emailAddress=ta3
        Validity
            Not Before: Jan  1 01:01:01 2035 GMT
            Not After : Jan  2 01:01:01 2035 GMT
        Subject: C=US, ST=California, L=Santa Clara, O=pkg5, CN=ch1.4_ta3/emailAddress=ch1.4_ta3
        Subject Public Key Info:
            Public Key Algorithm: rsaEncryption
                Public-Key: (2048 bit)
                Modulus:
                    00:c5:bd:37:b6:72:4f:8b:3d:a3:9d:b4:2b:f1:e2:
                    e9:77:9f:20:7e:e6:0c:a3:6e:48:f1:e4:e6:5d:b8:
                    b3:8d:9f:0a:d2:04:44:b3:50:d4:fd:6e:2f:ec:46:
                    54:f8:9b:4a:9f:a8:47:bb:ff:37:8e:02:c6:31:5c:
                    98:78:d3:47:b9:ad:b5:35:9c:af:a7:de:4c:8b:0f:
                    8e:df:2c:b2:77:22:6d:88:fe:0c:91:9f:db:f0:49:
                    42:c3:5c:f4:49:47:94:cb:c5:9f:44:f0:e5:84:4a:
                    bb:90:71:bd:a1:50:3d:31:87:a7:25:53:7e:61:e8:
                    71:d2:03:54:a9:b8:9b:1e:87:8b:3c:10:43:d9:6e:
                    c2:c5:be:b1:bb:ec:a2:d3:82:a8:9b:ea:27:58:ac:
                    78:38:f5:bb:53:f2:bc:da:7e:b1:73:a7:2c:77:10:
                    3c:f3:f9:12:ae:c0:d5:d3:14:78:8e:12:d1:5d:75:
                    b4:5e:28:59:f3:fa:c6:ae:6d:09:60:bb:67:72:d6:
                    cb:c6:eb:69:03:71:fc:dd:60:28:3a:52:c6:8e:b0:
                    33:77:3e:f8:0e:71:54:07:cf:dc:08:2e:fc:fb:e5:
                    b1:3f:c3:05:5e:f0:9f:ed:8a:a0:e9:54:75:d9:58:
                    c9:d2:0f:44:7d:81:f8:82:a5:10:50:38:98:d0:41:
                    96:d1
                Exponent: 65537 (0x10001)
        X509v3 extensions:
            X509v3 Subject Key Identifier: 
                26:D3:38:81:F4:97:EE:4B:E3:8B:E1:D9:C2:4B:CB:63:6F:34:31:DA
            X509v3 Authority Key Identifier: 
                keyid:2D:C5:9A:44:A1:9A:A4:7F:DA:BE:34:36:07:5C:E8:FC:60:3E:91:6E
                DirName:/C=US/ST=California/L=Santa Clara/O=pkg5/CN=ta3/emailAddress=ta3
                serial:AA:19:69:50:F6:91:C5:BD

            X509v3 Basic Constraints: critical
                CA:TRUE
    Signature Algorithm: sha256WithRSAEncryption
         36:d3:70:a3:93:79:5d:3d:03:08:71:6a:eb:d1:71:3c:bf:9b:
         cf:2e:1c:aa:76:9f:1e:4c:8f:eb:05:0f:e9:37:05:6a:dc:da:
         28:0b:dd:99:97:8e:92:75:27:dc:1d:5b:40:48:9c:da:e4:fd:
         b9:0e:bd:d9:98:08:91:e5:f1:01:1c:9f:2a:cd:90:57:66:9b:
         68:05:9a:5d:01:d4:57:ea:aa:1c:8f:40:86:39:e3:c7:cd:36:
         b2:d0:50:0a:5a:f3:d7:d5:1a:c5:39:6a:c8:17:04:ab:7c:2b:
         bb:d9:22:fa:b4:04:b2:5b:f1:71:b3:d6:20:7c:f6:9c:b7:88:
         1e:fb:79:2b:cd:02:1d:91:6a:d3:e3:f6:ce:db:a0:68:92:87:
         06:28:c5:20:5e:ab:75:81:a1:61:d0:1b:e0:c4:fe:39:6c:e9:
         06:6a:23:48:07:04:02:0c:3d:b3:5c:91:24:bf:b6:ce:09:c2:
         09:6e:3b:5b:5c:cd:9f:2f:dd:a3:bd:ab:ea:78:5e:c2:cf:2b:
         58:b0:e9:81:e4:54:4e:9b:3c:a9:75:eb:b8:82:5d:d9:c7:83:
         e4:20:30:ea:06:af:37:59:72:37:2e:82:1b:3a:34:29:61:de:
         23:fb:e6:04:3e:6d:aa:1c:02:be:6a:dc:52:3f:c2:2d:50:cb:
         4c:76:db:04
-----BEGIN CERTIFICATE-----
MIIEKzCCAxOgAwIBAgIBIDANBgkqhkiG9w0BAQsFADBpMQswCQYDVQQGEwJVUzET
MBEGA1UECAwKQ2FsaWZvcm5pYTEUMBIGA1UEBwwLU2FudGEgQ2xhcmExDTALBgNV
BAoMBHBrZzUxDDAKBgNVBAMMA3RhMzESMBAGCSqGSIb3DQEJARYDdGEzMB4XDTM1
MDEwMTAxMDEwMVoXDTM1MDEwMjAxMDEwMVowdTELMAkGA1UEBhMCVVMxEzARBgNV
BAgMCkNhbGlmb3JuaWExFDASBgNVBAcMC1NhbnRhIENsYXJhMQ0wCwYDVQQKDARw
a2c1MRIwEAYDVQQDDAljaDEuNF90YTMxGDAWBgkqhkiG9w0BCQEWCWNoMS40X3Rh
MzCCASIwDQYJKoZIhvcNAQEBBQADggEPADCCAQoCggEBAMW9N7ZyT4s9o520K/Hi
6XefIH7mDKNuSPHk5l24s42fCtIERLNQ1P1uL+xGVPibSp+oR7v/N44CxjFcmHjT
R7mttTWcr6feTIsPjt8ssncibYj+DJGf2/BJQsNc9ElHlMvFn0Tw5YRKu5BxvaFQ
PTGHpyVTfmHocdIDVKm4mx6HizwQQ9luwsW+sbvsotOCqJvqJ1iseDj1u1PyvNp+
sXOnLHcQPPP5Eq7A1dMUeI4S0V11tF4oWfP6xq5tCWC7Z3LWy8braQNx/N1gKDpS
xo6wM3c++A5xVAfP3Agu/PvlsT/DBV7wn+2KoOlUddlYydIPRH2B+IKlEFA4mNBB
ltECAwEAAaOB0TCBzjAdBgNVHQ4EFgQUJtM4gfSX7kvji+HZwkvLY280MdowgZsG
A1UdIwSBkzCBkIAULcWaRKGapH/avjQ2B1zo/GA+kW6hbaRrMGkxCzAJBgNVBAYT
AlVTMRMwEQYDVQQIDApDYWxpZm9ybmlhMRQwEgYDVQQHDAtTYW50YSBDbGFyYTEN
MAsGA1UECgwEcGtnNTEMMAoGA1UEAwwDdGEzMRIwEAYJKoZIhvcNAQkBFgN0YTOC
CQCqGWlQ9pHFvTAPBgNVHRMBAf8EBTADAQH/MA0GCSqGSIb3DQEBCwUAA4IBAQA2
03Cjk3ldPQMIcWrr0XE8v5vPLhyqdp8eTI/rBQ/pNwVq3NooC92Zl46SdSfcHVtA
SJza5P25Dr3ZmAiR5fEBHJ8qzZBXZptoBZpdAdRX6qocj0CGOePHzTay0FAKWvPX
1RrFOWrIFwSrfCu72SL6tASyW/Fxs9YgfPact4ge+3krzQIdkWrT4/bO26BokocG
KMUgXqt1gaFh0BvgxP45bOkGaiNIBwQCDD2zXJEkv7bOCcIJbjtbXM2fL92jvavq
eF7CzytYsOmB5FROmzypdeu4gl3Zx4PkIDDqBq83WXI3LoIbOjQpYd4j++YEPm2q
HAK+atxSP8ItUMtMdtsE
-----END CERTIFICATE-----
