Certificate:
    Data:
        Version: 3 (0x2)
        Serial Number: 33 (0x21)
    Signature Algorithm: sha256WithRSAEncryption
        Issuer: C=US, ST=California, L=Santa Clara, O=pkg5, CN=ta3/emailAddress=ta3
        Validity
            Not Before: Jan  1 01:01:01 2035 GMT
            Not After : Jan  2 01:01:01 2035 GMT
        Subject: C=US, ST=California, L=Santa Clara, O=pkg5, CN=ch1.4_ta3/emailAddress=ch1.4_ta3
        Subject Public Key Info:
            Public Key Algorithm: rsaEncryption
                Public-Key: (2048 bit)
                Modulus:
                    00:c0:52:d7:4d:08:22:50:3d:7e:2f:88:0a:89:2b:
                    5c:59:40:04:4a:80:3c:4e:10:6a:08:f3:be:4a:a5:
                    f3:75:75:fa:fb:25:22:a9:1e:46:d6:60:d3:8f:c1:
                    06:a3:b6:e1:2e:44:ae:2c:b3:f8:12:b9:b5:1d:2f:
                    42:4e:16:67:ff:8a:0a:1e:3e:98:e6:55:d5:bb:98:
                    b7:84:44:d2:86:9c:e1:05:e0:1a:ee:50:32:80:16:
                    a1:59:2d:b0:fa:56:5a:f0:36:73:6e:1a:69:e0:22:
                    c6:15:f4:92:18:ee:06:8a:19:17:c3:84:a9:a3:ca:
                    19:05:1d:87:e2:1c:c0:cb:49:aa:05:ca:cd:3f:8c:
                    a9:95:a5:d0:eb:2c:31:5d:6d:6a:b2:be:80:9f:96:
                    16:97:35:fd:49:a4:d1:ca:79:bf:40:51:6c:49:bc:
                    d0:cb:9c:7c:f9:59:e8:66:06:e3:6e:8d:d1:f7:ba:
                    f1:74:36:f8:77:35:5b:ba:53:e1:a6:7b:fa:34:7a:
                    01:1b:dc:a4:a5:38:4f:af:a2:7a:a2:09:16:7e:81:
                    19:71:47:60:8d:2d:7b:55:c7:44:ab:a8:67:3f:99:
                    ab:f5:e0:2a:b9:1a:09:43:c5:35:ca:7c:ab:70:d1:
                    f1:e2:d4:9d:77:53:0a:ea:20:96:e7:0a:6f:6b:e3:
                    35:8f
                Exponent: 65537 (0x10001)
        X509v3 extensions:
            X509v3 Subject Key Identifier: 
                79:35:18:02:43:75:B5:9B:62:C6:ED:7E:B3:E3:A9:22:0B:78:94:FA
            X509v3 Authority Key Identifier: 
                keyid:5E:5D:52:C3:66:EC:B1:35:4E:FC:06:50:E5:E6:20:81:D1:38:16:61
                DirName:/C=US/ST=California/L=Santa Clara/O=pkg5/CN=ta3/emailAddress=ta3
                serial:83:65:05:EF:BC:0C:05:9C

            X509v3 Basic Constraints: critical
                CA:TRUE
    Signature Algorithm: sha256WithRSAEncryption
         dd:d9:5c:d2:2e:1f:cf:a5:f5:39:57:30:17:33:b0:aa:29:a7:
         dd:1f:c7:39:e3:19:d9:4a:10:a3:97:0c:4d:12:11:e6:ce:25:
         25:8e:65:fd:30:9d:19:2f:58:0f:8c:b4:ed:02:e2:41:50:2a:
         91:53:6b:d6:a6:55:4b:b3:36:61:97:72:1a:7b:be:d5:40:66:
         36:9d:31:10:5f:c7:c1:95:5d:79:ce:e2:60:2d:f6:ae:e4:cb:
         41:0d:d0:ae:26:0f:c0:5f:b1:dc:d2:20:6e:50:42:f9:1b:92:
         b1:fd:06:45:1f:67:c2:34:a2:0b:ba:6a:26:13:42:a7:7b:8a:
         01:9f:3b:61:0a:48:f7:03:40:0b:53:1a:26:af:c1:be:0b:d8:
         ff:82:64:28:0c:ea:d9:10:51:f4:42:f7:b1:ba:b6:ba:67:0d:
         25:0e:00:93:17:76:0f:b0:3f:2c:38:ad:02:db:86:15:b8:fa:
         48:68:00:3f:0d:be:9f:1e:18:4c:09:af:d9:89:f9:6d:cc:da:
         b3:c6:bc:ad:bf:47:fe:7c:c0:71:24:0d:d2:3c:28:b1:c5:c8:
         d9:1f:f2:29:a9:84:fe:43:e3:aa:69:1d:8d:9c:97:41:5b:2a:
         30:1b:fd:67:50:f0:00:d8:dc:50:1d:95:47:29:a1:d6:4a:e0:
         77:f1:b5:b2
-----BEGIN CERTIFICATE-----
MIIEKzCCAxOgAwIBAgIBITANBgkqhkiG9w0BAQsFADBpMQswCQYDVQQGEwJVUzET
MBEGA1UECAwKQ2FsaWZvcm5pYTEUMBIGA1UEBwwLU2FudGEgQ2xhcmExDTALBgNV
BAoMBHBrZzUxDDAKBgNVBAMMA3RhMzESMBAGCSqGSIb3DQEJARYDdGEzMB4XDTM1
MDEwMTAxMDEwMVoXDTM1MDEwMjAxMDEwMVowdTELMAkGA1UEBhMCVVMxEzARBgNV
BAgMCkNhbGlmb3JuaWExFDASBgNVBAcMC1NhbnRhIENsYXJhMQ0wCwYDVQQKDARw
a2c1MRIwEAYDVQQDDAljaDEuNF90YTMxGDAWBgkqhkiG9w0BCQEWCWNoMS40X3Rh
MzCCASIwDQYJKoZIhvcNAQEBBQADggEPADCCAQoCggEBAMBS100IIlA9fi+ICokr
XFlABEqAPE4Qagjzvkql83V1+vslIqkeRtZg04/BBqO24S5Eriyz+BK5tR0vQk4W
Z/+KCh4+mOZV1buYt4RE0oac4QXgGu5QMoAWoVktsPpWWvA2c24aaeAixhX0khju
BooZF8OEqaPKGQUdh+IcwMtJqgXKzT+MqZWl0OssMV1tarK+gJ+WFpc1/Umk0cp5
v0BRbEm80MucfPlZ6GYG426N0fe68XQ2+Hc1W7pT4aZ7+jR6ARvcpKU4T6+ieqIJ
Fn6BGXFHYI0te1XHRKuoZz+Zq/XgKrkaCUPFNcp8q3DR8eLUnXdTCuoglucKb2vj
NY8CAwEAAaOB0TCBzjAdBgNVHQ4EFgQUeTUYAkN1tZtixu1+s+OpIgt4lPowgZsG
A1UdIwSBkzCBkIAUXl1Sw2bssTVO/AZQ5eYggdE4FmGhbaRrMGkxCzAJBgNVBAYT
AlVTMRMwEQYDVQQIDApDYWxpZm9ybmlhMRQwEgYDVQQHDAtTYW50YSBDbGFyYTEN
MAsGA1UECgwEcGtnNTEMMAoGA1UEAwwDdGEzMRIwEAYJKoZIhvcNAQkBFgN0YTOC
CQCDZQXvvAwFnDAPBgNVHRMBAf8EBTADAQH/MA0GCSqGSIb3DQEBCwUAA4IBAQDd
2VzSLh/PpfU5VzAXM7CqKafdH8c54xnZShCjlwxNEhHmziUljmX9MJ0ZL1gPjLTt
AuJBUCqRU2vWplVLszZhl3Iae77VQGY2nTEQX8fBlV15zuJgLfau5MtBDdCuJg/A
X7Hc0iBuUEL5G5Kx/QZFH2fCNKILumomE0Kne4oBnzthCkj3A0ALUxomr8G+C9j/
gmQoDOrZEFH0Qvexura6Zw0lDgCTF3YPsD8sOK0C24YVuPpIaAA/Db6fHhhMCa/Z
ifltzNqzxrytv0f+fMBxJA3SPCixxcjZH/IpqYT+Q+OqaR2NnJdBWyowG/1nUPAA
2NxQHZVHKaHWSuB38bWy
-----END CERTIFICATE-----
