Certificate:
    Data:
        Version: 3 (0x2)
        Serial Number: 33 (0x21)
        Signature Algorithm: sha256WithRSAEncryption
        Issuer: C=US, ST=California, L=Santa Clara, O=pkg5, CN=ta3/emailAddress=ta3
        Validity
            Not Before: Jan  1 01:01:01 2035 GMT
            Not After : Jan  2 01:01:01 2035 GMT
        Subject: C=US, ST=California, L=Santa Clara, O=pkg5, CN=ch1.4_ta3/emailAddress=ch1.4_ta3
        Subject Public Key Info:
            Public Key Algorithm: rsaEncryption
                RSA Public-Key: (2048 bit)
                Modulus:
                    00:be:e7:05:3e:73:88:fb:19:a3:7d:49:88:6d:63:
                    ad:2b:bc:87:96:aa:9d:e7:d6:0c:86:8d:9c:ec:ec:
                    38:b7:cd:b7:04:17:8e:ed:f6:c9:b3:08:a4:7d:9a:
                    39:1d:64:62:48:5c:d7:b5:0b:22:19:c1:9f:80:1e:
                    51:7d:f8:fa:26:ef:7b:97:08:94:db:d0:e6:09:6c:
                    86:51:55:a3:49:2c:a0:0a:22:5f:cc:73:76:4c:43:
                    38:14:2e:96:47:f7:b0:d7:62:f4:ce:a6:0d:d1:41:
                    4d:63:7a:17:cf:48:f6:66:90:ce:7c:bd:11:55:0d:
                    00:0d:9e:b0:c4:74:50:18:9c:5f:d9:84:81:4c:fa:
                    40:b5:a5:c1:c1:57:6f:66:c9:20:41:5f:bc:b4:03:
                    38:0e:01:d9:b8:70:56:51:cd:ec:ff:8c:1a:e4:c6:
                    42:9d:c3:a5:7a:4c:b5:73:cf:87:2e:66:75:65:42:
                    ff:96:c5:b0:c5:5a:ae:41:d4:22:14:d8:93:5d:3d:
                    a8:9f:86:cd:46:49:1a:c7:e6:ba:65:05:3d:f2:d1:
                    17:29:2c:93:98:bb:d5:a1:84:79:32:f5:43:a9:d8:
                    2f:07:52:b9:b6:79:81:a0:52:e1:78:cd:b0:c1:47:
                    06:2e:fc:2a:a5:8c:dd:91:fb:44:7d:c5:13:31:3f:
                    8e:5f
                Exponent: 65537 (0x10001)
        X509v3 extensions:
            X509v3 Subject Key Identifier: 
                F3:81:72:04:8E:9A:CE:0C:BF:49:05:52:6A:60:3D:C1:41:29:19:17
            X509v3 Authority Key Identifier: 
                keyid:A2:40:C4:DE:F2:7E:C6:C5:85:D5:CC:0E:28:07:4F:C6:FC:7E:A1:27
                DirName:/C=US/ST=California/L=Santa Clara/O=pkg5/CN=ta3/emailAddress=ta3
                serial:74:45:D3:D5:3A:84:B9:06:57:8F:B0:E1:16:54:ED:0C:D1:24:59:9E

            X509v3 Basic Constraints: critical
                CA:TRUE
    Signature Algorithm: sha256WithRSAEncryption
         22:97:c5:cd:de:25:53:de:0b:b0:d9:f4:0e:a1:df:14:8e:b6:
         af:bf:22:02:b2:73:6c:58:c9:d2:a6:76:80:6d:14:f5:58:f0:
         e1:88:2f:67:e0:a7:9e:c1:1b:48:ff:f0:42:cb:a9:ad:e4:ab:
         d4:40:dc:4b:55:d1:0f:30:8d:98:e8:64:3d:a1:93:15:ed:ea:
         3c:86:3c:5b:5d:46:15:db:2d:35:97:c9:9d:e6:e2:ac:a9:e9:
         6e:6a:54:0c:d8:6b:b2:c2:75:0e:af:a5:5d:9d:02:cb:43:dd:
         64:95:5a:92:13:78:f9:cf:cb:4c:cb:89:65:38:a5:94:3b:ce:
         2e:5b:b3:21:37:ad:5b:7e:9f:9e:dc:fc:1a:82:86:45:d0:60:
         30:09:60:b6:d5:25:02:49:b2:dc:cc:49:fc:5e:98:31:08:e1:
         9c:51:9e:33:49:dd:18:41:a4:ec:35:4c:34:c4:74:ba:df:1f:
         36:3f:fa:c7:75:8e:98:40:81:f2:e9:23:67:7b:c7:19:f7:72:
         43:1c:85:7f:85:24:7c:e3:6a:13:08:80:da:e7:d4:f7:55:21:
         c7:96:46:46:be:67:8e:21:02:ca:b6:97:09:c0:6b:34:e9:33:
         28:c9:16:73:60:1b:33:d8:40:48:ba:47:30:44:f4:4e:60:24:
         ef:c3:bb:99
-----BEGIN CERTIFICATE-----
MIIENjCCAx6gAwIBAgIBITANBgkqhkiG9w0BAQsFADBpMQswCQYDVQQGEwJVUzET
MBEGA1UECAwKQ2FsaWZvcm5pYTEUMBIGA1UEBwwLU2FudGEgQ2xhcmExDTALBgNV
BAoMBHBrZzUxDDAKBgNVBAMMA3RhMzESMBAGCSqGSIb3DQEJARYDdGEzMB4XDTM1
MDEwMTAxMDEwMVoXDTM1MDEwMjAxMDEwMVowdTELMAkGA1UEBhMCVVMxEzARBgNV
BAgMCkNhbGlmb3JuaWExFDASBgNVBAcMC1NhbnRhIENsYXJhMQ0wCwYDVQQKDARw
a2c1MRIwEAYDVQQDDAljaDEuNF90YTMxGDAWBgkqhkiG9w0BCQEWCWNoMS40X3Rh
MzCCASIwDQYJKoZIhvcNAQEBBQADggEPADCCAQoCggEBAL7nBT5ziPsZo31JiG1j
rSu8h5aqnefWDIaNnOzsOLfNtwQXju32ybMIpH2aOR1kYkhc17ULIhnBn4AeUX34
+ibve5cIlNvQ5glshlFVo0ksoAoiX8xzdkxDOBQulkf3sNdi9M6mDdFBTWN6F89I
9maQzny9EVUNAA2esMR0UBicX9mEgUz6QLWlwcFXb2bJIEFfvLQDOA4B2bhwVlHN
7P+MGuTGQp3DpXpMtXPPhy5mdWVC/5bFsMVarkHUIhTYk109qJ+GzUZJGsfmumUF
PfLRFyksk5i71aGEeTL1Q6nYLwdSubZ5gaBS4XjNsMFHBi78KqWM3ZH7RH3FEzE/
jl8CAwEAAaOB3DCB2TAdBgNVHQ4EFgQU84FyBI6azgy/SQVSamA9wUEpGRcwgaYG
A1UdIwSBnjCBm4AUokDE3vJ+xsWF1cwOKAdPxvx+oSehbaRrMGkxCzAJBgNVBAYT
AlVTMRMwEQYDVQQIDApDYWxpZm9ybmlhMRQwEgYDVQQHDAtTYW50YSBDbGFyYTEN
MAsGA1UECgwEcGtnNTEMMAoGA1UEAwwDdGEzMRIwEAYJKoZIhvcNAQkBFgN0YTOC
FHRF09U6hLkGV4+w4RZU7QzRJFmeMA8GA1UdEwEB/wQFMAMBAf8wDQYJKoZIhvcN
AQELBQADggEBACKXxc3eJVPeC7DZ9A6h3xSOtq+/IgKyc2xYydKmdoBtFPVY8OGI
L2fgp57BG0j/8ELLqa3kq9RA3EtV0Q8wjZjoZD2hkxXt6jyGPFtdRhXbLTWXyZ3m
4qyp6W5qVAzYa7LCdQ6vpV2dAstD3WSVWpITePnPy0zLiWU4pZQ7zi5bsyE3rVt+
n57c/BqChkXQYDAJYLbVJQJJstzMSfxemDEI4ZxRnjNJ3RhBpOw1TDTEdLrfHzY/
+sd1jphAgfLpI2d7xxn3ckMchX+FJHzjahMIgNrn1PdVIceWRka+Z44hAsq2lwnA
azTpMyjJFnNgGzPYQEi6RzBE9E5gJO/Du5k=
-----END CERTIFICATE-----
