Certificate:
    Data:
        Version: 3 (0x2)
        Serial Number: 33 (0x21)
        Signature Algorithm: sha256WithRSAEncryption
        Issuer: C=US, ST=California, L=Santa Clara, O=pkg5, CN=ta3/emailAddress=ta3
        Validity
            Not Before: Jan  1 01:01:01 2035 GMT
            Not After : Jan  2 01:01:01 2035 GMT
        Subject: C=US, ST=California, L=Santa Clara, O=pkg5, CN=ch1.4_ta3/emailAddress=ch1.4_ta3
        Subject Public Key Info:
            Public Key Algorithm: rsaEncryption
                Public-Key: (2048 bit)
                Modulus:
                    00:8f:3a:d6:12:b4:32:01:d1:e2:cc:41:af:92:89:
                    9b:2a:28:78:1b:6c:52:e2:dd:9f:79:18:b5:9e:d8:
                    ea:23:c6:2d:36:5f:6f:ca:e2:6a:7b:67:65:1d:ba:
                    4f:13:70:be:3a:49:86:65:33:ef:ad:05:cb:72:8d:
                    7b:9c:61:e0:89:72:54:2c:dc:18:fd:d0:f5:6b:f1:
                    bd:7f:c4:87:27:a6:97:c5:9b:de:f5:73:8c:59:5f:
                    7c:82:ff:b3:42:54:91:e5:83:47:d2:91:53:63:cf:
                    a6:6b:c3:d2:2b:6a:ff:c7:a2:73:4b:78:83:f3:0d:
                    aa:d0:61:21:10:66:84:7d:de:07:08:08:f4:32:83:
                    fe:be:02:ef:70:27:3a:ac:56:85:bc:b6:08:7d:16:
                    85:f9:6c:d4:20:18:10:95:3c:f5:fc:71:65:fd:08:
                    e2:cf:94:c0:57:9c:cf:6a:ea:7d:33:05:34:05:ce:
                    02:1c:db:21:f8:d0:4b:f6:0f:5b:43:50:ad:97:15:
                    96:fc:33:36:38:23:e8:94:72:65:5a:65:10:79:cb:
                    b3:c6:86:ad:5c:ac:15:3c:7f:ce:32:b4:bc:b3:af:
                    8f:bf:2e:75:73:9b:11:07:6f:6e:49:43:c1:66:57:
                    bd:39:12:ad:91:ad:25:f0:da:93:26:f4:c9:96:13:
                    4b:13
                Exponent: 65537 (0x10001)
        X509v3 extensions:
            X509v3 Subject Key Identifier: 
                3D:FA:57:0F:20:07:30:89:60:EB:FE:C3:CC:B2:BB:43:DC:F6:50:80
            X509v3 Authority Key Identifier: 
                keyid:EF:5A:9F:1D:45:27:6D:44:D8:59:31:21:A6:13:90:C9:6A:06:8C:1C
                DirName:/C=US/ST=California/L=Santa Clara/O=pkg5/CN=ta3/emailAddress=ta3
                serial:03:03:B7:3D:13:47:F5:0C:71:63:49:3A:98:BE:46:C0:AE:25:93:49
            X509v3 Basic Constraints: critical
                CA:TRUE
    Signature Algorithm: sha256WithRSAEncryption
    Signature Value:
        a3:3a:9d:69:64:55:45:3a:41:ca:52:c6:eb:71:fb:d6:fb:c0:
        9e:db:33:41:e8:20:fb:0b:18:d6:4a:24:40:6e:61:86:73:1e:
        da:9d:7d:36:d3:01:d8:4e:cd:07:ed:1f:e4:5d:2b:a6:55:24:
        12:fc:c7:60:50:36:f9:8a:99:b5:36:53:0e:08:99:8d:43:99:
        94:f9:43:67:14:d5:29:d4:0e:07:cc:d9:e9:33:19:cd:2c:4f:
        ae:fa:7f:89:b4:be:5d:d1:3d:d3:29:25:bf:25:5f:31:0b:fc:
        27:c2:e5:78:96:c5:d2:4a:a5:e5:fa:3f:8d:73:20:a6:41:c0:
        dd:ca:e6:69:3a:bf:39:c8:79:f0:89:18:0c:8f:23:ba:c1:00:
        3e:1c:89:f0:0d:47:af:55:bf:d9:03:8e:39:3c:c5:25:ce:3c:
        ed:49:cc:23:76:3a:fa:dd:13:f9:95:e3:2d:27:a8:5b:32:25:
        58:ac:70:33:36:f5:b8:64:f7:9e:14:cc:32:09:f8:12:c6:50:
        ab:3f:89:ce:05:c8:71:60:ca:fb:7b:4c:aa:ed:48:2e:9e:6d:
        48:ab:f9:2c:a4:b3:9b:22:a1:67:a5:81:d8:d6:51:61:df:ed:
        24:85:22:37:69:4b:57:a4:28:87:64:be:ea:ac:50:bf:fa:02:
        87:ae:d9:0c
-----BEGIN CERTIFICATE-----
MIIENjCCAx6gAwIBAgIBITANBgkqhkiG9w0BAQsFADBpMQswCQYDVQQGEwJVUzET
MBEGA1UECAwKQ2FsaWZvcm5pYTEUMBIGA1UEBwwLU2FudGEgQ2xhcmExDTALBgNV
BAoMBHBrZzUxDDAKBgNVBAMMA3RhMzESMBAGCSqGSIb3DQEJARYDdGEzMB4XDTM1
MDEwMTAxMDEwMVoXDTM1MDEwMjAxMDEwMVowdTELMAkGA1UEBhMCVVMxEzARBgNV
BAgMCkNhbGlmb3JuaWExFDASBgNVBAcMC1NhbnRhIENsYXJhMQ0wCwYDVQQKDARw
a2c1MRIwEAYDVQQDDAljaDEuNF90YTMxGDAWBgkqhkiG9w0BCQEWCWNoMS40X3Rh
MzCCASIwDQYJKoZIhvcNAQEBBQADggEPADCCAQoCggEBAI861hK0MgHR4sxBr5KJ
myooeBtsUuLdn3kYtZ7Y6iPGLTZfb8riantnZR26TxNwvjpJhmUz760Fy3KNe5xh
4IlyVCzcGP3Q9WvxvX/Ehyeml8Wb3vVzjFlffIL/s0JUkeWDR9KRU2PPpmvD0itq
/8eic0t4g/MNqtBhIRBmhH3eBwgI9DKD/r4C73AnOqxWhby2CH0Whfls1CAYEJU8
9fxxZf0I4s+UwFecz2rqfTMFNAXOAhzbIfjQS/YPW0NQrZcVlvwzNjgj6JRyZVpl
EHnLs8aGrVysFTx/zjK0vLOvj78udXObEQdvbklDwWZXvTkSrZGtJfDakyb0yZYT
SxMCAwEAAaOB3DCB2TAdBgNVHQ4EFgQUPfpXDyAHMIlg6/7DzLK7Q9z2UIAwgaYG
A1UdIwSBnjCBm4AU71qfHUUnbUTYWTEhphOQyWoGjByhbaRrMGkxCzAJBgNVBAYT
AlVTMRMwEQYDVQQIDApDYWxpZm9ybmlhMRQwEgYDVQQHDAtTYW50YSBDbGFyYTEN
MAsGA1UECgwEcGtnNTEMMAoGA1UEAwwDdGEzMRIwEAYJKoZIhvcNAQkBFgN0YTOC
FAMDtz0TR/UMcWNJOpi+RsCuJZNJMA8GA1UdEwEB/wQFMAMBAf8wDQYJKoZIhvcN
AQELBQADggEBAKM6nWlkVUU6QcpSxutx+9b7wJ7bM0HoIPsLGNZKJEBuYYZzHtqd
fTbTAdhOzQftH+RdK6ZVJBL8x2BQNvmKmbU2Uw4ImY1DmZT5Q2cU1SnUDgfM2ekz
Gc0sT676f4m0vl3RPdMpJb8lXzEL/CfC5XiWxdJKpeX6P41zIKZBwN3K5mk6vznI
efCJGAyPI7rBAD4cifANR69Vv9kDjjk8xSXOPO1JzCN2OvrdE/mV4y0nqFsyJVis
cDM29bhk954UzDIJ+BLGUKs/ic4FyHFgyvt7TKrtSC6ebUir+Syks5sioWelgdjW
UWHf7SSFIjdpS1ekKIdkvuqsUL/6Aoeu2Qw=
-----END CERTIFICATE-----
