Certificate:
    Data:
        Version: 3 (0x2)
        Serial Number: 33 (0x21)
        Signature Algorithm: sha256WithRSAEncryption
        Issuer: C=US, ST=California, L=Santa Clara, O=pkg5, CN=ta3/emailAddress=ta3
        Validity
            Not Before: Jan  1 01:01:01 2035 GMT
            Not After : Jan  2 01:01:01 2035 GMT
        Subject: C=US, ST=California, L=Santa Clara, O=pkg5, CN=ch1.4_ta3/emailAddress=ch1.4_ta3
        Subject Public Key Info:
            Public Key Algorithm: rsaEncryption
                Public-Key: (2048 bit)
                Modulus:
                    00:a0:b4:a4:06:51:33:aa:ce:2b:a8:57:1a:0a:cf:
                    fe:e6:7c:39:89:39:e6:9e:43:be:4e:9d:a1:8c:e5:
                    19:2c:2e:3a:0c:12:80:09:bd:09:ff:e1:fe:cc:ef:
                    20:bd:88:0b:73:19:12:dd:f7:a5:3a:5a:d4:7f:f8:
                    54:14:17:c8:cf:d4:1b:c1:c0:f5:3c:cc:7e:de:08:
                    a1:63:7d:0a:d6:51:26:a2:9d:00:e8:76:92:e1:b3:
                    a1:18:45:0b:fc:1e:e7:7f:52:ad:c3:9a:a9:5e:fa:
                    63:23:5c:9a:24:bb:4a:0a:a4:c7:5f:76:59:e9:4d:
                    12:5e:d8:0c:63:0f:ea:c3:8c:f5:73:75:c5:88:f5:
                    ff:17:58:8b:0b:4a:5d:68:e1:76:e8:5c:fd:6f:1e:
                    c0:fd:1d:fa:ad:8d:2a:72:61:11:22:ae:f1:d8:cd:
                    bc:0e:1f:5d:aa:cd:4f:f4:7a:ca:14:55:74:c0:9d:
                    ee:25:ee:95:ea:0d:3b:21:c2:f7:11:0e:1d:e4:ff:
                    72:89:6b:c6:31:96:99:c2:75:44:3c:f7:eb:b9:1c:
                    b0:fa:8d:59:48:66:b8:d4:d7:cb:c7:77:28:a5:7e:
                    79:fc:f3:40:b1:2b:d0:3b:c7:a0:17:85:65:2d:4e:
                    d0:99:81:27:00:3f:aa:03:f7:e5:b0:34:e7:e1:d3:
                    d9:a1
                Exponent: 65537 (0x10001)
        X509v3 extensions:
            X509v3 Subject Key Identifier: 
                CF:98:1F:F4:D3:EB:BC:4C:09:4C:54:16:66:BA:15:C0:22:07:E7:E4
            X509v3 Authority Key Identifier: 
                keyid:C0:41:94:DE:CD:5D:DB:27:3B:CD:AB:4A:D5:3A:6F:DA:A7:7F:17:36
                DirName:/C=US/ST=California/L=Santa Clara/O=pkg5/CN=ta3/emailAddress=ta3
                serial:1B:62:5C:BC:2D:8D:5F:A5:80:A5:B4:97:A6:97:F7:C0:E8:74:B0:39
            X509v3 Basic Constraints: critical
                CA:TRUE
    Signature Algorithm: sha256WithRSAEncryption
    Signature Value:
        c8:7f:66:ab:ae:4b:d2:ee:5c:3c:16:b0:80:8d:3a:6d:42:6b:
        8c:b5:5c:a6:95:80:3d:f8:72:4b:f3:6d:d7:b5:da:f9:97:b0:
        6a:b9:f1:b9:b0:96:2d:02:71:d3:10:4d:3f:1c:54:8b:d8:3b:
        45:4e:34:6e:f6:80:60:bf:10:df:a4:f1:4d:68:49:22:61:cf:
        7b:e6:fd:6d:2f:a1:01:04:53:24:33:7c:f1:dc:76:90:7e:06:
        e4:ff:7a:66:d5:18:38:af:5b:d6:5e:85:43:96:69:e5:3e:78:
        bd:27:54:f6:be:95:e8:ad:ad:13:b0:33:97:7c:d8:a5:56:64:
        08:0a:73:43:89:2e:90:f6:20:bb:46:ff:93:45:49:20:9c:e5:
        6c:09:74:e9:b2:fe:24:6c:c3:26:20:8c:2a:44:95:3b:c7:24:
        ff:78:ec:46:c8:05:5e:56:fd:9f:16:60:1c:42:f8:2b:5d:81:
        15:3f:ef:a1:6c:f6:62:d5:d3:f2:e8:de:2e:44:30:f8:bc:38:
        2a:9b:c6:73:de:40:98:c7:11:78:cd:0c:51:9f:1c:9f:3f:7d:
        11:95:d8:29:2c:6d:3f:45:b9:f6:ae:67:c5:9a:65:bf:46:99:
        c5:27:f8:54:0c:d7:6a:cb:e4:57:75:84:26:c0:e0:3f:2f:5c:
        f4:57:4b:16
-----BEGIN CERTIFICATE-----
MIIENjCCAx6gAwIBAgIBITANBgkqhkiG9w0BAQsFADBpMQswCQYDVQQGEwJVUzET
MBEGA1UECAwKQ2FsaWZvcm5pYTEUMBIGA1UEBwwLU2FudGEgQ2xhcmExDTALBgNV
BAoMBHBrZzUxDDAKBgNVBAMMA3RhMzESMBAGCSqGSIb3DQEJARYDdGEzMB4XDTM1
MDEwMTAxMDEwMVoXDTM1MDEwMjAxMDEwMVowdTELMAkGA1UEBhMCVVMxEzARBgNV
BAgMCkNhbGlmb3JuaWExFDASBgNVBAcMC1NhbnRhIENsYXJhMQ0wCwYDVQQKDARw
a2c1MRIwEAYDVQQDDAljaDEuNF90YTMxGDAWBgkqhkiG9w0BCQEWCWNoMS40X3Rh
MzCCASIwDQYJKoZIhvcNAQEBBQADggEPADCCAQoCggEBAKC0pAZRM6rOK6hXGgrP
/uZ8OYk55p5Dvk6doYzlGSwuOgwSgAm9Cf/h/szvIL2IC3MZEt33pTpa1H/4VBQX
yM/UG8HA9TzMft4IoWN9CtZRJqKdAOh2kuGzoRhFC/we539SrcOaqV76YyNcmiS7
Sgqkx192WelNEl7YDGMP6sOM9XN1xYj1/xdYiwtKXWjhduhc/W8ewP0d+q2NKnJh
ESKu8djNvA4fXarNT/R6yhRVdMCd7iXuleoNOyHC9xEOHeT/colrxjGWmcJ1RDz3
67kcsPqNWUhmuNTXy8d3KKV+efzzQLEr0DvHoBeFZS1O0JmBJwA/qgP35bA05+HT
2aECAwEAAaOB3DCB2TAdBgNVHQ4EFgQUz5gf9NPrvEwJTFQWZroVwCIH5+QwgaYG
A1UdIwSBnjCBm4AUwEGU3s1d2yc7zatK1Tpv2qd/FzahbaRrMGkxCzAJBgNVBAYT
AlVTMRMwEQYDVQQIDApDYWxpZm9ybmlhMRQwEgYDVQQHDAtTYW50YSBDbGFyYTEN
MAsGA1UECgwEcGtnNTEMMAoGA1UEAwwDdGEzMRIwEAYJKoZIhvcNAQkBFgN0YTOC
FBtiXLwtjV+lgKW0l6aX98DodLA5MA8GA1UdEwEB/wQFMAMBAf8wDQYJKoZIhvcN
AQELBQADggEBAMh/ZquuS9LuXDwWsICNOm1Ca4y1XKaVgD34ckvzbde12vmXsGq5
8bmwli0CcdMQTT8cVIvYO0VONG72gGC/EN+k8U1oSSJhz3vm/W0voQEEUyQzfPHc
dpB+BuT/embVGDivW9ZehUOWaeU+eL0nVPa+leitrROwM5d82KVWZAgKc0OJLpD2
ILtG/5NFSSCc5WwJdOmy/iRswyYgjCpElTvHJP947EbIBV5W/Z8WYBxC+CtdgRU/
76Fs9mLV0/Lo3i5EMPi8OCqbxnPeQJjHEXjNDFGfHJ8/fRGV2CksbT9FufauZ8Wa
Zb9GmcUn+FQM12rL5Fd1hCbA4D8vXPRXSxY=
-----END CERTIFICATE-----
