Certificate:
    Data:
        Version: 3 (0x2)
        Serial Number: 35 (0x23)
    Signature Algorithm: sha256WithRSAEncryption
        Issuer: C=US, ST=California, L=Santa Clara, O=pkg5, CN=ta4/emailAddress=ta4
        Validity
            Not Before: Nov 16 10:58:50 2017 GMT
            Not After : Aug 12 10:58:50 2020 GMT
        Subject: C=US, ST=California, L=Santa Clara, O=pkg5, CN=ch1_ta4/emailAddress=ch1_ta4
        Subject Public Key Info:
            Public Key Algorithm: rsaEncryption
                Public-Key: (2048 bit)
                Modulus:
                    00:c0:af:d7:dd:4e:da:8f:b5:32:6a:db:3a:8a:27:
                    bc:94:9e:a9:d6:e9:66:c9:2d:54:6d:71:a3:ba:53:
                    a7:a6:70:e1:21:b1:77:be:35:14:03:14:54:01:db:
                    7a:75:4d:4e:6c:23:2b:e7:b5:3e:e1:21:77:9c:9d:
                    bc:b5:3b:bb:e4:08:cc:79:ab:00:70:70:6e:42:fd:
                    7b:01:fb:81:98:b9:8f:a6:c6:4b:bd:a5:b9:19:a3:
                    58:5f:77:ba:2f:54:6a:7c:5b:7f:c1:35:13:24:cb:
                    24:44:80:00:ed:bf:9f:b7:b0:dc:79:5f:c4:cb:32:
                    27:a3:95:80:fb:b8:81:52:26:f3:b0:6b:1b:08:be:
                    b5:3a:c0:b7:82:f0:02:d0:78:3b:ad:c0:8d:61:2f:
                    3b:f3:bf:b5:41:f8:2d:96:07:d9:51:6d:7f:27:e5:
                    fe:cf:33:04:b5:87:15:5d:b2:7c:0e:9a:52:40:88:
                    8c:8f:73:e6:20:5b:59:0b:78:71:28:79:c9:ff:9e:
                    7d:48:dc:56:d4:81:c1:87:38:7e:51:98:49:b1:07:
                    9d:f5:43:01:48:34:ca:c4:7d:cc:e4:99:14:58:29:
                    be:aa:91:cb:bd:30:1e:85:39:1f:c4:8e:ce:0d:5d:
                    33:99:64:09:ca:5d:d5:23:bc:08:92:ca:b8:b1:99:
                    c8:41
                Exponent: 65537 (0x10001)
        X509v3 extensions:
            X509v3 Subject Key Identifier: 
                C0:4C:8E:76:A5:28:E7:6F:54:02:24:4F:C1:2E:BF:43:BE:42:82:6A
            X509v3 Authority Key Identifier: 
                keyid:D1:96:CC:4B:91:5F:66:A0:A7:59:31:2D:53:29:3D:18:7D:B8:AA:5F
                DirName:/C=US/ST=California/L=Santa Clara/O=pkg5/CN=ta4/emailAddress=ta4
                serial:BC:78:EB:56:19:C9:55:A2

            X509v3 Basic Constraints: critical
                CA:TRUE
            X509v3 Key Usage: critical
                Certificate Sign, CRL Sign
    Signature Algorithm: sha256WithRSAEncryption
         24:97:82:35:50:6e:41:bd:89:6f:d0:33:6c:91:da:33:c9:97:
         61:26:85:62:e1:89:0a:6d:d8:ab:e4:b9:97:e1:67:72:c9:0f:
         cf:ec:7d:5d:8d:29:50:95:b5:6d:13:b7:1a:d2:19:c3:c5:1c:
         33:7b:62:85:10:aa:6f:bf:1f:ca:aa:d5:46:ea:00:bb:07:d5:
         bd:05:48:ff:f1:8b:08:5f:aa:87:07:ed:c2:ba:bf:c9:15:c8:
         7e:a2:b9:6d:ca:f6:d7:2b:e3:51:8b:50:d2:c2:fe:de:63:de:
         e7:ca:e9:9a:95:5d:d8:68:ae:6f:62:aa:59:fe:53:bc:da:0d:
         65:5c:a0:3e:aa:1a:54:ed:f3:81:6b:33:d5:da:5d:dd:57:2d:
         c9:6f:43:d9:84:0f:52:fc:27:55:17:f0:78:11:7c:0f:f6:3d:
         a8:9c:62:92:6b:ca:77:3b:11:74:ab:ed:26:65:f2:59:76:d1:
         90:36:0e:2c:bc:ce:ef:35:f7:04:2a:ff:a0:49:8e:31:2f:f1:
         cf:33:b0:62:5b:57:56:e5:cd:39:d5:b3:1f:74:dc:f1:f2:f8:
         4c:f6:dd:30:d8:03:ca:f3:25:d9:b8:ec:a1:46:e7:74:c3:6d:
         ef:85:29:a1:a3:c8:32:c7:09:a0:6b:97:06:88:ac:d2:19:06:
         ab:be:5b:e6
-----BEGIN CERTIFICATE-----
MIIENzCCAx+gAwIBAgIBIzANBgkqhkiG9w0BAQsFADBpMQswCQYDVQQGEwJVUzET
MBEGA1UECAwKQ2FsaWZvcm5pYTEUMBIGA1UEBwwLU2FudGEgQ2xhcmExDTALBgNV
BAoMBHBrZzUxDDAKBgNVBAMMA3RhNDESMBAGCSqGSIb3DQEJARYDdGE0MB4XDTE3
MTExNjEwNTg1MFoXDTIwMDgxMjEwNTg1MFowcTELMAkGA1UEBhMCVVMxEzARBgNV
BAgMCkNhbGlmb3JuaWExFDASBgNVBAcMC1NhbnRhIENsYXJhMQ0wCwYDVQQKDARw
a2c1MRAwDgYDVQQDDAdjaDFfdGE0MRYwFAYJKoZIhvcNAQkBFgdjaDFfdGE0MIIB
IjANBgkqhkiG9w0BAQEFAAOCAQ8AMIIBCgKCAQEAwK/X3U7aj7Uyats6iie8lJ6p
1ulmyS1UbXGjulOnpnDhIbF3vjUUAxRUAdt6dU1ObCMr57U+4SF3nJ28tTu75AjM
easAcHBuQv17AfuBmLmPpsZLvaW5GaNYX3e6L1RqfFt/wTUTJMskRIAA7b+ft7Dc
eV/EyzIno5WA+7iBUibzsGsbCL61OsC3gvAC0Hg7rcCNYS8787+1QfgtlgfZUW1/
J+X+zzMEtYcVXbJ8DppSQIiMj3PmIFtZC3hxKHnJ/559SNxW1IHBhzh+UZhJsQed
9UMBSDTKxH3M5JkUWCm+qpHLvTAehTkfxI7ODV0zmWQJyl3VI7wIksq4sZnIQQID
AQABo4HhMIHeMB0GA1UdDgQWBBTATI52pSjnb1QCJE/BLr9DvkKCajCBmwYDVR0j
BIGTMIGQgBTRlsxLkV9moKdZMS1TKT0YfbiqX6FtpGswaTELMAkGA1UEBhMCVVMx
EzARBgNVBAgMCkNhbGlmb3JuaWExFDASBgNVBAcMC1NhbnRhIENsYXJhMQ0wCwYD
VQQKDARwa2c1MQwwCgYDVQQDDAN0YTQxEjAQBgkqhkiG9w0BCQEWA3RhNIIJALx4
61YZyVWiMA8GA1UdEwEB/wQFMAMBAf8wDgYDVR0PAQH/BAQDAgEGMA0GCSqGSIb3
DQEBCwUAA4IBAQAkl4I1UG5BvYlv0DNskdozyZdhJoVi4YkKbdir5LmX4WdyyQ/P
7H1djSlQlbVtE7ca0hnDxRwze2KFEKpvvx/KqtVG6gC7B9W9BUj/8YsIX6qHB+3C
ur/JFch+orltyvbXK+NRi1DSwv7eY97nyumalV3YaK5vYqpZ/lO82g1lXKA+qhpU
7fOBazPV2l3dVy3Jb0PZhA9S/CdVF/B4EXwP9j2onGKSa8p3OxF0q+0mZfJZdtGQ
Ng4svM7vNfcEKv+gSY4xL/HPM7BiW1dW5c051bMfdNzx8vhM9t0w2APK8yXZuOyh
Rud0w23vhSmho8gyxwmga5cGiKzSGQarvlvm
-----END CERTIFICATE-----
