Certificate:
    Data:
        Version: 3 (0x2)
        Serial Number: 35 (0x23)
        Signature Algorithm: sha256WithRSAEncryption
        Issuer: C=US, ST=California, L=Santa Clara, O=pkg5, CN=ta4/emailAddress=ta4
        Validity
            Not Before: Oct 24 21:43:11 2023 GMT
            Not After : Jul 20 21:43:11 2026 GMT
        Subject: C=US, ST=California, L=Santa Clara, O=pkg5, CN=ch1_ta4/emailAddress=ch1_ta4
        Subject Public Key Info:
            Public Key Algorithm: rsaEncryption
                Public-Key: (2048 bit)
                Modulus:
                    00:f0:2d:43:a6:c8:92:a6:69:8c:60:fe:e1:90:2d:
                    7e:52:94:72:18:bc:ba:db:4c:16:f2:38:6a:2f:9b:
                    24:05:ba:37:b7:fa:3d:cc:fc:9b:b2:6c:27:a8:89:
                    3e:80:bd:0c:22:35:ba:19:02:7f:c2:bc:c8:1b:02:
                    93:99:05:a1:ef:a4:a2:f4:1b:d0:24:a0:d5:b4:55:
                    ab:1d:85:d8:8e:06:9f:18:c7:35:ae:1a:ec:da:fa:
                    c8:ef:0b:d4:00:76:46:39:92:34:02:51:bb:96:45:
                    e7:88:a5:f7:95:ba:8d:d3:02:5e:6b:f2:8d:f9:d8:
                    4b:8e:a3:53:f6:cc:d0:65:a8:9c:64:25:6f:00:ff:
                    9a:6e:09:3c:23:85:e3:4c:d2:02:69:17:7d:0d:2c:
                    e2:78:13:74:a6:17:65:d5:3f:63:b3:9a:e7:b9:b3:
                    5b:54:b4:49:34:a8:e5:0a:ff:62:50:0e:37:fa:7d:
                    00:b3:f3:c0:6f:40:bb:d7:e5:7a:41:e3:c6:31:80:
                    20:48:1a:03:eb:f5:71:72:0d:c0:b5:e1:25:54:26:
                    37:05:39:22:07:8f:5f:91:b5:ac:56:25:15:28:bd:
                    ec:0b:5a:26:17:df:64:e7:fd:dd:0e:30:4a:2f:fe:
                    66:f3:c7:0e:5a:ed:05:b7:42:76:b8:9c:0e:fd:0e:
                    f4:21
                Exponent: 65537 (0x10001)
        X509v3 extensions:
            X509v3 Subject Key Identifier: 
                3C:21:78:84:F9:73:24:3A:7F:39:6C:DF:92:A8:F4:37:30:5E:47:09
            X509v3 Authority Key Identifier: 
                keyid:F9:34:31:B4:C9:89:D9:09:9B:52:1A:F6:B2:15:7E:7D:B2:99:88:CB
                DirName:/C=US/ST=California/L=Santa Clara/O=pkg5/CN=ta4/emailAddress=ta4
                serial:44:8D:6D:FA:01:EA:6D:BB:42:71:59:89:B7:E5:86:94:71:BE:4F:71
            X509v3 Basic Constraints: critical
                CA:TRUE
            X509v3 Key Usage: critical
                Certificate Sign, CRL Sign
            X509v3 Subject Alternative Name: 
                email:ch1_ta4
    Signature Algorithm: sha256WithRSAEncryption
    Signature Value:
        0f:5a:c0:2c:c3:c5:e3:a9:d7:04:be:66:15:f3:4e:e9:cb:1c:
        b1:d1:4d:57:bc:91:40:98:90:7f:13:2f:45:8f:f6:32:23:8d:
        f3:70:e3:e8:40:74:fb:e3:2d:cd:a5:cf:c0:e2:7e:d6:7d:d1:
        33:c4:f1:00:e5:4d:7b:f7:a8:18:8b:ca:e7:5c:3e:79:43:ab:
        11:25:b9:b9:6d:42:e1:49:6a:29:eb:ae:b7:75:94:54:c0:80:
        d2:a7:dd:07:5b:33:cf:82:0d:76:a7:88:22:26:65:64:f7:93:
        16:4f:d0:52:64:9a:f0:c2:d5:7a:a4:9d:98:2a:47:1e:5b:6e:
        e7:9a:9d:4b:58:9b:a0:00:d8:c4:a7:0b:c3:1d:b8:2e:43:0f:
        93:77:9e:f6:66:cf:7c:40:eb:15:e1:78:7d:e6:bf:b9:51:95:
        67:5f:e1:33:15:f3:71:8b:2a:84:92:f3:b1:32:1f:2e:1f:c7:
        63:af:a6:0f:73:bc:9d:87:5a:d5:cd:92:2e:8c:ca:0e:cd:49:
        f2:bb:20:c6:fe:d6:38:4d:71:d2:75:db:c6:93:c1:89:92:82:
        47:99:83:fd:27:cd:00:cd:e1:34:4f:71:22:bb:5a:32:f8:3c:
        31:4a:06:f7:13:d0:73:fc:ef:fe:bb:b5:2a:91:5d:5b:45:b4:
        08:55:5d:79
-----BEGIN CERTIFICATE-----
MIIEVzCCAz+gAwIBAgIBIzANBgkqhkiG9w0BAQsFADBpMQswCQYDVQQGEwJVUzET
MBEGA1UECAwKQ2FsaWZvcm5pYTEUMBIGA1UEBwwLU2FudGEgQ2xhcmExDTALBgNV
BAoMBHBrZzUxDDAKBgNVBAMMA3RhNDESMBAGCSqGSIb3DQEJARYDdGE0MB4XDTIz
MTAyNDIxNDMxMVoXDTI2MDcyMDIxNDMxMVowcTELMAkGA1UEBhMCVVMxEzARBgNV
BAgMCkNhbGlmb3JuaWExFDASBgNVBAcMC1NhbnRhIENsYXJhMQ0wCwYDVQQKDARw
a2c1MRAwDgYDVQQDDAdjaDFfdGE0MRYwFAYJKoZIhvcNAQkBFgdjaDFfdGE0MIIB
IjANBgkqhkiG9w0BAQEFAAOCAQ8AMIIBCgKCAQEA8C1DpsiSpmmMYP7hkC1+UpRy
GLy620wW8jhqL5skBbo3t/o9zPybsmwnqIk+gL0MIjW6GQJ/wrzIGwKTmQWh76Si
9BvQJKDVtFWrHYXYjgafGMc1rhrs2vrI7wvUAHZGOZI0AlG7lkXniKX3lbqN0wJe
a/KN+dhLjqNT9szQZaicZCVvAP+abgk8I4XjTNICaRd9DSzieBN0phdl1T9js5rn
ubNbVLRJNKjlCv9iUA43+n0As/PAb0C71+V6QePGMYAgSBoD6/Vxcg3AteElVCY3
BTkiB49fkbWsViUVKL3sC1omF99k5/3dDjBKL/5m88cOWu0Ft0J2uJwO/Q70IQID
AQABo4IBADCB/TAdBgNVHQ4EFgQUPCF4hPlzJDp/OWzfkqj0NzBeRwkwgaYGA1Ud
IwSBnjCBm4AU+TQxtMmJ2QmbUhr2shV+fbKZiMuhbaRrMGkxCzAJBgNVBAYTAlVT
MRMwEQYDVQQIDApDYWxpZm9ybmlhMRQwEgYDVQQHDAtTYW50YSBDbGFyYTENMAsG
A1UECgwEcGtnNTEMMAoGA1UEAwwDdGE0MRIwEAYJKoZIhvcNAQkBFgN0YTSCFESN
bfoB6m27QnFZibflhpRxvk9xMA8GA1UdEwEB/wQFMAMBAf8wDgYDVR0PAQH/BAQD
AgEGMBIGA1UdEQQLMAmBB2NoMV90YTQwDQYJKoZIhvcNAQELBQADggEBAA9awCzD
xeOp1wS+ZhXzTunLHLHRTVe8kUCYkH8TL0WP9jIjjfNw4+hAdPvjLc2lz8DiftZ9
0TPE8QDlTXv3qBiLyudcPnlDqxElubltQuFJainrrrd1lFTAgNKn3QdbM8+CDXan
iCImZWT3kxZP0FJkmvDC1XqknZgqRx5bbueanUtYm6AA2MSnC8MduC5DD5N3nvZm
z3xA6xXheH3mv7lRlWdf4TMV83GLKoSS87EyHy4fx2Ovpg9zvJ2HWtXNki6Myg7N
SfK7IMb+1jhNcdJ128aTwYmSgkeZg/0nzQDN4TRPcSK7WjL4PDFKBvcT0HP87/67
tSqRXVtFtAhVXXk=
-----END CERTIFICATE-----
