Certificate:
    Data:
        Version: 3 (0x2)
        Serial Number: 35 (0x23)
    Signature Algorithm: sha256WithRSAEncryption
        Issuer: C=US, ST=California, L=Santa Clara, O=pkg5, CN=ta4/emailAddress=ta4
        Validity
            Not Before: Mar 20 10:20:55 2018 GMT
            Not After : Dec 14 10:20:55 2020 GMT
        Subject: C=US, ST=California, L=Santa Clara, O=pkg5, CN=ch1_ta4/emailAddress=ch1_ta4
        Subject Public Key Info:
            Public Key Algorithm: rsaEncryption
                Public-Key: (2048 bit)
                Modulus:
                    00:ae:cd:90:3d:3f:ab:81:18:46:d6:14:54:48:3d:
                    33:4c:21:05:19:ce:14:29:e5:3a:46:5a:a1:8c:bd:
                    f1:e1:ac:67:f4:b3:7b:d4:e9:f2:97:8a:0e:33:b6:
                    f8:29:f5:13:70:94:a3:7f:8e:e7:66:b1:34:0d:df:
                    74:53:e6:93:8b:80:55:c2:e6:e0:4b:08:f3:fc:88:
                    b2:87:89:de:b7:f2:fe:1b:90:af:1f:06:c3:83:69:
                    40:c2:91:6d:e9:b2:ca:fa:f8:77:3c:c5:bd:9d:e3:
                    0e:b9:e1:92:4f:4a:c1:d9:ab:7c:aa:5b:9b:e8:dc:
                    44:b8:33:ad:2f:41:d4:4c:6f:ca:03:59:1e:71:eb:
                    c7:e8:30:58:1d:cb:cc:c3:1d:11:e5:7f:51:35:f5:
                    39:d2:bf:18:6f:f0:60:92:f2:c5:2a:a6:fe:5a:80:
                    f4:3a:eb:91:63:13:78:e5:80:38:bb:fb:e5:ee:05:
                    d0:32:4d:66:b9:cf:56:df:88:11:e9:15:45:49:e2:
                    b7:16:e8:38:85:a1:ea:2d:f5:54:43:4b:97:d9:fc:
                    c9:49:06:d0:0f:33:f0:7e:90:ee:21:2d:5c:d5:d7:
                    f2:82:40:d9:dd:4c:b0:a0:cb:ef:76:9b:2f:c5:37:
                    91:ad:31:5b:5a:4e:4b:79:85:88:75:83:4c:72:30:
                    07:8f
                Exponent: 65537 (0x10001)
        X509v3 extensions:
            X509v3 Subject Key Identifier: 
                1F:C3:17:35:AF:BC:CF:C0:2B:13:96:F2:E2:D7:10:4A:9E:07:25:96
            X509v3 Authority Key Identifier: 
                keyid:8D:C3:81:0F:EA:0D:53:C4:C4:BF:96:F1:96:07:71:BE:10:39:8C:BE
                DirName:/C=US/ST=California/L=Santa Clara/O=pkg5/CN=ta4/emailAddress=ta4
                serial:E3:BF:F7:54:7C:61:F2:59

            X509v3 Basic Constraints: critical
                CA:TRUE
            X509v3 Key Usage: critical
                Certificate Sign, CRL Sign
            X509v3 Subject Alternative Name: 
                email:ch1_ta4
    Signature Algorithm: sha256WithRSAEncryption
         77:aa:a9:c2:d8:a9:3c:0e:84:9a:1e:8f:cf:c6:db:16:dd:e5:
         66:d8:e7:b5:38:b7:37:55:e7:7c:a9:b3:df:5c:93:90:78:0b:
         7a:ab:48:08:ce:65:79:70:40:99:3e:8e:54:08:fd:4e:b2:74:
         71:6d:e2:ab:5a:87:13:1c:3f:a8:66:a0:02:e5:39:cf:bf:98:
         5d:19:ea:ff:3f:4a:90:f4:7e:ae:64:d7:e6:37:0f:45:04:86:
         50:ae:26:da:82:71:78:81:dc:eb:8e:71:61:8c:1c:07:f2:34:
         0a:3a:1d:08:ba:e8:7d:6c:96:ce:d9:84:67:7b:82:0b:4e:ab:
         f1:a2:ad:48:b6:f1:7d:6b:58:79:57:6d:5d:e1:ef:47:90:1b:
         f7:77:bd:a7:23:d9:d1:bc:ea:17:d5:d8:9e:57:a9:e6:da:ec:
         b4:4b:8a:f9:a8:9e:cb:c7:08:05:40:25:0e:1a:3a:f0:67:4b:
         5b:2c:4a:d1:46:dc:ee:ae:43:f6:5b:66:3b:bf:71:73:2f:29:
         8f:a3:3e:d9:1d:5c:1f:59:c0:f2:59:11:f4:02:f6:28:e0:cc:
         98:23:37:40:2e:26:20:43:e8:ec:e3:90:27:85:31:2a:a3:a2:
         85:7a:92:3e:2a:a7:46:c4:f4:f6:88:b3:2a:ee:30:2b:97:62:
         69:31:55:2a
-----BEGIN CERTIFICATE-----
MIIESzCCAzOgAwIBAgIBIzANBgkqhkiG9w0BAQsFADBpMQswCQYDVQQGEwJVUzET
MBEGA1UECAwKQ2FsaWZvcm5pYTEUMBIGA1UEBwwLU2FudGEgQ2xhcmExDTALBgNV
BAoMBHBrZzUxDDAKBgNVBAMMA3RhNDESMBAGCSqGSIb3DQEJARYDdGE0MB4XDTE4
MDMyMDEwMjA1NVoXDTIwMTIxNDEwMjA1NVowcTELMAkGA1UEBhMCVVMxEzARBgNV
BAgMCkNhbGlmb3JuaWExFDASBgNVBAcMC1NhbnRhIENsYXJhMQ0wCwYDVQQKDARw
a2c1MRAwDgYDVQQDDAdjaDFfdGE0MRYwFAYJKoZIhvcNAQkBFgdjaDFfdGE0MIIB
IjANBgkqhkiG9w0BAQEFAAOCAQ8AMIIBCgKCAQEArs2QPT+rgRhG1hRUSD0zTCEF
Gc4UKeU6RlqhjL3x4axn9LN71Onyl4oOM7b4KfUTcJSjf47nZrE0Dd90U+aTi4BV
wubgSwjz/Iiyh4net/L+G5CvHwbDg2lAwpFt6bLK+vh3PMW9neMOueGST0rB2at8
qlub6NxEuDOtL0HUTG/KA1kecevH6DBYHcvMwx0R5X9RNfU50r8Yb/BgkvLFKqb+
WoD0OuuRYxN45YA4u/vl7gXQMk1muc9W34gR6RVFSeK3Fug4haHqLfVUQ0uX2fzJ
SQbQDzPwfpDuIS1c1dfygkDZ3UywoMvvdpsvxTeRrTFbWk5LeYWIdYNMcjAHjwID
AQABo4H1MIHyMB0GA1UdDgQWBBQfwxc1r7zPwCsTlvLi1xBKngclljCBmwYDVR0j
BIGTMIGQgBSNw4EP6g1TxMS/lvGWB3G+EDmMvqFtpGswaTELMAkGA1UEBhMCVVMx
EzARBgNVBAgMCkNhbGlmb3JuaWExFDASBgNVBAcMC1NhbnRhIENsYXJhMQ0wCwYD
VQQKDARwa2c1MQwwCgYDVQQDDAN0YTQxEjAQBgkqhkiG9w0BCQEWA3RhNIIJAOO/
91R8YfJZMA8GA1UdEwEB/wQFMAMBAf8wDgYDVR0PAQH/BAQDAgEGMBIGA1UdEQQL
MAmBB2NoMV90YTQwDQYJKoZIhvcNAQELBQADggEBAHeqqcLYqTwOhJoej8/G2xbd
5WbY57U4tzdV53yps99ck5B4C3qrSAjOZXlwQJk+jlQI/U6ydHFt4qtahxMcP6hm
oALlOc+/mF0Z6v8/SpD0fq5k1+Y3D0UEhlCuJtqCcXiB3OuOcWGMHAfyNAo6HQi6
6H1sls7ZhGd7ggtOq/GirUi28X1rWHlXbV3h70eQG/d3vacj2dG86hfV2J5Xqeba
7LRLivmonsvHCAVAJQ4aOvBnS1ssStFG3O6uQ/ZbZju/cXMvKY+jPtkdXB9ZwPJZ
EfQC9ijgzJgjN0AuJiBD6OzjkCeFMSqjooV6kj4qp0bE9PaIsyruMCuXYmkxVSo=
-----END CERTIFICATE-----
