Certificate:
    Data:
        Version: 3 (0x2)
        Serial Number: 35 (0x23)
        Signature Algorithm: sha256WithRSAEncryption
        Issuer: C=US, ST=California, L=Santa Clara, O=pkg5, CN=ta4/emailAddress=ta4
        Validity
            Not Before: May 23 15:47:20 2024 GMT
            Not After : Feb 17 15:47:20 2027 GMT
        Subject: C=US, ST=California, L=Santa Clara, O=pkg5, CN=ch1_ta4/emailAddress=ch1_ta4
        Subject Public Key Info:
            Public Key Algorithm: rsaEncryption
                Public-Key: (2048 bit)
                Modulus:
                    00:a7:58:87:11:62:d2:ac:e9:cc:8f:16:3a:4d:4c:
                    e0:9b:22:d4:9b:09:70:c2:de:09:3b:0f:57:e1:7c:
                    06:f4:2d:22:44:57:ba:43:71:d2:be:63:6c:2f:7c:
                    75:8c:4e:06:b7:67:24:07:13:06:ee:b8:da:9d:f0:
                    85:ac:4f:0a:01:34:c9:a4:b7:d9:0b:ca:59:b3:94:
                    28:8d:92:3d:03:66:04:c1:5c:2c:38:f7:12:68:b7:
                    8e:83:0a:31:cc:a8:3d:49:97:f0:53:55:dc:90:0b:
                    04:ce:b6:39:60:79:1d:d9:70:e2:b6:af:ec:28:db:
                    7f:1d:29:6c:5e:c0:14:59:d8:e1:00:0c:60:0b:ed:
                    fc:2a:e5:22:90:9e:a4:dc:90:63:fe:57:81:da:c1:
                    09:67:93:67:f1:ed:7f:ce:cc:f1:59:8a:8f:93:b7:
                    fe:46:2c:c0:92:eb:71:6f:a3:76:5b:2c:07:cb:2b:
                    9d:75:8a:3a:f1:72:02:61:c7:23:3a:e8:e2:9c:53:
                    14:b8:fc:fa:22:b4:a1:7a:d9:83:5c:a2:ab:51:db:
                    cf:2d:60:b4:bb:39:7b:4d:7b:98:49:1b:c1:46:66:
                    6f:68:4d:ba:d9:13:8e:b4:07:1f:39:74:05:38:a8:
                    1d:05:54:fc:7f:38:3a:2f:04:96:f1:1d:31:da:42:
                    a5:eb
                Exponent: 65537 (0x10001)
        X509v3 extensions:
            X509v3 Subject Key Identifier: 
                2B:7C:4F:B9:53:AE:C8:E2:A9:09:D9:F9:BF:4B:7B:29:7B:90:9F:55
            X509v3 Authority Key Identifier: 
                keyid:97:23:60:F3:63:83:D7:5A:DE:23:0B:96:76:BD:BA:76:B2:76:E1:E6
                DirName:/C=US/ST=California/L=Santa Clara/O=pkg5/CN=ta4/emailAddress=ta4
                serial:67:38:F1:E4:A8:B4:58:F1:E9:B2:52:25:74:52:60:2D:AB:73:97:0C
            X509v3 Basic Constraints: critical
                CA:TRUE
            X509v3 Key Usage: critical
                Certificate Sign, CRL Sign
            X509v3 Subject Alternative Name: 
                email:ch1_ta4
    Signature Algorithm: sha256WithRSAEncryption
    Signature Value:
        30:01:21:0e:08:f8:d6:a8:2c:f6:7b:d7:06:42:b5:33:0b:92:
        83:7d:ae:8a:c6:63:61:6b:08:27:11:f0:7d:f6:25:03:6b:99:
        76:09:c5:a1:71:8f:1e:43:6e:fc:d9:56:5b:13:17:f6:f9:bc:
        0c:54:45:7a:0a:a0:68:52:4d:cc:ef:c1:e3:c0:8f:a6:e9:93:
        9b:e2:8c:f4:c6:6c:be:9f:cf:e2:d7:aa:6f:56:8f:a1:6f:21:
        61:a2:af:2b:f2:83:65:24:80:1f:06:fd:3a:17:2d:43:a1:4f:
        04:92:94:21:e4:a7:ba:c7:45:de:72:30:e5:79:fe:87:cc:65:
        f5:5a:b4:ef:7e:55:d7:25:05:6c:cf:df:03:e7:50:42:4f:4f:
        fd:f9:84:d9:37:21:b7:60:ca:fe:ac:28:71:b1:ef:17:fe:9c:
        9a:37:0b:8d:cf:97:ba:46:db:56:17:76:cc:a8:c2:30:20:e4:
        ba:3f:14:60:21:ba:f2:95:15:32:9e:02:2a:11:57:59:bd:5e:
        7e:cf:96:9b:95:fc:ef:f5:ac:7f:a5:25:96:80:4b:7c:bc:c7:
        03:8e:08:e5:4a:ca:5b:b9:a2:ea:1e:81:a7:65:32:2c:fe:b8:
        09:92:ad:4f:ad:62:e5:79:c2:aa:56:12:ad:cc:26:89:70:62:
        62:14:12:d4
-----BEGIN CERTIFICATE-----
MIIEVzCCAz+gAwIBAgIBIzANBgkqhkiG9w0BAQsFADBpMQswCQYDVQQGEwJVUzET
MBEGA1UECAwKQ2FsaWZvcm5pYTEUMBIGA1UEBwwLU2FudGEgQ2xhcmExDTALBgNV
BAoMBHBrZzUxDDAKBgNVBAMMA3RhNDESMBAGCSqGSIb3DQEJARYDdGE0MB4XDTI0
MDUyMzE1NDcyMFoXDTI3MDIxNzE1NDcyMFowcTELMAkGA1UEBhMCVVMxEzARBgNV
BAgMCkNhbGlmb3JuaWExFDASBgNVBAcMC1NhbnRhIENsYXJhMQ0wCwYDVQQKDARw
a2c1MRAwDgYDVQQDDAdjaDFfdGE0MRYwFAYJKoZIhvcNAQkBFgdjaDFfdGE0MIIB
IjANBgkqhkiG9w0BAQEFAAOCAQ8AMIIBCgKCAQEAp1iHEWLSrOnMjxY6TUzgmyLU
mwlwwt4JOw9X4XwG9C0iRFe6Q3HSvmNsL3x1jE4Gt2ckBxMG7rjanfCFrE8KATTJ
pLfZC8pZs5QojZI9A2YEwVwsOPcSaLeOgwoxzKg9SZfwU1XckAsEzrY5YHkd2XDi
tq/sKNt/HSlsXsAUWdjhAAxgC+38KuUikJ6k3JBj/leB2sEJZ5Nn8e1/zszxWYqP
k7f+RizAkutxb6N2WywHyyuddYo68XICYccjOujinFMUuPz6IrShetmDXKKrUdvP
LWC0uzl7TXuYSRvBRmZvaE262ROOtAcfOXQFOKgdBVT8fzg6LwSW8R0x2kKl6wID
AQABo4IBADCB/TAdBgNVHQ4EFgQUK3xPuVOuyOKpCdn5v0t7KXuQn1UwgaYGA1Ud
IwSBnjCBm4AUlyNg82OD11reIwuWdr26drJ24eahbaRrMGkxCzAJBgNVBAYTAlVT
MRMwEQYDVQQIDApDYWxpZm9ybmlhMRQwEgYDVQQHDAtTYW50YSBDbGFyYTENMAsG
A1UECgwEcGtnNTEMMAoGA1UEAwwDdGE0MRIwEAYJKoZIhvcNAQkBFgN0YTSCFGc4
8eSotFjx6bJSJXRSYC2rc5cMMA8GA1UdEwEB/wQFMAMBAf8wDgYDVR0PAQH/BAQD
AgEGMBIGA1UdEQQLMAmBB2NoMV90YTQwDQYJKoZIhvcNAQELBQADggEBADABIQ4I
+NaoLPZ71wZCtTMLkoN9rorGY2FrCCcR8H32JQNrmXYJxaFxjx5DbvzZVlsTF/b5
vAxURXoKoGhSTczvwePAj6bpk5vijPTGbL6fz+LXqm9Wj6FvIWGiryvyg2UkgB8G
/ToXLUOhTwSSlCHkp7rHRd5yMOV5/ofMZfVatO9+VdclBWzP3wPnUEJPT/35hNk3
Ibdgyv6sKHGx7xf+nJo3C43Pl7pG21YXdsyowjAg5Lo/FGAhuvKVFTKeAioRV1m9
Xn7PlpuV/O/1rH+lJZaAS3y8xwOOCOVKylu5ouoegadlMiz+uAmSrU+tYuV5wqpW
Eq3MJolwYmIUEtQ=
-----END CERTIFICATE-----
