Certificate:
    Data:
        Version: 3 (0x2)
        Serial Number: 35 (0x23)
        Signature Algorithm: sha256WithRSAEncryption
        Issuer: C=US, ST=California, L=Santa Clara, O=pkg5, CN=ta4/emailAddress=ta4
        Validity
            Not Before: Dec 15 15:37:28 2022 GMT
            Not After : Sep 10 15:37:28 2025 GMT
        Subject: C=US, ST=California, L=Santa Clara, O=pkg5, CN=ch1_ta4/emailAddress=ch1_ta4
        Subject Public Key Info:
            Public Key Algorithm: rsaEncryption
                Public-Key: (2048 bit)
                Modulus:
                    00:bc:1c:66:94:32:90:4c:e6:ff:79:f7:53:7f:4b:
                    5b:64:8f:2b:04:69:47:a5:36:71:0e:6e:1a:28:b6:
                    ce:6a:c4:f7:9d:17:34:06:1e:83:a7:26:33:9e:f4:
                    ab:17:fa:02:55:b5:16:ec:8e:d1:cf:39:ba:54:bd:
                    ba:73:f5:01:00:02:81:a1:09:f7:19:79:b6:e8:c2:
                    9b:d4:cd:70:8a:f9:b5:8a:91:92:d3:0c:4c:41:77:
                    a3:c0:52:ea:94:72:23:a9:c9:6d:ef:d9:05:cf:ed:
                    60:c5:09:2b:74:38:7f:27:fd:50:94:7f:a3:19:02:
                    dc:42:d0:7d:9e:30:6f:c8:ab:1f:b5:aa:53:78:b1:
                    13:88:51:df:65:1e:54:ba:cd:43:6e:51:6f:9c:e8:
                    f3:42:22:d9:aa:85:b8:a7:53:1d:95:4b:16:a1:3b:
                    ab:9e:39:17:76:32:fa:33:ab:80:4e:18:7d:8b:de:
                    18:7f:ad:29:22:35:c8:8b:d1:f4:fd:0c:e4:ef:6f:
                    22:31:a9:39:7a:4f:d2:d4:70:59:35:b8:fe:b7:90:
                    94:4e:0f:1d:a9:90:43:33:00:11:5b:8d:78:60:d1:
                    6c:0c:bd:9b:23:28:42:78:88:a0:52:a0:94:9c:a6:
                    5f:52:a7:1f:7b:51:d5:26:a3:02:6f:93:60:fa:8c:
                    2e:ab
                Exponent: 65537 (0x10001)
        X509v3 extensions:
            X509v3 Subject Key Identifier: 
                BC:89:23:C0:1A:53:7D:34:1E:E8:72:E2:9A:95:BE:39:0D:B5:6B:5D
            X509v3 Authority Key Identifier: 
                keyid:16:00:FB:AE:07:0A:2C:AE:C3:F8:0D:63:40:B3:F4:17:7E:A5:68:1C
                DirName:/C=US/ST=California/L=Santa Clara/O=pkg5/CN=ta4/emailAddress=ta4
                serial:70:54:33:33:9C:17:FD:93:68:F1:0A:EB:10:CD:3A:50:23:FD:B2:9B
            X509v3 Basic Constraints: critical
                CA:TRUE
            X509v3 Key Usage: critical
                Certificate Sign, CRL Sign
            X509v3 Subject Alternative Name: 
                email:ch1_ta4
    Signature Algorithm: sha256WithRSAEncryption
    Signature Value:
        06:5a:32:17:9e:56:d2:b1:1d:18:8c:7c:39:99:16:6f:d8:9a:
        5a:f8:2c:4c:ed:22:a6:9c:ab:ca:fc:91:60:b1:dd:4b:a4:b5:
        ac:ff:41:a9:cb:95:c0:b9:7b:6b:f3:e9:0e:2d:a1:79:79:91:
        ea:cf:af:da:0a:c4:7a:c2:8b:0c:b1:06:91:0e:67:51:b7:08:
        71:53:30:55:fa:57:da:5c:38:37:71:5b:ef:e6:9f:b5:8f:e9:
        68:d6:e0:80:a4:d8:f6:2b:6f:2f:d0:05:11:d8:da:c1:8b:f7:
        f8:29:2b:c9:de:82:0e:f2:7f:d4:85:0b:a6:ae:13:7b:1d:6c:
        d1:82:a6:f3:6b:4a:47:58:c2:93:86:48:bf:17:38:22:b9:2b:
        6d:19:c7:b2:53:e4:7a:1e:5d:b5:03:0f:08:48:41:6f:a0:01:
        fa:4f:11:c0:22:ce:85:70:bb:93:36:f6:38:53:e3:91:91:71:
        53:0b:92:48:a8:16:3f:c1:5d:ed:8d:f3:1f:74:62:1f:ff:5e:
        b3:62:26:05:96:af:af:c2:51:86:21:cf:5c:bc:af:48:ae:1c:
        0b:11:6b:b3:1e:00:1a:5f:3e:56:d7:96:aa:b9:f6:8c:26:58:
        51:56:d4:81:f2:57:62:fd:88:18:01:a0:49:73:26:e4:02:f9:
        08:1d:22:79
-----BEGIN CERTIFICATE-----
MIIEVzCCAz+gAwIBAgIBIzANBgkqhkiG9w0BAQsFADBpMQswCQYDVQQGEwJVUzET
MBEGA1UECAwKQ2FsaWZvcm5pYTEUMBIGA1UEBwwLU2FudGEgQ2xhcmExDTALBgNV
BAoMBHBrZzUxDDAKBgNVBAMMA3RhNDESMBAGCSqGSIb3DQEJARYDdGE0MB4XDTIy
MTIxNTE1MzcyOFoXDTI1MDkxMDE1MzcyOFowcTELMAkGA1UEBhMCVVMxEzARBgNV
BAgMCkNhbGlmb3JuaWExFDASBgNVBAcMC1NhbnRhIENsYXJhMQ0wCwYDVQQKDARw
a2c1MRAwDgYDVQQDDAdjaDFfdGE0MRYwFAYJKoZIhvcNAQkBFgdjaDFfdGE0MIIB
IjANBgkqhkiG9w0BAQEFAAOCAQ8AMIIBCgKCAQEAvBxmlDKQTOb/efdTf0tbZI8r
BGlHpTZxDm4aKLbOasT3nRc0Bh6DpyYznvSrF/oCVbUW7I7Rzzm6VL26c/UBAAKB
oQn3GXm26MKb1M1wivm1ipGS0wxMQXejwFLqlHIjqclt79kFz+1gxQkrdDh/J/1Q
lH+jGQLcQtB9njBvyKsftapTeLETiFHfZR5Uus1DblFvnOjzQiLZqoW4p1MdlUsW
oTurnjkXdjL6M6uAThh9i94Yf60pIjXIi9H0/Qzk728iMak5ek/S1HBZNbj+t5CU
Tg8dqZBDMwARW414YNFsDL2bIyhCeIigUqCUnKZfUqcfe1HVJqMCb5Ng+owuqwID
AQABo4IBADCB/TAdBgNVHQ4EFgQUvIkjwBpTfTQe6HLimpW+OQ21a10wgaYGA1Ud
IwSBnjCBm4AUFgD7rgcKLK7D+A1jQLP0F36laByhbaRrMGkxCzAJBgNVBAYTAlVT
MRMwEQYDVQQIDApDYWxpZm9ybmlhMRQwEgYDVQQHDAtTYW50YSBDbGFyYTENMAsG
A1UECgwEcGtnNTEMMAoGA1UEAwwDdGE0MRIwEAYJKoZIhvcNAQkBFgN0YTSCFHBU
MzOcF/2TaPEK6xDNOlAj/bKbMA8GA1UdEwEB/wQFMAMBAf8wDgYDVR0PAQH/BAQD
AgEGMBIGA1UdEQQLMAmBB2NoMV90YTQwDQYJKoZIhvcNAQELBQADggEBAAZaMhee
VtKxHRiMfDmZFm/Ymlr4LEztIqacq8r8kWCx3Uuktaz/QanLlcC5e2vz6Q4toXl5
kerPr9oKxHrCiwyxBpEOZ1G3CHFTMFX6V9pcODdxW+/mn7WP6WjW4ICk2PYrby/Q
BRHY2sGL9/gpK8negg7yf9SFC6auE3sdbNGCpvNrSkdYwpOGSL8XOCK5K20Zx7JT
5HoeXbUDDwhIQW+gAfpPEcAizoVwu5M29jhT45GRcVMLkkioFj/BXe2N8x90Yh//
XrNiJgWWr6/CUYYhz1y8r0iuHAsRa7MeABpfPlbXlqq59owmWFFW1IHyV2L9iBgB
oElzJuQC+QgdInk=
-----END CERTIFICATE-----
