Certificate:
    Data:
        Version: 3 (0x2)
        Serial Number: 38 (0x26)
    Signature Algorithm: sha256WithRSAEncryption
        Issuer: C=US, ST=California, L=Santa Clara, O=pkg5, CN=ta4/emailAddress=ta4
        Validity
            Not Before: Nov 28 22:50:57 2016 GMT
            Not After : Aug 25 22:50:57 2019 GMT
        Subject: C=US, ST=California, L=Santa Clara, O=pkg5, CN=ch1.1_ta4/emailAddress=ch1.1_ta4
        Subject Public Key Info:
            Public Key Algorithm: rsaEncryption
                Public-Key: (2048 bit)
                Modulus:
                    00:cb:f5:b5:8c:47:c7:d9:2b:ab:28:d7:28:bb:23:
                    64:7e:89:e5:69:49:a1:a5:a2:61:94:a1:ae:38:d5:
                    61:be:a2:fb:68:d1:0f:0b:3f:48:20:e0:20:cd:64:
                    cf:ea:01:78:16:c5:36:73:57:64:da:34:79:6d:ff:
                    ea:b6:78:7a:f2:3c:e2:13:b7:d8:e6:93:c4:7c:98:
                    9a:f1:1b:03:0d:f8:cd:e7:da:99:db:78:73:39:be:
                    75:e1:d6:ca:b7:f0:f6:e6:02:ff:14:cc:c7:0a:7d:
                    ed:59:54:e0:dc:05:be:e1:15:7c:f6:46:ef:cb:4c:
                    92:ee:d8:0a:04:d5:e3:42:56:53:06:44:32:d5:8e:
                    61:49:9d:2e:3c:ad:cf:62:93:3c:0d:94:ae:39:5c:
                    20:46:e4:7d:e8:a4:69:26:4d:be:9f:aa:36:b6:1e:
                    2a:75:30:2b:8c:b3:4d:1f:52:d4:1e:80:4e:95:aa:
                    14:7e:b3:52:dc:bb:67:5a:41:88:be:67:03:88:5e:
                    5e:aa:92:fa:7c:20:d3:01:45:0e:87:51:a7:af:0f:
                    75:5f:d9:05:53:fb:84:fa:b8:99:2c:86:60:0e:6a:
                    3f:d1:29:21:7f:fc:a7:2f:87:58:dc:10:8f:05:58:
                    3f:f4:92:ec:b2:8c:9e:67:e3:50:1c:77:59:a1:2f:
                    2a:73
                Exponent: 65537 (0x10001)
        X509v3 extensions:
            X509v3 Subject Key Identifier: 
                CB:40:C8:DC:B1:7C:71:8C:4B:89:F1:89:E4:12:92:96:39:B8:1E:4F
            X509v3 Authority Key Identifier: 
                keyid:62:C2:65:B3:DB:1A:71:0E:7C:1C:ED:A7:DF:75:3B:D8:DE:BB:4A:E7
                DirName:/C=US/ST=California/L=Santa Clara/O=pkg5/CN=ta4/emailAddress=ta4
                serial:B9:0A:8B:10:C0:23:41:3B

            X509v3 Basic Constraints: critical
                CA:TRUE
            X509v3 Key Usage: critical
                Certificate Sign
    Signature Algorithm: sha256WithRSAEncryption
         01:95:ff:be:8d:2d:20:98:72:7c:2e:cd:68:ab:3b:9d:3d:93:
         17:0d:44:cc:07:db:b4:4b:2c:f9:e9:9a:d6:f4:a4:4c:1f:a2:
         e9:e3:17:c4:13:ea:87:2d:57:03:7a:eb:3d:87:61:c7:e3:ef:
         d9:e4:91:2a:2e:8e:22:af:8c:0f:17:11:f8:0b:15:97:3e:3b:
         c1:61:ef:a2:41:9a:ff:11:54:48:45:da:c2:b1:72:b6:ba:18:
         a2:b2:1f:53:0b:81:af:7e:15:fa:ee:28:ca:2d:2e:e1:9e:ac:
         4e:a7:36:89:58:40:31:4c:b5:df:cb:e4:57:2a:35:bb:95:f8:
         59:f7:18:3b:be:25:24:71:2a:2d:4c:3d:38:65:cc:45:cf:6b:
         6b:52:e1:e3:50:b2:c7:d6:83:01:71:82:c2:ca:e1:89:a6:15:
         22:9e:80:6f:87:4a:db:4c:a0:20:53:a7:47:c9:75:42:9f:32:
         81:1c:57:a1:5d:51:aa:d3:28:ac:18:76:d7:f6:d0:4c:37:fd:
         fa:15:77:71:6f:8a:89:c5:ec:1c:24:dc:ed:36:4d:a8:6c:95:
         0e:4d:bb:04:1e:12:b1:71:60:14:d7:50:6d:8e:d0:e9:28:b5:
         34:31:34:ed:69:d3:31:0f:4a:97:a6:48:c6:af:07:fc:b1:71:
         15:05:5b:25
-----BEGIN CERTIFICATE-----
MIIEOzCCAyOgAwIBAgIBJjANBgkqhkiG9w0BAQsFADBpMQswCQYDVQQGEwJVUzET
MBEGA1UECAwKQ2FsaWZvcm5pYTEUMBIGA1UEBwwLU2FudGEgQ2xhcmExDTALBgNV
BAoMBHBrZzUxDDAKBgNVBAMMA3RhNDESMBAGCSqGSIb3DQEJARYDdGE0MB4XDTE2
MTEyODIyNTA1N1oXDTE5MDgyNTIyNTA1N1owdTELMAkGA1UEBhMCVVMxEzARBgNV
BAgMCkNhbGlmb3JuaWExFDASBgNVBAcMC1NhbnRhIENsYXJhMQ0wCwYDVQQKDARw
a2c1MRIwEAYDVQQDDAljaDEuMV90YTQxGDAWBgkqhkiG9w0BCQEWCWNoMS4xX3Rh
NDCCASIwDQYJKoZIhvcNAQEBBQADggEPADCCAQoCggEBAMv1tYxHx9krqyjXKLsj
ZH6J5WlJoaWiYZShrjjVYb6i+2jRDws/SCDgIM1kz+oBeBbFNnNXZNo0eW3/6rZ4
evI84hO32OaTxHyYmvEbAw34zefamdt4czm+deHWyrfw9uYC/xTMxwp97VlU4NwF
vuEVfPZG78tMku7YCgTV40JWUwZEMtWOYUmdLjytz2KTPA2UrjlcIEbkfeikaSZN
vp+qNrYeKnUwK4yzTR9S1B6ATpWqFH6zUty7Z1pBiL5nA4heXqqS+nwg0wFFDodR
p68PdV/ZBVP7hPq4mSyGYA5qP9EpIX/8py+HWNwQjwVYP/SS7LKMnmfjUBx3WaEv
KnMCAwEAAaOB4TCB3jAdBgNVHQ4EFgQUy0DI3LF8cYxLifGJ5BKSljm4Hk8wgZsG
A1UdIwSBkzCBkIAUYsJls9sacQ58HO2n33U72N67SuehbaRrMGkxCzAJBgNVBAYT
AlVTMRMwEQYDVQQIDApDYWxpZm9ybmlhMRQwEgYDVQQHDAtTYW50YSBDbGFyYTEN
MAsGA1UECgwEcGtnNTEMMAoGA1UEAwwDdGE0MRIwEAYJKoZIhvcNAQkBFgN0YTSC
CQC5CosQwCNBOzAPBgNVHRMBAf8EBTADAQH/MA4GA1UdDwEB/wQEAwICBDANBgkq
hkiG9w0BAQsFAAOCAQEAAZX/vo0tIJhyfC7NaKs7nT2TFw1EzAfbtEss+ema1vSk
TB+i6eMXxBPqhy1XA3rrPYdhx+Pv2eSRKi6OIq+MDxcR+AsVlz47wWHvokGa/xFU
SEXawrFytroYorIfUwuBr34V+u4oyi0u4Z6sTqc2iVhAMUy138vkVyo1u5X4WfcY
O74lJHEqLUw9OGXMRc9ra1Lh41Cyx9aDAXGCwsrhiaYVIp6Ab4dK20ygIFOnR8l1
Qp8ygRxXoV1RqtMorBh21/bQTDf9+hV3cW+KicXsHCTc7TZNqGyVDk27BB4SsXFg
FNdQbY7Q6Si1NDE07WnTMQ9Kl6ZIxq8H/LFxFQVbJQ==
-----END CERTIFICATE-----
