Certificate:
    Data:
        Version: 3 (0x2)
        Serial Number: 39 (0x27)
        Signature Algorithm: sha256WithRSAEncryption
        Issuer: C=US, ST=California, L=Santa Clara, O=pkg5, CN=ta4/emailAddress=ta4
        Validity
            Not Before: Dec 15 15:37:30 2022 GMT
            Not After : Sep 10 15:37:30 2025 GMT
        Subject: C=US, ST=California, L=Santa Clara, O=pkg5, CN=ch1.1_ta4/emailAddress=ch1.1_ta4
        Subject Public Key Info:
            Public Key Algorithm: rsaEncryption
                Public-Key: (2048 bit)
                Modulus:
                    00:b5:ec:41:b7:32:5a:92:3a:ad:0a:88:7c:0e:ed:
                    ca:91:10:18:a9:25:88:15:07:82:d3:35:a9:89:0e:
                    70:18:f0:64:38:3b:e8:3b:0b:43:a8:f0:84:e0:ae:
                    e5:fb:f6:b3:c6:db:f4:fc:64:9e:54:07:8f:6f:c3:
                    5e:c9:20:6c:73:a6:46:80:3e:6e:8c:0e:ea:91:c4:
                    c7:44:e3:d3:c5:c4:05:50:6d:de:dc:6c:1c:6e:d1:
                    e5:13:04:3b:49:cd:2b:8d:6d:97:b0:9f:ae:5c:90:
                    37:c3:2c:2a:dc:51:36:89:9f:ef:57:d2:d0:14:e7:
                    50:b1:c9:fb:43:34:5b:4a:b7:75:91:99:57:66:42:
                    89:e8:5d:d9:c1:39:23:67:fe:1f:ff:0d:d1:87:e2:
                    20:52:d8:31:d8:b4:4a:53:64:12:8b:09:a5:22:9c:
                    6e:f7:c3:05:ac:a6:f7:27:8e:fe:15:bc:c4:e0:f0:
                    59:74:cc:ad:b6:63:b3:2c:43:1f:ca:aa:6e:6b:57:
                    7b:75:d5:17:8b:cf:1a:c6:aa:41:e3:03:19:54:38:
                    50:f6:e5:a0:74:bc:a1:22:ed:89:b2:bf:a2:aa:f3:
                    ba:af:6a:b5:cb:f3:00:c2:60:a9:1e:bc:63:a3:41:
                    6a:9a:ac:b1:2f:b2:ae:a4:a1:62:5d:19:08:19:bf:
                    73:4b
                Exponent: 65537 (0x10001)
        X509v3 extensions:
            X509v3 Subject Key Identifier: 
                C4:70:47:CE:4A:1D:A6:BF:EA:C4:07:6A:7A:C3:89:A4:F6:10:DD:23
            X509v3 Authority Key Identifier: 
                keyid:16:00:FB:AE:07:0A:2C:AE:C3:F8:0D:63:40:B3:F4:17:7E:A5:68:1C
                DirName:/C=US/ST=California/L=Santa Clara/O=pkg5/CN=ta4/emailAddress=ta4
                serial:70:54:33:33:9C:17:FD:93:68:F1:0A:EB:10:CD:3A:50:23:FD:B2:9B
            X509v3 Basic Constraints: critical
                CA:TRUE
            X509v3 Key Usage: critical
                Certificate Sign
    Signature Algorithm: sha256WithRSAEncryption
    Signature Value:
        30:a4:6d:02:de:ab:43:10:c5:35:fc:f3:7a:ff:fc:36:4f:2d:
        d8:f4:b5:b7:cb:18:f5:c1:6a:5e:50:3e:f6:c8:b4:be:d5:83:
        53:18:81:48:0d:97:eb:9d:89:6c:ad:a6:ce:95:ab:e5:14:e9:
        f1:08:86:68:e4:22:0c:04:a4:e2:6e:02:24:25:00:14:21:9f:
        be:3c:d6:92:dd:4b:27:60:dd:fd:cc:c8:42:1d:81:39:a7:b8:
        22:5c:b2:7e:f2:40:db:8d:5a:ad:fd:8e:48:fd:2d:08:fa:cc:
        eb:8d:a2:df:bb:d2:94:8e:64:91:1d:6b:09:84:81:16:9a:a2:
        19:14:57:f4:8b:65:29:1f:ce:d1:df:05:e3:6c:41:57:78:49:
        4d:fb:c8:ae:a7:ec:fd:15:96:6b:07:5e:f1:4a:19:25:1c:15:
        5f:92:c2:36:7d:8e:37:ba:2f:89:40:dd:bf:f3:41:4c:06:fd:
        f1:90:54:8a:76:6b:e8:fa:70:93:89:71:37:5e:2f:f0:27:ae:
        30:e5:4f:d3:74:71:67:ce:0a:e4:4c:8c:4b:89:ee:32:fe:66:
        33:92:4d:ea:d7:32:18:1c:21:85:ed:77:b6:66:67:20:c9:8c:
        2d:bb:b7:4e:ee:26:9f:9a:e3:01:29:b4:47:cf:9d:97:28:f5:
        84:54:f7:a7
-----BEGIN CERTIFICATE-----
MIIERjCCAy6gAwIBAgIBJzANBgkqhkiG9w0BAQsFADBpMQswCQYDVQQGEwJVUzET
MBEGA1UECAwKQ2FsaWZvcm5pYTEUMBIGA1UEBwwLU2FudGEgQ2xhcmExDTALBgNV
BAoMBHBrZzUxDDAKBgNVBAMMA3RhNDESMBAGCSqGSIb3DQEJARYDdGE0MB4XDTIy
MTIxNTE1MzczMFoXDTI1MDkxMDE1MzczMFowdTELMAkGA1UEBhMCVVMxEzARBgNV
BAgMCkNhbGlmb3JuaWExFDASBgNVBAcMC1NhbnRhIENsYXJhMQ0wCwYDVQQKDARw
a2c1MRIwEAYDVQQDDAljaDEuMV90YTQxGDAWBgkqhkiG9w0BCQEWCWNoMS4xX3Rh
NDCCASIwDQYJKoZIhvcNAQEBBQADggEPADCCAQoCggEBALXsQbcyWpI6rQqIfA7t
ypEQGKkliBUHgtM1qYkOcBjwZDg76DsLQ6jwhOCu5fv2s8bb9PxknlQHj2/DXskg
bHOmRoA+bowO6pHEx0Tj08XEBVBt3txsHG7R5RMEO0nNK41tl7CfrlyQN8MsKtxR
Nomf71fS0BTnULHJ+0M0W0q3dZGZV2ZCiehd2cE5I2f+H/8N0YfiIFLYMdi0SlNk
EosJpSKcbvfDBaym9yeO/hW8xODwWXTMrbZjsyxDH8qqbmtXe3XVF4vPGsaqQeMD
GVQ4UPbloHS8oSLtibK/oqrzuq9qtcvzAMJgqR68Y6NBapqssS+yrqShYl0ZCBm/
c0sCAwEAAaOB7DCB6TAdBgNVHQ4EFgQUxHBHzkodpr/qxAdqesOJpPYQ3SMwgaYG
A1UdIwSBnjCBm4AUFgD7rgcKLK7D+A1jQLP0F36laByhbaRrMGkxCzAJBgNVBAYT
AlVTMRMwEQYDVQQIDApDYWxpZm9ybmlhMRQwEgYDVQQHDAtTYW50YSBDbGFyYTEN
MAsGA1UECgwEcGtnNTEMMAoGA1UEAwwDdGE0MRIwEAYJKoZIhvcNAQkBFgN0YTSC
FHBUMzOcF/2TaPEK6xDNOlAj/bKbMA8GA1UdEwEB/wQFMAMBAf8wDgYDVR0PAQH/
BAQDAgIEMA0GCSqGSIb3DQEBCwUAA4IBAQAwpG0C3qtDEMU1/PN6//w2Ty3Y9LW3
yxj1wWpeUD72yLS+1YNTGIFIDZfrnYlsrabOlavlFOnxCIZo5CIMBKTibgIkJQAU
IZ++PNaS3UsnYN39zMhCHYE5p7giXLJ+8kDbjVqt/Y5I/S0I+szrjaLfu9KUjmSR
HWsJhIEWmqIZFFf0i2UpH87R3wXjbEFXeElN+8iup+z9FZZrB17xShklHBVfksI2
fY43ui+JQN2/80FMBv3xkFSKdmvo+nCTiXE3Xi/wJ64w5U/TdHFnzgrkTIxLie4y
/mYzkk3q1zIYHCGF7Xe2ZmcgyYwtu7dO7iafmuMBKbRHz52XKPWEVPen
-----END CERTIFICATE-----
