Certificate:
    Data:
        Version: 3 (0x2)
        Serial Number: 39 (0x27)
        Signature Algorithm: sha256WithRSAEncryption
        Issuer: C=US, ST=California, L=Santa Clara, O=pkg5, CN=ta4/emailAddress=ta4
        Validity
            Not Before: Nov 14 14:26:57 2024 GMT
            Not After : Aug 11 14:26:57 2027 GMT
        Subject: C=US, ST=California, L=Santa Clara, O=pkg5, CN=ch1.1_ta4/emailAddress=ch1.1_ta4
        Subject Public Key Info:
            Public Key Algorithm: rsaEncryption
                Public-Key: (2048 bit)
                Modulus:
                    00:a1:9c:bc:ca:82:d1:92:c7:36:82:ac:a2:8f:e8:
                    25:95:7e:ad:66:4f:44:21:85:52:d5:5a:13:fb:6b:
                    65:01:2c:11:12:a2:1a:09:c4:be:cf:c1:9a:41:7f:
                    89:8f:67:42:93:47:ca:1f:d0:2f:0f:c1:27:59:4c:
                    c6:df:62:98:ea:81:c9:80:ce:5b:8c:29:29:40:5b:
                    c2:89:85:a9:f0:a7:4d:5b:e5:34:5d:5b:f8:5d:e2:
                    fb:40:f4:62:e0:58:b1:04:93:9f:37:c7:9b:e8:fe:
                    19:c4:8a:f7:cb:e4:2e:16:5e:68:ac:d7:10:b5:6a:
                    2b:06:c1:8b:cf:01:b3:c5:73:7b:97:5d:18:92:a8:
                    fa:6d:e7:74:80:d9:fd:ee:de:1b:05:16:2f:ad:ca:
                    ef:89:b2:5d:bf:c8:2a:b2:c2:56:a4:0d:0b:af:42:
                    39:bc:ce:02:8a:21:fd:28:36:ec:fb:54:d3:79:30:
                    69:c0:26:ee:0a:23:dc:94:5a:42:52:5e:12:fd:95:
                    6f:c2:b2:f6:dc:68:0a:cd:f2:43:30:23:bc:15:36:
                    0d:c4:c7:00:dd:d9:3b:5d:51:12:07:db:7d:31:6c:
                    bb:61:9b:a8:d5:ef:45:b8:a2:4f:2f:1d:9b:0c:ab:
                    ff:b4:c8:02:22:18:87:f8:cf:f6:6c:2a:db:95:3f:
                    f1:ef
                Exponent: 65537 (0x10001)
        X509v3 extensions:
            X509v3 Subject Key Identifier: 
                9C:6A:92:88:D2:3D:C5:81:5C:DB:5E:83:7D:A5:9C:55:A4:28:7F:92
            X509v3 Authority Key Identifier: 
                keyid:F4:6E:A2:D5:FD:51:88:20:D0:67:6D:7F:36:87:90:6B:61:F9:81:4A
                DirName:/C=US/ST=California/L=Santa Clara/O=pkg5/CN=ta4/emailAddress=ta4
                serial:7F:89:ED:44:12:3E:5D:7C:CE:36:D4:35:A7:64:D7:1A:90:64:6C:5A
            X509v3 Basic Constraints: critical
                CA:TRUE
            X509v3 Key Usage: critical
                Certificate Sign
    Signature Algorithm: sha256WithRSAEncryption
    Signature Value:
        20:b7:89:85:49:4f:5e:9c:1a:f8:36:a1:bb:c4:0d:5b:c6:5f:
        58:e0:eb:71:e4:fc:14:e8:0d:b5:a5:be:a4:81:a1:89:98:90:
        5d:0c:fb:a2:94:dd:53:94:7e:06:2c:52:db:6a:6d:2e:00:1e:
        6d:9a:37:ec:f3:3f:87:60:ce:ac:d0:90:66:d7:c7:ab:f4:b7:
        0d:82:d8:85:cc:ef:bd:3c:92:06:d6:c7:13:a1:45:69:d6:4e:
        57:75:fa:19:b6:8a:da:02:d5:9f:fa:75:79:fe:a8:b9:87:47:
        d5:71:93:c1:1a:ee:09:fe:bb:a1:ba:f1:78:ec:e0:a7:07:eb:
        ac:8b:27:79:09:72:e8:d8:52:89:f5:ac:55:72:19:e0:28:64:
        ba:50:cc:87:48:dc:54:b0:16:5f:2d:34:d2:a3:2b:18:2a:0c:
        d6:51:e7:13:30:fb:c4:66:a5:64:d6:5a:ab:76:94:f3:33:50:
        71:27:b8:44:2f:73:ca:34:bb:a9:98:f1:49:f6:4f:ae:2a:4b:
        b1:8c:84:72:e0:19:0a:93:f4:4b:6b:28:be:64:78:6f:e2:ba:
        a4:58:dc:d1:24:12:db:c5:86:17:77:f4:cb:3f:fd:6e:cd:41:
        f9:33:90:aa:58:e1:5e:f3:7f:a1:ef:02:b0:e0:5d:b1:65:1e:
        e1:36:49:25
-----BEGIN CERTIFICATE-----
MIIERjCCAy6gAwIBAgIBJzANBgkqhkiG9w0BAQsFADBpMQswCQYDVQQGEwJVUzET
MBEGA1UECAwKQ2FsaWZvcm5pYTEUMBIGA1UEBwwLU2FudGEgQ2xhcmExDTALBgNV
BAoMBHBrZzUxDDAKBgNVBAMMA3RhNDESMBAGCSqGSIb3DQEJARYDdGE0MB4XDTI0
MTExNDE0MjY1N1oXDTI3MDgxMTE0MjY1N1owdTELMAkGA1UEBhMCVVMxEzARBgNV
BAgMCkNhbGlmb3JuaWExFDASBgNVBAcMC1NhbnRhIENsYXJhMQ0wCwYDVQQKDARw
a2c1MRIwEAYDVQQDDAljaDEuMV90YTQxGDAWBgkqhkiG9w0BCQEWCWNoMS4xX3Rh
NDCCASIwDQYJKoZIhvcNAQEBBQADggEPADCCAQoCggEBAKGcvMqC0ZLHNoKsoo/o
JZV+rWZPRCGFUtVaE/trZQEsERKiGgnEvs/BmkF/iY9nQpNHyh/QLw/BJ1lMxt9i
mOqByYDOW4wpKUBbwomFqfCnTVvlNF1b+F3i+0D0YuBYsQSTnzfHm+j+GcSK98vk
LhZeaKzXELVqKwbBi88Bs8Vze5ddGJKo+m3ndIDZ/e7eGwUWL63K74myXb/IKrLC
VqQNC69CObzOAooh/Sg27PtU03kwacAm7goj3JRaQlJeEv2Vb8Ky9txoCs3yQzAj
vBU2DcTHAN3ZO11REgfbfTFsu2GbqNXvRbiiTy8dmwyr/7TIAiIYh/jP9mwq25U/
8e8CAwEAAaOB7DCB6TAdBgNVHQ4EFgQUnGqSiNI9xYFc216DfaWcVaQof5IwgaYG
A1UdIwSBnjCBm4AU9G6i1f1RiCDQZ21/NoeQa2H5gUqhbaRrMGkxCzAJBgNVBAYT
AlVTMRMwEQYDVQQIDApDYWxpZm9ybmlhMRQwEgYDVQQHDAtTYW50YSBDbGFyYTEN
MAsGA1UECgwEcGtnNTEMMAoGA1UEAwwDdGE0MRIwEAYJKoZIhvcNAQkBFgN0YTSC
FH+J7UQSPl18zjbUNadk1xqQZGxaMA8GA1UdEwEB/wQFMAMBAf8wDgYDVR0PAQH/
BAQDAgIEMA0GCSqGSIb3DQEBCwUAA4IBAQAgt4mFSU9enBr4NqG7xA1bxl9Y4Otx
5PwU6A21pb6kgaGJmJBdDPuilN1TlH4GLFLbam0uAB5tmjfs8z+HYM6s0JBm18er
9LcNgtiFzO+9PJIG1scToUVp1k5XdfoZtoraAtWf+nV5/qi5h0fVcZPBGu4J/ruh
uvF47OCnB+usiyd5CXLo2FKJ9axVchngKGS6UMyHSNxUsBZfLTTSoysYKgzWUecT
MPvEZqVk1lqrdpTzM1BxJ7hEL3PKNLupmPFJ9k+uKkuxjIRy4BkKk/RLayi+ZHhv
4rqkWNzRJBLbxYYXd/TLP/1uzUH5M5CqWOFe83+h7wKw4F2xZR7hNkkl
-----END CERTIFICATE-----
