Certificate:
    Data:
        Version: 3 (0x2)
        Serial Number: 39 (0x27)
        Signature Algorithm: sha256WithRSAEncryption
        Issuer: C=US, ST=California, L=Santa Clara, O=pkg5, CN=ta4/emailAddress=ta4
        Validity
            Not Before: May 23 15:47:21 2024 GMT
            Not After : Feb 17 15:47:21 2027 GMT
        Subject: C=US, ST=California, L=Santa Clara, O=pkg5, CN=ch1.1_ta4/emailAddress=ch1.1_ta4
        Subject Public Key Info:
            Public Key Algorithm: rsaEncryption
                Public-Key: (2048 bit)
                Modulus:
                    00:b7:e7:64:9f:25:92:59:cc:3e:59:65:ca:62:4f:
                    00:d2:f2:41:0c:c1:22:f5:70:0e:c1:39:da:f5:c5:
                    99:46:dc:b7:87:3e:14:03:27:ed:91:a5:5a:d0:14:
                    6b:2d:9c:58:ce:ba:6a:ab:46:0a:df:39:3f:9b:5e:
                    07:1a:58:b7:fa:f3:de:3b:1b:1f:1a:31:7e:1e:27:
                    75:40:44:ac:bd:1f:f9:a2:47:45:56:21:b0:33:34:
                    51:1e:4d:db:6f:39:bf:14:e6:c9:5f:ad:e5:15:6e:
                    b6:6f:47:38:77:40:70:45:36:cf:95:80:fe:ca:4e:
                    d4:97:94:21:cb:46:b7:cc:f8:3a:47:62:f1:75:89:
                    8f:87:85:fb:07:29:95:08:8a:66:ef:ab:a5:92:a0:
                    14:8e:e7:7f:52:d3:d8:c7:2b:3d:bd:f3:02:0a:3f:
                    6a:7d:d8:02:75:ed:34:57:49:bd:c0:c2:25:04:a5:
                    fb:16:00:fd:bd:dd:b1:63:2c:c5:39:f3:da:6d:30:
                    0e:46:98:2f:24:72:2a:38:0e:71:81:d3:e4:88:9b:
                    a3:70:74:5a:31:ff:c7:37:81:c5:6c:d0:b8:c2:cb:
                    36:51:0c:a4:4c:d8:39:46:fa:47:ea:bf:19:a2:d6:
                    41:7d:ba:b7:51:36:b1:d8:c9:4f:97:bc:cd:61:b2:
                    26:7d
                Exponent: 65537 (0x10001)
        X509v3 extensions:
            X509v3 Subject Key Identifier: 
                96:C2:BB:09:84:4D:5D:B4:EA:39:D7:79:44:0D:6C:32:4A:53:FC:E9
            X509v3 Authority Key Identifier: 
                keyid:97:23:60:F3:63:83:D7:5A:DE:23:0B:96:76:BD:BA:76:B2:76:E1:E6
                DirName:/C=US/ST=California/L=Santa Clara/O=pkg5/CN=ta4/emailAddress=ta4
                serial:67:38:F1:E4:A8:B4:58:F1:E9:B2:52:25:74:52:60:2D:AB:73:97:0C
            X509v3 Basic Constraints: critical
                CA:TRUE
            X509v3 Key Usage: critical
                Certificate Sign
    Signature Algorithm: sha256WithRSAEncryption
    Signature Value:
        3d:fa:40:f3:b9:7e:68:84:9d:81:a1:f7:31:7c:be:10:64:49:
        fb:3c:4d:f7:77:5d:51:4b:a8:4d:25:ea:27:38:f0:4c:80:cb:
        6a:60:24:3f:e8:a2:cf:62:bd:b0:c1:ab:0d:59:ba:18:af:2e:
        8f:6f:88:ad:6b:df:6b:b1:fe:99:6d:36:89:93:9a:0a:a1:29:
        6a:57:3d:55:e5:de:fb:39:95:74:05:d5:b0:14:df:96:e8:c9:
        07:f8:6f:cd:52:d6:6f:08:61:67:1f:10:fc:1d:9e:76:ac:f9:
        ab:d7:2e:e8:7c:f1:1f:99:dd:bb:82:76:d6:d1:06:81:be:f5:
        9b:57:84:7f:39:0f:76:ba:13:6a:ac:51:1e:2a:10:89:1f:9a:
        df:e2:e9:e6:1d:f6:2a:5d:cd:f6:2f:06:83:03:7f:f3:0e:19:
        23:00:8d:00:46:d4:74:43:d1:42:de:ad:92:a6:27:d9:e8:0c:
        c4:c6:bc:02:d6:86:80:e5:2e:2a:95:da:15:0e:2d:98:f5:ee:
        2e:f3:1b:41:2f:69:15:0e:4d:4f:f7:5c:1f:50:f8:0d:eb:49:
        9b:0b:1a:ed:82:06:d1:51:97:0d:61:f2:ca:65:33:55:c0:d2:
        e0:0f:82:7f:4a:56:e7:34:20:b4:ee:07:e1:09:cd:2b:56:e3:
        a1:4a:43:91
-----BEGIN CERTIFICATE-----
MIIERjCCAy6gAwIBAgIBJzANBgkqhkiG9w0BAQsFADBpMQswCQYDVQQGEwJVUzET
MBEGA1UECAwKQ2FsaWZvcm5pYTEUMBIGA1UEBwwLU2FudGEgQ2xhcmExDTALBgNV
BAoMBHBrZzUxDDAKBgNVBAMMA3RhNDESMBAGCSqGSIb3DQEJARYDdGE0MB4XDTI0
MDUyMzE1NDcyMVoXDTI3MDIxNzE1NDcyMVowdTELMAkGA1UEBhMCVVMxEzARBgNV
BAgMCkNhbGlmb3JuaWExFDASBgNVBAcMC1NhbnRhIENsYXJhMQ0wCwYDVQQKDARw
a2c1MRIwEAYDVQQDDAljaDEuMV90YTQxGDAWBgkqhkiG9w0BCQEWCWNoMS4xX3Rh
NDCCASIwDQYJKoZIhvcNAQEBBQADggEPADCCAQoCggEBALfnZJ8lklnMPlllymJP
ANLyQQzBIvVwDsE52vXFmUbct4c+FAMn7ZGlWtAUay2cWM66aqtGCt85P5teBxpY
t/rz3jsbHxoxfh4ndUBErL0f+aJHRVYhsDM0UR5N2285vxTmyV+t5RVutm9HOHdA
cEU2z5WA/spO1JeUIctGt8z4Okdi8XWJj4eF+wcplQiKZu+rpZKgFI7nf1LT2Mcr
Pb3zAgo/an3YAnXtNFdJvcDCJQSl+xYA/b3dsWMsxTnz2m0wDkaYLyRyKjgOcYHT
5Iibo3B0WjH/xzeBxWzQuMLLNlEMpEzYOUb6R+q/GaLWQX26t1E2sdjJT5e8zWGy
Jn0CAwEAAaOB7DCB6TAdBgNVHQ4EFgQUlsK7CYRNXbTqOdd5RA1sMkpT/OkwgaYG
A1UdIwSBnjCBm4AUlyNg82OD11reIwuWdr26drJ24eahbaRrMGkxCzAJBgNVBAYT
AlVTMRMwEQYDVQQIDApDYWxpZm9ybmlhMRQwEgYDVQQHDAtTYW50YSBDbGFyYTEN
MAsGA1UECgwEcGtnNTEMMAoGA1UEAwwDdGE0MRIwEAYJKoZIhvcNAQkBFgN0YTSC
FGc48eSotFjx6bJSJXRSYC2rc5cMMA8GA1UdEwEB/wQFMAMBAf8wDgYDVR0PAQH/
BAQDAgIEMA0GCSqGSIb3DQEBCwUAA4IBAQA9+kDzuX5ohJ2BofcxfL4QZEn7PE33
d11RS6hNJeonOPBMgMtqYCQ/6KLPYr2wwasNWboYry6Pb4ita99rsf6ZbTaJk5oK
oSlqVz1V5d77OZV0BdWwFN+W6MkH+G/NUtZvCGFnHxD8HZ52rPmr1y7ofPEfmd27
gnbW0QaBvvWbV4R/OQ92uhNqrFEeKhCJH5rf4unmHfYqXc32LwaDA3/zDhkjAI0A
RtR0Q9FC3q2SpifZ6AzExrwC1oaA5S4qldoVDi2Y9e4u8xtBL2kVDk1P91wfUPgN
60mbCxrtggbRUZcNYfLKZTNVwNLgD4J/SlbnNCC07gfhCc0rVuOhSkOR
-----END CERTIFICATE-----
