Certificate:
    Data:
        Version: 3 (0x2)
        Serial Number: 39 (0x27)
    Signature Algorithm: sha256WithRSAEncryption
        Issuer: C=US, ST=California, L=Santa Clara, O=pkg5, CN=ta4/emailAddress=ta4
        Validity
            Not Before: Nov 16 10:58:50 2017 GMT
            Not After : Aug 12 10:58:50 2020 GMT
        Subject: C=US, ST=California, L=Santa Clara, O=pkg5, CN=ch1.1_ta4/emailAddress=ch1.1_ta4
        Subject Public Key Info:
            Public Key Algorithm: rsaEncryption
                Public-Key: (2048 bit)
                Modulus:
                    00:d5:63:65:f6:01:de:b0:9f:a2:03:89:29:1b:68:
                    ae:df:1f:05:00:7a:1b:08:0f:61:ec:f4:24:9f:4b:
                    67:33:44:73:03:89:fa:86:d9:04:c0:a2:bb:3e:61:
                    24:62:f6:cd:51:18:a1:d9:98:8f:09:d5:38:70:ea:
                    d1:35:f1:f7:b6:fc:7a:88:cd:83:af:9f:22:48:bf:
                    ed:ba:11:86:ca:90:1e:3c:5c:72:22:de:ad:18:49:
                    52:34:2b:f3:1d:79:74:26:3e:2f:0a:67:1a:fb:23:
                    94:30:78:48:56:7b:2f:26:20:ed:04:d8:b8:c6:fa:
                    63:c3:1c:f2:7b:b9:1e:af:30:90:6a:05:95:31:91:
                    eb:87:06:4c:d3:13:07:78:9d:6b:c4:f2:4e:22:93:
                    57:7c:f4:ee:14:73:e4:76:60:ba:70:ad:af:6d:8f:
                    1f:b3:1e:19:cd:c3:f5:8c:b4:c4:7a:a9:ea:ea:4f:
                    f4:09:e3:ac:5a:a9:99:54:ec:fc:cd:b0:71:b5:ce:
                    57:e7:6d:c5:f5:8f:74:7f:8a:54:17:d4:98:1e:be:
                    99:c4:b4:97:f3:f0:78:98:6a:ab:64:06:9d:45:70:
                    9d:51:4c:96:41:46:4e:07:48:d8:1a:b6:40:85:57:
                    a4:08:d9:6b:a9:13:04:f2:df:2a:c7:7b:58:db:12:
                    6b:a7
                Exponent: 65537 (0x10001)
        X509v3 extensions:
            X509v3 Subject Key Identifier: 
                FD:C0:8A:DD:1C:66:34:D5:1D:55:9B:81:B0:80:FA:C0:6C:EC:15:A3
            X509v3 Authority Key Identifier: 
                keyid:D1:96:CC:4B:91:5F:66:A0:A7:59:31:2D:53:29:3D:18:7D:B8:AA:5F
                DirName:/C=US/ST=California/L=Santa Clara/O=pkg5/CN=ta4/emailAddress=ta4
                serial:BC:78:EB:56:19:C9:55:A2

            X509v3 Basic Constraints: critical
                CA:TRUE
            X509v3 Key Usage: critical
                Certificate Sign
    Signature Algorithm: sha256WithRSAEncryption
         50:94:43:ec:2c:d9:b9:67:00:64:b2:ce:55:97:b6:68:96:7b:
         87:f4:45:40:02:3b:e9:a3:2d:ec:35:ef:44:8c:00:67:19:fe:
         8a:37:e6:5b:33:02:42:f7:95:c9:10:ec:5e:65:f1:5a:95:64:
         ed:3e:27:06:29:5d:4c:f2:3e:7a:a2:12:f7:0b:7c:3e:c2:12:
         36:ba:aa:50:8a:47:13:45:16:c6:c4:0a:5c:41:31:62:1d:fc:
         21:99:2a:8f:34:5f:96:c9:c0:a0:bf:f2:5c:47:09:69:02:84:
         60:cd:85:ea:4c:f2:af:52:e8:2a:03:41:08:fe:9e:41:6a:0e:
         ca:c1:c6:fe:a4:07:6d:50:13:f5:e4:20:0e:b2:ad:c7:c9:99:
         02:d3:81:84:1a:aa:e0:17:0c:cd:c2:3a:ba:2c:2d:e6:d3:97:
         aa:b0:20:75:33:23:3b:96:af:f5:64:33:a9:b5:7c:e6:96:59:
         bf:d6:7a:dd:ef:6a:27:2c:b1:a2:77:8f:a1:a4:68:e2:47:7b:
         45:47:60:6c:bc:2b:36:d8:4a:7d:16:bb:d0:be:d3:0a:ec:12:
         74:d0:81:6d:80:06:89:81:85:a3:f0:76:bf:a6:95:ba:2f:1c:
         b8:b3:4b:82:0c:9d:12:20:e0:1e:57:c9:55:f5:b4:46:87:03:
         c7:0e:ed:80
-----BEGIN CERTIFICATE-----
MIIEOzCCAyOgAwIBAgIBJzANBgkqhkiG9w0BAQsFADBpMQswCQYDVQQGEwJVUzET
MBEGA1UECAwKQ2FsaWZvcm5pYTEUMBIGA1UEBwwLU2FudGEgQ2xhcmExDTALBgNV
BAoMBHBrZzUxDDAKBgNVBAMMA3RhNDESMBAGCSqGSIb3DQEJARYDdGE0MB4XDTE3
MTExNjEwNTg1MFoXDTIwMDgxMjEwNTg1MFowdTELMAkGA1UEBhMCVVMxEzARBgNV
BAgMCkNhbGlmb3JuaWExFDASBgNVBAcMC1NhbnRhIENsYXJhMQ0wCwYDVQQKDARw
a2c1MRIwEAYDVQQDDAljaDEuMV90YTQxGDAWBgkqhkiG9w0BCQEWCWNoMS4xX3Rh
NDCCASIwDQYJKoZIhvcNAQEBBQADggEPADCCAQoCggEBANVjZfYB3rCfogOJKRto
rt8fBQB6GwgPYez0JJ9LZzNEcwOJ+obZBMCiuz5hJGL2zVEYodmYjwnVOHDq0TXx
97b8eojNg6+fIki/7boRhsqQHjxcciLerRhJUjQr8x15dCY+LwpnGvsjlDB4SFZ7
LyYg7QTYuMb6Y8Mc8nu5Hq8wkGoFlTGR64cGTNMTB3ida8TyTiKTV3z07hRz5HZg
unCtr22PH7MeGc3D9Yy0xHqp6upP9AnjrFqpmVTs/M2wcbXOV+dtxfWPdH+KVBfU
mB6+mcS0l/PweJhqq2QGnUVwnVFMlkFGTgdI2Bq2QIVXpAjZa6kTBPLfKsd7WNsS
a6cCAwEAAaOB4TCB3jAdBgNVHQ4EFgQU/cCK3RxmNNUdVZuBsID6wGzsFaMwgZsG
A1UdIwSBkzCBkIAU0ZbMS5FfZqCnWTEtUyk9GH24ql+hbaRrMGkxCzAJBgNVBAYT
AlVTMRMwEQYDVQQIDApDYWxpZm9ybmlhMRQwEgYDVQQHDAtTYW50YSBDbGFyYTEN
MAsGA1UECgwEcGtnNTEMMAoGA1UEAwwDdGE0MRIwEAYJKoZIhvcNAQkBFgN0YTSC
CQC8eOtWGclVojAPBgNVHRMBAf8EBTADAQH/MA4GA1UdDwEB/wQEAwICBDANBgkq
hkiG9w0BAQsFAAOCAQEAUJRD7CzZuWcAZLLOVZe2aJZ7h/RFQAI76aMt7DXvRIwA
Zxn+ijfmWzMCQveVyRDsXmXxWpVk7T4nBildTPI+eqIS9wt8PsISNrqqUIpHE0UW
xsQKXEExYh38IZkqjzRflsnAoL/yXEcJaQKEYM2F6kzyr1LoKgNBCP6eQWoOysHG
/qQHbVAT9eQgDrKtx8mZAtOBhBqq4BcMzcI6uiwt5tOXqrAgdTMjO5av9WQzqbV8
5pZZv9Z63e9qJyyxonePoaRo4kd7RUdgbLwrNthKfRa70L7TCuwSdNCBbYAGiYGF
o/B2v6aVui8cuLNLggydEiDgHlfJVfW0RocDxw7tgA==
-----END CERTIFICATE-----
