Certificate:
    Data:
        Version: 3 (0x2)
        Serial Number: 41 (0x29)
    Signature Algorithm: sha256WithRSAEncryption
        Issuer: C=US, ST=California, L=Santa Clara, O=pkg5, CN=ta5/emailAddress=ta5
        Validity
            Not Before: Nov 16 10:58:51 2017 GMT
            Not After : Aug 12 10:58:51 2020 GMT
        Subject: C=US, ST=California, L=Santa Clara, O=pkg5, CN=ch1_ta5/emailAddress=ch1_ta5
        Subject Public Key Info:
            Public Key Algorithm: rsaEncryption
                Public-Key: (2048 bit)
                Modulus:
                    00:d5:43:18:a4:ad:be:bb:81:0e:87:ff:6c:af:27:
                    7a:db:53:9e:9a:73:3f:9d:85:b0:55:ba:7f:58:72:
                    1f:99:69:fa:1a:9c:ea:7f:64:21:08:04:52:07:5c:
                    ba:23:28:e5:37:7d:71:e6:48:6d:76:63:76:92:94:
                    68:45:61:89:d2:f0:3e:e3:c4:3e:02:2b:32:6f:89:
                    a7:ee:1f:69:c3:63:a6:34:b7:e3:f2:25:57:eb:02:
                    c8:28:f7:f4:0f:f5:0c:78:e3:1d:8a:31:60:ca:f4:
                    e9:64:03:fb:8a:80:fe:0b:0b:5b:27:32:5f:bd:c6:
                    a7:0f:1f:0d:89:0f:60:64:eb:88:26:40:f1:26:e1:
                    07:7f:60:ad:a8:59:e6:c2:d3:db:93:8c:52:59:64:
                    0e:f9:67:ca:55:f8:6a:13:9a:c5:53:57:be:01:68:
                    66:0f:02:a9:92:df:69:45:5c:35:b3:db:af:80:e7:
                    cc:f1:d9:80:0b:e3:5a:6a:08:30:ff:c5:47:a5:08:
                    55:68:ac:73:5d:fb:ba:c2:dc:d6:d3:18:15:25:c4:
                    23:32:b7:4e:c7:6b:dd:d5:32:82:60:70:62:d4:4f:
                    1e:e5:01:47:40:a1:60:db:05:71:d9:18:9b:b4:93:
                    1a:f3:a7:50:c4:d7:f7:44:bb:79:db:43:66:f5:06:
                    f5:4f
                Exponent: 65537 (0x10001)
        X509v3 extensions:
            X509v3 Subject Key Identifier: 
                36:5A:D9:2D:A7:2F:C7:7D:1B:99:C2:7C:43:84:67:F8:52:06:F7:D2
            X509v3 Authority Key Identifier: 
                keyid:49:6F:A1:10:0A:7E:35:50:5B:C1:28:A4:E2:9F:D5:82:4F:20:B4:8C
                DirName:/C=US/ST=California/L=Santa Clara/O=pkg5/CN=ta5/emailAddress=ta5
                serial:87:12:05:FE:3E:60:F4:17

            X509v3 Basic Constraints: critical
                CA:TRUE
            X509v3 CRL Distribution Points: 

                Full Name:
                  URI:http://localhost:12001/file/0/ta5_crl.pem

            X509v3 Key Usage: critical
                Certificate Sign, CRL Sign
    Signature Algorithm: sha256WithRSAEncryption
         73:8b:51:e3:53:3d:1a:06:5f:d8:c3:0e:d4:ea:32:ce:bf:9e:
         0a:47:f6:87:d3:b4:76:17:72:52:e8:e9:75:18:de:da:8c:26:
         a5:2b:30:da:47:da:98:00:99:20:8a:ff:d0:aa:1d:e7:11:0d:
         9c:16:dd:79:f6:e6:20:7a:5d:11:6e:8e:15:bb:11:88:7e:19:
         33:cc:22:08:d2:4c:f8:9f:b3:69:81:2d:47:27:0a:85:5e:de:
         04:63:6e:7c:98:39:1b:cb:80:9e:b4:3d:44:c7:e1:07:e0:f8:
         c4:4a:f9:23:e4:9a:6b:e3:ee:ee:65:68:29:11:35:75:22:9d:
         5c:c3:0c:15:a5:0d:a6:f2:ce:f8:9d:ec:92:4b:f6:a8:ac:b5:
         df:6c:ce:d8:e2:4b:47:60:9a:e2:51:90:f5:0b:0d:9f:47:3c:
         bd:2d:55:46:4c:0e:34:38:c2:13:a4:e0:23:5d:42:46:83:7e:
         32:1a:1a:9c:b4:15:a2:83:0b:0a:08:2d:01:1c:5e:7a:4c:c4:
         54:2d:a6:ee:f2:0f:d6:64:ca:41:e3:ac:21:b3:e6:89:64:19:
         58:ed:20:69:4e:05:a3:e4:37:67:37:16:fe:95:b5:7d:3a:a3:
         10:5b:9d:48:3b:ca:6c:f5:a6:73:a7:3e:1f:83:73:f6:ae:c5:
         c7:c9:31:dc
-----BEGIN CERTIFICATE-----
MIIEdTCCA12gAwIBAgIBKTANBgkqhkiG9w0BAQsFADBpMQswCQYDVQQGEwJVUzET
MBEGA1UECAwKQ2FsaWZvcm5pYTEUMBIGA1UEBwwLU2FudGEgQ2xhcmExDTALBgNV
BAoMBHBrZzUxDDAKBgNVBAMMA3RhNTESMBAGCSqGSIb3DQEJARYDdGE1MB4XDTE3
MTExNjEwNTg1MVoXDTIwMDgxMjEwNTg1MVowcTELMAkGA1UEBhMCVVMxEzARBgNV
BAgMCkNhbGlmb3JuaWExFDASBgNVBAcMC1NhbnRhIENsYXJhMQ0wCwYDVQQKDARw
a2c1MRAwDgYDVQQDDAdjaDFfdGE1MRYwFAYJKoZIhvcNAQkBFgdjaDFfdGE1MIIB
IjANBgkqhkiG9w0BAQEFAAOCAQ8AMIIBCgKCAQEA1UMYpK2+u4EOh/9sryd621Oe
mnM/nYWwVbp/WHIfmWn6Gpzqf2QhCARSB1y6IyjlN31x5khtdmN2kpRoRWGJ0vA+
48Q+Aisyb4mn7h9pw2OmNLfj8iVX6wLIKPf0D/UMeOMdijFgyvTpZAP7ioD+Cwtb
JzJfvcanDx8NiQ9gZOuIJkDxJuEHf2CtqFnmwtPbk4xSWWQO+WfKVfhqE5rFU1e+
AWhmDwKpkt9pRVw1s9uvgOfM8dmAC+Naaggw/8VHpQhVaKxzXfu6wtzW0xgVJcQj
MrdOx2vd1TKCYHBi1E8e5QFHQKFg2wVx2RibtJMa86dQxNf3RLt520Nm9Qb1TwID
AQABo4IBHjCCARowHQYDVR0OBBYEFDZa2S2nL8d9G5nCfEOEZ/hSBvfSMIGbBgNV
HSMEgZMwgZCAFElvoRAKfjVQW8EopOKf1YJPILSMoW2kazBpMQswCQYDVQQGEwJV
UzETMBEGA1UECAwKQ2FsaWZvcm5pYTEUMBIGA1UEBwwLU2FudGEgQ2xhcmExDTAL
BgNVBAoMBHBrZzUxDDAKBgNVBAMMA3RhNTESMBAGCSqGSIb3DQEJARYDdGE1ggkA
hxIF/j5g9BcwDwYDVR0TAQH/BAUwAwEB/zA6BgNVHR8EMzAxMC+gLaArhilodHRw
Oi8vbG9jYWxob3N0OjEyMDAxL2ZpbGUvMC90YTVfY3JsLnBlbTAOBgNVHQ8BAf8E
BAMCAQYwDQYJKoZIhvcNAQELBQADggEBAHOLUeNTPRoGX9jDDtTqMs6/ngpH9ofT
tHYXclLo6XUY3tqMJqUrMNpH2pgAmSCK/9CqHecRDZwW3Xn25iB6XRFujhW7EYh+
GTPMIgjSTPifs2mBLUcnCoVe3gRjbnyYORvLgJ60PUTH4Qfg+MRK+SPkmmvj7u5l
aCkRNXUinVzDDBWlDabyzvid7JJL9qistd9sztjiS0dgmuJRkPULDZ9HPL0tVUZM
DjQ4whOk4CNdQkaDfjIaGpy0FaKDCwoILQEcXnpMxFQtpu7yD9ZkykHjrCGz5olk
GVjtIGlOBaPkN2c3Fv6VtX06oxBbnUg7ymz1pnOnPh+Dc/auxcfJMdw=
-----END CERTIFICATE-----
