Certificate:
    Data:
        Version: 3 (0x2)
        Serial Number: 41 (0x29)
        Signature Algorithm: sha256WithRSAEncryption
        Issuer: C=US, ST=California, L=Santa Clara, O=pkg5, CN=ta5/emailAddress=ta5
        Validity
            Not Before: Nov 14 14:26:57 2024 GMT
            Not After : Aug 11 14:26:57 2027 GMT
        Subject: C=US, ST=California, L=Santa Clara, O=pkg5, CN=ch1_ta5/emailAddress=ch1_ta5
        Subject Public Key Info:
            Public Key Algorithm: rsaEncryption
                Public-Key: (2048 bit)
                Modulus:
                    00:c0:98:40:f0:4b:7f:53:a1:24:70:67:f5:8f:4f:
                    01:34:ea:f3:2a:93:20:e0:7e:09:f7:89:04:ec:0d:
                    a2:06:b8:df:8d:fc:e8:06:f7:8d:a4:37:7d:49:60:
                    f2:b2:f6:e7:1e:11:21:24:fc:77:f5:0e:78:4f:01:
                    c1:8a:a6:79:2b:f1:da:d8:5e:97:15:6f:27:05:59:
                    19:ab:5e:74:9b:c7:f4:65:f0:ec:ae:3a:ea:45:2b:
                    21:de:cd:8d:8b:8c:57:4d:8c:d7:87:ae:0e:47:48:
                    38:24:08:29:56:b6:a7:28:6e:3b:b6:76:fa:72:8c:
                    d1:c7:04:5f:8d:ab:ca:43:bd:92:b7:8f:37:17:8a:
                    84:c6:f9:d9:c9:82:7f:55:13:8c:a4:91:9a:f7:7a:
                    ed:07:3f:a2:32:29:0b:35:2e:70:d1:c3:73:8e:3f:
                    20:e4:d2:4e:b1:00:67:39:cb:83:62:8e:4b:5c:99:
                    1d:2b:d5:3f:db:14:b2:61:01:0d:10:ad:08:e1:13:
                    69:c2:8b:9b:2c:35:b0:3b:89:13:2d:db:b5:6d:a2:
                    c2:8e:1d:0b:27:2b:62:50:09:46:b3:f5:42:ca:a7:
                    ed:89:c6:ef:b5:48:ae:a1:6e:d8:b7:01:18:8c:6d:
                    5a:2c:96:fc:40:b6:f8:7d:3a:8f:a1:44:6a:4c:cb:
                    d4:3d
                Exponent: 65537 (0x10001)
        X509v3 extensions:
            X509v3 Subject Key Identifier: 
                85:27:34:59:C8:FB:21:9D:D4:FE:A5:BD:E1:28:27:1B:40:36:EF:7F
            X509v3 Authority Key Identifier: 
                keyid:2B:83:48:57:08:41:30:49:47:74:8B:A4:64:BE:3B:6E:EE:0B:91:88
                DirName:/C=US/ST=California/L=Santa Clara/O=pkg5/CN=ta5/emailAddress=ta5
                serial:46:37:CA:5B:9E:9A:2A:A8:1B:F9:39:80:FA:F0:AD:12:E4:5D:E1:5C
            X509v3 Basic Constraints: critical
                CA:TRUE
            X509v3 CRL Distribution Points: 
                Full Name:
                  URI:http://localhost:12001/file/0/ta5_crl.pem
            X509v3 Key Usage: critical
                Certificate Sign, CRL Sign
    Signature Algorithm: sha256WithRSAEncryption
    Signature Value:
        0c:1f:2f:94:5b:76:86:c4:bf:26:a9:e2:9e:7f:7d:68:3b:80:
        52:c8:41:ac:c8:a9:e8:75:9e:d5:f4:e9:dd:ae:52:bd:de:99:
        08:df:9c:7c:2d:11:49:7c:01:54:bb:fb:05:dc:dc:49:15:52:
        1e:85:85:fa:d9:96:66:98:6f:3d:7f:c1:e0:ab:fa:94:9f:fb:
        73:79:97:c2:10:16:91:1b:0a:18:ec:bb:c7:47:45:e3:64:db:
        bd:b7:66:44:30:18:da:64:e9:4f:e5:b6:ef:8c:72:cc:a9:d4:
        58:e1:54:8f:a0:d8:6c:ba:16:4b:f6:aa:b2:66:e0:aa:ce:ed:
        5e:54:6a:da:1c:6e:b7:de:a1:9e:09:bd:6c:af:27:37:a4:ab:
        e9:89:08:f5:00:4f:2e:21:40:bf:6a:a9:d0:6b:ec:e8:3c:cb:
        77:47:31:36:59:79:33:19:e5:5d:13:7b:6e:ec:ab:5b:de:30:
        9d:7e:8d:08:2f:54:2c:c6:8b:73:bb:61:4a:66:3f:57:2a:08:
        b6:56:ea:b1:4c:1e:26:bc:b5:06:28:7a:b0:8d:63:f5:a6:02:
        0c:56:89:df:bd:81:5e:a8:a7:73:ea:28:f8:b5:63:81:94:37:
        a8:66:83:05:ef:3f:44:c2:2b:78:4c:64:b4:03:13:5d:e9:b2:
        b4:8d:77:90
-----BEGIN CERTIFICATE-----
MIIEgDCCA2igAwIBAgIBKTANBgkqhkiG9w0BAQsFADBpMQswCQYDVQQGEwJVUzET
MBEGA1UECAwKQ2FsaWZvcm5pYTEUMBIGA1UEBwwLU2FudGEgQ2xhcmExDTALBgNV
BAoMBHBrZzUxDDAKBgNVBAMMA3RhNTESMBAGCSqGSIb3DQEJARYDdGE1MB4XDTI0
MTExNDE0MjY1N1oXDTI3MDgxMTE0MjY1N1owcTELMAkGA1UEBhMCVVMxEzARBgNV
BAgMCkNhbGlmb3JuaWExFDASBgNVBAcMC1NhbnRhIENsYXJhMQ0wCwYDVQQKDARw
a2c1MRAwDgYDVQQDDAdjaDFfdGE1MRYwFAYJKoZIhvcNAQkBFgdjaDFfdGE1MIIB
IjANBgkqhkiG9w0BAQEFAAOCAQ8AMIIBCgKCAQEAwJhA8Et/U6EkcGf1j08BNOrz
KpMg4H4J94kE7A2iBrjfjfzoBveNpDd9SWDysvbnHhEhJPx39Q54TwHBiqZ5K/Ha
2F6XFW8nBVkZq150m8f0ZfDsrjrqRSsh3s2Ni4xXTYzXh64OR0g4JAgpVranKG47
tnb6cozRxwRfjavKQ72St483F4qExvnZyYJ/VROMpJGa93rtBz+iMikLNS5w0cNz
jj8g5NJOsQBnOcuDYo5LXJkdK9U/2xSyYQENEK0I4RNpwoubLDWwO4kTLdu1baLC
jh0LJytiUAlGs/VCyqfticbvtUiuoW7YtwEYjG1aLJb8QLb4fTqPoURqTMvUPQID
AQABo4IBKTCCASUwHQYDVR0OBBYEFIUnNFnI+yGd1P6lveEoJxtANu9/MIGmBgNV
HSMEgZ4wgZuAFCuDSFcIQTBJR3SLpGS+O27uC5GIoW2kazBpMQswCQYDVQQGEwJV
UzETMBEGA1UECAwKQ2FsaWZvcm5pYTEUMBIGA1UEBwwLU2FudGEgQ2xhcmExDTAL
BgNVBAoMBHBrZzUxDDAKBgNVBAMMA3RhNTESMBAGCSqGSIb3DQEJARYDdGE1ghRG
N8pbnpoqqBv5OYD68K0S5F3hXDAPBgNVHRMBAf8EBTADAQH/MDoGA1UdHwQzMDEw
L6AtoCuGKWh0dHA6Ly9sb2NhbGhvc3Q6MTIwMDEvZmlsZS8wL3RhNV9jcmwucGVt
MA4GA1UdDwEB/wQEAwIBBjANBgkqhkiG9w0BAQsFAAOCAQEADB8vlFt2hsS/Jqni
nn99aDuAUshBrMip6HWe1fTp3a5Svd6ZCN+cfC0RSXwBVLv7BdzcSRVSHoWF+tmW
ZphvPX/B4Kv6lJ/7c3mXwhAWkRsKGOy7x0dF42TbvbdmRDAY2mTpT+W274xyzKnU
WOFUj6DYbLoWS/aqsmbgqs7tXlRq2hxut96hngm9bK8nN6Sr6YkI9QBPLiFAv2qp
0Gvs6DzLd0cxNll5MxnlXRN7buyrW94wnX6NCC9ULMaLc7thSmY/VyoItlbqsUwe
Jry1Bih6sI1j9aYCDFaJ372BXqinc+oo+LVjgZQ3qGaDBe8/RMIreExktAMTXemy
tI13kA==
-----END CERTIFICATE-----
