Certificate:
    Data:
        Version: 3 (0x2)
        Serial Number: 29 (0x1d)
        Signature Algorithm: sha256WithRSAEncryption
        Issuer: C=US, ST=California, L=Santa Clara, O=pkg5, CN=ta3/emailAddress=ta3
        Validity
            Not Before: Jan  1 01:01:01 2009 GMT
            Not After : Jan  2 01:01:01 2009 GMT
        Subject: C=US, ST=California, L=Santa Clara, O=pkg5, CN=ch1.2_ta3/emailAddress=ch1.2_ta3
        Subject Public Key Info:
            Public Key Algorithm: rsaEncryption
                Public-Key: (2048 bit)
                Modulus:
                    00:e6:81:f3:0f:d9:22:ad:5c:18:32:ce:a9:f7:33:
                    6f:ac:95:2e:55:3a:90:d4:13:f1:ff:34:a2:58:d2:
                    49:d6:7c:f3:7e:eb:7c:aa:cd:17:48:29:4f:8b:e3:
                    06:60:a5:20:f3:57:f8:c4:62:b0:ff:f7:7a:79:06:
                    c4:b8:33:df:e0:46:0a:16:36:7e:e9:39:29:da:32:
                    9b:57:ba:a3:9f:0c:42:93:71:06:b2:61:90:7b:e5:
                    5c:b1:61:55:d2:40:0d:ad:82:68:fe:a1:bb:55:ff:
                    f6:3e:f9:17:9d:83:70:d0:ad:dc:99:04:56:bb:72:
                    da:44:11:16:00:49:e5:6a:86:9b:df:75:7b:01:51:
                    6c:98:8a:29:e3:f1:9f:8d:35:7d:f1:cf:b7:d8:aa:
                    28:39:a7:7b:d2:02:ff:f9:ef:6d:f2:76:76:bc:44:
                    b8:69:d4:62:f5:51:89:99:ff:53:32:d6:f1:db:71:
                    d5:eb:b3:3d:76:7a:a0:00:0b:dc:94:70:71:d5:19:
                    e1:95:5d:e1:68:fb:07:fb:8a:ca:e0:bc:59:43:b8:
                    93:9b:fb:1d:5c:38:d7:00:5a:3c:c0:89:49:40:30:
                    80:59:48:a1:51:8d:8a:e2:65:6f:33:e9:0a:e1:21:
                    0d:23:e1:6d:c8:c9:4a:aa:2c:3b:c8:22:e5:8b:25:
                    c1:bb
                Exponent: 65537 (0x10001)
        X509v3 extensions:
            X509v3 Subject Key Identifier: 
                08:9D:DD:3E:58:16:67:39:05:3C:9A:9E:24:B1:B5:39:F1:3C:2C:4E
            X509v3 Authority Key Identifier: 
                keyid:A0:1E:8E:B9:8B:09:76:33:B8:CE:59:F1:BA:1B:5F:EC:D9:38:76:58
                DirName:/C=US/ST=California/L=Santa Clara/O=pkg5/CN=ta3/emailAddress=ta3
                serial:3D:AB:7C:D1:27:67:54:57:2B:F8:A5:2C:43:8D:D7:BE:D9:A5:57:64
            X509v3 Basic Constraints: critical
                CA:TRUE
            X509v3 Key Usage: critical
                Certificate Sign, CRL Sign
            X509v3 Subject Alternative Name: 
                email:ch1.2_ta3
    Signature Algorithm: sha256WithRSAEncryption
    Signature Value:
        ab:39:a2:2f:ad:5f:68:d5:dd:2c:e7:bb:c4:52:aa:14:f1:df:
        e4:0f:0f:0f:62:13:1f:04:fa:91:1c:a8:a3:89:2f:c5:4b:c5:
        81:8b:1b:2c:29:15:14:fd:62:22:9e:de:11:0d:e5:3d:5a:5a:
        46:05:44:1e:22:fd:52:30:3b:65:b9:47:70:af:aa:f8:f8:32:
        a0:ed:c9:cb:6c:61:ac:27:4d:d4:0d:4b:4c:b0:f5:e2:27:d5:
        e5:19:13:35:48:6c:d7:f8:0b:5d:bc:09:86:ab:1a:c4:68:07:
        d0:ff:38:91:6d:c0:0a:16:e3:c7:ab:0f:77:e4:6d:76:74:ff:
        7b:d6:ce:f0:47:7c:fb:65:02:ca:8c:d5:de:d5:04:89:d6:86:
        c1:f4:6f:8f:c2:12:9b:51:00:ff:3d:03:df:8f:ec:ae:09:89:
        09:07:82:99:d1:0e:31:a5:14:29:ca:1f:5e:ff:0c:e0:b2:ae:
        9b:c9:ea:9b:24:b2:71:59:b8:21:c3:09:e5:fd:d0:86:68:7c:
        6d:7e:ff:97:3e:44:22:fc:1e:07:82:e1:dd:aa:63:4b:09:d0:
        c8:f1:e2:a1:02:18:be:bb:82:28:8b:f7:fa:c2:cf:e6:06:4b:
        68:12:4c:d6:9c:ae:95:b9:ca:3f:66:e5:0a:10:6f:0b:9e:ae:
        e5:7d:9f:d2
-----BEGIN CERTIFICATE-----
MIIEXTCCA0WgAwIBAgIBHTANBgkqhkiG9w0BAQsFADBpMQswCQYDVQQGEwJVUzET
MBEGA1UECAwKQ2FsaWZvcm5pYTEUMBIGA1UEBwwLU2FudGEgQ2xhcmExDTALBgNV
BAoMBHBrZzUxDDAKBgNVBAMMA3RhMzESMBAGCSqGSIb3DQEJARYDdGEzMB4XDTA5
MDEwMTAxMDEwMVoXDTA5MDEwMjAxMDEwMVowdTELMAkGA1UEBhMCVVMxEzARBgNV
BAgMCkNhbGlmb3JuaWExFDASBgNVBAcMC1NhbnRhIENsYXJhMQ0wCwYDVQQKDARw
a2c1MRIwEAYDVQQDDAljaDEuMl90YTMxGDAWBgkqhkiG9w0BCQEWCWNoMS4yX3Rh
MzCCASIwDQYJKoZIhvcNAQEBBQADggEPADCCAQoCggEBAOaB8w/ZIq1cGDLOqfcz
b6yVLlU6kNQT8f80oljSSdZ8837rfKrNF0gpT4vjBmClIPNX+MRisP/3enkGxLgz
3+BGChY2fuk5Kdoym1e6o58MQpNxBrJhkHvlXLFhVdJADa2CaP6hu1X/9j75F52D
cNCt3JkEVrty2kQRFgBJ5WqGm991ewFRbJiKKePxn401ffHPt9iqKDmne9IC//nv
bfJ2drxEuGnUYvVRiZn/UzLW8dtx1euzPXZ6oAAL3JRwcdUZ4ZVd4Wj7B/uKyuC8
WUO4k5v7HVw41wBaPMCJSUAwgFlIoVGNiuJlbzPpCuEhDSPhbcjJSqosO8gi5Ysl
wbsCAwEAAaOCAQIwgf8wHQYDVR0OBBYEFAid3T5YFmc5BTyaniSxtTnxPCxOMIGm
BgNVHSMEgZ4wgZuAFKAejrmLCXYzuM5Z8bobX+zZOHZYoW2kazBpMQswCQYDVQQG
EwJVUzETMBEGA1UECAwKQ2FsaWZvcm5pYTEUMBIGA1UEBwwLU2FudGEgQ2xhcmEx
DTALBgNVBAoMBHBrZzUxDDAKBgNVBAMMA3RhMzESMBAGCSqGSIb3DQEJARYDdGEz
ghQ9q3zRJ2dUVyv4pSxDjde+2aVXZDAPBgNVHRMBAf8EBTADAQH/MA4GA1UdDwEB
/wQEAwIBBjAUBgNVHREEDTALgQljaDEuMl90YTMwDQYJKoZIhvcNAQELBQADggEB
AKs5oi+tX2jV3Sznu8RSqhTx3+QPDw9iEx8E+pEcqKOJL8VLxYGLGywpFRT9YiKe
3hEN5T1aWkYFRB4i/VIwO2W5R3Cvqvj4MqDtyctsYawnTdQNS0yw9eIn1eUZEzVI
bNf4C128CYarGsRoB9D/OJFtwAoW48erD3fkbXZ0/3vWzvBHfPtlAsqM1d7VBInW
hsH0b4/CEptRAP89A9+P7K4JiQkHgpnRDjGlFCnKH17/DOCyrpvJ6psksnFZuCHD
CeX90IZofG1+/5c+RCL8HgeC4d2qY0sJ0Mjx4qECGL67giiL9/rCz+YGS2gSTNac
rpW5yj9m5QoQbwueruV9n9I=
-----END CERTIFICATE-----
