Certificate:
    Data:
        Version: 3 (0x2)
        Serial Number: 33 (0x21)
    Signature Algorithm: sha256WithRSAEncryption
        Issuer: C=US, ST=California, L=Santa Clara, O=pkg5, CN=ta3/emailAddress=ta3
        Validity
            Not Before: Jan  1 01:01:01 2035 GMT
            Not After : Jan  2 01:01:01 2035 GMT
        Subject: C=US, ST=California, L=Santa Clara, O=pkg5, CN=ch1.4_ta3/emailAddress=ch1.4_ta3
        Subject Public Key Info:
            Public Key Algorithm: rsaEncryption
                Public-Key: (2048 bit)
                Modulus:
                    00:d0:f9:4b:14:fb:19:71:13:47:a5:d5:37:b2:c6:
                    0a:65:80:b7:ab:db:55:91:f3:ab:8e:1e:60:db:ce:
                    4a:9c:d0:81:f2:29:03:f6:cc:4d:5d:00:28:6f:3a:
                    98:09:3a:13:8b:59:5b:28:3d:3b:9d:b2:82:a2:7e:
                    9e:6e:85:15:ca:8f:a4:49:9a:a1:61:67:5c:79:6f:
                    af:cd:c8:f8:fe:2e:95:f9:ca:fd:f6:99:9a:d5:e3:
                    18:50:ab:16:c4:2d:01:8d:b8:77:0a:42:37:62:d2:
                    6a:e0:14:95:86:99:d6:41:ce:3d:91:22:e4:30:ad:
                    48:65:00:90:32:21:b0:dc:3f:1b:e2:3c:18:20:9a:
                    2c:b9:ca:0d:f9:67:61:c1:ac:1f:89:b3:b5:44:2b:
                    ab:37:b5:87:12:c0:7f:bf:44:fa:44:b6:1d:0b:ec:
                    f2:48:e7:bd:84:73:e6:ff:e5:43:4b:6e:89:29:6d:
                    a1:91:2c:c1:21:d9:2e:53:8b:c5:6c:4c:fc:67:fa:
                    51:65:c0:aa:2c:b1:eb:de:9d:e1:8c:1e:c0:56:9c:
                    b4:de:c6:9f:c2:90:18:f2:de:97:f5:3b:1e:d2:6c:
                    1d:f3:55:a4:b5:95:e7:bf:9f:d8:23:7d:de:9f:35:
                    91:b1:12:47:f8:44:21:23:f1:e1:ac:96:88:cf:be:
                    c2:41
                Exponent: 65537 (0x10001)
        X509v3 extensions:
            X509v3 Subject Key Identifier: 
                56:5B:61:E8:01:90:4D:2C:A0:DD:3F:0E:43:CA:5A:AF:2B:33:A6:AE
            X509v3 Authority Key Identifier: 
                keyid:05:4A:64:CF:6C:39:57:EB:DD:04:B1:24:67:93:9A:D7:7F:AE:3D:3F
                DirName:/C=US/ST=California/L=Santa Clara/O=pkg5/CN=ta3/emailAddress=ta3
                serial:CA:FC:34:24:A4:24:1F:39

            X509v3 Basic Constraints: critical
                CA:TRUE
    Signature Algorithm: sha256WithRSAEncryption
         79:80:b9:86:25:39:fb:ea:83:8b:d9:90:3b:04:7c:42:e3:68:
         54:86:03:0f:25:ab:f0:af:a4:39:60:ce:fd:9d:4e:21:7c:00:
         4a:01:27:a9:99:71:55:e4:8b:e2:db:84:a3:e1:8b:03:ec:2b:
         70:60:af:98:8c:05:cd:cb:f6:ee:5a:4f:ac:96:be:bb:b1:85:
         58:f6:e8:c1:4c:7f:01:f5:41:31:ca:96:28:1b:0d:bb:75:4b:
         44:1e:ef:b9:42:10:c9:ba:6b:e8:f0:89:fa:4d:a2:c4:58:5e:
         55:11:9b:2f:0e:fd:65:3c:c4:bd:15:9d:1a:f5:0b:0f:17:0d:
         97:a6:45:42:2a:16:2f:10:f8:34:71:c1:9c:3b:c5:22:8c:4d:
         54:72:a4:c5:2c:4b:f7:0b:3b:c6:d5:36:7d:6a:b9:e3:6b:12:
         7a:39:0e:05:f9:5e:af:12:3c:00:76:e6:f0:ad:01:1f:51:0a:
         46:4d:3f:75:cd:44:3f:76:7f:ac:ca:c2:cb:31:69:96:7f:21:
         d8:0e:46:3a:60:0b:d3:87:06:5f:3d:6c:f2:f1:90:d9:18:4d:
         69:7b:dc:a5:1f:f8:81:e7:7a:a1:9f:8c:d6:09:a2:97:7e:b4:
         f2:bc:a0:ea:60:c9:80:81:99:8b:5d:4d:29:a4:fd:69:5a:db:
         89:27:df:8c
-----BEGIN CERTIFICATE-----
MIIEKzCCAxOgAwIBAgIBITANBgkqhkiG9w0BAQsFADBpMQswCQYDVQQGEwJVUzET
MBEGA1UECAwKQ2FsaWZvcm5pYTEUMBIGA1UEBwwLU2FudGEgQ2xhcmExDTALBgNV
BAoMBHBrZzUxDDAKBgNVBAMMA3RhMzESMBAGCSqGSIb3DQEJARYDdGEzMB4XDTM1
MDEwMTAxMDEwMVoXDTM1MDEwMjAxMDEwMVowdTELMAkGA1UEBhMCVVMxEzARBgNV
BAgMCkNhbGlmb3JuaWExFDASBgNVBAcMC1NhbnRhIENsYXJhMQ0wCwYDVQQKDARw
a2c1MRIwEAYDVQQDDAljaDEuNF90YTMxGDAWBgkqhkiG9w0BCQEWCWNoMS40X3Rh
MzCCASIwDQYJKoZIhvcNAQEBBQADggEPADCCAQoCggEBAND5SxT7GXETR6XVN7LG
CmWAt6vbVZHzq44eYNvOSpzQgfIpA/bMTV0AKG86mAk6E4tZWyg9O52ygqJ+nm6F
FcqPpEmaoWFnXHlvr83I+P4ulfnK/faZmtXjGFCrFsQtAY24dwpCN2LSauAUlYaZ
1kHOPZEi5DCtSGUAkDIhsNw/G+I8GCCaLLnKDflnYcGsH4mztUQrqze1hxLAf79E
+kS2HQvs8kjnvYRz5v/lQ0tuiSltoZEswSHZLlOLxWxM/Gf6UWXAqiyx696d4Ywe
wFactN7Gn8KQGPLel/U7HtJsHfNVpLWV57+f2CN93p81kbESR/hEISPx4ayWiM++
wkECAwEAAaOB0TCBzjAdBgNVHQ4EFgQUVlth6AGQTSyg3T8OQ8paryszpq4wgZsG
A1UdIwSBkzCBkIAUBUpkz2w5V+vdBLEkZ5Oa13+uPT+hbaRrMGkxCzAJBgNVBAYT
AlVTMRMwEQYDVQQIDApDYWxpZm9ybmlhMRQwEgYDVQQHDAtTYW50YSBDbGFyYTEN
MAsGA1UECgwEcGtnNTEMMAoGA1UEAwwDdGEzMRIwEAYJKoZIhvcNAQkBFgN0YTOC
CQDK/DQkpCQfOTAPBgNVHRMBAf8EBTADAQH/MA0GCSqGSIb3DQEBCwUAA4IBAQB5
gLmGJTn76oOL2ZA7BHxC42hUhgMPJavwr6Q5YM79nU4hfABKASepmXFV5Ivi24Sj
4YsD7CtwYK+YjAXNy/buWk+slr67sYVY9ujBTH8B9UExypYoGw27dUtEHu+5QhDJ
umvo8In6TaLEWF5VEZsvDv1lPMS9FZ0a9QsPFw2XpkVCKhYvEPg0ccGcO8UijE1U
cqTFLEv3CzvG1TZ9arnjaxJ6OQ4F+V6vEjwAdubwrQEfUQpGTT91zUQ/dn+sysLL
MWmWfyHYDkY6YAvThwZfPWzy8ZDZGE1pe9ylH/iB53qhn4zWCaKXfrTyvKDqYMmA
gZmLXU0ppP1pWtuJJ9+M
-----END CERTIFICATE-----
