Certificate:
    Data:
        Version: 3 (0x2)
        Serial Number: 33 (0x21)
        Signature Algorithm: sha256WithRSAEncryption
        Issuer: C=US, ST=California, L=Santa Clara, O=pkg5, CN=ta3/emailAddress=ta3
        Validity
            Not Before: Jan  1 01:01:01 2035 GMT
            Not After : Jan  2 01:01:01 2035 GMT
        Subject: C=US, ST=California, L=Santa Clara, O=pkg5, CN=ch1.4_ta3/emailAddress=ch1.4_ta3
        Subject Public Key Info:
            Public Key Algorithm: rsaEncryption
                Public-Key: (2048 bit)
                Modulus:
                    00:b0:16:cd:b9:9f:b3:0a:bf:d8:d4:79:e5:a8:a5:
                    40:4f:5c:60:49:1f:c7:76:2f:93:9e:50:d2:34:63:
                    f7:5b:92:6b:f7:85:68:57:cb:59:7f:77:3b:a8:91:
                    b9:dc:fb:b7:92:40:ec:a4:4e:3a:da:24:2c:9c:3c:
                    17:9e:78:c6:19:4f:53:d5:d3:9a:17:98:9c:cb:53:
                    92:e5:b8:00:2f:6c:11:95:bb:20:cc:0e:4b:22:b4:
                    1b:1f:87:3b:f0:4b:be:3d:06:41:e6:f8:80:2d:67:
                    57:38:50:5d:8f:ed:74:3c:46:55:bb:08:37:18:d4:
                    23:cb:de:be:0d:47:76:45:f5:d6:9d:53:cc:08:a0:
                    29:71:ee:58:57:f1:e3:40:08:a7:fd:4c:79:1d:87:
                    00:47:89:eb:05:a7:4e:be:36:60:4d:e5:bb:f0:a2:
                    dc:44:63:76:ba:9a:8a:f4:08:ca:25:bf:8b:1c:06:
                    d1:72:b0:90:fe:a1:b5:c5:d9:85:ab:38:7f:90:83:
                    9c:c5:62:f4:d9:31:ce:47:19:2b:9d:6f:0a:4b:07:
                    2f:a8:de:6b:97:09:1f:63:ae:ae:74:5a:19:53:cf:
                    6d:bf:9d:d3:43:e5:4d:87:bc:a8:77:56:db:5b:60:
                    a9:67:de:c1:2d:1c:84:2c:9e:25:5f:af:d5:b1:4e:
                    20:03
                Exponent: 65537 (0x10001)
        X509v3 extensions:
            X509v3 Subject Key Identifier: 
                A9:A1:69:19:64:C7:AD:3F:EB:50:06:41:9E:15:1F:29:06:15:EC:6B
            X509v3 Authority Key Identifier: 
                keyid:A0:1E:8E:B9:8B:09:76:33:B8:CE:59:F1:BA:1B:5F:EC:D9:38:76:58
                DirName:/C=US/ST=California/L=Santa Clara/O=pkg5/CN=ta3/emailAddress=ta3
                serial:3D:AB:7C:D1:27:67:54:57:2B:F8:A5:2C:43:8D:D7:BE:D9:A5:57:64
            X509v3 Basic Constraints: critical
                CA:TRUE
    Signature Algorithm: sha256WithRSAEncryption
    Signature Value:
        7c:7b:18:05:75:fa:33:f4:78:ed:5a:03:5f:dc:24:e5:00:a2:
        70:a0:66:0d:60:59:c6:9d:84:68:be:8c:0a:ad:19:0d:d9:f8:
        11:e4:b8:7d:53:6d:db:37:8c:53:e9:0c:f5:49:ac:77:21:44:
        91:53:9f:10:e6:b0:63:f1:9f:7f:b5:73:98:31:df:dc:5f:1b:
        71:61:2f:c0:ae:f4:fb:fb:13:f5:2c:0d:5e:a6:31:1d:94:72:
        a4:80:bc:45:71:5b:ae:13:89:62:71:96:63:01:bb:f8:4b:86:
        f9:e5:44:29:62:8d:16:19:af:87:2e:1a:68:4f:39:72:c7:75:
        e8:8b:31:d2:21:7b:84:6c:dc:99:ae:d7:80:11:91:33:e3:7a:
        5d:5b:90:a4:b9:ce:99:01:9a:36:5c:e5:21:ba:16:f5:59:23:
        bf:96:c9:91:88:55:03:0e:b8:23:62:1e:3d:20:3a:f5:b0:7b:
        61:b3:ff:26:57:c7:9d:dc:76:8e:53:4b:94:ee:6f:aa:6c:d0:
        42:47:96:c5:c4:07:85:4c:1c:58:36:36:cb:a4:30:7e:e4:64:
        ef:94:6a:e5:30:64:b8:0c:a9:8b:59:c9:42:23:71:0c:fb:98:
        76:09:74:2c:42:f2:d5:f6:a3:44:23:fc:53:25:82:18:4a:b0:
        24:41:a9:4a
-----BEGIN CERTIFICATE-----
MIIENjCCAx6gAwIBAgIBITANBgkqhkiG9w0BAQsFADBpMQswCQYDVQQGEwJVUzET
MBEGA1UECAwKQ2FsaWZvcm5pYTEUMBIGA1UEBwwLU2FudGEgQ2xhcmExDTALBgNV
BAoMBHBrZzUxDDAKBgNVBAMMA3RhMzESMBAGCSqGSIb3DQEJARYDdGEzMB4XDTM1
MDEwMTAxMDEwMVoXDTM1MDEwMjAxMDEwMVowdTELMAkGA1UEBhMCVVMxEzARBgNV
BAgMCkNhbGlmb3JuaWExFDASBgNVBAcMC1NhbnRhIENsYXJhMQ0wCwYDVQQKDARw
a2c1MRIwEAYDVQQDDAljaDEuNF90YTMxGDAWBgkqhkiG9w0BCQEWCWNoMS40X3Rh
MzCCASIwDQYJKoZIhvcNAQEBBQADggEPADCCAQoCggEBALAWzbmfswq/2NR55ail
QE9cYEkfx3Yvk55Q0jRj91uSa/eFaFfLWX93O6iRudz7t5JA7KROOtokLJw8F554
xhlPU9XTmheYnMtTkuW4AC9sEZW7IMwOSyK0Gx+HO/BLvj0GQeb4gC1nVzhQXY/t
dDxGVbsINxjUI8vevg1HdkX11p1TzAigKXHuWFfx40AIp/1MeR2HAEeJ6wWnTr42
YE3lu/Ci3ERjdrqaivQIyiW/ixwG0XKwkP6htcXZhas4f5CDnMVi9NkxzkcZK51v
CksHL6jea5cJH2OurnRaGVPPbb+d00PlTYe8qHdW21tgqWfewS0chCyeJV+v1bFO
IAMCAwEAAaOB3DCB2TAdBgNVHQ4EFgQUqaFpGWTHrT/rUAZBnhUfKQYV7GswgaYG
A1UdIwSBnjCBm4AUoB6OuYsJdjO4zlnxuhtf7Nk4dlihbaRrMGkxCzAJBgNVBAYT
AlVTMRMwEQYDVQQIDApDYWxpZm9ybmlhMRQwEgYDVQQHDAtTYW50YSBDbGFyYTEN
MAsGA1UECgwEcGtnNTEMMAoGA1UEAwwDdGEzMRIwEAYJKoZIhvcNAQkBFgN0YTOC
FD2rfNEnZ1RXK/ilLEON177ZpVdkMA8GA1UdEwEB/wQFMAMBAf8wDQYJKoZIhvcN
AQELBQADggEBAHx7GAV1+jP0eO1aA1/cJOUAonCgZg1gWcadhGi+jAqtGQ3Z+BHk
uH1Tbds3jFPpDPVJrHchRJFTnxDmsGPxn3+1c5gx39xfG3FhL8Cu9Pv7E/UsDV6m
MR2UcqSAvEVxW64TiWJxlmMBu/hLhvnlRClijRYZr4cuGmhPOXLHdeiLMdIhe4Rs
3Jmu14ARkTPjel1bkKS5zpkBmjZc5SG6FvVZI7+WyZGIVQMOuCNiHj0gOvWwe2Gz
/yZXx53cdo5TS5Tub6ps0EJHlsXEB4VMHFg2NsukMH7kZO+UauUwZLgMqYtZyUIj
cQz7mHYJdCxC8tX2o0Qj/FMlghhKsCRBqUo=
-----END CERTIFICATE-----
