Certificate:
    Data:
        Version: 3 (0x2)
        Serial Number: 26 (0x1a)
    Signature Algorithm: sha256WithRSAEncryption
        Issuer: C=US, ST=California, L=Santa Clara, O=pkg5, CN=ta3/emailAddress=ta3
        Validity
            Not Before: Nov 28 22:50:56 2016 GMT
            Not After : Aug 25 22:50:56 2019 GMT
        Subject: C=US, ST=California, L=Santa Clara, O=pkg5, CN=ch1.1_ta3/emailAddress=ch1.1_ta3
        Subject Public Key Info:
            Public Key Algorithm: rsaEncryption
                Public-Key: (2048 bit)
                Modulus:
                    00:dc:ae:0a:4c:64:61:ac:46:c4:db:9a:d2:ec:2b:
                    9c:23:ea:8f:4d:d5:10:2e:8f:c1:6d:cb:d3:93:20:
                    bc:2a:96:be:41:48:6e:9a:d6:f7:bc:5f:16:54:dd:
                    2d:9c:b7:81:a8:11:09:a4:94:44:2f:87:c4:8d:f1:
                    a3:24:ef:90:fb:a0:99:42:54:8e:62:cc:4d:bc:09:
                    55:70:0e:76:c6:ab:55:df:57:7a:18:b4:d5:c3:28:
                    55:10:7d:13:0c:de:f0:67:62:a1:d0:59:05:fb:24:
                    3c:a7:06:a2:c1:40:49:bb:88:70:6e:1d:f5:fd:86:
                    73:23:38:8d:15:bc:09:17:48:11:73:bf:d2:8e:87:
                    f9:5d:1c:1c:50:91:a8:79:b7:c5:70:2b:5e:1a:bb:
                    e1:73:ad:49:fa:33:4f:7a:8f:34:07:8d:f6:58:e3:
                    48:27:0d:8f:4c:34:e7:0f:9c:4f:d5:e8:e1:29:82:
                    f6:3a:01:99:05:2d:1d:db:9e:f8:92:10:ce:f9:37:
                    4a:25:8d:b7:91:a7:ea:fe:f8:20:9c:9e:d9:4d:11:
                    20:bf:02:b6:21:b9:35:2b:d7:88:8a:cc:4f:c4:be:
                    4b:eb:ad:58:11:f0:fc:39:ee:b7:1c:55:0f:a5:4a:
                    94:fb:db:26:9f:9d:a3:91:c2:c1:52:3c:aa:84:86:
                    c5:ad
                Exponent: 65537 (0x10001)
        X509v3 extensions:
            X509v3 Basic Constraints: critical
                CA:TRUE
            X509v3 Issuer Alternative Name: critical
                <EMPTY>

    Signature Algorithm: sha256WithRSAEncryption
         14:d2:8b:6f:a9:06:3a:33:9f:3b:d8:20:9d:6b:42:d8:0a:d9:
         a8:e4:0d:11:fd:52:94:40:3f:56:c4:58:bf:cf:50:e9:e5:c6:
         40:13:79:22:43:a5:6e:0d:66:9f:d4:c1:5e:39:c4:2d:83:18:
         55:18:84:6f:2b:0a:b2:95:6b:92:80:c9:a1:0f:9b:37:f2:ed:
         22:ef:f6:f8:36:c7:c8:40:75:32:c8:ed:7e:f7:26:d8:3d:1b:
         58:dd:8f:41:70:95:d8:ca:f5:ad:67:bd:90:36:e9:13:31:a1:
         42:0e:c7:c5:51:bd:b8:ad:74:50:6b:ed:98:6b:48:26:5f:14:
         c4:14:ac:6f:6d:3e:82:0d:20:10:39:d6:5a:c8:06:45:13:cb:
         09:a0:14:5a:50:0f:f0:7b:dd:42:6c:86:0b:87:11:af:66:b7:
         28:5e:8f:70:d8:98:25:b0:ec:e3:da:b8:aa:42:9a:18:86:dc:
         1a:f3:89:d1:79:e9:7b:64:66:b8:77:cf:ad:ce:ca:df:cd:63:
         fc:36:d3:40:b2:ad:b1:bd:0e:29:65:d5:0a:50:c9:05:1a:d8:
         36:68:f7:21:70:ea:b9:6d:f0:81:9d:96:12:bc:1b:cb:42:da:
         87:ec:01:ee:1c:3e:4d:4d:24:ac:33:f3:c8:92:6f:f0:12:28:
         1f:aa:8c:57
-----BEGIN CERTIFICATE-----
MIIDejCCAmKgAwIBAgIBGjANBgkqhkiG9w0BAQsFADBpMQswCQYDVQQGEwJVUzET
MBEGA1UECAwKQ2FsaWZvcm5pYTEUMBIGA1UEBwwLU2FudGEgQ2xhcmExDTALBgNV
BAoMBHBrZzUxDDAKBgNVBAMMA3RhMzESMBAGCSqGSIb3DQEJARYDdGEzMB4XDTE2
MTEyODIyNTA1NloXDTE5MDgyNTIyNTA1NlowdTELMAkGA1UEBhMCVVMxEzARBgNV
BAgMCkNhbGlmb3JuaWExFDASBgNVBAcMC1NhbnRhIENsYXJhMQ0wCwYDVQQKDARw
a2c1MRIwEAYDVQQDDAljaDEuMV90YTMxGDAWBgkqhkiG9w0BCQEWCWNoMS4xX3Rh
MzCCASIwDQYJKoZIhvcNAQEBBQADggEPADCCAQoCggEBANyuCkxkYaxGxNua0uwr
nCPqj03VEC6PwW3L05MgvCqWvkFIbprW97xfFlTdLZy3gagRCaSURC+HxI3xoyTv
kPugmUJUjmLMTbwJVXAOdsarVd9Xehi01cMoVRB9Ewze8GdiodBZBfskPKcGosFA
SbuIcG4d9f2GcyM4jRW8CRdIEXO/0o6H+V0cHFCRqHm3xXArXhq74XOtSfozT3qP
NAeN9ljjSCcNj0w05w+cT9Xo4SmC9joBmQUtHdue+JIQzvk3SiWNt5Gn6v74IJye
2U0RIL8CtiG5NSvXiIrMT8S+S+utWBHw/DnutxxVD6VKlPvbJp+do5HCwVI8qoSG
xa0CAwEAAaMhMB8wDwYDVR0TAQH/BAUwAwEB/zAMBgNVHRIBAf8EAjAAMA0GCSqG
SIb3DQEBCwUAA4IBAQAU0otvqQY6M5872CCda0LYCtmo5A0R/VKUQD9WxFi/z1Dp
5cZAE3kiQ6VuDWaf1MFeOcQtgxhVGIRvKwqylWuSgMmhD5s38u0i7/b4NsfIQHUy
yO1+9ybYPRtY3Y9BcJXYyvWtZ72QNukTMaFCDsfFUb24rXRQa+2Ya0gmXxTEFKxv
bT6CDSAQOdZayAZFE8sJoBRaUA/we91CbIYLhxGvZrcoXo9w2JglsOzj2riqQpoY
htwa84nReel7ZGa4d8+tzsrfzWP8NtNAsq2xvQ4pZdUKUMkFGtg2aPchcOq5bfCB
nZYSvBvLQtqH7AHuHD5NTSSsM/PIkm/wEigfqoxX
-----END CERTIFICATE-----
