Certificate:
    Data:
        Version: 3 (0x2)
        Serial Number: 31 (0x1f)
    Signature Algorithm: sha256WithRSAEncryption
        Issuer: C=US, ST=California, L=Santa Clara, O=pkg5, CN=ta3/emailAddress=ta3
        Validity
            Not Before: Jan  1 01:01:01 2035 GMT
            Not After : Jan  2 01:01:01 2035 GMT
        Subject: C=US, ST=California, L=Santa Clara, O=pkg5, CN=ch1.3_ta3/emailAddress=ch1.3_ta3
        Subject Public Key Info:
            Public Key Algorithm: rsaEncryption
                Public-Key: (2048 bit)
                Modulus:
                    00:a6:83:a6:00:f2:1a:9d:90:43:bb:e0:22:64:ef:
                    c5:e8:7a:77:2f:b5:e3:bd:88:d3:bf:7b:33:8e:5a:
                    fa:e3:c6:14:e7:4a:c8:9d:ae:69:0f:d6:3e:04:1f:
                    22:74:2e:f0:c1:11:7f:0f:3a:f1:c1:cf:13:3f:05:
                    2f:f6:c0:10:10:08:a6:e5:ef:93:ca:e1:6b:7e:f2:
                    e3:dc:95:80:f4:5e:20:9a:61:4a:3e:76:a0:ea:16:
                    f5:97:c2:81:fb:87:90:b1:2b:f9:ab:4f:d2:53:58:
                    6f:e8:9a:88:00:f5:85:90:6a:48:43:0a:d1:2a:b8:
                    2e:25:ee:91:32:0e:51:2e:40:bb:71:af:14:7f:62:
                    3f:3b:57:84:60:e5:e3:c3:dc:49:97:34:14:cf:0a:
                    29:ef:df:1b:0a:bf:62:d5:69:b4:3b:83:16:95:77:
                    cb:6b:fd:a6:83:4c:0d:f6:2c:cc:83:fe:ea:19:7d:
                    c0:a7:9e:99:a9:86:49:14:35:01:4f:6a:8e:6c:6f:
                    cf:d5:52:b8:18:0e:cc:20:41:bd:e4:eb:fd:db:54:
                    eb:3c:14:ae:82:63:0f:37:03:22:8d:79:d7:e8:f6:
                    3e:2f:58:7d:ea:33:01:e9:48:89:b7:fb:d7:3d:a2:
                    68:f6:96:39:8b:5e:45:f0:a7:90:dc:d2:7f:d9:c0:
                    d4:8b
                Exponent: 65537 (0x10001)
        X509v3 extensions:
            X509v3 Subject Key Identifier: 
                72:4D:B4:9F:B5:5D:55:B9:14:4D:53:DE:E1:21:C3:14:BE:82:E7:75
            X509v3 Authority Key Identifier: 
                keyid:05:4A:64:CF:6C:39:57:EB:DD:04:B1:24:67:93:9A:D7:7F:AE:3D:3F
                DirName:/C=US/ST=California/L=Santa Clara/O=pkg5/CN=ta3/emailAddress=ta3
                serial:CA:FC:34:24:A4:24:1F:39

            X509v3 Basic Constraints: critical
                CA:TRUE
            X509v3 Key Usage: critical
                Certificate Sign, CRL Sign
            X509v3 Subject Alternative Name: 
                email:ch1.3_ta3
    Signature Algorithm: sha256WithRSAEncryption
         9e:eb:66:34:93:2b:1e:8a:15:6e:86:09:06:3b:8b:9f:e1:a6:
         2a:ea:47:71:07:bd:b9:2b:67:ed:36:f7:1a:35:38:5a:2e:a6:
         21:09:ff:f4:37:87:7c:ab:ca:9b:96:45:45:83:69:d7:ea:cf:
         14:ec:27:f5:1b:df:e9:47:76:90:f8:b5:bf:8b:d3:63:d1:66:
         10:67:ba:bc:04:36:54:06:22:f6:35:6b:5d:56:f0:7f:cd:f5:
         89:1b:22:f0:15:e2:97:88:c6:ba:2f:8e:c7:03:d6:5d:7d:6d:
         e6:0c:5b:13:f8:6d:ab:f3:57:c5:19:34:fb:f6:91:80:f6:81:
         08:16:b4:17:db:fb:1b:40:76:64:c4:e8:fb:58:5f:80:9b:dc:
         78:2d:11:e0:4f:1e:c0:1e:b1:d9:fe:b3:d3:db:77:92:ab:94:
         5b:6e:b1:26:60:79:ee:25:cd:fe:b5:99:0c:06:ea:35:6f:03:
         f9:08:9b:00:f7:dd:41:bf:37:4c:a2:a1:25:0c:72:d2:4c:b0:
         dc:4c:3b:74:34:78:6c:91:e2:c7:ba:9e:31:f1:d3:6c:15:31:
         d1:fe:87:cc:a8:cd:48:6e:bd:87:4c:f8:8e:11:d9:2b:ef:30:
         5f:b8:31:b4:d0:1e:6f:92:59:36:f1:da:ee:e5:1b:e0:22:23:
         99:96:4f:1a
-----BEGIN CERTIFICATE-----
MIIEUTCCAzmgAwIBAgIBHzANBgkqhkiG9w0BAQsFADBpMQswCQYDVQQGEwJVUzET
MBEGA1UECAwKQ2FsaWZvcm5pYTEUMBIGA1UEBwwLU2FudGEgQ2xhcmExDTALBgNV
BAoMBHBrZzUxDDAKBgNVBAMMA3RhMzESMBAGCSqGSIb3DQEJARYDdGEzMB4XDTM1
MDEwMTAxMDEwMVoXDTM1MDEwMjAxMDEwMVowdTELMAkGA1UEBhMCVVMxEzARBgNV
BAgMCkNhbGlmb3JuaWExFDASBgNVBAcMC1NhbnRhIENsYXJhMQ0wCwYDVQQKDARw
a2c1MRIwEAYDVQQDDAljaDEuM190YTMxGDAWBgkqhkiG9w0BCQEWCWNoMS4zX3Rh
MzCCASIwDQYJKoZIhvcNAQEBBQADggEPADCCAQoCggEBAKaDpgDyGp2QQ7vgImTv
xeh6dy+1472I0797M45a+uPGFOdKyJ2uaQ/WPgQfInQu8MERfw868cHPEz8FL/bA
EBAIpuXvk8rha37y49yVgPReIJphSj52oOoW9ZfCgfuHkLEr+atP0lNYb+iaiAD1
hZBqSEMK0Sq4LiXukTIOUS5Au3GvFH9iPztXhGDl48PcSZc0FM8KKe/fGwq/YtVp
tDuDFpV3y2v9poNMDfYszIP+6hl9wKeemamGSRQ1AU9qjmxvz9VSuBgOzCBBveTr
/dtU6zwUroJjDzcDIo151+j2Pi9YfeozAelIibf71z2iaPaWOYteRfCnkNzSf9nA
1IsCAwEAAaOB9zCB9DAdBgNVHQ4EFgQUck20n7VdVbkUTVPe4SHDFL6C53UwgZsG
A1UdIwSBkzCBkIAUBUpkz2w5V+vdBLEkZ5Oa13+uPT+hbaRrMGkxCzAJBgNVBAYT
AlVTMRMwEQYDVQQIDApDYWxpZm9ybmlhMRQwEgYDVQQHDAtTYW50YSBDbGFyYTEN
MAsGA1UECgwEcGtnNTEMMAoGA1UEAwwDdGEzMRIwEAYJKoZIhvcNAQkBFgN0YTOC
CQDK/DQkpCQfOTAPBgNVHRMBAf8EBTADAQH/MA4GA1UdDwEB/wQEAwIBBjAUBgNV
HREEDTALgQljaDEuM190YTMwDQYJKoZIhvcNAQELBQADggEBAJ7rZjSTKx6KFW6G
CQY7i5/hpirqR3EHvbkrZ+029xo1OFoupiEJ//Q3h3yrypuWRUWDadfqzxTsJ/Ub
3+lHdpD4tb+L02PRZhBnurwENlQGIvY1a11W8H/N9YkbIvAV4peIxrovjscD1l19
beYMWxP4bavzV8UZNPv2kYD2gQgWtBfb+xtAdmTE6PtYX4Cb3HgtEeBPHsAesdn+
s9Pbd5KrlFtusSZgee4lzf61mQwG6jVvA/kImwD33UG/N0yioSUMctJMsNxMO3Q0
eGyR4se6njHx02wVMdH+h8yozUhuvYdM+I4R2SvvMF+4MbTQHm+SWTbx2u7lG+Ai
I5mWTxo=
-----END CERTIFICATE-----
