Certificate:
    Data:
        Version: 3 (0x2)
        Serial Number: 27 (0x1b)
    Signature Algorithm: sha256WithRSAEncryption
        Issuer: C=US, ST=California, L=Santa Clara, O=pkg5, CN=ta3/emailAddress=ta3
        Validity
            Not Before: Mar 20 10:20:54 2018 GMT
            Not After : Dec 14 10:20:54 2020 GMT
        Subject: C=US, ST=California, L=Santa Clara, O=pkg5, CN=ch1.1_ta3/emailAddress=ch1.1_ta3
        Subject Public Key Info:
            Public Key Algorithm: rsaEncryption
                Public-Key: (2048 bit)
                Modulus:
                    00:e5:20:ac:1a:21:76:6e:1b:fc:8a:12:1e:38:ec:
                    55:55:34:8e:b7:d8:8e:65:48:47:e8:e9:ac:d3:0f:
                    59:87:11:3e:1d:e5:96:5f:46:68:07:46:27:8a:4f:
                    fa:57:c2:1c:03:5a:31:01:58:85:3c:ea:7f:8d:bc:
                    83:af:a6:19:8a:a1:56:ba:83:6f:92:4f:ce:4e:37:
                    6a:34:06:f6:42:f5:98:c7:3d:5a:27:10:8a:f3:2d:
                    e1:90:0c:42:69:5e:b3:74:28:96:1d:0c:1b:0b:e3:
                    8f:53:e1:69:94:38:58:e0:fb:c2:a6:d7:4a:b4:5a:
                    5b:e1:5c:59:c7:59:0d:3a:4f:f4:8b:23:9d:3a:cc:
                    7d:8f:16:43:15:b3:2f:f2:93:c7:28:e5:b5:57:f5:
                    07:cd:4f:3d:e1:a3:ab:c5:b9:48:20:7a:59:7c:c4:
                    84:4f:95:6e:ed:f9:13:81:bb:91:13:75:b6:a9:81:
                    0d:5b:e1:fc:59:1d:f8:fd:64:15:5a:91:9b:98:94:
                    ba:22:91:d4:ba:de:ea:d2:21:d9:5d:62:7e:85:06:
                    2a:4c:d3:c2:9b:49:25:4c:2b:ee:24:5f:86:65:50:
                    77:aa:c6:8d:b6:ab:7e:18:d8:98:63:31:a4:db:3d:
                    86:87:27:7c:1d:f9:e1:09:52:c4:cf:63:d3:e2:e8:
                    ae:f9
                Exponent: 65537 (0x10001)
        X509v3 extensions:
            X509v3 Basic Constraints: critical
                CA:TRUE
            X509v3 Subject Alternative Name: 
                email:ch1.1_ta3
            X509v3 Issuer Alternative Name: critical
                email:ca
    Signature Algorithm: sha256WithRSAEncryption
         9f:6d:c6:34:10:7e:22:74:d1:c4:53:66:cc:ab:22:f6:82:c3:
         6d:bb:33:55:1f:a1:db:07:9e:3d:6a:1e:2b:c3:8a:50:35:f9:
         74:23:d2:44:5a:a6:40:7d:be:37:3b:b9:29:d4:74:d7:3e:16:
         19:be:f3:3e:b2:46:55:54:97:04:3e:4f:64:b1:05:bd:54:45:
         f8:2e:65:ce:cd:de:2f:08:60:d9:5c:6c:3d:64:7f:d9:87:17:
         ff:58:f0:6f:c3:99:d2:03:b1:23:6c:17:d0:1a:af:e8:4f:9a:
         d8:c6:1e:02:36:7c:1c:89:74:9d:63:e0:42:46:fe:21:09:d3:
         60:56:1d:30:f5:79:41:d3:0c:b3:5d:cd:94:55:ba:68:c3:ad:
         a6:3c:6a:09:e0:8a:10:d1:d8:96:94:8c:50:40:dd:a6:95:ce:
         16:1e:be:68:eb:51:35:f3:23:4c:c5:30:db:ea:8e:67:20:f7:
         fe:19:18:49:95:06:0b:c4:2e:56:52:a9:e5:18:4f:6e:bd:2f:
         d5:3f:9f:d6:44:d4:3a:be:3f:ea:18:6c:72:c3:11:91:3a:42:
         30:2f:58:a5:42:ff:0b:9b:1a:e9:1f:d2:94:1e:63:40:39:86:
         12:52:c8:c1:cd:9f:0f:9a:e5:c2:b7:ae:aa:32:1b:d4:dc:2f:
         bc:13:5a:43
-----BEGIN CERTIFICATE-----
MIIDlDCCAnygAwIBAgIBGzANBgkqhkiG9w0BAQsFADBpMQswCQYDVQQGEwJVUzET
MBEGA1UECAwKQ2FsaWZvcm5pYTEUMBIGA1UEBwwLU2FudGEgQ2xhcmExDTALBgNV
BAoMBHBrZzUxDDAKBgNVBAMMA3RhMzESMBAGCSqGSIb3DQEJARYDdGEzMB4XDTE4
MDMyMDEwMjA1NFoXDTIwMTIxNDEwMjA1NFowdTELMAkGA1UEBhMCVVMxEzARBgNV
BAgMCkNhbGlmb3JuaWExFDASBgNVBAcMC1NhbnRhIENsYXJhMQ0wCwYDVQQKDARw
a2c1MRIwEAYDVQQDDAljaDEuMV90YTMxGDAWBgkqhkiG9w0BCQEWCWNoMS4xX3Rh
MzCCASIwDQYJKoZIhvcNAQEBBQADggEPADCCAQoCggEBAOUgrBohdm4b/IoSHjjs
VVU0jrfYjmVIR+jprNMPWYcRPh3lll9GaAdGJ4pP+lfCHANaMQFYhTzqf428g6+m
GYqhVrqDb5JPzk43ajQG9kL1mMc9WicQivMt4ZAMQmles3Qolh0MGwvjj1PhaZQ4
WOD7wqbXSrRaW+FcWcdZDTpP9IsjnTrMfY8WQxWzL/KTxyjltVf1B81PPeGjq8W5
SCB6WXzEhE+Vbu35E4G7kRN1tqmBDVvh/Fkd+P1kFVqRm5iUuiKR1Lre6tIh2V1i
foUGKkzTwptJJUwr7iRfhmVQd6rGjbarfhjYmGMxpNs9hocnfB354QlSxM9j0+Lo
rvkCAwEAAaM7MDkwDwYDVR0TAQH/BAUwAwEB/zAUBgNVHREEDTALgQljaDEuMV90
YTMwEAYDVR0SAQH/BAYwBIECY2EwDQYJKoZIhvcNAQELBQADggEBAJ9txjQQfiJ0
0cRTZsyrIvaCw227M1UfodsHnj1qHivDilA1+XQj0kRapkB9vjc7uSnUdNc+Fhm+
8z6yRlVUlwQ+T2SxBb1URfguZc7N3i8IYNlcbD1kf9mHF/9Y8G/DmdIDsSNsF9Aa
r+hPmtjGHgI2fByJdJ1j4EJG/iEJ02BWHTD1eUHTDLNdzZRVumjDraY8agngihDR
2JaUjFBA3aaVzhYevmjrUTXzI0zFMNvqjmcg9/4ZGEmVBgvELlZSqeUYT269L9U/
n9ZE1Dq+P+oYbHLDEZE6QjAvWKVC/wubGukf0pQeY0A5hhJSyMHNnw+a5cK3rqoy
G9TcL7wTWkM=
-----END CERTIFICATE-----
