Certificate:
    Data:
        Version: 3 (0x2)
        Serial Number: 28 (0x1c)
    Signature Algorithm: sha256WithRSAEncryption
        Issuer: C=US, ST=California, L=Santa Clara, O=pkg5, CN=ta3/emailAddress=ta3
        Validity
            Not Before: Jan  1 01:01:01 2009 GMT
            Not After : Jan  2 01:01:01 2009 GMT
        Subject: C=US, ST=California, L=Santa Clara, O=pkg5, CN=ch1.2_ta3/emailAddress=ch1.2_ta3
        Subject Public Key Info:
            Public Key Algorithm: rsaEncryption
                Public-Key: (1024 bit)
                Modulus:
                    00:c8:0f:57:c5:85:d4:31:79:e9:53:ff:85:d5:7a:
                    2c:1c:9a:d3:06:fd:b3:82:50:f2:31:dd:43:f3:ff:
                    61:2f:af:d0:1b:14:80:10:68:29:a1:e1:d0:16:ad:
                    a0:13:f1:37:15:ec:2e:0c:06:e8:55:6f:9f:ea:46:
                    9f:1e:21:05:77:14:fc:d7:70:a1:81:b9:1b:9d:3e:
                    7c:b7:92:6f:06:fb:37:37:f3:ad:a9:c1:ab:cc:e1:
                    f9:b4:a1:67:10:7f:96:99:4f:4f:6f:b5:2a:02:42:
                    e4:34:4b:a5:50:ef:c4:2d:7a:d0:17:bc:e0:67:d9:
                    c2:88:01:81:c4:6f:47:a3:9b
                Exponent: 65537 (0x10001)
        X509v3 extensions:
            X509v3 Subject Key Identifier: 
                65:27:A8:13:72:7C:FE:83:74:52:61:8D:A4:65:D6:D3:69:3E:49:EB
            X509v3 Authority Key Identifier: 
                keyid:96:DC:B7:E9:9F:4E:3E:E7:7D:6D:D3:FC:4D:AA:7B:32:A1:2B:5A:6C
                DirName:/C=US/ST=California/L=Santa Clara/O=pkg5/CN=ta3/emailAddress=ta3
                serial:93:E7:9B:62:38:5C:7D:DF

            X509v3 Basic Constraints: critical
                CA:TRUE
            X509v3 Key Usage: critical
                Certificate Sign, CRL Sign
    Signature Algorithm: sha256WithRSAEncryption
         18:56:ee:53:c6:05:0c:ce:a8:81:2e:20:f1:98:36:7c:f7:08:
         7e:92:f7:68:67:6a:0e:0a:f2:c0:ef:14:54:fd:f4:be:dd:4c:
         7f:13:ae:3c:5a:3d:b4:66:d1:52:b7:75:a8:10:1f:0b:e4:67:
         41:cb:3c:32:ff:9e:65:a9:83:29:7e:97:da:e7:eb:39:f6:f3:
         95:ee:f2:be:9d:d1:f8:0d:06:93:82:1b:69:75:f8:bc:01:42:
         07:c4:37:3f:e8:a3:64:ff:b8:a6:46:80:5a:0b:2d:96:ef:3c:
         6c:f9:21:f5:a0:bd:11:93:22:29:bc:6d:e3:48:18:9c:94:12:
         37:45
-----BEGIN CERTIFICATE-----
MIIDNjCCAp+gAwIBAgIBHDANBgkqhkiG9w0BAQsFADBpMQswCQYDVQQGEwJVUzET
MBEGA1UECAwKQ2FsaWZvcm5pYTEUMBIGA1UEBwwLU2FudGEgQ2xhcmExDTALBgNV
BAoMBHBrZzUxDDAKBgNVBAMMA3RhMzESMBAGCSqGSIb3DQEJARYDdGEzMB4XDTA5
MDEwMTAxMDEwMVoXDTA5MDEwMjAxMDEwMVowdTELMAkGA1UEBhMCVVMxEzARBgNV
BAgMCkNhbGlmb3JuaWExFDASBgNVBAcMC1NhbnRhIENsYXJhMQ0wCwYDVQQKDARw
a2c1MRIwEAYDVQQDDAljaDEuMl90YTMxGDAWBgkqhkiG9w0BCQEWCWNoMS4yX3Rh
MzCBnzANBgkqhkiG9w0BAQEFAAOBjQAwgYkCgYEAyA9XxYXUMXnpU/+F1XosHJrT
Bv2zglDyMd1D8/9hL6/QGxSAEGgpoeHQFq2gE/E3FewuDAboVW+f6kafHiEFdxT8
13ChgbkbnT58t5JvBvs3N/OtqcGrzOH5tKFnEH+WmU9Pb7UqAkLkNEulUO/ELXrQ
F7zgZ9nCiAGBxG9Ho5sCAwEAAaOB4TCB3jAdBgNVHQ4EFgQUZSeoE3J8/oN0UmGN
pGXW02k+SeswgZsGA1UdIwSBkzCBkIAUlty36Z9OPud9bdP8Tap7MqErWmyhbaRr
MGkxCzAJBgNVBAYTAlVTMRMwEQYDVQQIDApDYWxpZm9ybmlhMRQwEgYDVQQHDAtT
YW50YSBDbGFyYTENMAsGA1UECgwEcGtnNTEMMAoGA1UEAwwDdGEzMRIwEAYJKoZI
hvcNAQkBFgN0YTOCCQCT55tiOFx93zAPBgNVHRMBAf8EBTADAQH/MA4GA1UdDwEB
/wQEAwIBBjANBgkqhkiG9w0BAQsFAAOBgQAYVu5TxgUMzqiBLiDxmDZ89wh+kvdo
Z2oOCvLA7xRU/fS+3Ux/E648Wj20ZtFSt3WoEB8L5GdByzwy/55lqYMpfpfa5+s5
9vOV7vK+ndH4DQaTghtpdfi8AUIHxDc/6KNk/7imRoBaCy2W7zxs+SH1oL0RkyIp
vG3jSBiclBI3RQ==
-----END CERTIFICATE-----
