Certificate:
    Data:
        Version: 3 (0x2)
        Serial Number: 26 (0x1a)
    Signature Algorithm: sha256WithRSAEncryption
        Issuer: C=US, ST=California, L=Santa Clara, O=pkg5, CN=ta3/emailAddress=ta3
        Validity
            Not Before: Dec  6 03:06:43 2014 GMT
            Not After : Sep  1 03:06:43 2017 GMT
        Subject: C=US, ST=California, L=Santa Clara, O=pkg5, CN=ch1.1_ta3/emailAddress=ch1.1_ta3
        Subject Public Key Info:
            Public Key Algorithm: rsaEncryption
                Public-Key: (1024 bit)
                Modulus:
                    00:be:5c:f1:58:76:92:e2:53:ec:26:1f:28:1f:2c:
                    73:75:fe:03:71:01:d8:73:ed:7b:f1:90:17:c2:58:
                    c3:79:b1:6e:9f:ee:20:c0:50:8f:29:ce:82:b4:4d:
                    ee:cd:eb:73:48:68:98:e8:b4:ec:05:f4:3c:d6:d4:
                    92:26:65:e7:13:c5:ff:5a:50:9f:55:f2:43:64:75:
                    65:83:40:42:3b:37:09:0c:4d:da:b8:01:e2:20:34:
                    f9:bb:d6:8a:aa:e3:93:10:a9:37:4b:66:fa:76:20:
                    a9:e7:ff:b9:26:86:5c:63:a4:d5:f9:2a:8e:2e:2d:
                    13:d4:c7:2f:31:c2:c4:91:eb
                Exponent: 65537 (0x10001)
        X509v3 extensions:
            X509v3 Basic Constraints: critical
                CA:TRUE
            X509v3 Issuer Alternative Name: critical
                <EMPTY>

    Signature Algorithm: sha256WithRSAEncryption
         07:31:3f:60:eb:20:d6:59:8a:8e:af:69:6c:72:18:f6:6e:1a:
         b5:fb:45:2f:60:cd:39:1d:68:63:40:f9:3b:16:76:8c:76:f9:
         0a:47:7a:46:1c:f7:52:81:a8:a2:4c:ee:9f:84:52:36:c3:ba:
         11:da:ff:1f:ea:9c:b3:47:2a:1f:65:71:5c:f8:13:f4:32:ed:
         8b:3a:25:16:09:44:5c:66:96:cc:7f:78:67:4d:23:3e:83:54:
         a0:b4:71:fd:83:69:32:f1:0c:e2:5b:d1:8b:ef:c7:53:df:28:
         88:63:87:41:22:d9:9e:41:37:a3:f1:c1:d8:d8:50:d5:34:7f:
         bf:8d
-----BEGIN CERTIFICATE-----
MIICdTCCAd6gAwIBAgIBGjANBgkqhkiG9w0BAQsFADBpMQswCQYDVQQGEwJVUzET
MBEGA1UECAwKQ2FsaWZvcm5pYTEUMBIGA1UEBwwLU2FudGEgQ2xhcmExDTALBgNV
BAoMBHBrZzUxDDAKBgNVBAMMA3RhMzESMBAGCSqGSIb3DQEJARYDdGEzMB4XDTE0
MTIwNjAzMDY0M1oXDTE3MDkwMTAzMDY0M1owdTELMAkGA1UEBhMCVVMxEzARBgNV
BAgMCkNhbGlmb3JuaWExFDASBgNVBAcMC1NhbnRhIENsYXJhMQ0wCwYDVQQKDARw
a2c1MRIwEAYDVQQDDAljaDEuMV90YTMxGDAWBgkqhkiG9w0BCQEWCWNoMS4xX3Rh
MzCBnzANBgkqhkiG9w0BAQEFAAOBjQAwgYkCgYEAvlzxWHaS4lPsJh8oHyxzdf4D
cQHYc+178ZAXwljDebFun+4gwFCPKc6CtE3uzetzSGiY6LTsBfQ81tSSJmXnE8X/
WlCfVfJDZHVlg0BCOzcJDE3auAHiIDT5u9aKquOTEKk3S2b6diCp5/+5JoZcY6TV
+SqOLi0T1McvMcLEkesCAwEAAaMhMB8wDwYDVR0TAQH/BAUwAwEB/zAMBgNVHRIB
Af8EAjAAMA0GCSqGSIb3DQEBCwUAA4GBAAcxP2DrINZZio6vaWxyGPZuGrX7RS9g
zTkdaGNA+TsWdox2+QpHekYc91KBqKJM7p+EUjbDuhHa/x/qnLNHKh9lcVz4E/Qy
7Ys6JRYJRFxmlsx/eGdNIz6DVKC0cf2DaTLxDOJb0Yvvx1PfKIhjh0Ei2Z5BN6Px
wdjYUNU0f7+N
-----END CERTIFICATE-----
