Certificate:
    Data:
        Version: 3 (0x2)
        Serial Number: 38 (0x26)
    Signature Algorithm: sha256WithRSAEncryption
        Issuer: C=US, ST=California, L=Santa Clara, O=pkg5, CN=ta4/emailAddress=ta4
        Validity
            Not Before: Dec  6 03:06:43 2014 GMT
            Not After : Sep  1 03:06:43 2017 GMT
        Subject: C=US, ST=California, L=Santa Clara, O=pkg5, CN=ch1.1_ta4/emailAddress=ch1.1_ta4
        Subject Public Key Info:
            Public Key Algorithm: rsaEncryption
                Public-Key: (1024 bit)
                Modulus:
                    00:91:ef:98:89:09:ce:6d:95:ed:6f:d3:a6:6f:07:
                    7a:99:81:32:e4:d4:93:2b:f3:de:88:5d:a9:5d:51:
                    a7:07:e8:80:08:26:44:67:17:3a:5a:95:4f:47:a1:
                    0e:38:0b:3e:10:df:28:44:3f:91:14:ac:0d:d0:e1:
                    50:82:77:8a:ab:08:5b:a0:0e:74:60:f2:b5:f5:62:
                    39:4f:02:12:96:36:d5:b7:c5:4f:52:dc:94:1b:bb:
                    ec:f8:63:61:46:62:d6:63:23:0a:fd:9a:ec:46:c5:
                    9a:90:68:6e:11:c8:e0:8d:91:40:14:64:8b:72:c3:
                    7f:7a:42:1b:a7:c4:da:aa:33
                Exponent: 65537 (0x10001)
        X509v3 extensions:
            X509v3 Subject Key Identifier: 
                AC:EF:00:16:EC:EA:D6:B3:BC:39:6F:9D:35:BD:AB:19:14:78:A9:52
            X509v3 Authority Key Identifier: 
                keyid:84:80:A1:5F:84:9C:D1:C3:B8:50:F3:B8:3F:AA:D1:9A:F4:D8:CF:6F
                DirName:/C=US/ST=California/L=Santa Clara/O=pkg5/CN=ta4/emailAddress=ta4
                serial:EC:FB:57:47:90:39:9D:DF

            X509v3 Basic Constraints: critical
                CA:TRUE
            X509v3 Key Usage: critical
                Certificate Sign
    Signature Algorithm: sha256WithRSAEncryption
         52:63:01:8d:32:79:fa:81:b0:6c:61:b0:fd:6e:f4:0a:f5:c7:
         d6:e1:a0:88:7f:34:82:06:2f:a2:28:af:15:aa:58:67:75:73:
         81:26:9f:66:e0:3c:6a:40:d6:aa:22:f0:7e:bc:b2:4b:37:5a:
         09:29:05:c0:47:21:1d:3c:74:ab:9f:87:ee:1a:d2:3d:56:2f:
         70:a9:e9:0b:0f:6b:b7:d4:55:39:96:28:4a:27:13:93:ad:c6:
         b5:dd:99:4b:64:8c:a6:08:b9:1e:b9:b6:da:57:5a:d4:02:0c:
         81:0c:be:53:cb:5d:51:8f:bb:46:c9:4a:c3:73:a5:27:ba:c3:
         27:97
-----BEGIN CERTIFICATE-----
MIIDNjCCAp+gAwIBAgIBJjANBgkqhkiG9w0BAQsFADBpMQswCQYDVQQGEwJVUzET
MBEGA1UECAwKQ2FsaWZvcm5pYTEUMBIGA1UEBwwLU2FudGEgQ2xhcmExDTALBgNV
BAoMBHBrZzUxDDAKBgNVBAMMA3RhNDESMBAGCSqGSIb3DQEJARYDdGE0MB4XDTE0
MTIwNjAzMDY0M1oXDTE3MDkwMTAzMDY0M1owdTELMAkGA1UEBhMCVVMxEzARBgNV
BAgMCkNhbGlmb3JuaWExFDASBgNVBAcMC1NhbnRhIENsYXJhMQ0wCwYDVQQKDARw
a2c1MRIwEAYDVQQDDAljaDEuMV90YTQxGDAWBgkqhkiG9w0BCQEWCWNoMS4xX3Rh
NDCBnzANBgkqhkiG9w0BAQEFAAOBjQAwgYkCgYEAke+YiQnObZXtb9Ombwd6mYEy
5NSTK/PeiF2pXVGnB+iACCZEZxc6WpVPR6EOOAs+EN8oRD+RFKwN0OFQgneKqwhb
oA50YPK19WI5TwISljbVt8VPUtyUG7vs+GNhRmLWYyMK/ZrsRsWakGhuEcjgjZFA
FGSLcsN/ekIbp8TaqjMCAwEAAaOB4TCB3jAdBgNVHQ4EFgQUrO8AFuzq1rO8OW+d
Nb2rGRR4qVIwgZsGA1UdIwSBkzCBkIAUhIChX4Sc0cO4UPO4P6rRmvTYz2+hbaRr
MGkxCzAJBgNVBAYTAlVTMRMwEQYDVQQIDApDYWxpZm9ybmlhMRQwEgYDVQQHDAtT
YW50YSBDbGFyYTENMAsGA1UECgwEcGtnNTEMMAoGA1UEAwwDdGE0MRIwEAYJKoZI
hvcNAQkBFgN0YTSCCQDs+1dHkDmd3zAPBgNVHRMBAf8EBTADAQH/MA4GA1UdDwEB
/wQEAwICBDANBgkqhkiG9w0BAQsFAAOBgQBSYwGNMnn6gbBsYbD9bvQK9cfW4aCI
fzSCBi+iKK8VqlhndXOBJp9m4DxqQNaqIvB+vLJLN1oJKQXARyEdPHSrn4fuGtI9
Vi9wqekLD2u31FU5lihKJxOTrca13ZlLZIymCLkeubbaV1rUAgyBDL5Ty11Rj7tG
yUrDc6UnusMnlw==
-----END CERTIFICATE-----
