Certificate:
    Data:
        Version: 3 (0x2)
        Serial Number: 31 (0x1f)
        Signature Algorithm: sha256WithRSAEncryption
        Issuer: C=US, ST=California, L=Santa Clara, O=pkg5, CN=ta3/emailAddress=ta3
        Validity
            Not Before: Jan  1 01:01:01 2035 GMT
            Not After : Jan  2 01:01:01 2035 GMT
        Subject: C=US, ST=California, L=Santa Clara, O=pkg5, CN=ch1.3_ta3/emailAddress=ch1.3_ta3
        Subject Public Key Info:
            Public Key Algorithm: rsaEncryption
                Public-Key: (2048 bit)
                Modulus:
                    00:a6:28:c2:e2:75:c4:af:05:4f:57:a9:b6:c7:8b:
                    b1:32:35:bc:51:9b:2a:49:29:42:62:6c:3f:aa:bc:
                    8a:5a:ce:89:12:c5:7a:1e:bc:55:d8:1a:a4:30:9a:
                    d6:a8:4f:71:80:b1:76:57:a9:05:9c:74:f1:82:be:
                    f3:6f:10:40:8f:0e:f3:bc:5e:d3:8f:29:da:40:38:
                    38:86:70:d6:be:6d:54:ef:1f:71:8b:67:8a:00:c5:
                    8a:46:b1:2a:c8:88:38:20:f4:d4:44:5b:88:39:62:
                    ed:9a:10:fe:17:b2:f7:ca:42:31:f2:f1:14:10:a1:
                    fe:fd:c4:d7:f9:0a:42:b2:ec:72:9e:fe:4f:d5:2c:
                    a1:25:95:91:cd:af:2e:8f:9d:84:db:08:36:5a:2c:
                    79:a6:91:d2:0e:d5:b3:07:e2:ea:b6:3f:e7:5c:de:
                    b6:ca:9d:bc:e5:4b:d9:ff:62:37:25:bc:c9:c2:16:
                    d5:21:ab:72:1a:1e:c6:14:aa:cc:ae:3f:fb:bc:8b:
                    9e:a5:a8:ac:b4:54:10:17:5a:1b:53:bd:16:90:6f:
                    c3:44:3d:d0:46:ed:96:af:ba:4e:7f:4a:12:6d:47:
                    40:4a:f2:78:ed:a4:03:37:da:70:cf:0c:70:98:90:
                    ea:47:86:d0:f1:54:78:cf:d1:8f:2b:42:1d:ab:bb:
                    8a:ff
                Exponent: 65537 (0x10001)
        X509v3 extensions:
            X509v3 Subject Key Identifier: 
                DF:0E:59:29:41:4F:58:D9:FC:B0:E8:B1:DD:88:F4:89:FF:0A:D1:D4
            X509v3 Authority Key Identifier: 
                keyid:DC:83:FD:15:4A:D3:A8:E9:0B:C4:90:16:2F:FE:AA:F4:AB:B7:EC:E3
                DirName:/C=US/ST=California/L=Santa Clara/O=pkg5/CN=ta3/emailAddress=ta3
                serial:54:04:4F:D7:5E:93:DA:45:DC:6F:3A:6E:37:AE:D3:81:91:BE:7E:72
            X509v3 Basic Constraints: critical
                CA:TRUE
            X509v3 Key Usage: critical
                Certificate Sign, CRL Sign
            X509v3 Subject Alternative Name: 
                email:ch1.3_ta3
    Signature Algorithm: sha256WithRSAEncryption
    Signature Value:
        48:11:4c:cf:e9:bd:56:f0:a3:8d:31:5f:11:16:8d:ae:58:57:
        e2:b1:6f:7f:19:be:a6:cc:7c:ce:d0:f5:e7:fe:72:69:11:d9:
        5f:7b:71:57:f6:f2:68:8d:86:a8:d6:36:64:9b:92:bf:65:89:
        58:e1:30:24:d1:6d:e5:e6:07:a9:b1:7b:4c:37:61:eb:3c:5f:
        b7:87:fd:91:3a:19:38:ce:b8:4a:0f:a2:db:f9:f7:8e:33:ea:
        38:8a:59:53:75:af:c6:05:14:f3:f5:b7:95:4d:6f:09:b4:03:
        91:ce:ba:15:a8:a5:e5:b3:84:49:78:7b:4f:8a:61:41:9d:e6:
        d9:e7:54:05:84:5e:38:26:de:e1:7c:55:18:0b:8e:9c:ec:67:
        d0:17:36:e2:3d:02:58:ac:c3:20:83:26:54:2b:2d:64:eb:24:
        55:09:ac:4f:87:7a:52:8c:65:a0:86:e3:6d:4d:18:4e:b8:e2:
        ea:c5:18:c1:9a:8d:e5:89:3d:e7:08:af:ae:8c:e6:26:9b:d6:
        e0:4c:c7:b6:2e:cc:3d:c1:7d:87:f9:5e:a3:4e:0e:57:42:83:
        73:82:3c:37:f3:3e:d9:b1:ad:3d:01:6a:a9:2c:9c:0b:2d:22:
        c9:40:25:ed:bc:65:fd:91:f0:cd:29:12:5e:f0:fc:8d:00:d9:
        cb:5a:bc:6c
-----BEGIN CERTIFICATE-----
MIIEXTCCA0WgAwIBAgIBHzANBgkqhkiG9w0BAQsFADBpMQswCQYDVQQGEwJVUzET
MBEGA1UECAwKQ2FsaWZvcm5pYTEUMBIGA1UEBwwLU2FudGEgQ2xhcmExDTALBgNV
BAoMBHBrZzUxDDAKBgNVBAMMA3RhMzESMBAGCSqGSIb3DQEJARYDdGEzMB4XDTM1
MDEwMTAxMDEwMVoXDTM1MDEwMjAxMDEwMVowdTELMAkGA1UEBhMCVVMxEzARBgNV
BAgMCkNhbGlmb3JuaWExFDASBgNVBAcMC1NhbnRhIENsYXJhMQ0wCwYDVQQKDARw
a2c1MRIwEAYDVQQDDAljaDEuM190YTMxGDAWBgkqhkiG9w0BCQEWCWNoMS4zX3Rh
MzCCASIwDQYJKoZIhvcNAQEBBQADggEPADCCAQoCggEBAKYowuJ1xK8FT1eptseL
sTI1vFGbKkkpQmJsP6q8ilrOiRLFeh68VdgapDCa1qhPcYCxdlepBZx08YK+828Q
QI8O87xe048p2kA4OIZw1r5tVO8fcYtnigDFikaxKsiIOCD01ERbiDli7ZoQ/hey
98pCMfLxFBCh/v3E1/kKQrLscp7+T9UsoSWVkc2vLo+dhNsINloseaaR0g7Vswfi
6rY/51zetsqdvOVL2f9iNyW8ycIW1SGrchoexhSqzK4/+7yLnqWorLRUEBdaG1O9
FpBvw0Q90Ebtlq+6Tn9KEm1HQEryeO2kAzfacM8McJiQ6keG0PFUeM/RjytCHau7
iv8CAwEAAaOCAQIwgf8wHQYDVR0OBBYEFN8OWSlBT1jZ/LDosd2I9In/CtHUMIGm
BgNVHSMEgZ4wgZuAFNyD/RVK06jpC8SQFi/+qvSrt+zjoW2kazBpMQswCQYDVQQG
EwJVUzETMBEGA1UECAwKQ2FsaWZvcm5pYTEUMBIGA1UEBwwLU2FudGEgQ2xhcmEx
DTALBgNVBAoMBHBrZzUxDDAKBgNVBAMMA3RhMzESMBAGCSqGSIb3DQEJARYDdGEz
ghRUBE/XXpPaRdxvOm43rtOBkb5+cjAPBgNVHRMBAf8EBTADAQH/MA4GA1UdDwEB
/wQEAwIBBjAUBgNVHREEDTALgQljaDEuM190YTMwDQYJKoZIhvcNAQELBQADggEB
AEgRTM/pvVbwo40xXxEWja5YV+Kxb38ZvqbMfM7Q9ef+cmkR2V97cVf28miNhqjW
NmSbkr9liVjhMCTRbeXmB6mxe0w3Yes8X7eH/ZE6GTjOuEoPotv5944z6jiKWVN1
r8YFFPP1t5VNbwm0A5HOuhWopeWzhEl4e0+KYUGd5tnnVAWEXjgm3uF8VRgLjpzs
Z9AXNuI9AliswyCDJlQrLWTrJFUJrE+HelKMZaCG421NGE644urFGMGajeWJPecI
r66M5iab1uBMx7YuzD3BfYf5XqNODldCg3OCPDfzPtmxrT0BaqksnAstIslAJe28
Zf2R8M0pEl7w/I0A2ctavGw=
-----END CERTIFICATE-----
