Certificate:
    Data:
        Version: 3 (0x2)
        Serial Number: 27 (0x1b)
        Signature Algorithm: sha256WithRSAEncryption
        Issuer: C=US, ST=California, L=Santa Clara, O=pkg5, CN=ta3/emailAddress=ta3
        Validity
            Not Before: Nov 17 23:01:31 2020 GMT
            Not After : Aug 14 23:01:31 2023 GMT
        Subject: C=US, ST=California, L=Santa Clara, O=pkg5, CN=ch1.1_ta3/emailAddress=ch1.1_ta3
        Subject Public Key Info:
            Public Key Algorithm: rsaEncryption
                RSA Public-Key: (2048 bit)
                Modulus:
                    00:c7:96:bb:09:89:7d:6b:45:65:82:98:ca:50:03:
                    12:f3:55:97:cd:d3:7d:fb:cc:a0:82:37:79:22:7e:
                    a9:a5:13:19:84:75:53:62:5f:8e:34:8b:6d:b4:2c:
                    c5:04:aa:2e:0f:bf:eb:2f:db:60:79:bd:f8:a4:89:
                    18:b9:d3:a2:89:40:f1:53:ec:a5:27:c9:2c:2e:e4:
                    8a:3e:19:4b:fd:f7:4d:78:06:2e:11:71:0d:ae:76:
                    03:63:2e:b1:fd:b7:7c:00:09:5f:51:e0:ae:f8:84:
                    1b:5e:09:46:19:30:a8:00:77:3a:15:90:de:c6:eb:
                    f1:65:67:ec:45:6f:aa:bf:13:ab:c2:41:48:30:6c:
                    28:c8:de:2c:e9:81:73:e5:1c:47:6e:43:bd:2d:d3:
                    41:55:00:89:f8:17:43:a0:ac:1a:ef:04:ff:d1:77:
                    5b:6d:04:50:16:7a:3d:39:17:15:b8:75:79:d6:e9:
                    7b:ea:eb:b9:86:0c:8b:df:3d:0d:2b:b2:ee:fa:0a:
                    41:2d:26:81:59:a3:34:90:70:df:72:5c:41:3a:a4:
                    3d:f9:33:93:a7:7f:e8:93:8a:8d:bd:8b:e1:23:12:
                    2a:b1:3f:46:2a:c5:91:a0:ec:99:03:75:ab:16:b9:
                    ce:a5:a0:0a:dd:c4:5e:6e:63:46:c9:0e:02:df:7a:
                    42:bd
                Exponent: 65537 (0x10001)
        X509v3 extensions:
            X509v3 Basic Constraints: critical
                CA:TRUE
            X509v3 Subject Alternative Name: 
                email:ch1.1_ta3
            X509v3 Issuer Alternative Name: critical
                email:ca
    Signature Algorithm: sha256WithRSAEncryption
         7c:1f:68:13:4d:f8:b6:cd:da:d6:46:d4:7b:ba:85:47:ae:7d:
         0e:8d:a0:a9:38:5e:ff:51:35:eb:1f:81:c9:69:7e:b5:53:89:
         89:17:db:94:09:a5:0c:e7:a0:85:65:63:e5:0e:3b:04:92:a9:
         6e:2b:5a:ce:07:55:b0:5b:5e:1a:ab:83:17:e0:9d:27:dc:84:
         32:0c:53:c0:15:f3:47:a6:59:6a:aa:6a:e7:39:18:5b:d6:ed:
         30:49:9a:5e:95:7e:30:0c:7b:63:84:7c:a6:8d:e8:15:44:0b:
         fa:ad:1e:b5:8a:29:d6:75:4d:50:5e:3c:eb:10:2f:5f:b4:e7:
         ad:61:31:76:48:9b:25:65:5a:99:72:0a:75:95:78:69:3e:cc:
         0a:cc:44:b7:cf:8a:e2:d6:9e:0b:46:df:a0:76:16:8f:b3:c9:
         4e:85:55:e0:bb:f9:ff:3a:21:36:36:46:c5:11:a8:d0:39:64:
         f3:fb:af:7f:d7:72:8e:fc:42:1a:e1:97:19:70:1e:30:7c:24:
         5a:6a:29:a8:dd:54:85:6e:4d:26:e1:63:f9:ce:ef:f5:7f:3a:
         a1:a7:f4:3b:d3:66:ef:f1:b8:98:8b:c2:23:7e:83:5c:6e:d9:
         f3:15:47:e2:c6:97:1d:03:72:01:3d:65:55:09:67:12:64:85:
         01:93:a7:11
-----BEGIN CERTIFICATE-----
MIIDlDCCAnygAwIBAgIBGzANBgkqhkiG9w0BAQsFADBpMQswCQYDVQQGEwJVUzET
MBEGA1UECAwKQ2FsaWZvcm5pYTEUMBIGA1UEBwwLU2FudGEgQ2xhcmExDTALBgNV
BAoMBHBrZzUxDDAKBgNVBAMMA3RhMzESMBAGCSqGSIb3DQEJARYDdGEzMB4XDTIw
MTExNzIzMDEzMVoXDTIzMDgxNDIzMDEzMVowdTELMAkGA1UEBhMCVVMxEzARBgNV
BAgMCkNhbGlmb3JuaWExFDASBgNVBAcMC1NhbnRhIENsYXJhMQ0wCwYDVQQKDARw
a2c1MRIwEAYDVQQDDAljaDEuMV90YTMxGDAWBgkqhkiG9w0BCQEWCWNoMS4xX3Rh
MzCCASIwDQYJKoZIhvcNAQEBBQADggEPADCCAQoCggEBAMeWuwmJfWtFZYKYylAD
EvNVl83TffvMoII3eSJ+qaUTGYR1U2JfjjSLbbQsxQSqLg+/6y/bYHm9+KSJGLnT
oolA8VPspSfJLC7kij4ZS/33TXgGLhFxDa52A2Musf23fAAJX1HgrviEG14JRhkw
qAB3OhWQ3sbr8WVn7EVvqr8Tq8JBSDBsKMjeLOmBc+UcR25DvS3TQVUAifgXQ6Cs
Gu8E/9F3W20EUBZ6PTkXFbh1edbpe+rruYYMi989DSuy7voKQS0mgVmjNJBw33Jc
QTqkPfkzk6d/6JOKjb2L4SMSKrE/RirFkaDsmQN1qxa5zqWgCt3EXm5jRskOAt96
Qr0CAwEAAaM7MDkwDwYDVR0TAQH/BAUwAwEB/zAUBgNVHREEDTALgQljaDEuMV90
YTMwEAYDVR0SAQH/BAYwBIECY2EwDQYJKoZIhvcNAQELBQADggEBAHwfaBNN+LbN
2tZG1Hu6hUeufQ6NoKk4Xv9RNesfgclpfrVTiYkX25QJpQznoIVlY+UOOwSSqW4r
Ws4HVbBbXhqrgxfgnSfchDIMU8AV80emWWqqauc5GFvW7TBJml6VfjAMe2OEfKaN
6BVEC/qtHrWKKdZ1TVBePOsQL1+0561hMXZImyVlWplyCnWVeGk+zArMRLfPiuLW
ngtG36B2Fo+zyU6FVeC7+f86ITY2RsURqNA5ZPP7r3/Xco78QhrhlxlwHjB8JFpq
KajdVIVuTSbhY/nO7/V/OqGn9DvTZu/xuJiLwiN+g1xu2fMVR+LGlx0DcgE9ZVUJ
ZxJkhQGTpxE=
-----END CERTIFICATE-----
