Certificate:
    Data:
        Version: 3 (0x2)
        Serial Number: 28 (0x1c)
    Signature Algorithm: sha256WithRSAEncryption
        Issuer: C=US, ST=California, L=Santa Clara, O=pkg5, CN=ta3/emailAddress=ta3
        Validity
            Not Before: Jan  1 01:01:01 2009 GMT
            Not After : Jan  2 01:01:01 2009 GMT
        Subject: C=US, ST=California, L=Santa Clara, O=pkg5, CN=ch1.2_ta3/emailAddress=ch1.2_ta3
        Subject Public Key Info:
            Public Key Algorithm: rsaEncryption
                Public-Key: (2048 bit)
                Modulus:
                    00:e1:51:b4:20:1c:22:0d:60:3c:5e:c8:6a:13:63:
                    0b:0e:6c:90:49:63:a6:72:e3:2a:11:a7:74:ff:90:
                    73:f0:a8:1d:32:2e:2f:49:46:35:a2:89:f6:96:90:
                    69:1c:a5:af:95:7b:f0:d3:6a:bc:7c:6d:41:23:2c:
                    2a:1b:e9:79:b3:e5:54:e3:04:fb:22:f3:87:c0:72:
                    01:a4:e4:1f:00:58:61:d3:30:48:60:c9:f3:bb:31:
                    d4:19:97:6e:69:0f:53:48:26:3a:ae:6f:7d:4c:79:
                    98:9b:0e:fc:bf:b4:07:26:7d:c1:71:b7:a5:cd:67:
                    65:55:ed:31:db:7b:3e:23:a3:53:b1:b3:03:17:51:
                    61:b8:9f:0a:64:02:dc:19:84:b5:0b:d2:de:11:52:
                    f9:38:c7:1e:45:55:88:8d:70:a3:b7:6f:82:79:91:
                    ef:22:3e:5d:18:21:d8:ac:f3:47:91:dd:53:24:ba:
                    1c:5e:63:c2:0d:40:00:8d:d3:cd:fc:f8:88:05:35:
                    1c:e6:2c:57:3b:9d:98:55:57:29:3c:41:15:a5:88:
                    4a:a4:8d:00:ae:8b:00:6a:4c:7c:8b:c9:8d:a9:57:
                    26:02:0e:b4:57:93:dd:6e:2a:28:83:82:04:8a:e3:
                    6f:f8:90:56:82:fb:b9:a7:38:7b:17:d7:d0:0c:04:
                    46:f3
                Exponent: 65537 (0x10001)
        X509v3 extensions:
            X509v3 Subject Key Identifier: 
                59:81:9F:52:2A:08:EF:59:C8:A3:79:C2:CA:02:94:65:34:E4:F5:B1
            X509v3 Authority Key Identifier: 
                keyid:2D:C5:9A:44:A1:9A:A4:7F:DA:BE:34:36:07:5C:E8:FC:60:3E:91:6E
                DirName:/C=US/ST=California/L=Santa Clara/O=pkg5/CN=ta3/emailAddress=ta3
                serial:AA:19:69:50:F6:91:C5:BD

            X509v3 Basic Constraints: critical
                CA:TRUE
            X509v3 Key Usage: critical
                Certificate Sign, CRL Sign
    Signature Algorithm: sha256WithRSAEncryption
         c4:92:6b:63:de:43:ab:31:6c:14:ee:ec:9f:fd:28:48:e0:ad:
         cf:03:4d:6a:ee:71:23:1e:1e:50:2a:6a:17:09:77:d0:cc:5c:
         26:48:0d:9a:8a:79:33:6e:fb:16:f0:3b:c7:b5:35:9c:92:03:
         9a:e5:fa:50:05:86:5c:8c:81:2f:a3:63:6c:c4:4a:90:6d:48:
         82:bc:10:37:27:06:07:1c:d4:9e:ff:14:a2:5c:7e:28:1f:68:
         18:b4:9c:ba:79:e1:af:95:32:57:05:b3:dc:7a:87:25:13:f1:
         b3:b2:34:ae:79:85:04:a6:15:f3:72:cf:e2:aa:ba:e3:03:5e:
         3b:94:52:03:cc:27:d1:54:fa:f1:73:53:33:4c:ac:5e:04:ec:
         2d:12:4a:e7:9e:f9:47:cc:1b:2b:54:14:3c:08:16:e0:a0:e8:
         b9:15:fc:b7:ea:18:1a:1f:eb:fb:c5:07:28:ef:d0:bd:9d:5d:
         57:77:da:bd:70:16:d5:2f:55:98:f3:88:96:35:ff:74:12:9e:
         1e:97:64:2c:2e:20:30:37:4f:db:ab:c1:47:1d:be:2d:89:36:
         da:e2:83:47:8e:5b:a2:14:e3:eb:5b:01:c1:e9:6e:cf:2c:0b:
         d6:00:3a:5e:e3:a1:63:54:62:68:86:1d:33:39:4c:81:5b:97:
         5b:34:51:ca
-----BEGIN CERTIFICATE-----
MIIEOzCCAyOgAwIBAgIBHDANBgkqhkiG9w0BAQsFADBpMQswCQYDVQQGEwJVUzET
MBEGA1UECAwKQ2FsaWZvcm5pYTEUMBIGA1UEBwwLU2FudGEgQ2xhcmExDTALBgNV
BAoMBHBrZzUxDDAKBgNVBAMMA3RhMzESMBAGCSqGSIb3DQEJARYDdGEzMB4XDTA5
MDEwMTAxMDEwMVoXDTA5MDEwMjAxMDEwMVowdTELMAkGA1UEBhMCVVMxEzARBgNV
BAgMCkNhbGlmb3JuaWExFDASBgNVBAcMC1NhbnRhIENsYXJhMQ0wCwYDVQQKDARw
a2c1MRIwEAYDVQQDDAljaDEuMl90YTMxGDAWBgkqhkiG9w0BCQEWCWNoMS4yX3Rh
MzCCASIwDQYJKoZIhvcNAQEBBQADggEPADCCAQoCggEBAOFRtCAcIg1gPF7IahNj
Cw5skEljpnLjKhGndP+Qc/CoHTIuL0lGNaKJ9paQaRylr5V78NNqvHxtQSMsKhvp
ebPlVOME+yLzh8ByAaTkHwBYYdMwSGDJ87sx1BmXbmkPU0gmOq5vfUx5mJsO/L+0
ByZ9wXG3pc1nZVXtMdt7PiOjU7GzAxdRYbifCmQC3BmEtQvS3hFS+TjHHkVViI1w
o7dvgnmR7yI+XRgh2KzzR5HdUyS6HF5jwg1AAI3Tzfz4iAU1HOYsVzudmFVXKTxB
FaWISqSNAK6LAGpMfIvJjalXJgIOtFeT3W4qKIOCBIrjb/iQVoL7uac4exfX0AwE
RvMCAwEAAaOB4TCB3jAdBgNVHQ4EFgQUWYGfUioI71nIo3nCygKUZTTk9bEwgZsG
A1UdIwSBkzCBkIAULcWaRKGapH/avjQ2B1zo/GA+kW6hbaRrMGkxCzAJBgNVBAYT
AlVTMRMwEQYDVQQIDApDYWxpZm9ybmlhMRQwEgYDVQQHDAtTYW50YSBDbGFyYTEN
MAsGA1UECgwEcGtnNTEMMAoGA1UEAwwDdGEzMRIwEAYJKoZIhvcNAQkBFgN0YTOC
CQCqGWlQ9pHFvTAPBgNVHRMBAf8EBTADAQH/MA4GA1UdDwEB/wQEAwIBBjANBgkq
hkiG9w0BAQsFAAOCAQEAxJJrY95DqzFsFO7sn/0oSOCtzwNNau5xIx4eUCpqFwl3
0MxcJkgNmop5M277FvA7x7U1nJIDmuX6UAWGXIyBL6NjbMRKkG1IgrwQNycGBxzU
nv8Uolx+KB9oGLScunnhr5UyVwWz3HqHJRPxs7I0rnmFBKYV83LP4qq64wNeO5RS
A8wn0VT68XNTM0ysXgTsLRJK5575R8wbK1QUPAgW4KDouRX8t+oYGh/r+8UHKO/Q
vZ1dV3favXAW1S9VmPOIljX/dBKeHpdkLC4gMDdP26vBRx2+LYk22uKDR45bohTj
61sBweluzywL1gA6XuOhY1RiaIYdMzlMgVuXWzRRyg==
-----END CERTIFICATE-----
