Certificate:
    Data:
        Version: 3 (0x2)
        Serial Number: 27 (0x1b)
        Signature Algorithm: sha256WithRSAEncryption
        Issuer: C=US, ST=California, L=Santa Clara, O=pkg5, CN=ta3/emailAddress=ta3
        Validity
            Not Before: Oct 22 10:15:15 2021 GMT
            Not After : Jul 18 10:15:15 2024 GMT
        Subject: C=US, ST=California, L=Santa Clara, O=pkg5, CN=ch1.1_ta3/emailAddress=ch1.1_ta3
        Subject Public Key Info:
            Public Key Algorithm: rsaEncryption
                Public-Key: (2048 bit)
                Modulus:
                    00:ea:da:74:12:12:44:ce:6f:f0:6d:cb:d9:84:3a:
                    00:0c:9b:eb:ff:40:6c:57:60:bb:b3:31:c6:64:9c:
                    88:fd:a0:b2:fb:ff:48:52:d7:f6:6c:0e:72:4f:ff:
                    81:0e:0f:13:76:26:e3:37:17:2a:c3:9c:44:34:66:
                    ad:da:45:2e:8b:cf:b7:a0:98:10:7f:9a:d0:d4:b5:
                    85:b7:f1:1f:d4:08:2a:fe:f5:62:cf:e9:9e:ee:16:
                    1f:0e:81:62:1c:80:14:6a:28:bc:6c:66:d0:9c:e7:
                    94:29:e0:32:76:ed:2a:5e:1a:65:a1:05:4d:5d:7a:
                    be:c1:23:dc:a2:c1:8f:9f:e4:a6:72:95:0d:1c:c2:
                    85:8c:3a:e7:1d:9f:75:3a:cb:66:d1:4d:0a:53:be:
                    6f:5d:3f:c5:03:eb:5d:95:c9:c3:d0:e6:c7:71:60:
                    d1:dc:cc:96:e4:96:41:7d:24:80:d3:37:c3:d0:6b:
                    e8:2b:6f:d3:36:de:1e:7b:62:d4:6a:ea:73:87:e2:
                    1e:1a:bd:15:da:7d:9e:0f:03:16:44:d3:3d:d3:f8:
                    8d:1f:e1:8d:ed:2f:6c:59:bd:5f:41:b4:b2:ae:6a:
                    d7:a1:dd:bd:ae:39:50:ae:6e:65:b6:3d:2c:49:05:
                    da:1a:45:3e:2c:74:b0:04:e1:4a:7a:4a:49:7d:04:
                    68:df
                Exponent: 65537 (0x10001)
        X509v3 extensions:
            X509v3 Basic Constraints: critical
                CA:TRUE
            X509v3 Subject Alternative Name: 
                email:ch1.1_ta3
            X509v3 Issuer Alternative Name: critical
                email:ca
            X509v3 Subject Key Identifier: 
                54:CD:D4:1E:61:07:59:B2:CE:65:E1:6D:94:C3:F0:8C:2E:2A:95:AA
            X509v3 Authority Key Identifier: 
                31:E7:12:49:AC:32:CC:03:A0:C3:60:99:F6:3E:5D:1C:A3:84:D8:3B
    Signature Algorithm: sha256WithRSAEncryption
    Signature Value:
        89:65:e5:01:03:50:ce:12:01:24:46:0a:09:47:a7:6f:7c:e4:
        5c:55:24:e6:bf:4e:61:1a:4a:ce:28:57:fa:d6:34:c7:05:dd:
        7c:8e:01:d8:05:5a:e5:72:35:99:d8:50:17:de:72:7b:cf:58:
        10:fe:d4:48:7f:bf:7d:f7:78:a9:50:16:d2:5f:a4:e3:2c:1c:
        61:19:e8:bc:95:05:af:37:4a:59:a1:a5:8d:98:b4:1d:b1:f4:
        1f:7b:9b:0f:c8:8c:f4:49:b7:7c:b0:b1:2a:c3:69:71:e6:83:
        c3:6c:5a:6f:6c:cf:91:17:f9:1b:7c:db:5a:65:63:8c:c8:8f:
        e8:02:e9:46:c5:32:04:dc:48:86:d9:d3:e7:28:f9:5f:ff:ba:
        16:42:c0:1c:f1:48:0b:79:99:b4:1a:b8:b9:ad:9a:d2:e0:06:
        ae:a2:e1:78:da:14:9e:0b:aa:a3:62:dc:c5:10:40:cd:5f:50:
        cc:40:29:77:1a:15:d0:19:8e:62:1c:d4:96:31:09:37:02:35:
        2c:15:f8:64:d3:e8:8d:19:30:fb:8e:08:ad:3e:41:68:ca:39:
        97:05:0f:fe:b1:fc:a4:36:91:30:c8:6a:be:c9:d3:4a:c2:19:
        d6:60:df:a8:96:38:42:e9:11:28:43:0c:b4:63:8d:ee:3d:03:
        42:2a:77:c7
-----BEGIN CERTIFICATE-----
MIID1DCCArygAwIBAgIBGzANBgkqhkiG9w0BAQsFADBpMQswCQYDVQQGEwJVUzET
MBEGA1UECAwKQ2FsaWZvcm5pYTEUMBIGA1UEBwwLU2FudGEgQ2xhcmExDTALBgNV
BAoMBHBrZzUxDDAKBgNVBAMMA3RhMzESMBAGCSqGSIb3DQEJARYDdGEzMB4XDTIx
MTAyMjEwMTUxNVoXDTI0MDcxODEwMTUxNVowdTELMAkGA1UEBhMCVVMxEzARBgNV
BAgMCkNhbGlmb3JuaWExFDASBgNVBAcMC1NhbnRhIENsYXJhMQ0wCwYDVQQKDARw
a2c1MRIwEAYDVQQDDAljaDEuMV90YTMxGDAWBgkqhkiG9w0BCQEWCWNoMS4xX3Rh
MzCCASIwDQYJKoZIhvcNAQEBBQADggEPADCCAQoCggEBAOradBISRM5v8G3L2YQ6
AAyb6/9AbFdgu7MxxmSciP2gsvv/SFLX9mwOck//gQ4PE3Ym4zcXKsOcRDRmrdpF
LovPt6CYEH+a0NS1hbfxH9QIKv71Ys/pnu4WHw6BYhyAFGoovGxm0JznlCngMnbt
Kl4aZaEFTV16vsEj3KLBj5/kpnKVDRzChYw65x2fdTrLZtFNClO+b10/xQPrXZXJ
w9Dmx3Fg0dzMluSWQX0kgNM3w9Br6Ctv0zbeHnti1Grqc4fiHhq9Fdp9ng8DFkTT
PdP4jR/hje0vbFm9X0G0sq5q16Hdva45UK5uZbY9LEkF2hpFPix0sAThSnpKSX0E
aN8CAwEAAaN7MHkwDwYDVR0TAQH/BAUwAwEB/zAUBgNVHREEDTALgQljaDEuMV90
YTMwEAYDVR0SAQH/BAYwBIECY2EwHQYDVR0OBBYEFFTN1B5hB1myzmXhbZTD8Iwu
KpWqMB8GA1UdIwQYMBaAFDHnEkmsMswDoMNgmfY+XRyjhNg7MA0GCSqGSIb3DQEB
CwUAA4IBAQCJZeUBA1DOEgEkRgoJR6dvfORcVSTmv05hGkrOKFf61jTHBd18jgHY
BVrlcjWZ2FAX3nJ7z1gQ/tRIf79993ipUBbSX6TjLBxhGei8lQWvN0pZoaWNmLQd
sfQfe5sPyIz0Sbd8sLEqw2lx5oPDbFpvbM+RF/kbfNtaZWOMyI/oAulGxTIE3EiG
2dPnKPlf/7oWQsAc8UgLeZm0Gri5rZrS4AauouF42hSeC6qjYtzFEEDNX1DMQCl3
GhXQGY5iHNSWMQk3AjUsFfhk0+iNGTD7jgitPkFoyjmXBQ/+sfykNpEwyGq+ydNK
whnWYN+oljhC6REoQwy0Y43uPQNCKnfH
-----END CERTIFICATE-----
