Certificate:
    Data:
        Version: 3 (0x2)
        Serial Number: 31 (0x1f)
        Signature Algorithm: sha256WithRSAEncryption
        Issuer: C=US, ST=California, L=Santa Clara, O=pkg5, CN=ta3/emailAddress=ta3
        Validity
            Not Before: Jan  1 01:01:01 2035 GMT
            Not After : Jan  2 01:01:01 2035 GMT
        Subject: C=US, ST=California, L=Santa Clara, O=pkg5, CN=ch1.3_ta3/emailAddress=ch1.3_ta3
        Subject Public Key Info:
            Public Key Algorithm: rsaEncryption
                Public-Key: (2048 bit)
                Modulus:
                    00:95:34:d6:a7:65:07:09:60:c7:22:42:65:4e:a8:
                    55:78:5d:48:7e:07:99:99:79:d5:89:56:b1:84:1d:
                    53:c2:73:1e:b6:a2:4f:1f:0a:9a:24:d4:05:6a:1f:
                    bd:c6:26:69:9a:6d:d2:9e:d9:0e:34:58:cb:b9:fa:
                    d6:db:d8:57:a0:fb:71:69:8e:9e:31:e9:36:9b:b0:
                    c3:e9:14:92:09:64:62:11:c4:3a:ec:2e:d8:4b:c9:
                    35:17:48:30:0e:bd:9a:57:f4:46:17:fc:95:e4:66:
                    aa:7a:4f:69:58:d5:46:a1:42:03:63:5d:e1:5b:fa:
                    dc:1a:79:f5:db:53:1d:eb:1f:1a:40:cc:c3:fd:5a:
                    bc:61:b3:a6:20:b6:09:89:0a:82:0c:7a:7e:fb:0b:
                    8a:52:a3:3c:9b:cf:5f:f6:cd:ce:c7:92:f3:1f:b9:
                    ae:57:3b:12:c4:c0:5c:44:cb:dc:2a:80:4c:fa:86:
                    3e:ac:17:e1:61:1c:e2:38:10:8e:78:0a:0a:b4:0b:
                    ea:f3:a4:6c:15:15:5e:cc:03:3f:56:14:12:af:05:
                    2c:bb:59:e2:78:47:bf:bc:de:cf:af:b8:7d:2a:26:
                    e4:fb:f8:83:78:05:1e:41:01:9f:da:ee:8e:c5:25:
                    92:1b:e6:eb:84:9b:df:1b:a6:49:00:8a:c2:7a:c7:
                    80:7b
                Exponent: 65537 (0x10001)
        X509v3 extensions:
            X509v3 Subject Key Identifier: 
                49:F3:82:FB:48:1D:2A:E1:FF:E0:A4:B8:CA:9D:57:1E:77:E1:2A:C2
            X509v3 Authority Key Identifier: 
                keyid:EF:5A:9F:1D:45:27:6D:44:D8:59:31:21:A6:13:90:C9:6A:06:8C:1C
                DirName:/C=US/ST=California/L=Santa Clara/O=pkg5/CN=ta3/emailAddress=ta3
                serial:03:03:B7:3D:13:47:F5:0C:71:63:49:3A:98:BE:46:C0:AE:25:93:49
            X509v3 Basic Constraints: critical
                CA:TRUE
            X509v3 Key Usage: critical
                Certificate Sign, CRL Sign
            X509v3 Subject Alternative Name: 
                email:ch1.3_ta3
    Signature Algorithm: sha256WithRSAEncryption
    Signature Value:
        03:6e:54:9a:6f:73:1b:c5:80:58:82:d1:95:f1:86:b4:f5:69:
        ad:f0:75:46:02:64:e1:55:0a:52:da:e2:4c:3e:00:e8:67:6e:
        0f:6c:9b:46:bb:4e:5a:87:f7:f8:3a:3e:be:49:f9:85:95:b4:
        04:77:03:58:61:bd:9a:df:4d:aa:1b:ff:5f:cd:ed:43:cd:de:
        e4:5d:c0:38:e6:16:62:c9:c7:55:02:77:a0:80:fc:d8:42:65:
        1f:36:19:02:bb:79:4e:9e:1b:80:f3:ef:8d:cc:86:cb:f1:c4:
        73:91:d5:9a:e7:f1:c3:85:bd:17:87:53:44:43:83:c7:91:d1:
        cb:d0:b9:53:35:5c:a3:83:2b:bb:33:f7:d3:36:b1:6b:97:ba:
        d9:fa:c4:f3:57:c3:ac:87:49:d9:0b:a6:09:11:6d:31:b7:e1:
        6f:30:d9:00:f2:c4:e3:a9:5e:9a:69:e3:d6:65:29:4d:df:b1:
        2a:49:e8:5f:3e:18:af:de:a8:f0:20:54:c0:86:11:c0:c7:8d:
        94:75:55:c7:e7:25:c8:5b:e7:4c:ae:1a:c1:86:c7:f3:6a:42:
        bc:1f:56:6b:24:23:c4:87:49:f3:ba:33:d6:2d:0f:dd:5a:f1:
        5b:9c:48:31:dc:f3:ba:d1:2d:0a:e8:69:77:b6:50:62:13:98:
        79:8f:35:5f
-----BEGIN CERTIFICATE-----
MIIEXTCCA0WgAwIBAgIBHzANBgkqhkiG9w0BAQsFADBpMQswCQYDVQQGEwJVUzET
MBEGA1UECAwKQ2FsaWZvcm5pYTEUMBIGA1UEBwwLU2FudGEgQ2xhcmExDTALBgNV
BAoMBHBrZzUxDDAKBgNVBAMMA3RhMzESMBAGCSqGSIb3DQEJARYDdGEzMB4XDTM1
MDEwMTAxMDEwMVoXDTM1MDEwMjAxMDEwMVowdTELMAkGA1UEBhMCVVMxEzARBgNV
BAgMCkNhbGlmb3JuaWExFDASBgNVBAcMC1NhbnRhIENsYXJhMQ0wCwYDVQQKDARw
a2c1MRIwEAYDVQQDDAljaDEuM190YTMxGDAWBgkqhkiG9w0BCQEWCWNoMS4zX3Rh
MzCCASIwDQYJKoZIhvcNAQEBBQADggEPADCCAQoCggEBAJU01qdlBwlgxyJCZU6o
VXhdSH4HmZl51YlWsYQdU8JzHraiTx8KmiTUBWofvcYmaZpt0p7ZDjRYy7n61tvY
V6D7cWmOnjHpNpuww+kUkglkYhHEOuwu2EvJNRdIMA69mlf0Rhf8leRmqnpPaVjV
RqFCA2Nd4Vv63Bp59dtTHesfGkDMw/1avGGzpiC2CYkKggx6fvsLilKjPJvPX/bN
zseS8x+5rlc7EsTAXETL3CqATPqGPqwX4WEc4jgQjngKCrQL6vOkbBUVXswDP1YU
Eq8FLLtZ4nhHv7zez6+4fSom5Pv4g3gFHkEBn9rujsUlkhvm64Sb3xumSQCKwnrH
gHsCAwEAAaOCAQIwgf8wHQYDVR0OBBYEFEnzgvtIHSrh/+CkuMqdVx534SrCMIGm
BgNVHSMEgZ4wgZuAFO9anx1FJ21E2FkxIaYTkMlqBowcoW2kazBpMQswCQYDVQQG
EwJVUzETMBEGA1UECAwKQ2FsaWZvcm5pYTEUMBIGA1UEBwwLU2FudGEgQ2xhcmEx
DTALBgNVBAoMBHBrZzUxDDAKBgNVBAMMA3RhMzESMBAGCSqGSIb3DQEJARYDdGEz
ghQDA7c9E0f1DHFjSTqYvkbAriWTSTAPBgNVHRMBAf8EBTADAQH/MA4GA1UdDwEB
/wQEAwIBBjAUBgNVHREEDTALgQljaDEuM190YTMwDQYJKoZIhvcNAQELBQADggEB
AANuVJpvcxvFgFiC0ZXxhrT1aa3wdUYCZOFVClLa4kw+AOhnbg9sm0a7TlqH9/g6
Pr5J+YWVtAR3A1hhvZrfTaob/1/N7UPN3uRdwDjmFmLJx1UCd6CA/NhCZR82GQK7
eU6eG4Dz743MhsvxxHOR1Zrn8cOFvReHU0RDg8eR0cvQuVM1XKODK7sz99M2sWuX
utn6xPNXw6yHSdkLpgkRbTG34W8w2QDyxOOpXppp49ZlKU3fsSpJ6F8+GK/eqPAg
VMCGEcDHjZR1VcfnJchb50yuGsGGx/NqQrwfVmskI8SHSfO6M9YtD91a8VucSDHc
87rRLQroaXe2UGITmHmPNV8=
-----END CERTIFICATE-----
