Certificate:
    Data:
        Version: 3 (0x2)
        Serial Number: 39 (0x27)
    Signature Algorithm: sha256WithRSAEncryption
        Issuer: C=US, ST=California, L=Santa Clara, O=pkg5, CN=ta4/emailAddress=ta4
        Validity
            Not Before: Mar 20 10:20:55 2018 GMT
            Not After : Dec 14 10:20:55 2020 GMT
        Subject: C=US, ST=California, L=Santa Clara, O=pkg5, CN=ch1.1_ta4/emailAddress=ch1.1_ta4
        Subject Public Key Info:
            Public Key Algorithm: rsaEncryption
                Public-Key: (2048 bit)
                Modulus:
                    00:cc:45:10:e0:f8:3c:48:ad:b8:cf:fa:94:59:b9:
                    86:fe:85:98:8b:1b:e9:dc:43:24:6b:80:fb:62:7f:
                    af:01:65:f6:f2:ff:1c:b0:9d:89:b4:90:71:42:75:
                    b9:77:7e:8f:fe:92:94:ed:9b:8b:ee:ed:80:45:32:
                    26:05:fe:65:03:41:c3:8b:dc:32:6b:da:f1:8a:36:
                    0a:02:93:38:26:69:54:2c:6f:31:5c:5d:6e:66:23:
                    16:90:9b:ef:e5:a7:96:1e:04:7b:2a:90:90:4d:06:
                    b1:a3:08:43:4d:c0:eb:33:3d:e0:8a:ba:7b:4b:33:
                    a3:00:75:9a:13:42:39:6b:5c:9f:43:0e:89:33:f4:
                    5d:e7:7c:91:93:47:0e:c6:45:34:15:ed:c0:b0:b3:
                    e8:08:19:b2:1e:59:a5:18:05:d9:38:0a:9e:e3:b6:
                    6a:8d:9a:ef:31:b3:3e:7f:4d:a5:05:1a:f5:2f:29:
                    45:d0:b2:6d:95:2b:04:5f:6b:a1:e4:3c:56:f7:79:
                    68:51:c3:0c:a5:bd:3c:68:d6:24:23:67:21:54:0d:
                    32:5b:cd:71:d5:14:31:86:85:0d:8a:d4:12:e4:c7:
                    19:f4:fd:63:ec:33:39:ab:64:df:44:30:23:6f:88:
                    a6:18:b0:db:f3:88:89:63:0e:bc:5c:85:83:1b:eb:
                    b3:79
                Exponent: 65537 (0x10001)
        X509v3 extensions:
            X509v3 Subject Key Identifier: 
                F5:5B:EA:D3:0C:7B:C5:38:0D:B9:0A:C5:71:23:D6:FF:C5:CE:B6:DF
            X509v3 Authority Key Identifier: 
                keyid:8D:C3:81:0F:EA:0D:53:C4:C4:BF:96:F1:96:07:71:BE:10:39:8C:BE
                DirName:/C=US/ST=California/L=Santa Clara/O=pkg5/CN=ta4/emailAddress=ta4
                serial:E3:BF:F7:54:7C:61:F2:59

            X509v3 Basic Constraints: critical
                CA:TRUE
            X509v3 Key Usage: critical
                Certificate Sign
    Signature Algorithm: sha256WithRSAEncryption
         5b:5a:00:e9:d6:7f:19:93:1f:02:39:bf:7f:ae:4e:96:54:99:
         31:45:a9:f9:df:c6:d3:82:ce:66:a0:c5:48:26:41:4d:92:3a:
         c8:7d:60:cd:1a:b5:c2:ac:ce:42:b9:82:9a:5a:4e:ef:26:c5:
         cc:29:21:c8:c8:69:29:47:0c:67:45:c8:37:36:9f:81:c3:73:
         b2:34:f0:6d:67:87:27:8b:2c:0f:a2:af:70:9f:37:d0:3f:81:
         bc:3c:11:15:9d:df:4e:73:69:c6:1e:f8:76:46:b3:e7:fd:8c:
         4e:ab:99:1f:15:53:d2:52:36:59:59:5d:ff:b7:7f:64:b9:bb:
         b7:6c:c6:eb:60:97:2d:5b:ff:9e:2c:8d:15:84:95:8f:67:0d:
         d6:03:c7:2c:25:58:76:b6:c5:5d:39:d7:b7:61:94:b5:cd:63:
         6b:ca:b3:4e:db:c5:e0:36:c6:89:dd:b4:ec:52:f1:ce:79:4b:
         d0:50:7c:0c:0c:48:b2:43:f6:e2:e3:b1:31:d8:8e:53:06:52:
         96:66:e9:ff:7a:b6:f3:70:15:28:4e:e0:02:42:2a:d2:16:a0:
         6f:5c:2e:6a:0c:4c:11:d7:8c:3b:85:4e:90:0c:84:e9:0e:be:
         f2:46:f1:62:ca:92:e4:31:52:dd:33:39:63:78:c7:1b:88:3e:
         83:25:1e:c4
-----BEGIN CERTIFICATE-----
MIIEOzCCAyOgAwIBAgIBJzANBgkqhkiG9w0BAQsFADBpMQswCQYDVQQGEwJVUzET
MBEGA1UECAwKQ2FsaWZvcm5pYTEUMBIGA1UEBwwLU2FudGEgQ2xhcmExDTALBgNV
BAoMBHBrZzUxDDAKBgNVBAMMA3RhNDESMBAGCSqGSIb3DQEJARYDdGE0MB4XDTE4
MDMyMDEwMjA1NVoXDTIwMTIxNDEwMjA1NVowdTELMAkGA1UEBhMCVVMxEzARBgNV
BAgMCkNhbGlmb3JuaWExFDASBgNVBAcMC1NhbnRhIENsYXJhMQ0wCwYDVQQKDARw
a2c1MRIwEAYDVQQDDAljaDEuMV90YTQxGDAWBgkqhkiG9w0BCQEWCWNoMS4xX3Rh
NDCCASIwDQYJKoZIhvcNAQEBBQADggEPADCCAQoCggEBAMxFEOD4PEituM/6lFm5
hv6FmIsb6dxDJGuA+2J/rwFl9vL/HLCdibSQcUJ1uXd+j/6SlO2bi+7tgEUyJgX+
ZQNBw4vcMmva8Yo2CgKTOCZpVCxvMVxdbmYjFpCb7+Wnlh4EeyqQkE0GsaMIQ03A
6zM94Iq6e0szowB1mhNCOWtcn0MOiTP0Xed8kZNHDsZFNBXtwLCz6AgZsh5ZpRgF
2TgKnuO2ao2a7zGzPn9NpQUa9S8pRdCybZUrBF9roeQ8Vvd5aFHDDKW9PGjWJCNn
IVQNMlvNcdUUMYaFDYrUEuTHGfT9Y+wzOatk30QwI2+Iphiw2/OIiWMOvFyFgxvr
s3kCAwEAAaOB4TCB3jAdBgNVHQ4EFgQU9Vvq0wx7xTgNuQrFcSPW/8XOtt8wgZsG
A1UdIwSBkzCBkIAUjcOBD+oNU8TEv5bxlgdxvhA5jL6hbaRrMGkxCzAJBgNVBAYT
AlVTMRMwEQYDVQQIDApDYWxpZm9ybmlhMRQwEgYDVQQHDAtTYW50YSBDbGFyYTEN
MAsGA1UECgwEcGtnNTEMMAoGA1UEAwwDdGE0MRIwEAYJKoZIhvcNAQkBFgN0YTSC
CQDjv/dUfGHyWTAPBgNVHRMBAf8EBTADAQH/MA4GA1UdDwEB/wQEAwICBDANBgkq
hkiG9w0BAQsFAAOCAQEAW1oA6dZ/GZMfAjm/f65OllSZMUWp+d/G04LOZqDFSCZB
TZI6yH1gzRq1wqzOQrmCmlpO7ybFzCkhyMhpKUcMZ0XINzafgcNzsjTwbWeHJ4ss
D6KvcJ830D+BvDwRFZ3fTnNpxh74dkaz5/2MTquZHxVT0lI2WVld/7d/ZLm7t2zG
62CXLVv/niyNFYSVj2cN1gPHLCVYdrbFXTnXt2GUtc1ja8qzTtvF4DbGid207FLx
znlL0FB8DAxIskP24uOxMdiOUwZSlmbp/3q283AVKE7gAkIq0hagb1wuagxMEdeM
O4VOkAyE6Q6+8kbxYsqS5DFS3TM5Y3jHG4g+gyUexA==
-----END CERTIFICATE-----
