Certificate:
    Data:
        Version: 3 (0x2)
        Serial Number: 33 (0x21)
        Signature Algorithm: sha256WithRSAEncryption
        Issuer: C=US, ST=California, L=Santa Clara, O=pkg5, CN=ta3/emailAddress=ta3
        Validity
            Not Before: Jan  1 01:01:01 2035 GMT
            Not After : Jan  2 01:01:01 2035 GMT
        Subject: C=US, ST=California, L=Santa Clara, O=pkg5, CN=ch1.4_ta3/emailAddress=ch1.4_ta3
        Subject Public Key Info:
            Public Key Algorithm: rsaEncryption
                Public-Key: (2048 bit)
                Modulus:
                    00:a8:3c:95:52:cb:67:01:35:10:b2:eb:9b:61:e3:
                    80:8a:14:00:30:c5:58:36:70:4a:f2:69:20:a0:e5:
                    d4:dd:09:50:a5:9b:b4:ab:7b:98:5b:8c:62:69:36:
                    22:94:0a:b1:c5:c1:25:98:be:d4:0e:f2:a3:50:d6:
                    aa:09:2c:a3:97:ff:a8:80:17:89:7d:b6:cf:1b:bd:
                    59:00:72:b7:8c:5f:40:3d:8e:a6:d9:73:72:11:7a:
                    fe:de:f6:71:a3:f3:83:7f:57:22:7d:08:e7:46:76:
                    82:46:76:fd:85:38:51:2c:1a:fa:48:8d:1b:30:15:
                    48:ae:55:5d:e6:da:40:30:c2:62:89:79:ec:4f:43:
                    b6:65:0d:21:07:17:5a:60:68:99:f1:fb:9a:89:52:
                    0b:16:2b:c6:70:1f:f5:01:cd:5e:e2:ad:46:4a:0f:
                    ac:d4:80:25:d8:e8:f1:b1:13:cb:46:40:59:39:02:
                    09:a1:10:9a:ac:43:83:d8:5d:27:bc:8f:bc:6a:bf:
                    ac:fa:61:eb:36:fb:b6:dc:11:66:10:6b:58:16:a4:
                    87:2a:1d:2b:af:96:13:b4:9f:a3:f2:fd:00:06:ef:
                    0c:f1:b9:69:0b:d2:ed:14:cc:5f:a7:32:b0:99:82:
                    b0:7f:31:52:48:00:1b:88:c0:3e:3b:15:5f:e7:20:
                    6c:97
                Exponent: 65537 (0x10001)
        X509v3 extensions:
            X509v3 Subject Key Identifier: 
                DB:7D:A4:0C:29:6C:28:A6:94:AE:5A:FA:80:BE:24:C9:61:B3:B9:3A
            X509v3 Authority Key Identifier: 
                keyid:DC:83:FD:15:4A:D3:A8:E9:0B:C4:90:16:2F:FE:AA:F4:AB:B7:EC:E3
                DirName:/C=US/ST=California/L=Santa Clara/O=pkg5/CN=ta3/emailAddress=ta3
                serial:54:04:4F:D7:5E:93:DA:45:DC:6F:3A:6E:37:AE:D3:81:91:BE:7E:72
            X509v3 Basic Constraints: critical
                CA:TRUE
    Signature Algorithm: sha256WithRSAEncryption
    Signature Value:
        6d:06:80:1d:86:83:2f:dc:b0:8e:ba:3b:a0:fa:4f:52:80:72:
        08:8f:a7:90:b3:11:fa:d4:e1:ea:bd:a7:72:56:48:b5:ea:50:
        0a:b4:c1:b0:a8:5c:83:a3:5a:22:19:ea:e5:e8:fc:ab:d5:71:
        67:84:c6:a2:fa:d0:d6:04:95:98:47:42:ef:56:81:6a:6f:3d:
        3c:8a:e4:30:67:c0:1f:49:bb:82:9c:63:e7:6d:08:02:94:87:
        fd:07:3d:1c:98:7b:55:37:d4:47:7f:c8:d1:e4:6e:a2:d8:66:
        c3:6a:49:86:e2:83:d4:03:6c:8c:5d:ca:df:26:f0:66:2e:06:
        25:8f:2a:20:8e:be:ef:39:1a:7d:cb:30:64:58:7f:41:84:06:
        e3:54:fb:f8:e4:68:63:0d:09:54:53:eb:8a:54:ed:62:7a:ad:
        5a:3d:5f:d2:b1:e1:bb:fa:fd:b9:9d:c5:95:28:af:2b:fc:ba:
        b7:49:38:e7:7e:c4:ff:79:3a:f5:34:2c:47:15:01:c4:8b:17:
        ea:ad:52:f7:93:34:4c:15:62:94:29:73:12:f6:d9:16:73:d3:
        f7:cd:b4:83:5d:cb:f8:be:12:46:4e:04:21:ec:6b:d7:8c:59:
        b5:28:6b:48:54:6c:59:72:9c:6c:51:a2:f5:61:60:79:b9:62:
        a9:3e:da:c7
-----BEGIN CERTIFICATE-----
MIIENjCCAx6gAwIBAgIBITANBgkqhkiG9w0BAQsFADBpMQswCQYDVQQGEwJVUzET
MBEGA1UECAwKQ2FsaWZvcm5pYTEUMBIGA1UEBwwLU2FudGEgQ2xhcmExDTALBgNV
BAoMBHBrZzUxDDAKBgNVBAMMA3RhMzESMBAGCSqGSIb3DQEJARYDdGEzMB4XDTM1
MDEwMTAxMDEwMVoXDTM1MDEwMjAxMDEwMVowdTELMAkGA1UEBhMCVVMxEzARBgNV
BAgMCkNhbGlmb3JuaWExFDASBgNVBAcMC1NhbnRhIENsYXJhMQ0wCwYDVQQKDARw
a2c1MRIwEAYDVQQDDAljaDEuNF90YTMxGDAWBgkqhkiG9w0BCQEWCWNoMS40X3Rh
MzCCASIwDQYJKoZIhvcNAQEBBQADggEPADCCAQoCggEBAKg8lVLLZwE1ELLrm2Hj
gIoUADDFWDZwSvJpIKDl1N0JUKWbtKt7mFuMYmk2IpQKscXBJZi+1A7yo1DWqgks
o5f/qIAXiX22zxu9WQByt4xfQD2OptlzchF6/t72caPzg39XIn0I50Z2gkZ2/YU4
USwa+kiNGzAVSK5VXebaQDDCYol57E9DtmUNIQcXWmBomfH7molSCxYrxnAf9QHN
XuKtRkoPrNSAJdjo8bETy0ZAWTkCCaEQmqxDg9hdJ7yPvGq/rPph6zb7ttwRZhBr
WBakhyodK6+WE7Sfo/L9AAbvDPG5aQvS7RTMX6cysJmCsH8xUkgAG4jAPjsVX+cg
bJcCAwEAAaOB3DCB2TAdBgNVHQ4EFgQU232kDClsKKaUrlr6gL4kyWGzuTowgaYG
A1UdIwSBnjCBm4AU3IP9FUrTqOkLxJAWL/6q9Ku37OOhbaRrMGkxCzAJBgNVBAYT
AlVTMRMwEQYDVQQIDApDYWxpZm9ybmlhMRQwEgYDVQQHDAtTYW50YSBDbGFyYTEN
MAsGA1UECgwEcGtnNTEMMAoGA1UEAwwDdGEzMRIwEAYJKoZIhvcNAQkBFgN0YTOC
FFQET9dek9pF3G86bjeu04GRvn5yMA8GA1UdEwEB/wQFMAMBAf8wDQYJKoZIhvcN
AQELBQADggEBAG0GgB2Ggy/csI66O6D6T1KAcgiPp5CzEfrU4eq9p3JWSLXqUAq0
wbCoXIOjWiIZ6uXo/KvVcWeExqL60NYElZhHQu9WgWpvPTyK5DBnwB9Ju4KcY+dt
CAKUh/0HPRyYe1U31Ed/yNHkbqLYZsNqSYbig9QDbIxdyt8m8GYuBiWPKiCOvu85
Gn3LMGRYf0GEBuNU+/jkaGMNCVRT64pU7WJ6rVo9X9Kx4bv6/bmdxZUoryv8urdJ
OOd+xP95OvU0LEcVAcSLF+qtUveTNEwVYpQpcxL22RZz0/fNtINdy/i+EkZOBCHs
a9eMWbUoa0hUbFlynGxRovVhYHm5Yqk+2sc=
-----END CERTIFICATE-----
