Certificate:
    Data:
        Version: 3 (0x2)
        Serial Number: 27 (0x1b)
        Signature Algorithm: sha256WithRSAEncryption
        Issuer: C=US, ST=California, L=Santa Clara, O=pkg5, CN=ta3/emailAddress=ta3
        Validity
            Not Before: Nov 14 14:26:55 2024 GMT
            Not After : Aug 11 14:26:55 2027 GMT
        Subject: C=US, ST=California, L=Santa Clara, O=pkg5, CN=ch1.1_ta3/emailAddress=ch1.1_ta3
        Subject Public Key Info:
            Public Key Algorithm: rsaEncryption
                Public-Key: (2048 bit)
                Modulus:
                    00:c8:94:d8:51:c1:fe:1d:e1:c3:b9:f4:9a:0e:f6:
                    0c:50:07:22:d0:4d:36:63:41:c4:7c:92:72:4c:76:
                    34:4e:9a:39:5e:7b:10:04:f5:80:11:c5:f0:14:7e:
                    84:02:55:1a:b2:47:0b:66:3e:4d:3f:e6:af:a6:a9:
                    bc:9a:4a:9a:02:48:a6:a6:0a:5c:60:39:75:dd:d5:
                    16:70:db:f1:d3:09:c4:2b:fc:45:dc:1e:6b:6a:0d:
                    61:ef:c5:2e:b7:69:91:db:9a:b9:43:80:97:a4:29:
                    d9:e0:b3:ce:66:5d:76:b0:d1:cd:b1:c7:55:a3:c2:
                    5f:c7:7f:2e:a4:54:6e:e3:53:6d:55:44:46:0f:b2:
                    a1:dd:2c:27:c6:b4:c4:e4:71:7b:0b:7f:5e:8c:c5:
                    c9:63:59:04:73:4e:b8:6f:24:61:fd:7b:07:e2:a0:
                    43:b0:08:b2:86:6b:1b:68:8e:54:ce:fe:5b:45:a7:
                    86:b6:9b:3b:af:45:aa:f8:23:fb:70:1b:2d:71:14:
                    4b:33:b5:06:7e:5f:21:17:b6:7b:c2:96:cb:d4:bc:
                    57:ab:bb:6f:0a:2f:6d:bb:77:2c:d0:b9:b7:2c:68:
                    fc:4c:e0:80:dd:c9:bd:eb:bb:66:02:3e:50:88:ef:
                    3e:61:e3:dd:21:ab:05:d0:5a:2b:23:69:0e:70:93:
                    57:a1
                Exponent: 65537 (0x10001)
        X509v3 extensions:
            X509v3 Basic Constraints: critical
                CA:TRUE
            X509v3 Subject Alternative Name: 
                email:ch1.1_ta3
            X509v3 Issuer Alternative Name: critical
                email:ca
            X509v3 Subject Key Identifier: 
                B6:DA:23:41:71:A7:A0:6D:39:4A:30:5D:2F:A2:91:A1:B3:A8:0D:5A
            X509v3 Authority Key Identifier: 
                C0:41:94:DE:CD:5D:DB:27:3B:CD:AB:4A:D5:3A:6F:DA:A7:7F:17:36
    Signature Algorithm: sha256WithRSAEncryption
    Signature Value:
        4d:31:36:f7:60:ee:fa:45:14:44:6d:e7:86:ef:37:64:40:4a:
        57:b7:e9:37:55:ac:bd:73:7b:d4:70:9d:f6:c2:d9:06:16:f1:
        43:8a:a0:76:6d:74:77:81:76:81:76:47:7f:00:57:e6:3c:4b:
        7d:62:cd:b8:22:92:f2:eb:38:2f:89:fb:22:5a:4b:6c:13:93:
        4b:9d:3d:1b:bf:5b:54:d8:b1:c2:1b:27:2c:c6:09:31:c0:19:
        79:3d:8d:5f:a1:47:ea:66:53:eb:d6:a0:7f:ed:36:ec:c3:1f:
        d9:c4:f7:8a:29:cf:74:a2:9c:97:20:63:70:26:fe:9b:c1:08:
        88:cb:4b:0b:5b:55:ea:f8:e8:72:9a:ab:a2:b6:24:aa:ae:b4:
        c9:ae:b4:e4:44:76:4d:e7:57:db:82:30:8a:ff:61:74:f6:e8:
        f9:90:aa:a4:4e:38:04:7b:a9:b0:28:a6:5a:45:bc:02:fb:26:
        14:96:ed:7e:33:4f:17:60:66:70:b5:8a:38:d4:1d:2b:b0:80:
        bb:c7:44:7f:ed:7f:bc:0f:25:9f:a9:75:99:f3:0b:4e:fe:a5:
        71:7e:92:31:11:45:8d:6e:b8:05:4c:96:f5:46:b8:2c:de:0c:
        49:98:b7:cb:b2:ad:5e:28:d7:7b:8f:a3:36:e1:b0:5e:0a:dd:
        bf:d9:cf:03
-----BEGIN CERTIFICATE-----
MIID1DCCArygAwIBAgIBGzANBgkqhkiG9w0BAQsFADBpMQswCQYDVQQGEwJVUzET
MBEGA1UECAwKQ2FsaWZvcm5pYTEUMBIGA1UEBwwLU2FudGEgQ2xhcmExDTALBgNV
BAoMBHBrZzUxDDAKBgNVBAMMA3RhMzESMBAGCSqGSIb3DQEJARYDdGEzMB4XDTI0
MTExNDE0MjY1NVoXDTI3MDgxMTE0MjY1NVowdTELMAkGA1UEBhMCVVMxEzARBgNV
BAgMCkNhbGlmb3JuaWExFDASBgNVBAcMC1NhbnRhIENsYXJhMQ0wCwYDVQQKDARw
a2c1MRIwEAYDVQQDDAljaDEuMV90YTMxGDAWBgkqhkiG9w0BCQEWCWNoMS4xX3Rh
MzCCASIwDQYJKoZIhvcNAQEBBQADggEPADCCAQoCggEBAMiU2FHB/h3hw7n0mg72
DFAHItBNNmNBxHySckx2NE6aOV57EAT1gBHF8BR+hAJVGrJHC2Y+TT/mr6apvJpK
mgJIpqYKXGA5dd3VFnDb8dMJxCv8Rdwea2oNYe/FLrdpkduauUOAl6Qp2eCzzmZd
drDRzbHHVaPCX8d/LqRUbuNTbVVERg+yod0sJ8a0xORxewt/XozFyWNZBHNOuG8k
Yf17B+KgQ7AIsoZrG2iOVM7+W0WnhrabO69Fqvgj+3AbLXEUSzO1Bn5fIRe2e8KW
y9S8V6u7bwovbbt3LNC5tyxo/EzggN3Jveu7ZgI+UIjvPmHj3SGrBdBaKyNpDnCT
V6ECAwEAAaN7MHkwDwYDVR0TAQH/BAUwAwEB/zAUBgNVHREEDTALgQljaDEuMV90
YTMwEAYDVR0SAQH/BAYwBIECY2EwHQYDVR0OBBYEFLbaI0Fxp6BtOUowXS+ikaGz
qA1aMB8GA1UdIwQYMBaAFMBBlN7NXdsnO82rStU6b9qnfxc2MA0GCSqGSIb3DQEB
CwUAA4IBAQBNMTb3YO76RRREbeeG7zdkQEpXt+k3Vay9c3vUcJ32wtkGFvFDiqB2
bXR3gXaBdkd/AFfmPEt9Ys24IpLy6zgvifsiWktsE5NLnT0bv1tU2LHCGycsxgkx
wBl5PY1foUfqZlPr1qB/7Tbswx/ZxPeKKc90opyXIGNwJv6bwQiIy0sLW1Xq+Ohy
mquitiSqrrTJrrTkRHZN51fbgjCK/2F09uj5kKqkTjgEe6mwKKZaRbwC+yYUlu1+
M08XYGZwtYo41B0rsIC7x0R/7X+8DyWfqXWZ8wtO/qVxfpIxEUWNbrgFTJb1Rrgs
3gxJmLfLsq1eKNd7j6M24bBeCt2/2c8D
-----END CERTIFICATE-----
