Certificate:
    Data:
        Version: 3 (0x2)
        Serial Number: 39 (0x27)
        Signature Algorithm: sha256WithRSAEncryption
        Issuer: C=US, ST=California, L=Santa Clara, O=pkg5, CN=ta4/emailAddress=ta4
        Validity
            Not Before: Nov 17 23:01:33 2020 GMT
            Not After : Aug 14 23:01:33 2023 GMT
        Subject: C=US, ST=California, L=Santa Clara, O=pkg5, CN=ch1.1_ta4/emailAddress=ch1.1_ta4
        Subject Public Key Info:
            Public Key Algorithm: rsaEncryption
                RSA Public-Key: (2048 bit)
                Modulus:
                    00:cf:ff:49:ad:9f:8b:94:04:1f:82:4e:33:db:db:
                    6d:66:57:21:83:35:ad:24:8d:3d:22:7a:72:90:86:
                    a8:8c:42:01:37:d5:52:c8:e9:b2:ea:b1:d0:4b:e1:
                    83:8b:8a:93:14:c1:14:90:f3:97:54:97:0c:37:b4:
                    70:20:fa:dc:5f:d2:1c:97:38:d4:19:09:c0:98:d9:
                    bf:73:46:c5:5f:c1:a5:82:4b:c1:09:b1:22:75:aa:
                    af:89:ee:c6:19:d6:f6:f2:6f:09:ca:27:1e:ee:54:
                    0a:9b:84:c3:a4:30:b0:13:39:49:1e:6e:29:d4:81:
                    5e:2e:b4:2b:4e:56:de:6a:72:2f:7d:e6:a1:82:80:
                    b1:d5:66:2e:25:8f:68:bb:61:bd:8c:ee:28:cc:30:
                    a3:0f:8d:4b:c9:74:93:b8:d1:ca:7b:57:40:71:da:
                    5b:72:7a:5f:bd:de:b8:42:bd:74:16:19:35:74:a9:
                    67:47:5b:97:95:09:1b:42:29:ec:4e:e2:82:5c:3d:
                    0e:a3:30:14:6a:0b:ed:a4:fa:be:4f:70:1d:88:bd:
                    f5:d9:49:db:28:6e:db:a4:ce:93:ba:f9:e9:f3:2d:
                    fc:b7:2f:66:89:2a:db:94:73:d4:58:0c:9f:90:cd:
                    ed:e0:1d:8d:67:02:46:29:18:29:3a:3b:36:72:b3:
                    b4:1f
                Exponent: 65537 (0x10001)
        X509v3 extensions:
            X509v3 Subject Key Identifier: 
                83:52:26:8E:3A:5F:FF:A1:D1:F0:E7:4F:92:2B:93:99:B0:1E:62:68
            X509v3 Authority Key Identifier: 
                keyid:74:B8:C3:9D:47:62:31:59:00:3C:E9:99:3B:7F:18:B1:D7:A9:62:DE
                DirName:/C=US/ST=California/L=Santa Clara/O=pkg5/CN=ta4/emailAddress=ta4
                serial:5B:F2:1B:2D:F0:C5:49:84:C6:92:B5:70:CD:A3:78:2A:8D:07:25:E6

            X509v3 Basic Constraints: critical
                CA:TRUE
            X509v3 Key Usage: critical
                Certificate Sign
    Signature Algorithm: sha256WithRSAEncryption
         ac:f1:a7:5e:51:99:02:4b:e7:43:08:47:18:60:ec:0b:6d:96:
         5d:95:1c:74:df:48:fe:3b:c8:79:49:c5:58:a3:11:99:8e:ae:
         08:5d:9a:c5:5c:75:e1:d1:ac:90:a7:05:8b:bb:a3:a3:dc:cd:
         38:b3:e5:f6:98:3d:e1:d5:0b:01:28:e0:76:a7:5c:c9:e0:1b:
         37:93:65:0b:33:7a:69:39:66:16:b6:83:de:7f:a6:04:a4:8f:
         02:8d:53:9e:33:64:e8:ae:c6:4d:33:75:ec:92:38:fe:b1:d9:
         ba:e1:72:a5:35:d9:95:af:d4:67:ef:1d:e9:01:86:68:75:0c:
         95:07:82:87:2d:10:2e:86:db:b8:1d:e0:0d:81:b6:80:b5:d5:
         6e:a6:76:8e:b0:17:0b:92:e0:11:1b:a1:ac:dc:d2:17:8b:ce:
         f2:c9:98:9f:4b:10:da:2d:ce:d5:84:cb:46:61:39:1d:1e:55:
         b4:4d:5b:b8:a3:b2:31:bc:68:c1:30:28:f7:86:04:02:c7:7e:
         3e:79:8d:9b:b7:3a:48:8a:ba:a2:04:d3:f4:fb:27:10:09:f5:
         b3:c4:9c:40:ef:91:d8:07:2f:ee:86:34:b2:6a:01:33:90:fd:
         7e:2a:26:75:02:51:52:fb:23:3a:dd:6a:12:93:29:00:ad:d4:
         90:78:49:1a
-----BEGIN CERTIFICATE-----
MIIERjCCAy6gAwIBAgIBJzANBgkqhkiG9w0BAQsFADBpMQswCQYDVQQGEwJVUzET
MBEGA1UECAwKQ2FsaWZvcm5pYTEUMBIGA1UEBwwLU2FudGEgQ2xhcmExDTALBgNV
BAoMBHBrZzUxDDAKBgNVBAMMA3RhNDESMBAGCSqGSIb3DQEJARYDdGE0MB4XDTIw
MTExNzIzMDEzM1oXDTIzMDgxNDIzMDEzM1owdTELMAkGA1UEBhMCVVMxEzARBgNV
BAgMCkNhbGlmb3JuaWExFDASBgNVBAcMC1NhbnRhIENsYXJhMQ0wCwYDVQQKDARw
a2c1MRIwEAYDVQQDDAljaDEuMV90YTQxGDAWBgkqhkiG9w0BCQEWCWNoMS4xX3Rh
NDCCASIwDQYJKoZIhvcNAQEBBQADggEPADCCAQoCggEBAM//Sa2fi5QEH4JOM9vb
bWZXIYM1rSSNPSJ6cpCGqIxCATfVUsjpsuqx0Evhg4uKkxTBFJDzl1SXDDe0cCD6
3F/SHJc41BkJwJjZv3NGxV/BpYJLwQmxInWqr4nuxhnW9vJvCconHu5UCpuEw6Qw
sBM5SR5uKdSBXi60K05W3mpyL33moYKAsdVmLiWPaLthvYzuKMwwow+NS8l0k7jR
yntXQHHaW3J6X73euEK9dBYZNXSpZ0dbl5UJG0Ip7E7iglw9DqMwFGoL7aT6vk9w
HYi99dlJ2yhu26TOk7r56fMt/LcvZokq25Rz1FgMn5DN7eAdjWcCRikYKTo7NnKz
tB8CAwEAAaOB7DCB6TAdBgNVHQ4EFgQUg1Imjjpf/6HR8OdPkiuTmbAeYmgwgaYG
A1UdIwSBnjCBm4AUdLjDnUdiMVkAPOmZO38YsdepYt6hbaRrMGkxCzAJBgNVBAYT
AlVTMRMwEQYDVQQIDApDYWxpZm9ybmlhMRQwEgYDVQQHDAtTYW50YSBDbGFyYTEN
MAsGA1UECgwEcGtnNTEMMAoGA1UEAwwDdGE0MRIwEAYJKoZIhvcNAQkBFgN0YTSC
FFvyGy3wxUmExpK1cM2jeCqNByXmMA8GA1UdEwEB/wQFMAMBAf8wDgYDVR0PAQH/
BAQDAgIEMA0GCSqGSIb3DQEBCwUAA4IBAQCs8adeUZkCS+dDCEcYYOwLbZZdlRx0
30j+O8h5ScVYoxGZjq4IXZrFXHXh0ayQpwWLu6Oj3M04s+X2mD3h1QsBKOB2p1zJ
4Bs3k2ULM3ppOWYWtoPef6YEpI8CjVOeM2TorsZNM3Xskjj+sdm64XKlNdmVr9Rn
7x3pAYZodQyVB4KHLRAuhtu4HeANgbaAtdVupnaOsBcLkuARG6Gs3NIXi87yyZif
SxDaLc7VhMtGYTkdHlW0TVu4o7IxvGjBMCj3hgQCx34+eY2btzpIirqiBNP0+ycQ
CfWzxJxA75HYBy/uhjSyagEzkP1+KiZ1AlFS+yM63WoSkykArdSQeEka
-----END CERTIFICATE-----
