Certificate:
    Data:
        Version: 3 (0x2)
        Serial Number: 31 (0x1f)
        Signature Algorithm: sha256WithRSAEncryption
        Issuer: C=US, ST=California, L=Santa Clara, O=pkg5, CN=ta3/emailAddress=ta3
        Validity
            Not Before: Jan  1 01:01:01 2035 GMT
            Not After : Jan  2 01:01:01 2035 GMT
        Subject: C=US, ST=California, L=Santa Clara, O=pkg5, CN=ch1.3_ta3/emailAddress=ch1.3_ta3
        Subject Public Key Info:
            Public Key Algorithm: rsaEncryption
                Public-Key: (2048 bit)
                Modulus:
                    00:b7:fe:5c:a4:e5:1d:a3:e4:8f:d1:78:3c:94:de:
                    74:70:3b:da:98:12:7c:72:3c:78:6d:b2:84:68:4c:
                    48:7b:58:b2:c1:60:96:15:a9:39:2c:ff:77:2b:e0:
                    8f:fa:b7:a8:6e:f1:c2:42:97:7d:c3:29:d0:3f:a1:
                    f5:2b:04:0c:b4:1e:1d:47:9e:b3:ff:01:fd:b8:bc:
                    ba:22:61:64:c4:20:c2:67:79:86:b1:d3:54:3b:f4:
                    94:2a:21:b4:8b:94:bf:f1:06:65:51:88:4a:e2:ef:
                    0e:c0:40:b6:70:3a:e3:da:14:ab:ed:08:2d:82:93:
                    b6:99:f9:84:99:53:23:45:08:21:90:13:b1:31:33:
                    28:c6:be:ce:c2:bc:34:dc:83:8e:55:8f:27:ae:db:
                    8a:99:5f:2a:34:9e:ee:ce:43:b9:73:46:38:91:c8:
                    d6:a2:bb:f9:43:86:d0:ca:14:87:bd:ad:a0:79:a8:
                    71:d0:fb:95:dd:b6:6a:36:46:57:26:b1:81:81:ed:
                    5c:64:fb:5e:46:6d:13:39:4e:d7:c6:a6:e7:18:d1:
                    c8:34:66:29:3a:12:b2:1d:9b:ba:99:59:fe:99:15:
                    08:6f:cb:dd:4d:d3:24:c1:64:8b:9a:12:79:17:09:
                    32:e8:77:26:d0:cc:dd:11:e9:2b:45:ae:f8:14:a9:
                    02:db
                Exponent: 65537 (0x10001)
        X509v3 extensions:
            X509v3 Subject Key Identifier: 
                52:EF:82:32:AC:6B:1A:30:51:32:A5:96:F8:E3:55:19:55:82:75:17
            X509v3 Authority Key Identifier: 
                keyid:31:E7:12:49:AC:32:CC:03:A0:C3:60:99:F6:3E:5D:1C:A3:84:D8:3B
                DirName:/C=US/ST=California/L=Santa Clara/O=pkg5/CN=ta3/emailAddress=ta3
                serial:67:24:4B:8D:A6:63:4B:01:0D:6C:DC:60:C0:93:C2:BE:F7:9A:BD:2F
            X509v3 Basic Constraints: critical
                CA:TRUE
            X509v3 Key Usage: critical
                Certificate Sign, CRL Sign
            X509v3 Subject Alternative Name: 
                email:ch1.3_ta3
    Signature Algorithm: sha256WithRSAEncryption
    Signature Value:
        15:41:50:c0:aa:db:ae:e8:b2:e6:58:7b:fc:02:42:59:7f:2e:
        ce:d4:76:52:7a:ab:bd:8b:f6:50:c9:14:c4:06:fc:5b:e7:d3:
        d2:a2:43:c0:6d:ac:1f:64:29:cc:fc:bf:06:89:05:17:48:f5:
        12:3a:26:99:54:63:c0:59:eb:fd:ea:bd:1b:c6:68:2f:1d:9b:
        fe:d4:a0:59:43:ee:9c:c7:f5:ad:ad:d2:da:ad:93:72:13:30:
        97:9e:bf:c3:1c:a0:7b:90:ef:f5:16:90:64:a6:a0:1b:27:6b:
        85:e4:ba:66:45:44:f2:d4:45:76:89:7a:f3:c3:47:e6:56:61:
        87:14:d4:b1:ed:c9:cd:b9:9b:97:ec:28:19:1e:76:12:71:ac:
        98:25:92:e7:ae:2b:d4:50:07:4e:5c:9e:d7:f1:b2:90:f6:1c:
        ed:1d:43:7a:f7:94:f8:23:25:03:9b:72:05:bd:9d:c4:91:51:
        ea:aa:f2:f8:6c:26:fc:35:2e:10:46:c3:91:7c:93:c2:c0:85:
        ff:98:4f:88:59:b6:ec:c0:f5:47:b3:b4:f6:81:8a:06:64:76:
        04:61:45:02:5d:45:6a:06:4d:a4:e9:0c:6c:56:55:c6:4b:77:
        55:3c:ad:31:4c:a4:f9:7b:1b:61:8a:84:75:af:e2:d1:b8:f9:
        f4:85:04:12
-----BEGIN CERTIFICATE-----
MIIEXTCCA0WgAwIBAgIBHzANBgkqhkiG9w0BAQsFADBpMQswCQYDVQQGEwJVUzET
MBEGA1UECAwKQ2FsaWZvcm5pYTEUMBIGA1UEBwwLU2FudGEgQ2xhcmExDTALBgNV
BAoMBHBrZzUxDDAKBgNVBAMMA3RhMzESMBAGCSqGSIb3DQEJARYDdGEzMB4XDTM1
MDEwMTAxMDEwMVoXDTM1MDEwMjAxMDEwMVowdTELMAkGA1UEBhMCVVMxEzARBgNV
BAgMCkNhbGlmb3JuaWExFDASBgNVBAcMC1NhbnRhIENsYXJhMQ0wCwYDVQQKDARw
a2c1MRIwEAYDVQQDDAljaDEuM190YTMxGDAWBgkqhkiG9w0BCQEWCWNoMS4zX3Rh
MzCCASIwDQYJKoZIhvcNAQEBBQADggEPADCCAQoCggEBALf+XKTlHaPkj9F4PJTe
dHA72pgSfHI8eG2yhGhMSHtYssFglhWpOSz/dyvgj/q3qG7xwkKXfcMp0D+h9SsE
DLQeHUees/8B/bi8uiJhZMQgwmd5hrHTVDv0lCohtIuUv/EGZVGISuLvDsBAtnA6
49oUq+0ILYKTtpn5hJlTI0UIIZATsTEzKMa+zsK8NNyDjlWPJ67biplfKjSe7s5D
uXNGOJHI1qK7+UOG0MoUh72toHmocdD7ld22ajZGVyaxgYHtXGT7XkZtEzlO18am
5xjRyDRmKToSsh2buplZ/pkVCG/L3U3TJMFki5oSeRcJMuh3JtDM3RHpK0Wu+BSp
AtsCAwEAAaOCAQIwgf8wHQYDVR0OBBYEFFLvgjKsaxowUTKllvjjVRlVgnUXMIGm
BgNVHSMEgZ4wgZuAFDHnEkmsMswDoMNgmfY+XRyjhNg7oW2kazBpMQswCQYDVQQG
EwJVUzETMBEGA1UECAwKQ2FsaWZvcm5pYTEUMBIGA1UEBwwLU2FudGEgQ2xhcmEx
DTALBgNVBAoMBHBrZzUxDDAKBgNVBAMMA3RhMzESMBAGCSqGSIb3DQEJARYDdGEz
ghRnJEuNpmNLAQ1s3GDAk8K+95q9LzAPBgNVHRMBAf8EBTADAQH/MA4GA1UdDwEB
/wQEAwIBBjAUBgNVHREEDTALgQljaDEuM190YTMwDQYJKoZIhvcNAQELBQADggEB
ABVBUMCq267osuZYe/wCQll/Ls7UdlJ6q72L9lDJFMQG/Fvn09KiQ8BtrB9kKcz8
vwaJBRdI9RI6JplUY8BZ6/3qvRvGaC8dm/7UoFlD7pzH9a2t0tqtk3ITMJeev8Mc
oHuQ7/UWkGSmoBsna4XkumZFRPLURXaJevPDR+ZWYYcU1LHtyc25m5fsKBkedhJx
rJglkueuK9RQB05cntfxspD2HO0dQ3r3lPgjJQObcgW9ncSRUeqq8vhsJvw1LhBG
w5F8k8LAhf+YT4hZtuzA9UeztPaBigZkdgRhRQJdRWoGTaTpDGxWVcZLd1U8rTFM
pPl7G2GKhHWv4tG4+fSFBBI=
-----END CERTIFICATE-----
