Certificate:
    Data:
        Version: 3 (0x2)
        Serial Number: 33 (0x21)
        Signature Algorithm: sha256WithRSAEncryption
        Issuer: C=US, ST=California, L=Santa Clara, O=pkg5, CN=ta3/emailAddress=ta3
        Validity
            Not Before: Jan  1 01:01:01 2035 GMT
            Not After : Jan  2 01:01:01 2035 GMT
        Subject: C=US, ST=California, L=Santa Clara, O=pkg5, CN=ch1.4_ta3/emailAddress=ch1.4_ta3
        Subject Public Key Info:
            Public Key Algorithm: rsaEncryption
                Public-Key: (2048 bit)
                Modulus:
                    00:da:9d:f7:13:12:dc:8a:bc:f2:0f:eb:c4:1d:86:
                    6a:4e:09:2e:7d:ec:60:41:68:02:65:2b:29:df:50:
                    80:99:e0:70:d3:61:56:1b:42:44:fb:f7:1a:7a:14:
                    c3:4e:5b:55:53:2c:0f:34:7c:27:f5:bd:b6:22:de:
                    61:39:56:f4:60:64:28:3f:fd:81:e4:e6:f8:62:f1:
                    28:01:b5:2a:2e:61:74:e5:33:06:ae:e6:7b:ed:bd:
                    50:94:d6:bb:dd:31:17:46:fb:18:90:3c:b7:b9:20:
                    c2:ce:93:2a:1f:0e:9f:13:97:02:be:65:8c:52:04:
                    78:cc:2a:63:4a:c0:58:d4:06:05:c1:23:ed:83:c0:
                    e9:b7:34:e5:d1:1c:77:0b:25:e4:cd:51:16:e4:42:
                    b7:0d:6a:81:7a:4c:15:4e:7e:b6:64:e2:e8:fe:cf:
                    d7:51:ad:c4:86:4e:0f:48:6e:d2:56:3b:66:49:11:
                    ed:52:c0:30:20:0f:03:93:8f:ce:78:37:6e:3a:62:
                    9b:96:07:89:58:ac:43:57:3b:de:94:06:fc:cb:e4:
                    05:88:3d:95:b0:43:e4:77:2e:f8:f0:64:f3:f2:26:
                    62:26:2c:c0:fe:b4:39:88:38:f1:70:d0:66:b5:d1:
                    58:23:c0:be:8a:1c:5b:ce:65:4c:78:7b:60:a5:a4:
                    82:17
                Exponent: 65537 (0x10001)
        X509v3 extensions:
            X509v3 Subject Key Identifier: 
                A4:7C:D0:3B:27:59:CD:88:F4:21:8B:E6:D6:A5:C3:23:6D:B4:00:D7
            X509v3 Authority Key Identifier: 
                keyid:31:E7:12:49:AC:32:CC:03:A0:C3:60:99:F6:3E:5D:1C:A3:84:D8:3B
                DirName:/C=US/ST=California/L=Santa Clara/O=pkg5/CN=ta3/emailAddress=ta3
                serial:67:24:4B:8D:A6:63:4B:01:0D:6C:DC:60:C0:93:C2:BE:F7:9A:BD:2F
            X509v3 Basic Constraints: critical
                CA:TRUE
    Signature Algorithm: sha256WithRSAEncryption
    Signature Value:
        71:7d:cc:51:ab:17:49:92:1c:11:b2:4a:c4:6a:c0:b6:5a:a3:
        12:24:67:11:d2:eb:d4:bb:fc:9b:3d:19:48:a6:ce:fd:46:8a:
        73:9d:46:fa:93:a8:58:4c:79:de:2a:d4:03:68:c6:fb:15:59:
        34:7b:68:ef:1b:5e:98:75:ef:b3:64:00:18:7e:a3:7b:75:28:
        f0:55:c7:28:13:e6:dd:46:db:0f:94:af:23:15:6a:e2:38:ba:
        36:d5:d1:ac:b2:f3:bd:43:5a:a5:45:78:ed:3b:5e:88:bd:95:
        f6:c0:0f:b6:66:50:4f:44:8a:d7:d2:2b:71:ff:d4:5e:a4:bd:
        f2:a5:c6:28:71:07:2c:2b:1f:4c:41:fc:66:b6:2d:8f:c7:1a:
        a3:51:ac:cf:a9:02:5e:fd:5f:5e:58:a4:38:ae:15:bc:d5:25:
        1f:86:45:4f:7d:20:82:98:31:b8:b9:d9:39:1c:c2:0b:f2:8c:
        49:af:33:b2:f1:0c:b6:08:23:b4:66:2d:a0:29:f9:2e:c0:86:
        04:67:06:f3:fe:80:c9:ca:4d:a4:81:81:b2:ca:54:45:02:ae:
        a8:af:55:bb:9e:42:c6:96:b0:b3:ff:11:f0:02:d6:91:a7:f2:
        b6:b5:83:aa:5c:0d:cb:58:fb:2f:6f:91:4d:2f:a5:3d:dc:35:
        2d:7b:3a:b2
-----BEGIN CERTIFICATE-----
MIIENjCCAx6gAwIBAgIBITANBgkqhkiG9w0BAQsFADBpMQswCQYDVQQGEwJVUzET
MBEGA1UECAwKQ2FsaWZvcm5pYTEUMBIGA1UEBwwLU2FudGEgQ2xhcmExDTALBgNV
BAoMBHBrZzUxDDAKBgNVBAMMA3RhMzESMBAGCSqGSIb3DQEJARYDdGEzMB4XDTM1
MDEwMTAxMDEwMVoXDTM1MDEwMjAxMDEwMVowdTELMAkGA1UEBhMCVVMxEzARBgNV
BAgMCkNhbGlmb3JuaWExFDASBgNVBAcMC1NhbnRhIENsYXJhMQ0wCwYDVQQKDARw
a2c1MRIwEAYDVQQDDAljaDEuNF90YTMxGDAWBgkqhkiG9w0BCQEWCWNoMS40X3Rh
MzCCASIwDQYJKoZIhvcNAQEBBQADggEPADCCAQoCggEBANqd9xMS3Iq88g/rxB2G
ak4JLn3sYEFoAmUrKd9QgJngcNNhVhtCRPv3GnoUw05bVVMsDzR8J/W9tiLeYTlW
9GBkKD/9geTm+GLxKAG1Ki5hdOUzBq7me+29UJTWu90xF0b7GJA8t7kgws6TKh8O
nxOXAr5ljFIEeMwqY0rAWNQGBcEj7YPA6bc05dEcdwsl5M1RFuRCtw1qgXpMFU5+
tmTi6P7P11GtxIZOD0hu0lY7ZkkR7VLAMCAPA5OPzng3bjpim5YHiVisQ1c73pQG
/MvkBYg9lbBD5Hcu+PBk8/ImYiYswP60OYg48XDQZrXRWCPAvoocW85lTHh7YKWk
ghcCAwEAAaOB3DCB2TAdBgNVHQ4EFgQUpHzQOydZzYj0IYvm1qXDI220ANcwgaYG
A1UdIwSBnjCBm4AUMecSSawyzAOgw2CZ9j5dHKOE2DuhbaRrMGkxCzAJBgNVBAYT
AlVTMRMwEQYDVQQIDApDYWxpZm9ybmlhMRQwEgYDVQQHDAtTYW50YSBDbGFyYTEN
MAsGA1UECgwEcGtnNTEMMAoGA1UEAwwDdGEzMRIwEAYJKoZIhvcNAQkBFgN0YTOC
FGckS42mY0sBDWzcYMCTwr73mr0vMA8GA1UdEwEB/wQFMAMBAf8wDQYJKoZIhvcN
AQELBQADggEBAHF9zFGrF0mSHBGySsRqwLZaoxIkZxHS69S7/Js9GUimzv1GinOd
RvqTqFhMed4q1ANoxvsVWTR7aO8bXph177NkABh+o3t1KPBVxygT5t1G2w+UryMV
auI4ujbV0ayy871DWqVFeO07Xoi9lfbAD7ZmUE9EitfSK3H/1F6kvfKlxihxBywr
H0xB/Ga2LY/HGqNRrM+pAl79X15YpDiuFbzVJR+GRU99IIKYMbi52TkcwgvyjEmv
M7LxDLYII7RmLaAp+S7AhgRnBvP+gMnKTaSBgbLKVEUCrqivVbueQsaWsLP/EfAC
1pGn8ra1g6pcDctY+y9vkU0vpT3cNS17OrI=
-----END CERTIFICATE-----
