Certificate:
    Data:
        Version: 3 (0x2)
        Serial Number: 39 (0x27)
        Signature Algorithm: sha256WithRSAEncryption
        Issuer: C=US, ST=California, L=Santa Clara, O=pkg5, CN=ta4/emailAddress=ta4
        Validity
            Not Before: Oct 24 21:43:12 2023 GMT
            Not After : Jul 20 21:43:12 2026 GMT
        Subject: C=US, ST=California, L=Santa Clara, O=pkg5, CN=ch1.1_ta4/emailAddress=ch1.1_ta4
        Subject Public Key Info:
            Public Key Algorithm: rsaEncryption
                Public-Key: (2048 bit)
                Modulus:
                    00:ac:75:5d:9c:44:86:fc:b3:52:b6:6c:96:06:7b:
                    da:87:42:7e:47:3e:79:bb:2d:8e:db:3a:87:1d:44:
                    0d:04:84:37:75:1a:78:9a:cb:3b:fa:74:6e:7e:5a:
                    cd:af:b6:cd:fb:79:9e:e0:84:bc:54:a4:60:7e:e4:
                    19:76:5b:fa:e2:02:7c:55:f5:4f:bf:17:e7:47:b3:
                    82:44:91:1e:88:f7:05:23:b7:53:c3:9e:14:fd:9b:
                    a2:8c:c2:0e:2d:4c:c8:e5:5d:48:17:0c:9e:38:6b:
                    ae:2e:6a:7f:3b:73:24:ca:45:e9:40:32:29:01:61:
                    f8:c4:be:c8:56:db:27:56:82:90:9c:46:f1:08:44:
                    74:f3:39:c8:0f:ce:73:01:9b:43:1d:18:a2:ee:37:
                    45:00:6f:eb:dc:53:d0:fe:56:de:93:13:29:25:90:
                    fe:0f:f9:66:62:6c:a7:22:44:dd:4f:f3:96:fa:79:
                    9d:a6:64:97:6a:ab:fe:2d:60:e8:8c:05:c7:c0:c4:
                    d3:ff:1d:52:9a:0d:56:fc:ee:84:cc:8a:51:74:ae:
                    9e:ba:0f:c6:ad:30:14:38:0b:61:72:8b:e4:3a:58:
                    0b:10:c4:4b:ac:af:e8:d5:ed:e7:ed:29:b8:79:16:
                    00:35:50:86:e7:13:96:4a:50:10:60:c2:b7:c7:61:
                    d2:c3
                Exponent: 65537 (0x10001)
        X509v3 extensions:
            X509v3 Subject Key Identifier: 
                33:C0:7C:69:5B:F8:20:0D:87:78:64:73:02:3A:4A:30:F9:69:7A:25
            X509v3 Authority Key Identifier: 
                keyid:F9:34:31:B4:C9:89:D9:09:9B:52:1A:F6:B2:15:7E:7D:B2:99:88:CB
                DirName:/C=US/ST=California/L=Santa Clara/O=pkg5/CN=ta4/emailAddress=ta4
                serial:44:8D:6D:FA:01:EA:6D:BB:42:71:59:89:B7:E5:86:94:71:BE:4F:71
            X509v3 Basic Constraints: critical
                CA:TRUE
            X509v3 Key Usage: critical
                Certificate Sign
    Signature Algorithm: sha256WithRSAEncryption
    Signature Value:
        27:df:f8:8b:00:e5:61:07:32:f9:6f:6d:7e:d7:05:ec:c1:c9:
        6f:91:53:40:a5:ca:70:70:2d:41:60:f2:24:18:51:b9:39:88:
        4a:c8:79:e2:6d:19:c4:71:f8:ae:56:ef:05:84:db:5e:cb:ff:
        81:42:75:6a:71:54:7b:30:12:64:47:7b:c2:c0:30:a2:4b:c8:
        2a:11:0f:90:a5:a8:6e:e8:44:b2:17:b4:40:de:81:89:16:9f:
        2d:cc:05:41:7e:b8:2f:09:c2:01:62:8e:f7:c8:f0:57:b2:de:
        59:f9:9d:9c:06:ac:b7:8e:d4:87:42:be:0c:20:b6:be:02:b0:
        4c:ec:8f:69:4e:74:61:19:af:f3:18:33:f1:e4:a4:08:d3:b6:
        a4:ca:0c:79:1c:85:bb:81:2f:ad:a6:37:50:d6:35:78:6b:61:
        8a:bc:ec:f5:d3:04:6a:14:48:25:4c:68:6c:11:f2:68:f9:f0:
        4f:8d:89:4e:ba:5a:36:fd:87:68:50:e7:58:41:3d:65:55:81:
        4c:8f:55:42:04:01:4d:5c:68:4a:a5:ac:4b:7e:36:6d:f3:57:
        12:e1:34:7d:ba:5a:fb:8a:e2:03:20:2a:12:85:c2:d0:5e:06:
        23:5c:55:7d:57:8a:d4:53:ed:db:02:7e:48:bb:37:f4:f4:cc:
        05:90:a3:0e
-----BEGIN CERTIFICATE-----
MIIERjCCAy6gAwIBAgIBJzANBgkqhkiG9w0BAQsFADBpMQswCQYDVQQGEwJVUzET
MBEGA1UECAwKQ2FsaWZvcm5pYTEUMBIGA1UEBwwLU2FudGEgQ2xhcmExDTALBgNV
BAoMBHBrZzUxDDAKBgNVBAMMA3RhNDESMBAGCSqGSIb3DQEJARYDdGE0MB4XDTIz
MTAyNDIxNDMxMloXDTI2MDcyMDIxNDMxMlowdTELMAkGA1UEBhMCVVMxEzARBgNV
BAgMCkNhbGlmb3JuaWExFDASBgNVBAcMC1NhbnRhIENsYXJhMQ0wCwYDVQQKDARw
a2c1MRIwEAYDVQQDDAljaDEuMV90YTQxGDAWBgkqhkiG9w0BCQEWCWNoMS4xX3Rh
NDCCASIwDQYJKoZIhvcNAQEBBQADggEPADCCAQoCggEBAKx1XZxEhvyzUrZslgZ7
2odCfkc+ebstjts6hx1EDQSEN3UaeJrLO/p0bn5aza+2zft5nuCEvFSkYH7kGXZb
+uICfFX1T78X50ezgkSRHoj3BSO3U8OeFP2boozCDi1MyOVdSBcMnjhrri5qfztz
JMpF6UAyKQFh+MS+yFbbJ1aCkJxG8QhEdPM5yA/OcwGbQx0You43RQBv69xT0P5W
3pMTKSWQ/g/5ZmJspyJE3U/zlvp5naZkl2qr/i1g6IwFx8DE0/8dUpoNVvzuhMyK
UXSunroPxq0wFDgLYXKL5DpYCxDES6yv6NXt5+0puHkWADVQhucTlkpQEGDCt8dh
0sMCAwEAAaOB7DCB6TAdBgNVHQ4EFgQUM8B8aVv4IA2HeGRzAjpKMPlpeiUwgaYG
A1UdIwSBnjCBm4AU+TQxtMmJ2QmbUhr2shV+fbKZiMuhbaRrMGkxCzAJBgNVBAYT
AlVTMRMwEQYDVQQIDApDYWxpZm9ybmlhMRQwEgYDVQQHDAtTYW50YSBDbGFyYTEN
MAsGA1UECgwEcGtnNTEMMAoGA1UEAwwDdGE0MRIwEAYJKoZIhvcNAQkBFgN0YTSC
FESNbfoB6m27QnFZibflhpRxvk9xMA8GA1UdEwEB/wQFMAMBAf8wDgYDVR0PAQH/
BAQDAgIEMA0GCSqGSIb3DQEBCwUAA4IBAQAn3/iLAOVhBzL5b21+1wXswclvkVNA
pcpwcC1BYPIkGFG5OYhKyHnibRnEcfiuVu8FhNtey/+BQnVqcVR7MBJkR3vCwDCi
S8gqEQ+Qpahu6ESyF7RA3oGJFp8tzAVBfrgvCcIBYo73yPBXst5Z+Z2cBqy3jtSH
Qr4MILa+ArBM7I9pTnRhGa/zGDPx5KQI07akygx5HIW7gS+tpjdQ1jV4a2GKvOz1
0wRqFEglTGhsEfJo+fBPjYlOulo2/YdoUOdYQT1lVYFMj1VCBAFNXGhKpaxLfjZt
81cS4TR9ulr7iuIDICoShcLQXgYjXFV9V4rUU+3bAn5Iuzf09MwFkKMO
-----END CERTIFICATE-----
