Certificate:
    Data:
        Version: 3 (0x2)
        Serial Number: 39 (0x27)
        Signature Algorithm: sha256WithRSAEncryption
        Issuer: C=US, ST=California, L=Santa Clara, O=pkg5, CN=ta4/emailAddress=ta4
        Validity
            Not Before: Oct 22 10:15:20 2021 GMT
            Not After : Jul 18 10:15:20 2024 GMT
        Subject: C=US, ST=California, L=Santa Clara, O=pkg5, CN=ch1.1_ta4/emailAddress=ch1.1_ta4
        Subject Public Key Info:
            Public Key Algorithm: rsaEncryption
                Public-Key: (2048 bit)
                Modulus:
                    00:ce:a5:89:5c:58:57:a0:ef:23:4b:76:fe:7a:4f:
                    20:c5:af:51:a6:be:40:2a:f8:66:f8:8f:75:b9:92:
                    7b:3c:f4:dc:c5:c8:74:90:7e:6a:1a:e2:4f:ce:00:
                    2c:46:bc:82:2f:ed:85:c8:ee:44:0c:7d:d6:48:cd:
                    85:80:15:1b:01:20:aa:d3:ac:41:58:b3:0d:8b:e8:
                    08:c9:2c:6e:64:45:64:f4:3d:d6:d7:3a:35:86:71:
                    5c:14:5d:6d:72:c4:5f:7f:9d:c7:de:29:b5:6c:ee:
                    b5:86:1b:0b:1d:b3:79:52:8d:c4:53:bc:ec:78:50:
                    9e:76:ee:8f:73:10:e7:0f:80:fd:22:04:1e:6d:39:
                    3a:c0:d7:ef:45:de:7b:0c:5c:e2:2d:4f:e0:1a:be:
                    48:58:2a:57:2a:85:cb:7e:28:c6:a2:37:38:7e:66:
                    b6:63:cd:e9:75:9f:cb:57:a9:36:5b:37:d0:99:b3:
                    31:e0:f9:b3:b7:a2:bf:68:69:33:9f:75:06:71:16:
                    8b:32:7c:5b:49:9f:24:1b:b7:5d:ad:f2:1d:87:98:
                    a4:98:f2:20:f1:2f:c6:2c:5d:9f:c2:77:b9:99:64:
                    d2:1d:56:db:d1:0f:13:e2:1f:11:e2:68:5e:00:97:
                    ae:73:60:1e:0f:ac:05:c3:1d:da:19:0d:5d:d9:29:
                    bb:65
                Exponent: 65537 (0x10001)
        X509v3 extensions:
            X509v3 Subject Key Identifier: 
                E3:F4:F6:DE:AF:E0:6B:0C:07:AC:2A:94:8A:3D:3E:4B:F7:F6:E7:87
            X509v3 Authority Key Identifier: 
                keyid:3A:3B:2F:66:18:C6:1A:E4:A2:99:A1:A8:C5:7D:86:69:7C:B5:63:F6
                DirName:/C=US/ST=California/L=Santa Clara/O=pkg5/CN=ta4/emailAddress=ta4
                serial:03:F1:7E:84:4F:B7:F0:1A:45:31:F0:AF:A3:79:49:46:BE:2A:B3:47
            X509v3 Basic Constraints: critical
                CA:TRUE
            X509v3 Key Usage: critical
                Certificate Sign
    Signature Algorithm: sha256WithRSAEncryption
    Signature Value:
        8f:d7:41:c2:42:97:a2:b5:ec:eb:62:b2:5d:2f:bb:53:21:8d:
        90:95:d4:04:e9:4b:9f:36:ff:42:36:ce:19:17:e1:a2:8d:a4:
        d2:80:78:a6:cf:af:ce:22:99:d2:45:ab:52:92:57:83:eb:0a:
        7b:72:22:d9:29:47:dd:bf:42:8d:30:ab:4e:92:a7:1a:08:3b:
        ac:96:03:23:1a:4e:9b:3b:43:e6:3a:60:c5:a8:a7:68:fb:f2:
        c1:cf:72:62:56:b0:27:e2:74:ee:58:81:85:46:df:5b:b7:3e:
        96:5e:b1:de:95:4f:9c:4d:69:74:10:d6:e2:5d:83:e3:c5:b2:
        c6:92:10:9d:1a:8e:dd:bb:75:5d:ba:76:62:d1:fd:ab:88:21:
        f3:30:0e:54:fa:29:8d:b1:11:1d:c0:b1:8e:69:59:7f:7d:9f:
        2d:fb:fc:9d:c4:ad:58:0d:8f:13:78:f7:5f:f5:67:70:c2:df:
        46:a3:da:18:17:37:37:71:5b:f0:c0:bc:8e:f2:5d:03:9d:08:
        ba:d9:16:06:64:d1:29:12:2e:ab:14:16:41:4c:a9:16:e2:bb:
        ec:0d:10:47:d2:1c:62:5e:c9:77:50:6a:14:b5:6c:56:84:7c:
        90:52:74:99:10:ce:2d:63:13:1a:f5:38:2d:fe:ca:fc:47:d3:
        c0:c6:4c:a2
-----BEGIN CERTIFICATE-----
MIIERjCCAy6gAwIBAgIBJzANBgkqhkiG9w0BAQsFADBpMQswCQYDVQQGEwJVUzET
MBEGA1UECAwKQ2FsaWZvcm5pYTEUMBIGA1UEBwwLU2FudGEgQ2xhcmExDTALBgNV
BAoMBHBrZzUxDDAKBgNVBAMMA3RhNDESMBAGCSqGSIb3DQEJARYDdGE0MB4XDTIx
MTAyMjEwMTUyMFoXDTI0MDcxODEwMTUyMFowdTELMAkGA1UEBhMCVVMxEzARBgNV
BAgMCkNhbGlmb3JuaWExFDASBgNVBAcMC1NhbnRhIENsYXJhMQ0wCwYDVQQKDARw
a2c1MRIwEAYDVQQDDAljaDEuMV90YTQxGDAWBgkqhkiG9w0BCQEWCWNoMS4xX3Rh
NDCCASIwDQYJKoZIhvcNAQEBBQADggEPADCCAQoCggEBAM6liVxYV6DvI0t2/npP
IMWvUaa+QCr4ZviPdbmSezz03MXIdJB+ahriT84ALEa8gi/thcjuRAx91kjNhYAV
GwEgqtOsQVizDYvoCMksbmRFZPQ91tc6NYZxXBRdbXLEX3+dx94ptWzutYYbCx2z
eVKNxFO87HhQnnbuj3MQ5w+A/SIEHm05OsDX70Xeewxc4i1P4Bq+SFgqVyqFy34o
xqI3OH5mtmPN6XWfy1epNls30JmzMeD5s7eiv2hpM591BnEWizJ8W0mfJBu3Xa3y
HYeYpJjyIPEvxixdn8J3uZlk0h1W29EPE+IfEeJoXgCXrnNgHg+sBcMd2hkNXdkp
u2UCAwEAAaOB7DCB6TAdBgNVHQ4EFgQU4/T23q/gawwHrCqUij0+S/f254cwgaYG
A1UdIwSBnjCBm4AUOjsvZhjGGuSimaGoxX2GaXy1Y/ahbaRrMGkxCzAJBgNVBAYT
AlVTMRMwEQYDVQQIDApDYWxpZm9ybmlhMRQwEgYDVQQHDAtTYW50YSBDbGFyYTEN
MAsGA1UECgwEcGtnNTEMMAoGA1UEAwwDdGE0MRIwEAYJKoZIhvcNAQkBFgN0YTSC
FAPxfoRPt/AaRTHwr6N5SUa+KrNHMA8GA1UdEwEB/wQFMAMBAf8wDgYDVR0PAQH/
BAQDAgIEMA0GCSqGSIb3DQEBCwUAA4IBAQCP10HCQpeitezrYrJdL7tTIY2QldQE
6UufNv9CNs4ZF+GijaTSgHimz6/OIpnSRatSkleD6wp7ciLZKUfdv0KNMKtOkqca
CDuslgMjGk6bO0PmOmDFqKdo+/LBz3JiVrAn4nTuWIGFRt9btz6WXrHelU+cTWl0
ENbiXYPjxbLGkhCdGo7du3VdunZi0f2riCHzMA5U+imNsREdwLGOaVl/fZ8t+/yd
xK1YDY8TePdf9Wdwwt9Go9oYFzc3cVvwwLyO8l0DnQi62RYGZNEpEi6rFBZBTKkW
4rvsDRBH0hxiXsl3UGoUtWxWhHyQUnSZEM4tYxMa9Tgt/sr8R9PAxkyi
-----END CERTIFICATE-----
