Certificate:
    Data:
        Version: 3 (0x2)
        Serial Number: 31 (0x1f)
        Signature Algorithm: sha256WithRSAEncryption
        Issuer: C=US, ST=California, L=Santa Clara, O=pkg5, CN=ta3/emailAddress=ta3
        Validity
            Not Before: Jan  1 01:01:01 2035 GMT
            Not After : Jan  2 01:01:01 2035 GMT
        Subject: C=US, ST=California, L=Santa Clara, O=pkg5, CN=ch1.3_ta3/emailAddress=ch1.3_ta3
        Subject Public Key Info:
            Public Key Algorithm: rsaEncryption
                RSA Public-Key: (2048 bit)
                Modulus:
                    00:a9:a6:3b:d3:59:7b:4d:0a:56:6f:85:5a:e3:ba:
                    50:ae:a1:d1:b8:60:31:a8:f4:0d:65:06:32:8b:40:
                    48:57:52:b4:29:63:1d:39:2d:37:07:eb:c2:81:33:
                    1d:b5:db:9f:14:71:43:34:7e:d5:e0:7d:cf:4a:cf:
                    ac:e0:cb:cf:a8:3c:73:e4:b4:fc:2d:95:04:59:17:
                    31:20:57:13:62:b5:1f:43:4b:ec:5c:ba:e0:02:da:
                    91:ca:97:7f:d5:9a:e6:43:c4:73:f8:2a:c1:f6:57:
                    1c:47:27:14:65:7b:85:6e:77:33:6a:54:b3:67:20:
                    4e:9b:5d:db:7b:e8:e9:99:4c:4c:d0:77:d8:fb:e7:
                    5c:bb:33:e2:53:89:1d:7f:86:b7:2d:21:62:4f:02:
                    45:2b:f7:2f:38:3e:e8:a6:bd:01:15:07:93:97:1c:
                    e6:f0:b9:55:c5:0b:df:6c:8d:26:72:01:a3:01:c9:
                    35:62:64:78:3b:3b:04:1b:74:b1:1e:3f:69:22:87:
                    8e:d1:9c:c9:38:c3:fe:2e:37:d8:bc:9c:74:ac:ea:
                    39:4d:0e:f3:44:f1:b4:65:f1:c8:1f:ff:a5:fe:14:
                    08:9a:9b:7b:86:e6:2f:23:aa:cb:09:85:8c:14:61:
                    a1:51:98:8b:7c:d0:6e:5f:06:db:aa:f4:fe:7b:1f:
                    6e:0d
                Exponent: 65537 (0x10001)
        X509v3 extensions:
            X509v3 Subject Key Identifier: 
                C2:B5:50:56:1B:F0:D9:5C:2F:7D:99:AB:D9:0D:62:19:1F:EB:EC:2D
            X509v3 Authority Key Identifier: 
                keyid:A2:40:C4:DE:F2:7E:C6:C5:85:D5:CC:0E:28:07:4F:C6:FC:7E:A1:27
                DirName:/C=US/ST=California/L=Santa Clara/O=pkg5/CN=ta3/emailAddress=ta3
                serial:74:45:D3:D5:3A:84:B9:06:57:8F:B0:E1:16:54:ED:0C:D1:24:59:9E

            X509v3 Basic Constraints: critical
                CA:TRUE
            X509v3 Key Usage: critical
                Certificate Sign, CRL Sign
            X509v3 Subject Alternative Name: 
                email:ch1.3_ta3
    Signature Algorithm: sha256WithRSAEncryption
         24:77:93:27:7f:06:85:90:b7:62:b1:ef:9c:ff:54:36:48:79:
         00:d4:fd:22:8d:24:0a:8f:9f:03:72:d8:de:4f:7b:5c:07:81:
         22:48:f0:01:c8:3c:fe:80:50:d6:e0:37:fd:43:78:7f:ae:d0:
         c5:09:b8:3c:ff:51:2d:fc:bf:39:ab:72:b7:9b:77:43:77:27:
         a0:1f:88:02:fd:93:fb:b4:ac:20:37:4b:76:d3:a9:c9:8e:e9:
         47:13:3f:28:aa:78:90:12:22:aa:d8:0e:1c:ae:89:7b:7f:86:
         ce:b1:91:8a:e7:1f:4c:e2:d5:1d:c7:da:94:9c:24:f0:63:d0:
         50:25:f3:45:6a:37:e2:8b:9a:15:23:5d:7f:5e:82:b7:e8:c6:
         a3:57:df:78:63:fa:9a:d8:a1:fc:d5:76:29:a9:6f:09:4e:33:
         3d:69:13:ad:98:99:1a:6a:46:07:39:63:5b:9d:a0:69:80:42:
         43:53:a2:76:0d:61:04:6e:42:6b:4c:8a:f4:69:91:0d:2e:bd:
         25:42:d3:d4:73:af:80:aa:20:3a:8c:1c:fd:dc:30:5d:43:9c:
         4d:8b:73:f5:90:b4:f5:07:d3:f1:a4:a0:3a:cd:3d:49:de:9b:
         93:f4:8d:9a:7d:7d:99:ca:f9:b4:d8:20:a5:aa:e2:5f:56:e9:
         54:cb:27:94
-----BEGIN CERTIFICATE-----
MIIEXTCCA0WgAwIBAgIBHzANBgkqhkiG9w0BAQsFADBpMQswCQYDVQQGEwJVUzET
MBEGA1UECAwKQ2FsaWZvcm5pYTEUMBIGA1UEBwwLU2FudGEgQ2xhcmExDTALBgNV
BAoMBHBrZzUxDDAKBgNVBAMMA3RhMzESMBAGCSqGSIb3DQEJARYDdGEzMB4XDTM1
MDEwMTAxMDEwMVoXDTM1MDEwMjAxMDEwMVowdTELMAkGA1UEBhMCVVMxEzARBgNV
BAgMCkNhbGlmb3JuaWExFDASBgNVBAcMC1NhbnRhIENsYXJhMQ0wCwYDVQQKDARw
a2c1MRIwEAYDVQQDDAljaDEuM190YTMxGDAWBgkqhkiG9w0BCQEWCWNoMS4zX3Rh
MzCCASIwDQYJKoZIhvcNAQEBBQADggEPADCCAQoCggEBAKmmO9NZe00KVm+FWuO6
UK6h0bhgMaj0DWUGMotASFdStCljHTktNwfrwoEzHbXbnxRxQzR+1eB9z0rPrODL
z6g8c+S0/C2VBFkXMSBXE2K1H0NL7Fy64ALakcqXf9Wa5kPEc/gqwfZXHEcnFGV7
hW53M2pUs2cgTptd23vo6ZlMTNB32PvnXLsz4lOJHX+Gty0hYk8CRSv3Lzg+6Ka9
ARUHk5cc5vC5VcUL32yNJnIBowHJNWJkeDs7BBt0sR4/aSKHjtGcyTjD/i432Lyc
dKzqOU0O80TxtGXxyB//pf4UCJqbe4bmLyOqywmFjBRhoVGYi3zQbl8G26r0/nsf
bg0CAwEAAaOCAQIwgf8wHQYDVR0OBBYEFMK1UFYb8NlcL32Zq9kNYhkf6+wtMIGm
BgNVHSMEgZ4wgZuAFKJAxN7yfsbFhdXMDigHT8b8fqEnoW2kazBpMQswCQYDVQQG
EwJVUzETMBEGA1UECAwKQ2FsaWZvcm5pYTEUMBIGA1UEBwwLU2FudGEgQ2xhcmEx
DTALBgNVBAoMBHBrZzUxDDAKBgNVBAMMA3RhMzESMBAGCSqGSIb3DQEJARYDdGEz
ghR0RdPVOoS5BlePsOEWVO0M0SRZnjAPBgNVHRMBAf8EBTADAQH/MA4GA1UdDwEB
/wQEAwIBBjAUBgNVHREEDTALgQljaDEuM190YTMwDQYJKoZIhvcNAQELBQADggEB
ACR3kyd/BoWQt2Kx75z/VDZIeQDU/SKNJAqPnwNy2N5Pe1wHgSJI8AHIPP6AUNbg
N/1DeH+u0MUJuDz/US38vzmrcrebd0N3J6AfiAL9k/u0rCA3S3bTqcmO6UcTPyiq
eJASIqrYDhyuiXt/hs6xkYrnH0zi1R3H2pScJPBj0FAl80VqN+KLmhUjXX9egrfo
xqNX33hj+prYofzVdimpbwlOMz1pE62YmRpqRgc5Y1udoGmAQkNTonYNYQRuQmtM
ivRpkQ0uvSVC09Rzr4CqIDqMHP3cMF1DnE2Lc/WQtPUH0/GkoDrNPUnem5P0jZp9
fZnK+bTYIKWq4l9W6VTLJ5Q=
-----END CERTIFICATE-----
