Certificate:
    Data:
        Version: 3 (0x2)
        Serial Number: 27 (0x1b)
        Signature Algorithm: sha256WithRSAEncryption
        Issuer: C=US, ST=California, L=Santa Clara, O=pkg5, CN=ta3/emailAddress=ta3
        Validity
            Not Before: May 23 15:47:19 2024 GMT
            Not After : Feb 17 15:47:19 2027 GMT
        Subject: C=US, ST=California, L=Santa Clara, O=pkg5, CN=ch1.1_ta3/emailAddress=ch1.1_ta3
        Subject Public Key Info:
            Public Key Algorithm: rsaEncryption
                Public-Key: (2048 bit)
                Modulus:
                    00:c4:40:1c:83:63:c4:7f:b7:e6:d8:82:d3:0f:60:
                    e6:e1:49:d5:d2:e8:f3:c3:2a:64:ce:27:da:51:27:
                    f1:b5:10:6a:0d:4e:0d:ae:94:16:ed:db:f7:93:4c:
                    e4:f8:ff:18:f3:e3:be:3a:96:7b:ce:0f:52:10:dd:
                    01:c6:b1:6f:9d:b7:1d:a7:48:4e:26:42:41:0d:6e:
                    b3:29:f1:6f:27:28:24:06:0a:16:db:c7:18:be:ca:
                    5d:89:66:30:1e:a4:95:8e:ff:ad:b7:ce:a1:b1:7f:
                    60:35:aa:a3:19:7b:0b:77:ec:22:97:5b:ba:7c:9c:
                    34:c9:9e:c2:9c:4d:6e:4b:3f:4f:de:04:71:23:16:
                    90:56:bf:ca:cb:d7:44:90:5f:88:8f:a0:94:3c:3f:
                    d3:2b:08:2e:ff:8a:8a:b4:08:fd:dc:ce:3a:ca:00:
                    bc:20:e1:d1:f7:fe:be:3d:e6:54:f3:61:cc:0e:53:
                    1e:90:19:c1:44:16:26:6d:be:80:53:e9:48:fc:c7:
                    42:ee:c8:96:67:1c:3b:36:d6:86:94:97:b8:43:20:
                    8e:75:72:0d:68:0c:20:c8:8e:d1:c7:da:27:dc:86:
                    49:41:86:2d:59:bd:5f:77:ec:e3:82:99:d5:1b:18:
                    80:68:66:d9:b8:e9:2d:48:18:10:b2:09:4e:7f:fd:
                    bb:6b
                Exponent: 65537 (0x10001)
        X509v3 extensions:
            X509v3 Basic Constraints: critical
                CA:TRUE
            X509v3 Subject Alternative Name: 
                email:ch1.1_ta3
            X509v3 Issuer Alternative Name: critical
                email:ca
            X509v3 Subject Key Identifier: 
                4F:9C:24:8F:B5:C5:57:54:59:D5:CB:F7:9C:1B:07:69:4E:BE:A6:03
            X509v3 Authority Key Identifier: 
                A0:1E:8E:B9:8B:09:76:33:B8:CE:59:F1:BA:1B:5F:EC:D9:38:76:58
    Signature Algorithm: sha256WithRSAEncryption
    Signature Value:
        af:76:f2:7f:59:8e:72:03:8a:8d:6d:12:cc:a9:11:ec:c0:90:
        8e:8a:c2:94:b7:d5:78:8d:59:4b:76:0d:df:6f:03:b9:03:45:
        64:80:03:e5:18:37:37:5e:29:6e:6b:a5:9a:4c:19:c1:7a:13:
        59:6e:17:68:94:80:d2:d0:af:0e:ed:65:10:20:70:90:4c:c2:
        d4:78:82:4b:55:94:96:cf:97:31:fe:07:c8:59:b5:49:fc:22:
        49:68:f9:d1:4e:31:18:b8:93:59:e6:83:91:34:84:cb:d7:1a:
        6f:b0:d5:57:e5:06:4e:25:63:21:0d:18:a7:8e:4e:e5:50:16:
        60:2f:92:0a:da:1a:cb:a3:e1:dc:6f:af:14:fc:a0:2d:a6:65:
        ab:5e:65:55:77:c6:3f:97:3c:8a:41:24:1d:c7:04:94:ca:00:
        58:ba:73:4c:d3:72:b5:b1:c3:95:99:5a:fe:9d:00:0d:ad:41:
        0c:b0:ec:1d:ef:14:ad:37:55:44:5e:b6:d6:7f:06:f9:ac:3a:
        e6:76:a6:3f:fc:d6:14:8d:02:f7:76:0f:6b:59:01:fe:7d:a9:
        16:5a:2e:af:41:55:16:83:e2:04:f3:ec:d7:79:b3:1d:e5:5d:
        1c:da:24:6a:cf:28:fd:7c:2f:96:26:e8:b8:87:b8:43:a8:bd:
        ab:54:fa:b8
-----BEGIN CERTIFICATE-----
MIID1DCCArygAwIBAgIBGzANBgkqhkiG9w0BAQsFADBpMQswCQYDVQQGEwJVUzET
MBEGA1UECAwKQ2FsaWZvcm5pYTEUMBIGA1UEBwwLU2FudGEgQ2xhcmExDTALBgNV
BAoMBHBrZzUxDDAKBgNVBAMMA3RhMzESMBAGCSqGSIb3DQEJARYDdGEzMB4XDTI0
MDUyMzE1NDcxOVoXDTI3MDIxNzE1NDcxOVowdTELMAkGA1UEBhMCVVMxEzARBgNV
BAgMCkNhbGlmb3JuaWExFDASBgNVBAcMC1NhbnRhIENsYXJhMQ0wCwYDVQQKDARw
a2c1MRIwEAYDVQQDDAljaDEuMV90YTMxGDAWBgkqhkiG9w0BCQEWCWNoMS4xX3Rh
MzCCASIwDQYJKoZIhvcNAQEBBQADggEPADCCAQoCggEBAMRAHINjxH+35tiC0w9g
5uFJ1dLo88MqZM4n2lEn8bUQag1ODa6UFu3b95NM5Pj/GPPjvjqWe84PUhDdAcax
b523HadITiZCQQ1usynxbycoJAYKFtvHGL7KXYlmMB6klY7/rbfOobF/YDWqoxl7
C3fsIpdbunycNMmewpxNbks/T94EcSMWkFa/ysvXRJBfiI+glDw/0ysILv+KirQI
/dzOOsoAvCDh0ff+vj3mVPNhzA5THpAZwUQWJm2+gFPpSPzHQu7IlmccOzbWhpSX
uEMgjnVyDWgMIMiO0cfaJ9yGSUGGLVm9X3fs44KZ1RsYgGhm2bjpLUgYELIJTn/9
u2sCAwEAAaN7MHkwDwYDVR0TAQH/BAUwAwEB/zAUBgNVHREEDTALgQljaDEuMV90
YTMwEAYDVR0SAQH/BAYwBIECY2EwHQYDVR0OBBYEFE+cJI+1xVdUWdXL95wbB2lO
vqYDMB8GA1UdIwQYMBaAFKAejrmLCXYzuM5Z8bobX+zZOHZYMA0GCSqGSIb3DQEB
CwUAA4IBAQCvdvJ/WY5yA4qNbRLMqRHswJCOisKUt9V4jVlLdg3fbwO5A0VkgAPl
GDc3Xilua6WaTBnBehNZbhdolIDS0K8O7WUQIHCQTMLUeIJLVZSWz5cx/gfIWbVJ
/CJJaPnRTjEYuJNZ5oORNITL1xpvsNVX5QZOJWMhDRinjk7lUBZgL5IK2hrLo+Hc
b68U/KAtpmWrXmVVd8Y/lzyKQSQdxwSUygBYunNM03K1scOVmVr+nQANrUEMsOwd
7xStN1VEXrbWfwb5rDrmdqY//NYUjQL3dg9rWQH+fakWWi6vQVUWg+IE8+zXebMd
5V0c2iRqzyj9fC+WJui4h7hDqL2rVPq4
-----END CERTIFICATE-----
