Certificate:
    Data:
        Version: 3 (0x2)
        Serial Number: 30 (0x1e)
    Signature Algorithm: sha256WithRSAEncryption
        Issuer: C=US, ST=California, L=Santa Clara, O=pkg5, CN=ta3/emailAddress=ta3
        Validity
            Not Before: Jan  1 01:01:01 2035 GMT
            Not After : Jan  2 01:01:01 2035 GMT
        Subject: C=US, ST=California, L=Santa Clara, O=pkg5, CN=ch1.3_ta3/emailAddress=ch1.3_ta3
        Subject Public Key Info:
            Public Key Algorithm: rsaEncryption
                Public-Key: (2048 bit)
                Modulus:
                    00:ed:63:db:b0:4c:d4:e3:9a:bb:92:3d:9f:84:b4:
                    c4:b1:97:db:42:c2:aa:f4:36:07:e4:fe:1d:ed:a0:
                    07:8d:31:28:a0:53:29:db:24:b3:eb:ab:ee:c4:3c:
                    3d:80:70:db:8b:38:d9:24:44:2d:23:a9:58:8a:26:
                    e1:66:33:e3:18:5c:5b:e0:60:cb:1f:37:f5:23:f3:
                    ad:49:9c:68:e1:ed:34:72:4a:99:9c:ef:9b:fa:89:
                    2e:bb:db:c1:ae:10:05:f2:c0:a2:a0:67:ac:ae:16:
                    4f:6e:dc:30:b6:a5:43:9c:73:a3:93:19:92:61:20:
                    4b:43:e1:ca:ed:76:fb:4e:a5:f4:c5:b5:38:00:4f:
                    a8:e3:ab:4c:0d:98:db:99:62:97:a9:2f:fc:9a:1b:
                    19:f3:99:55:a5:6e:9d:9e:9b:ee:cd:1f:6d:95:97:
                    28:3e:1d:f4:32:8d:ee:c8:d8:a8:fb:da:94:7a:21:
                    f9:17:20:13:59:82:6d:88:cc:94:0f:67:33:bf:cc:
                    fc:82:df:8f:4a:f8:71:75:6c:3c:e6:c8:eb:d5:a4:
                    2a:5e:77:fe:b5:a6:bd:0f:de:c2:b7:60:d1:f9:7f:
                    ad:f9:86:cf:1b:60:52:40:f6:88:b3:27:cf:f8:19:
                    63:d2:d9:ee:73:8b:e1:e2:d9:aa:34:78:fe:e9:bd:
                    71:df
                Exponent: 65537 (0x10001)
        X509v3 extensions:
            X509v3 Subject Key Identifier: 
                C9:B1:58:24:B1:81:24:FD:89:B5:65:7E:4B:9C:2C:15:11:1F:B3:26
            X509v3 Authority Key Identifier: 
                keyid:2D:C5:9A:44:A1:9A:A4:7F:DA:BE:34:36:07:5C:E8:FC:60:3E:91:6E
                DirName:/C=US/ST=California/L=Santa Clara/O=pkg5/CN=ta3/emailAddress=ta3
                serial:AA:19:69:50:F6:91:C5:BD

            X509v3 Basic Constraints: critical
                CA:TRUE
            X509v3 Key Usage: critical
                Certificate Sign, CRL Sign
    Signature Algorithm: sha256WithRSAEncryption
         9e:d0:7d:13:15:fe:71:6f:85:c4:30:62:bc:c1:5e:98:d8:65:
         08:2f:e3:06:97:59:9b:ba:6f:c2:e1:41:f1:ae:d8:45:31:1a:
         20:5a:a7:42:70:38:43:2d:70:87:77:63:1a:ec:8e:39:75:2d:
         73:34:85:3c:b7:f6:fb:b3:fb:06:59:e2:e2:4b:91:ad:55:a2:
         17:3c:58:f5:cd:a2:fc:67:0e:f0:1c:55:4c:2f:7e:cf:d4:5c:
         b9:2f:27:f8:16:4a:e1:4b:1a:b2:50:8b:3d:bb:c4:34:0a:41:
         e1:02:74:bd:88:69:8e:af:d0:5c:5a:25:3a:11:4c:4f:7b:ec:
         23:8e:84:01:71:96:24:2a:81:60:c4:99:ef:c4:08:4b:42:43:
         e0:a6:4f:b4:e4:fe:f7:06:80:3b:00:b2:7f:ad:1b:61:7e:9a:
         5e:f7:89:8e:8f:93:18:ec:d7:54:82:41:09:d6:29:b1:7e:4e:
         cd:d0:19:60:28:f8:b0:03:62:a4:22:7c:a1:14:a0:eb:35:3f:
         c7:f0:12:56:05:22:51:d0:10:56:c4:15:73:f6:44:74:e1:f4:
         32:c2:cc:8c:6f:96:78:30:2d:30:d6:2b:2b:9e:7c:b0:8b:2c:
         e8:8a:cd:0e:bb:97:2f:8c:a0:da:4a:41:39:52:f0:03:66:76:
         f8:75:de:54
-----BEGIN CERTIFICATE-----
MIIEOzCCAyOgAwIBAgIBHjANBgkqhkiG9w0BAQsFADBpMQswCQYDVQQGEwJVUzET
MBEGA1UECAwKQ2FsaWZvcm5pYTEUMBIGA1UEBwwLU2FudGEgQ2xhcmExDTALBgNV
BAoMBHBrZzUxDDAKBgNVBAMMA3RhMzESMBAGCSqGSIb3DQEJARYDdGEzMB4XDTM1
MDEwMTAxMDEwMVoXDTM1MDEwMjAxMDEwMVowdTELMAkGA1UEBhMCVVMxEzARBgNV
BAgMCkNhbGlmb3JuaWExFDASBgNVBAcMC1NhbnRhIENsYXJhMQ0wCwYDVQQKDARw
a2c1MRIwEAYDVQQDDAljaDEuM190YTMxGDAWBgkqhkiG9w0BCQEWCWNoMS4zX3Rh
MzCCASIwDQYJKoZIhvcNAQEBBQADggEPADCCAQoCggEBAO1j27BM1OOau5I9n4S0
xLGX20LCqvQ2B+T+He2gB40xKKBTKdsks+ur7sQ8PYBw24s42SRELSOpWIom4WYz
4xhcW+Bgyx839SPzrUmcaOHtNHJKmZzvm/qJLrvbwa4QBfLAoqBnrK4WT27cMLal
Q5xzo5MZkmEgS0Phyu12+06l9MW1OABPqOOrTA2Y25lil6kv/JobGfOZVaVunZ6b
7s0fbZWXKD4d9DKN7sjYqPvalHoh+RcgE1mCbYjMlA9nM7/M/ILfj0r4cXVsPObI
69WkKl53/rWmvQ/ewrdg0fl/rfmGzxtgUkD2iLMnz/gZY9LZ7nOL4eLZqjR4/um9
cd8CAwEAAaOB4TCB3jAdBgNVHQ4EFgQUybFYJLGBJP2JtWV+S5wsFREfsyYwgZsG
A1UdIwSBkzCBkIAULcWaRKGapH/avjQ2B1zo/GA+kW6hbaRrMGkxCzAJBgNVBAYT
AlVTMRMwEQYDVQQIDApDYWxpZm9ybmlhMRQwEgYDVQQHDAtTYW50YSBDbGFyYTEN
MAsGA1UECgwEcGtnNTEMMAoGA1UEAwwDdGEzMRIwEAYJKoZIhvcNAQkBFgN0YTOC
CQCqGWlQ9pHFvTAPBgNVHRMBAf8EBTADAQH/MA4GA1UdDwEB/wQEAwIBBjANBgkq
hkiG9w0BAQsFAAOCAQEAntB9ExX+cW+FxDBivMFemNhlCC/jBpdZm7pvwuFB8a7Y
RTEaIFqnQnA4Qy1wh3djGuyOOXUtczSFPLf2+7P7Blni4kuRrVWiFzxY9c2i/GcO
8BxVTC9+z9RcuS8n+BZK4UsaslCLPbvENApB4QJ0vYhpjq/QXFolOhFMT3vsI46E
AXGWJCqBYMSZ78QIS0JD4KZPtOT+9waAOwCyf60bYX6aXveJjo+TGOzXVIJBCdYp
sX5OzdAZYCj4sANipCJ8oRSg6zU/x/ASVgUiUdAQVsQVc/ZEdOH0MsLMjG+WeDAt
MNYrK558sIss6IrNDruXL4yg2kpBOVLwA2Z2+HXeVA==
-----END CERTIFICATE-----
