Certificate:
    Data:
        Version: 3 (0x2)
        Serial Number: 40 (0x28)
    Signature Algorithm: sha256WithRSAEncryption
        Issuer: C=US, ST=California, L=Santa Clara, O=pkg5, CN=ta5/emailAddress=ta5
        Validity
            Not Before: Nov 28 22:50:58 2016 GMT
            Not After : Aug 25 22:50:58 2019 GMT
        Subject: C=US, ST=California, L=Santa Clara, O=pkg5, CN=ch1_ta5/emailAddress=ch1_ta5
        Subject Public Key Info:
            Public Key Algorithm: rsaEncryption
                Public-Key: (2048 bit)
                Modulus:
                    00:bc:7d:e6:4e:65:8e:07:9e:f8:4d:6c:d4:5f:65:
                    69:d8:e9:01:d8:5e:87:2b:30:15:18:ba:b5:28:b0:
                    22:29:c1:1a:13:c3:92:e6:67:03:ce:8c:b0:45:1e:
                    8b:38:f9:35:d2:87:00:cb:a7:ba:45:2d:3e:cd:87:
                    a7:dd:03:f3:35:da:23:07:7f:9d:16:63:eb:46:6d:
                    51:8f:26:d0:a6:8a:94:c1:17:1a:48:de:54:f6:8b:
                    a4:7f:f4:77:86:bf:1a:b4:8a:05:c0:b0:44:2a:6a:
                    ab:06:bd:b7:5f:41:e2:05:76:77:7b:af:1b:e8:8d:
                    ba:35:d0:39:dc:bf:a5:58:4c:66:ba:7b:93:68:76:
                    c5:fb:6d:b3:aa:1f:17:f5:b5:2a:d9:8b:c8:77:b2:
                    ab:18:af:8b:22:9b:94:a6:d2:ad:71:83:db:b5:92:
                    9f:63:2b:b8:31:96:10:9f:e7:d1:40:5f:60:0b:ff:
                    93:f9:0e:6d:29:de:58:1c:b6:87:37:06:77:98:e2:
                    08:59:16:90:83:c3:84:4f:92:b0:bd:c4:e9:10:6a:
                    29:e6:b2:58:72:9c:09:c2:f8:53:89:d6:13:42:37:
                    0f:58:87:8f:af:83:4d:ac:da:a7:b5:d3:9b:df:64:
                    36:bf:3a:5f:a5:f4:12:18:5e:c5:8a:83:2b:3f:5c:
                    0c:37
                Exponent: 65537 (0x10001)
        X509v3 extensions:
            X509v3 Subject Key Identifier: 
                1F:F8:62:D2:AA:38:A8:88:A0:EE:E0:B3:14:0E:7F:E5:41:74:7A:EF
            X509v3 Authority Key Identifier: 
                keyid:43:30:60:FF:37:8A:EA:29:59:64:9D:D1:64:CF:12:5C:B0:B6:E1:15
                DirName:/C=US/ST=California/L=Santa Clara/O=pkg5/CN=ta5/emailAddress=ta5
                serial:DA:25:68:EE:F5:A5:D5:CE

            X509v3 Basic Constraints: critical
                CA:TRUE
            X509v3 CRL Distribution Points: 

                Full Name:
                  URI:http://localhost:12001/file/0/ta5_crl.pem

            X509v3 Key Usage: critical
                Certificate Sign, CRL Sign
    Signature Algorithm: sha256WithRSAEncryption
         2d:32:d5:06:39:4f:a1:d5:18:26:00:27:67:c5:fa:18:1c:36:
         ea:e6:37:6a:5e:d6:5d:10:2b:65:44:ce:ad:91:51:a3:03:99:
         1f:62:34:54:51:97:69:25:2f:a0:0a:e0:f5:ee:58:ba:c4:f1:
         56:0c:9d:32:b3:a7:45:b0:26:b5:b5:0a:82:d0:47:27:ab:39:
         8d:f8:3c:b5:67:2e:29:42:4b:04:2b:e7:e8:7e:8e:8c:15:cf:
         3c:ca:3b:7c:2a:fe:5b:af:03:d7:b8:a1:14:60:13:70:b0:8c:
         a6:dd:f6:2e:5f:24:41:fa:2f:35:60:f7:5e:f8:d0:57:c8:88:
         2d:d3:96:b9:a1:51:3d:dc:87:91:98:06:35:49:c0:5d:89:21:
         aa:73:d0:0e:04:be:e0:69:51:da:0b:9e:bd:02:8a:44:f8:60:
         f6:ae:36:73:fe:2c:6c:4f:fa:bc:48:78:4b:c8:2a:c0:2f:3e:
         99:09:9f:0e:85:ea:e0:f2:42:0f:4e:a4:22:a6:eb:40:e0:30:
         a6:eb:a3:b0:1f:dd:ce:77:30:5f:0d:07:bf:4b:d4:d9:c4:60:
         c1:e3:ec:74:83:0b:7d:96:b7:85:62:ce:b5:d7:a2:60:c6:72:
         fc:c5:db:3d:9e:da:80:80:e8:a2:3a:4d:20:ce:09:47:99:f8:
         8b:c7:72:15
-----BEGIN CERTIFICATE-----
MIIEdTCCA12gAwIBAgIBKDANBgkqhkiG9w0BAQsFADBpMQswCQYDVQQGEwJVUzET
MBEGA1UECAwKQ2FsaWZvcm5pYTEUMBIGA1UEBwwLU2FudGEgQ2xhcmExDTALBgNV
BAoMBHBrZzUxDDAKBgNVBAMMA3RhNTESMBAGCSqGSIb3DQEJARYDdGE1MB4XDTE2
MTEyODIyNTA1OFoXDTE5MDgyNTIyNTA1OFowcTELMAkGA1UEBhMCVVMxEzARBgNV
BAgMCkNhbGlmb3JuaWExFDASBgNVBAcMC1NhbnRhIENsYXJhMQ0wCwYDVQQKDARw
a2c1MRAwDgYDVQQDDAdjaDFfdGE1MRYwFAYJKoZIhvcNAQkBFgdjaDFfdGE1MIIB
IjANBgkqhkiG9w0BAQEFAAOCAQ8AMIIBCgKCAQEAvH3mTmWOB574TWzUX2Vp2OkB
2F6HKzAVGLq1KLAiKcEaE8OS5mcDzoywRR6LOPk10ocAy6e6RS0+zYen3QPzNdoj
B3+dFmPrRm1RjybQpoqUwRcaSN5U9oukf/R3hr8atIoFwLBEKmqrBr23X0HiBXZ3
e68b6I26NdA53L+lWExmunuTaHbF+22zqh8X9bUq2YvId7KrGK+LIpuUptKtcYPb
tZKfYyu4MZYQn+fRQF9gC/+T+Q5tKd5YHLaHNwZ3mOIIWRaQg8OET5KwvcTpEGop
5rJYcpwJwvhTidYTQjcPWIePr4NNrNqntdOb32Q2vzpfpfQSGF7FioMrP1wMNwID
AQABo4IBHjCCARowHQYDVR0OBBYEFB/4YtKqOKiIoO7gsxQOf+VBdHrvMIGbBgNV
HSMEgZMwgZCAFEMwYP83iuopWWSd0WTPElywtuEVoW2kazBpMQswCQYDVQQGEwJV
UzETMBEGA1UECAwKQ2FsaWZvcm5pYTEUMBIGA1UEBwwLU2FudGEgQ2xhcmExDTAL
BgNVBAoMBHBrZzUxDDAKBgNVBAMMA3RhNTESMBAGCSqGSIb3DQEJARYDdGE1ggkA
2iVo7vWl1c4wDwYDVR0TAQH/BAUwAwEB/zA6BgNVHR8EMzAxMC+gLaArhilodHRw
Oi8vbG9jYWxob3N0OjEyMDAxL2ZpbGUvMC90YTVfY3JsLnBlbTAOBgNVHQ8BAf8E
BAMCAQYwDQYJKoZIhvcNAQELBQADggEBAC0y1QY5T6HVGCYAJ2fF+hgcNurmN2pe
1l0QK2VEzq2RUaMDmR9iNFRRl2klL6AK4PXuWLrE8VYMnTKzp0WwJrW1CoLQRyer
OY34PLVnLilCSwQr5+h+jowVzzzKO3wq/luvA9e4oRRgE3CwjKbd9i5fJEH6LzVg
91740FfIiC3TlrmhUT3ch5GYBjVJwF2JIapz0A4EvuBpUdoLnr0CikT4YPauNnP+
LGxP+rxIeEvIKsAvPpkJnw6F6uDyQg9OpCKm60DgMKbro7Af3c53MF8NB79L1NnE
YMHj7HSDC32Wt4VizrXXomDGcvzF2z2e2oCA6KI6TSDOCUeZ+IvHchU=
-----END CERTIFICATE-----
