Certificate:
    Data:
        Version: 3 (0x2)
        Serial Number: 35 (0x23)
        Signature Algorithm: sha256WithRSAEncryption
        Issuer: C=US, ST=California, L=Santa Clara, O=pkg5, CN=ta4/emailAddress=ta4
        Validity
            Not Before: Nov 14 14:26:56 2024 GMT
            Not After : Aug 11 14:26:56 2027 GMT
        Subject: C=US, ST=California, L=Santa Clara, O=pkg5, CN=ch1_ta4/emailAddress=ch1_ta4
        Subject Public Key Info:
            Public Key Algorithm: rsaEncryption
                Public-Key: (2048 bit)
                Modulus:
                    00:bc:5a:6b:06:d7:8d:e3:c3:70:0b:73:0c:28:21:
                    e9:ca:4a:03:32:79:47:4b:4e:eb:d1:37:8c:99:36:
                    b6:69:e5:c6:11:ff:93:aa:a9:71:51:00:82:17:55:
                    56:ba:1a:c2:c0:32:58:12:bf:11:76:a0:97:b9:07:
                    c6:fe:0b:78:3a:67:8e:91:84:ad:6b:0c:2b:30:80:
                    75:4a:e3:7a:9b:81:49:c8:a7:b9:cc:9d:9a:b9:9b:
                    b3:21:3a:14:60:d6:41:b9:53:42:7d:88:b0:02:32:
                    66:dc:bc:34:c3:fd:99:fa:42:cd:3e:fd:7f:fa:b3:
                    4f:1c:9b:07:72:c2:f0:ce:04:67:cb:b7:31:55:10:
                    74:3d:0e:68:ba:f0:f8:a3:7e:fc:90:da:f3:d8:b1:
                    ed:db:ca:31:9f:f7:84:03:0d:77:2b:18:f7:03:28:
                    7f:79:e3:25:f9:3a:0a:42:48:7d:f2:26:12:db:02:
                    0d:9a:33:6d:14:5a:c6:e2:d4:c8:36:ef:bd:b7:1f:
                    c5:f2:a9:fd:e1:66:61:7e:aa:e8:fe:38:da:97:22:
                    46:c0:b3:b8:bd:d4:f5:ef:09:d9:3a:34:36:e3:f4:
                    2f:99:ae:51:71:b9:4b:58:d9:0b:bc:db:6a:be:97:
                    c0:e5:89:1e:f5:23:dc:36:18:6b:45:cd:d2:50:70:
                    70:ed
                Exponent: 65537 (0x10001)
        X509v3 extensions:
            X509v3 Subject Key Identifier: 
                3E:81:C4:66:D7:17:83:A6:DB:1A:AA:09:6B:22:48:C9:DE:1D:66:AC
            X509v3 Authority Key Identifier: 
                keyid:F4:6E:A2:D5:FD:51:88:20:D0:67:6D:7F:36:87:90:6B:61:F9:81:4A
                DirName:/C=US/ST=California/L=Santa Clara/O=pkg5/CN=ta4/emailAddress=ta4
                serial:7F:89:ED:44:12:3E:5D:7C:CE:36:D4:35:A7:64:D7:1A:90:64:6C:5A
            X509v3 Basic Constraints: critical
                CA:TRUE
            X509v3 Key Usage: critical
                Certificate Sign, CRL Sign
            X509v3 Subject Alternative Name: 
                email:ch1_ta4
    Signature Algorithm: sha256WithRSAEncryption
    Signature Value:
        64:66:f6:81:88:f2:c6:e5:3f:bc:76:20:6c:0b:f1:52:ed:c1:
        f3:68:a5:64:90:1e:9d:e3:e9:77:97:c1:79:42:d9:15:1e:89:
        b8:7d:61:ed:d3:e7:30:8a:bc:21:fe:3e:42:94:56:87:c3:a1:
        ce:32:c9:37:24:9d:c4:94:74:fa:99:28:01:c7:99:eb:94:df:
        98:53:81:d0:7b:1e:b2:31:5f:eb:8f:c1:c9:c6:1b:7a:0e:24:
        f6:aa:ad:32:57:d2:38:c6:c5:a1:4c:4d:a9:3b:12:75:fd:b9:
        cc:ff:48:55:59:a7:e7:2b:94:21:99:27:8a:ab:61:f9:b9:a6:
        10:e7:46:ee:16:65:14:1f:2a:3c:23:63:0c:66:50:9d:5a:83:
        66:62:60:69:86:14:69:d2:66:b2:4f:6a:60:16:93:c2:69:2a:
        20:43:d7:1b:15:13:93:d5:38:74:c1:df:fb:cf:fe:ae:03:99:
        3f:14:3c:f6:f8:59:4a:a4:66:77:14:0b:0a:27:ee:6c:8e:e0:
        67:c9:4e:e2:34:60:a3:b9:3b:cf:6d:a6:48:ee:a0:e1:28:3d:
        98:91:46:6c:6d:24:48:a7:e9:ac:fe:f5:30:67:07:2b:0b:00:
        63:a1:8d:60:1d:f9:66:83:d6:e2:5c:80:5f:38:e4:f7:31:f8:
        a4:de:a4:2c
-----BEGIN CERTIFICATE-----
MIIEVzCCAz+gAwIBAgIBIzANBgkqhkiG9w0BAQsFADBpMQswCQYDVQQGEwJVUzET
MBEGA1UECAwKQ2FsaWZvcm5pYTEUMBIGA1UEBwwLU2FudGEgQ2xhcmExDTALBgNV
BAoMBHBrZzUxDDAKBgNVBAMMA3RhNDESMBAGCSqGSIb3DQEJARYDdGE0MB4XDTI0
MTExNDE0MjY1NloXDTI3MDgxMTE0MjY1NlowcTELMAkGA1UEBhMCVVMxEzARBgNV
BAgMCkNhbGlmb3JuaWExFDASBgNVBAcMC1NhbnRhIENsYXJhMQ0wCwYDVQQKDARw
a2c1MRAwDgYDVQQDDAdjaDFfdGE0MRYwFAYJKoZIhvcNAQkBFgdjaDFfdGE0MIIB
IjANBgkqhkiG9w0BAQEFAAOCAQ8AMIIBCgKCAQEAvFprBteN48NwC3MMKCHpykoD
MnlHS07r0TeMmTa2aeXGEf+TqqlxUQCCF1VWuhrCwDJYEr8RdqCXuQfG/gt4OmeO
kYStawwrMIB1SuN6m4FJyKe5zJ2auZuzIToUYNZBuVNCfYiwAjJm3Lw0w/2Z+kLN
Pv1/+rNPHJsHcsLwzgRny7cxVRB0PQ5ouvD4o378kNrz2LHt28oxn/eEAw13Kxj3
Ayh/eeMl+ToKQkh98iYS2wINmjNtFFrG4tTINu+9tx/F8qn94WZhfqro/jjalyJG
wLO4vdT17wnZOjQ24/Qvma5RcblLWNkLvNtqvpfA5Yke9SPcNhhrRc3SUHBw7QID
AQABo4IBADCB/TAdBgNVHQ4EFgQUPoHEZtcXg6bbGqoJayJIyd4dZqwwgaYGA1Ud
IwSBnjCBm4AU9G6i1f1RiCDQZ21/NoeQa2H5gUqhbaRrMGkxCzAJBgNVBAYTAlVT
MRMwEQYDVQQIDApDYWxpZm9ybmlhMRQwEgYDVQQHDAtTYW50YSBDbGFyYTENMAsG
A1UECgwEcGtnNTEMMAoGA1UEAwwDdGE0MRIwEAYJKoZIhvcNAQkBFgN0YTSCFH+J
7UQSPl18zjbUNadk1xqQZGxaMA8GA1UdEwEB/wQFMAMBAf8wDgYDVR0PAQH/BAQD
AgEGMBIGA1UdEQQLMAmBB2NoMV90YTQwDQYJKoZIhvcNAQELBQADggEBAGRm9oGI
8sblP7x2IGwL8VLtwfNopWSQHp3j6XeXwXlC2RUeibh9Ye3T5zCKvCH+PkKUVofD
oc4yyTckncSUdPqZKAHHmeuU35hTgdB7HrIxX+uPwcnGG3oOJPaqrTJX0jjGxaFM
Tak7EnX9ucz/SFVZp+crlCGZJ4qrYfm5phDnRu4WZRQfKjwjYwxmUJ1ag2ZiYGmG
FGnSZrJPamAWk8JpKiBD1xsVE5PVOHTB3/vP/q4DmT8UPPb4WUqkZncUCwon7myO
4GfJTuI0YKO5O89tpkjuoOEoPZiRRmxtJEin6az+9TBnBysLAGOhjWAd+WaD1uJc
gF845Pcx+KTepCw=
-----END CERTIFICATE-----
