Certificate:
    Data:
        Version: 3 (0x2)
        Serial Number: 35 (0x23)
        Signature Algorithm: sha256WithRSAEncryption
        Issuer: C=US, ST=California, L=Santa Clara, O=pkg5, CN=ta4/emailAddress=ta4
        Validity
            Not Before: Nov 17 23:01:32 2020 GMT
            Not After : Aug 14 23:01:32 2023 GMT
        Subject: C=US, ST=California, L=Santa Clara, O=pkg5, CN=ch1_ta4/emailAddress=ch1_ta4
        Subject Public Key Info:
            Public Key Algorithm: rsaEncryption
                RSA Public-Key: (2048 bit)
                Modulus:
                    00:d3:2e:56:24:2d:23:a6:5a:91:2c:df:45:68:5d:
                    f8:56:cb:82:4c:f5:d5:12:56:04:65:c2:8b:65:c1:
                    99:4b:92:6e:88:76:72:b5:cc:10:50:5d:95:0f:d3:
                    a4:cd:87:9d:45:b2:ba:c9:74:4a:a6:e3:85:6e:09:
                    ca:7f:59:46:d8:41:14:8c:81:3d:6d:58:ad:64:b5:
                    c5:9d:bd:b3:5c:6a:21:bd:2a:b7:28:07:a2:c6:e7:
                    75:1f:5f:ea:1d:c3:4f:3d:61:c3:17:14:36:6d:42:
                    41:da:aa:4c:a7:6e:04:1c:77:be:e4:78:50:d9:ce:
                    56:32:b3:70:9f:ff:af:94:84:61:a9:90:5b:85:ac:
                    13:66:ce:47:ac:7d:0c:9e:ac:5b:29:64:77:8f:b1:
                    bd:bf:35:74:b2:62:5f:1a:7a:34:85:fd:83:d4:36:
                    d0:72:78:fd:f9:4d:1c:5f:1f:87:c4:67:93:bb:15:
                    cb:0a:22:58:da:9b:44:38:d1:eb:c0:a9:1f:4b:08:
                    29:1c:78:38:7f:60:8b:64:26:3b:fd:b5:b3:31:11:
                    07:79:db:7f:79:3e:4a:57:47:29:81:04:df:54:a6:
                    32:72:44:e0:0e:08:84:59:19:bd:e8:a8:b6:70:e2:
                    e6:94:f2:5f:89:76:c1:67:02:b8:5f:ba:1c:64:1b:
                    21:1b
                Exponent: 65537 (0x10001)
        X509v3 extensions:
            X509v3 Subject Key Identifier: 
                4D:C3:CC:FA:8F:0C:80:D1:BA:40:87:98:39:1E:5A:2D:5C:9B:07:13
            X509v3 Authority Key Identifier: 
                keyid:74:B8:C3:9D:47:62:31:59:00:3C:E9:99:3B:7F:18:B1:D7:A9:62:DE
                DirName:/C=US/ST=California/L=Santa Clara/O=pkg5/CN=ta4/emailAddress=ta4
                serial:5B:F2:1B:2D:F0:C5:49:84:C6:92:B5:70:CD:A3:78:2A:8D:07:25:E6

            X509v3 Basic Constraints: critical
                CA:TRUE
            X509v3 Key Usage: critical
                Certificate Sign, CRL Sign
            X509v3 Subject Alternative Name: 
                email:ch1_ta4
    Signature Algorithm: sha256WithRSAEncryption
         11:74:fe:75:e4:cc:f0:2f:0b:dc:bf:0b:95:fa:7b:fc:33:10:
         4a:25:f9:ef:92:d5:f0:4d:87:44:93:98:fa:0e:b0:28:86:aa:
         84:70:b8:56:c9:e0:3c:54:87:6b:ca:18:7f:a9:aa:0e:c5:1a:
         0e:2a:ce:02:ec:d9:8e:01:5d:84:4a:21:61:61:aa:be:af:87:
         62:de:7b:7a:b7:0b:96:5b:57:49:48:b0:8f:66:80:2c:f5:01:
         61:cd:d7:ce:a5:94:0a:aa:7c:e8:79:c3:3b:43:cc:ce:66:24:
         ba:d1:a0:09:5c:35:19:2b:d0:d5:47:58:f7:7f:ae:e0:c3:8e:
         a6:3c:02:5f:d0:14:87:86:c0:22:b8:e0:e4:b9:38:c8:1f:cd:
         3c:60:48:88:35:15:06:89:6f:7c:25:a0:99:3c:32:a8:ca:ff:
         2a:cf:c4:fb:87:6a:d4:5f:f8:26:ba:c9:9b:9f:47:5d:fc:a2:
         45:66:96:68:a6:7e:e6:95:0c:04:46:d3:c5:3b:38:96:cf:f8:
         55:7b:55:43:34:e5:c2:e5:5d:83:93:48:14:5d:6b:82:98:1f:
         4f:3c:68:d1:95:24:49:1e:27:57:70:1e:4b:d9:19:47:c8:71:
         07:2b:e2:2e:fb:4d:59:80:bc:aa:cc:bc:9b:40:fe:d6:ac:79:
         63:7b:75:9b
-----BEGIN CERTIFICATE-----
MIIEVzCCAz+gAwIBAgIBIzANBgkqhkiG9w0BAQsFADBpMQswCQYDVQQGEwJVUzET
MBEGA1UECAwKQ2FsaWZvcm5pYTEUMBIGA1UEBwwLU2FudGEgQ2xhcmExDTALBgNV
BAoMBHBrZzUxDDAKBgNVBAMMA3RhNDESMBAGCSqGSIb3DQEJARYDdGE0MB4XDTIw
MTExNzIzMDEzMloXDTIzMDgxNDIzMDEzMlowcTELMAkGA1UEBhMCVVMxEzARBgNV
BAgMCkNhbGlmb3JuaWExFDASBgNVBAcMC1NhbnRhIENsYXJhMQ0wCwYDVQQKDARw
a2c1MRAwDgYDVQQDDAdjaDFfdGE0MRYwFAYJKoZIhvcNAQkBFgdjaDFfdGE0MIIB
IjANBgkqhkiG9w0BAQEFAAOCAQ8AMIIBCgKCAQEA0y5WJC0jplqRLN9FaF34VsuC
TPXVElYEZcKLZcGZS5JuiHZytcwQUF2VD9OkzYedRbK6yXRKpuOFbgnKf1lG2EEU
jIE9bVitZLXFnb2zXGohvSq3KAeixud1H1/qHcNPPWHDFxQ2bUJB2qpMp24EHHe+
5HhQ2c5WMrNwn/+vlIRhqZBbhawTZs5HrH0MnqxbKWR3j7G9vzV0smJfGno0hf2D
1DbQcnj9+U0cXx+HxGeTuxXLCiJY2ptEONHrwKkfSwgpHHg4f2CLZCY7/bWzMREH
edt/eT5KV0cpgQTfVKYyckTgDgiEWRm96Ki2cOLmlPJfiXbBZwK4X7ocZBshGwID
AQABo4IBADCB/TAdBgNVHQ4EFgQUTcPM+o8MgNG6QIeYOR5aLVybBxMwgaYGA1Ud
IwSBnjCBm4AUdLjDnUdiMVkAPOmZO38YsdepYt6hbaRrMGkxCzAJBgNVBAYTAlVT
MRMwEQYDVQQIDApDYWxpZm9ybmlhMRQwEgYDVQQHDAtTYW50YSBDbGFyYTENMAsG
A1UECgwEcGtnNTEMMAoGA1UEAwwDdGE0MRIwEAYJKoZIhvcNAQkBFgN0YTSCFFvy
Gy3wxUmExpK1cM2jeCqNByXmMA8GA1UdEwEB/wQFMAMBAf8wDgYDVR0PAQH/BAQD
AgEGMBIGA1UdEQQLMAmBB2NoMV90YTQwDQYJKoZIhvcNAQELBQADggEBABF0/nXk
zPAvC9y/C5X6e/wzEEol+e+S1fBNh0STmPoOsCiGqoRwuFbJ4DxUh2vKGH+pqg7F
Gg4qzgLs2Y4BXYRKIWFhqr6vh2Lee3q3C5ZbV0lIsI9mgCz1AWHN186llAqqfOh5
wztDzM5mJLrRoAlcNRkr0NVHWPd/ruDDjqY8Al/QFIeGwCK44OS5OMgfzTxgSIg1
FQaJb3wloJk8MqjK/yrPxPuHatRf+Ca6yZufR138okVmlmimfuaVDARG08U7OJbP
+FV7VUM05cLlXYOTSBRda4KYH088aNGVJEkeJ1dwHkvZGUfIcQcr4i77TVmAvKrM
vJtA/taseWN7dZs=
-----END CERTIFICATE-----
