Certificate:
    Data:
        Version: 3 (0x2)
        Serial Number: 34 (0x22)
    Signature Algorithm: sha256WithRSAEncryption
        Issuer: C=US, ST=California, L=Santa Clara, O=pkg5, CN=ta4/emailAddress=ta4
        Validity
            Not Before: Nov 28 22:50:57 2016 GMT
            Not After : Aug 25 22:50:57 2019 GMT
        Subject: C=US, ST=California, L=Santa Clara, O=pkg5, CN=ch1_ta4/emailAddress=ch1_ta4
        Subject Public Key Info:
            Public Key Algorithm: rsaEncryption
                Public-Key: (2048 bit)
                Modulus:
                    00:c0:58:09:78:6e:37:d8:ce:9e:5c:1f:1e:fe:34:
                    ca:64:8a:12:e3:78:16:ea:38:57:93:f1:ed:37:85:
                    28:79:50:db:d2:21:9c:a9:af:84:8b:ca:a1:06:07:
                    98:b6:f0:81:98:2d:c7:4c:60:c5:35:39:a7:60:3d:
                    72:43:ea:a8:ad:79:22:8f:0d:8d:05:81:3c:6b:f2:
                    b9:8a:5d:97:03:19:b3:f1:dd:49:c4:e7:b6:c1:c1:
                    b1:78:c3:64:08:71:34:58:e4:83:66:f2:84:5e:3e:
                    ec:6d:22:a7:ec:7b:a3:96:88:6d:db:2d:62:e0:fc:
                    4a:44:9c:1f:8e:98:bd:05:20:35:55:4f:e6:1b:01:
                    0a:16:58:d9:38:d8:ca:7e:c4:96:99:99:2d:33:f5:
                    f1:bb:71:ff:12:4f:c8:a6:0a:69:c6:38:39:aa:40:
                    f2:af:d2:39:6b:a4:4f:89:0c:8d:7b:9c:8c:32:36:
                    d5:3c:ff:a1:ed:76:e0:f1:2e:e9:5d:bf:c1:94:61:
                    5c:b2:50:cc:6e:99:d2:09:94:8f:df:b1:ef:15:28:
                    fa:71:21:e4:c9:f2:74:82:6b:a3:19:1e:33:a3:29:
                    f0:f7:fc:4d:4f:11:39:3d:d8:01:c4:e8:52:74:37:
                    00:84:0a:07:99:6d:08:7b:d6:f9:4a:8b:97:bb:7f:
                    a9:f9
                Exponent: 65537 (0x10001)
        X509v3 extensions:
            X509v3 Subject Key Identifier: 
                9C:BA:BB:D8:AF:C4:F2:0A:0B:2C:FB:5A:C4:D5:47:3A:80:C7:D7:9A
            X509v3 Authority Key Identifier: 
                keyid:62:C2:65:B3:DB:1A:71:0E:7C:1C:ED:A7:DF:75:3B:D8:DE:BB:4A:E7
                DirName:/C=US/ST=California/L=Santa Clara/O=pkg5/CN=ta4/emailAddress=ta4
                serial:B9:0A:8B:10:C0:23:41:3B

            X509v3 Basic Constraints: critical
                CA:TRUE
            X509v3 Key Usage: critical
                Certificate Sign, CRL Sign
    Signature Algorithm: sha256WithRSAEncryption
         68:cf:c6:c5:de:af:23:76:97:55:5b:b1:6a:a1:68:5f:f6:10:
         21:1a:f8:9b:24:27:96:5b:22:3c:41:b6:f3:0e:06:5e:dc:52:
         10:3b:a8:71:2b:e3:9d:1e:5e:7f:bc:67:7f:a1:06:de:7e:93:
         aa:df:ee:7f:d2:5f:48:ea:e6:ef:34:91:67:ab:db:1b:20:30:
         0b:a1:35:85:f2:62:c1:cb:78:5a:a9:5d:e1:b2:b3:35:45:6c:
         d0:c0:08:80:22:9f:bf:82:71:bb:95:23:c6:52:f2:af:99:a5:
         ac:7c:1c:04:e5:06:34:8e:75:17:4b:02:9a:60:06:38:21:85:
         51:0d:d5:38:eb:3a:27:3c:6c:d0:dc:06:24:a7:f1:e4:7d:40:
         35:a5:a5:76:f4:b7:5c:58:bd:53:f5:1d:f3:73:12:6f:94:a4:
         c5:ad:d9:d3:69:0a:68:c7:57:10:bf:c3:f2:53:39:63:07:41:
         1d:aa:f6:6e:40:cb:e9:78:50:71:99:63:ba:a4:d4:10:fd:66:
         ab:23:c7:59:a6:ed:18:cb:84:97:32:62:02:b7:04:cd:a2:c4:
         5e:10:ff:f1:3b:9c:11:b0:51:d6:0e:2f:7b:d2:04:84:28:a5:
         56:99:ee:bc:bf:b1:89:c6:e3:1a:a7:e0:cb:ab:5d:87:35:a6:
         02:40:6b:99
-----BEGIN CERTIFICATE-----
MIIENzCCAx+gAwIBAgIBIjANBgkqhkiG9w0BAQsFADBpMQswCQYDVQQGEwJVUzET
MBEGA1UECAwKQ2FsaWZvcm5pYTEUMBIGA1UEBwwLU2FudGEgQ2xhcmExDTALBgNV
BAoMBHBrZzUxDDAKBgNVBAMMA3RhNDESMBAGCSqGSIb3DQEJARYDdGE0MB4XDTE2
MTEyODIyNTA1N1oXDTE5MDgyNTIyNTA1N1owcTELMAkGA1UEBhMCVVMxEzARBgNV
BAgMCkNhbGlmb3JuaWExFDASBgNVBAcMC1NhbnRhIENsYXJhMQ0wCwYDVQQKDARw
a2c1MRAwDgYDVQQDDAdjaDFfdGE0MRYwFAYJKoZIhvcNAQkBFgdjaDFfdGE0MIIB
IjANBgkqhkiG9w0BAQEFAAOCAQ8AMIIBCgKCAQEAwFgJeG432M6eXB8e/jTKZIoS
43gW6jhXk/HtN4UoeVDb0iGcqa+Ei8qhBgeYtvCBmC3HTGDFNTmnYD1yQ+qorXki
jw2NBYE8a/K5il2XAxmz8d1JxOe2wcGxeMNkCHE0WOSDZvKEXj7sbSKn7Hujloht
2y1i4PxKRJwfjpi9BSA1VU/mGwEKFljZONjKfsSWmZktM/Xxu3H/Ek/Ipgppxjg5
qkDyr9I5a6RPiQyNe5yMMjbVPP+h7Xbg8S7pXb/BlGFcslDMbpnSCZSP37HvFSj6
cSHkyfJ0gmujGR4zoynw9/xNTxE5PdgBxOhSdDcAhAoHmW0Ie9b5SouXu3+p+QID
AQABo4HhMIHeMB0GA1UdDgQWBBScurvYr8TyCgss+1rE1Uc6gMfXmjCBmwYDVR0j
BIGTMIGQgBRiwmWz2xpxDnwc7affdTvY3rtK56FtpGswaTELMAkGA1UEBhMCVVMx
EzARBgNVBAgMCkNhbGlmb3JuaWExFDASBgNVBAcMC1NhbnRhIENsYXJhMQ0wCwYD
VQQKDARwa2c1MQwwCgYDVQQDDAN0YTQxEjAQBgkqhkiG9w0BCQEWA3RhNIIJALkK
ixDAI0E7MA8GA1UdEwEB/wQFMAMBAf8wDgYDVR0PAQH/BAQDAgEGMA0GCSqGSIb3
DQEBCwUAA4IBAQBoz8bF3q8jdpdVW7FqoWhf9hAhGvibJCeWWyI8QbbzDgZe3FIQ
O6hxK+OdHl5/vGd/oQbefpOq3+5/0l9I6ubvNJFnq9sbIDALoTWF8mLBy3haqV3h
srM1RWzQwAiAIp+/gnG7lSPGUvKvmaWsfBwE5QY0jnUXSwKaYAY4IYVRDdU46zon
PGzQ3AYkp/HkfUA1paV29LdcWL1T9R3zcxJvlKTFrdnTaQpox1cQv8PyUzljB0Ed
qvZuQMvpeFBxmWO6pNQQ/WarI8dZpu0Yy4SXMmICtwTNosReEP/xO5wRsFHWDi97
0gSEKKVWme68v7GJxuMap+DLq12HNaYCQGuZ
-----END CERTIFICATE-----
