Certificate:
    Data:
        Version: 3 (0x2)
        Serial Number: 35 (0x23)
        Signature Algorithm: sha256WithRSAEncryption
        Issuer: C=US, ST=California, L=Santa Clara, O=pkg5, CN=ta4/emailAddress=ta4
        Validity
            Not Before: Oct 22 10:15:18 2021 GMT
            Not After : Jul 18 10:15:18 2024 GMT
        Subject: C=US, ST=California, L=Santa Clara, O=pkg5, CN=ch1_ta4/emailAddress=ch1_ta4
        Subject Public Key Info:
            Public Key Algorithm: rsaEncryption
                Public-Key: (2048 bit)
                Modulus:
                    00:e9:c8:78:e4:f3:35:20:d7:e2:20:a2:c8:b8:78:
                    ae:f3:0b:0d:dc:0f:4a:3b:a1:ca:f5:e5:4d:f6:29:
                    1f:6e:ce:ae:31:d0:d4:36:35:f2:e2:0f:f2:c6:76:
                    b1:98:78:b9:6d:6f:05:2a:3d:51:d0:e7:22:e7:2c:
                    9b:3a:1c:cc:28:d9:b1:98:e3:ac:46:d7:1b:bc:3a:
                    d1:37:f7:6f:72:ec:7b:20:fe:29:f7:ae:22:94:bc:
                    16:ce:35:bf:a9:a2:3c:72:17:1a:30:ee:93:70:31:
                    7d:6c:48:27:19:36:f7:95:5c:0d:5d:b8:22:73:1a:
                    cd:f8:91:ab:66:64:a0:14:8a:3f:e3:2f:47:05:99:
                    60:00:30:9f:20:9c:af:b3:db:ea:32:be:fd:0a:ab:
                    a7:85:e0:fc:d8:5a:5e:a9:fb:45:d7:cc:38:5c:a0:
                    e8:80:65:40:15:b2:a3:f3:b7:d0:e3:18:63:3a:7b:
                    9d:c4:4e:5d:5a:c9:c7:06:ab:69:da:63:60:45:ce:
                    23:c2:de:0f:48:86:f7:4d:73:a6:b0:f4:f8:99:2f:
                    12:8b:e1:e9:3c:01:41:93:5b:5b:07:a1:c1:33:1c:
                    44:a0:f1:36:e1:ea:80:50:e8:b3:9b:a4:77:22:60:
                    8f:19:7d:1a:03:e0:79:d0:c5:cc:a2:1c:b2:95:e1:
                    4c:d7
                Exponent: 65537 (0x10001)
        X509v3 extensions:
            X509v3 Subject Key Identifier: 
                0E:D1:7E:6A:98:F8:F9:68:97:C8:CC:DA:FE:31:F3:6B:B4:20:E2:01
            X509v3 Authority Key Identifier: 
                keyid:3A:3B:2F:66:18:C6:1A:E4:A2:99:A1:A8:C5:7D:86:69:7C:B5:63:F6
                DirName:/C=US/ST=California/L=Santa Clara/O=pkg5/CN=ta4/emailAddress=ta4
                serial:03:F1:7E:84:4F:B7:F0:1A:45:31:F0:AF:A3:79:49:46:BE:2A:B3:47
            X509v3 Basic Constraints: critical
                CA:TRUE
            X509v3 Key Usage: critical
                Certificate Sign, CRL Sign
            X509v3 Subject Alternative Name: 
                email:ch1_ta4
    Signature Algorithm: sha256WithRSAEncryption
    Signature Value:
        61:b6:76:18:87:53:93:b6:8b:7f:d7:f1:29:ea:21:a4:ea:79:
        19:13:b8:6c:d7:8e:1a:d5:d8:14:38:68:3d:18:57:23:cc:31:
        15:33:6b:81:bd:ac:c5:1e:40:f3:b9:32:ed:b5:36:eb:d2:7e:
        49:42:e6:dc:1d:9d:36:8b:ab:f2:19:c0:bc:7f:4f:ea:bb:94:
        d4:25:21:ef:86:f7:69:67:4e:c4:de:9b:8d:3b:6c:da:b0:77:
        2d:c4:d1:a5:51:75:58:c6:45:b6:61:f0:54:ad:db:d3:79:20:
        00:c8:d6:f0:2b:cc:72:61:66:3c:5f:ab:f1:c8:bc:f8:c8:db:
        d5:9c:28:90:a9:13:13:18:19:07:6c:0e:60:48:f8:11:c8:f2:
        46:74:06:7f:56:e2:4d:f9:83:3d:86:74:ed:a7:a8:11:b7:b1:
        bf:3b:65:98:52:4f:97:36:22:75:31:e0:6f:68:a8:d9:04:e7:
        90:1d:9a:94:62:e9:1d:5b:b4:81:90:ef:a0:8c:44:de:44:d3:
        7c:64:6b:a4:73:89:2c:ab:be:1c:24:71:5f:6a:88:2b:ee:cd:
        b3:c9:6c:f3:76:9b:52:3f:4d:58:27:75:d7:49:50:74:9e:a4:
        ed:ac:c3:6a:55:91:31:72:9c:6d:0f:1d:9c:9b:fe:21:65:5a:
        35:48:6a:fd
-----BEGIN CERTIFICATE-----
MIIEVzCCAz+gAwIBAgIBIzANBgkqhkiG9w0BAQsFADBpMQswCQYDVQQGEwJVUzET
MBEGA1UECAwKQ2FsaWZvcm5pYTEUMBIGA1UEBwwLU2FudGEgQ2xhcmExDTALBgNV
BAoMBHBrZzUxDDAKBgNVBAMMA3RhNDESMBAGCSqGSIb3DQEJARYDdGE0MB4XDTIx
MTAyMjEwMTUxOFoXDTI0MDcxODEwMTUxOFowcTELMAkGA1UEBhMCVVMxEzARBgNV
BAgMCkNhbGlmb3JuaWExFDASBgNVBAcMC1NhbnRhIENsYXJhMQ0wCwYDVQQKDARw
a2c1MRAwDgYDVQQDDAdjaDFfdGE0MRYwFAYJKoZIhvcNAQkBFgdjaDFfdGE0MIIB
IjANBgkqhkiG9w0BAQEFAAOCAQ8AMIIBCgKCAQEA6ch45PM1INfiIKLIuHiu8wsN
3A9KO6HK9eVN9ikfbs6uMdDUNjXy4g/yxnaxmHi5bW8FKj1R0Oci5yybOhzMKNmx
mOOsRtcbvDrRN/dvcux7IP4p964ilLwWzjW/qaI8chcaMO6TcDF9bEgnGTb3lVwN
XbgicxrN+JGrZmSgFIo/4y9HBZlgADCfIJyvs9vqMr79CqunheD82FpeqftF18w4
XKDogGVAFbKj87fQ4xhjOnudxE5dWsnHBqtp2mNgRc4jwt4PSIb3TXOmsPT4mS8S
i+HpPAFBk1tbB6HBMxxEoPE24eqAUOizm6R3ImCPGX0aA+B50MXMohyyleFM1wID
AQABo4IBADCB/TAdBgNVHQ4EFgQUDtF+apj4+WiXyMza/jHza7Qg4gEwgaYGA1Ud
IwSBnjCBm4AUOjsvZhjGGuSimaGoxX2GaXy1Y/ahbaRrMGkxCzAJBgNVBAYTAlVT
MRMwEQYDVQQIDApDYWxpZm9ybmlhMRQwEgYDVQQHDAtTYW50YSBDbGFyYTENMAsG
A1UECgwEcGtnNTEMMAoGA1UEAwwDdGE0MRIwEAYJKoZIhvcNAQkBFgN0YTSCFAPx
foRPt/AaRTHwr6N5SUa+KrNHMA8GA1UdEwEB/wQFMAMBAf8wDgYDVR0PAQH/BAQD
AgEGMBIGA1UdEQQLMAmBB2NoMV90YTQwDQYJKoZIhvcNAQELBQADggEBAGG2dhiH
U5O2i3/X8SnqIaTqeRkTuGzXjhrV2BQ4aD0YVyPMMRUza4G9rMUeQPO5Mu21NuvS
fklC5twdnTaLq/IZwLx/T+q7lNQlIe+G92lnTsTem407bNqwdy3E0aVRdVjGRbZh
8FSt29N5IADI1vArzHJhZjxfq/HIvPjI29WcKJCpExMYGQdsDmBI+BHI8kZ0Bn9W
4k35gz2GdO2nqBG3sb87ZZhST5c2InUx4G9oqNkE55AdmpRi6R1btIGQ76CMRN5E
03xka6RziSyrvhwkcV9qiCvuzbPJbPN2m1I/TVgndddJUHSepO2sw2pVkTFynG0P
HZyb/iFlWjVIav0=
-----END CERTIFICATE-----
