Certificate:
    Data:
        Version: 3 (0x2)
        Serial Number: 41 (0x29)
    Signature Algorithm: sha256WithRSAEncryption
        Issuer: C=US, ST=California, L=Santa Clara, O=pkg5, CN=ta5/emailAddress=ta5
        Validity
            Not Before: Mar 20 10:20:56 2018 GMT
            Not After : Dec 14 10:20:56 2020 GMT
        Subject: C=US, ST=California, L=Santa Clara, O=pkg5, CN=ch1_ta5/emailAddress=ch1_ta5
        Subject Public Key Info:
            Public Key Algorithm: rsaEncryption
                Public-Key: (2048 bit)
                Modulus:
                    00:b9:3c:84:92:36:75:f7:58:6e:c8:af:ff:f8:f2:
                    d1:4a:3a:a6:c2:91:33:85:7e:9d:2a:9e:46:da:a1:
                    39:63:86:04:1d:5a:fa:ac:62:4f:b0:9e:a2:4e:db:
                    7e:a9:39:d5:0d:b6:52:b1:16:d4:16:d4:3b:10:60:
                    44:f0:f6:c5:3a:62:18:a0:7e:49:09:96:e3:60:ff:
                    d1:fa:9f:6c:80:53:59:97:49:10:9f:b7:f2:47:74:
                    20:74:cc:06:66:e2:df:4b:7a:b3:83:9c:43:fa:c7:
                    fd:62:f4:04:68:a0:8b:dc:bf:f2:23:7b:54:89:34:
                    f9:74:8e:01:57:ef:62:7b:42:04:eb:94:d8:f5:33:
                    ea:6b:a1:f2:cb:47:15:5f:5f:54:ec:cd:68:5a:ff:
                    c5:15:0a:7f:a7:1c:0b:a0:d7:4d:69:1f:61:65:6d:
                    b9:70:14:62:57:9e:0d:88:1d:88:28:91:49:fc:5d:
                    4d:81:8d:cd:9c:de:82:dc:7b:79:7c:56:55:b5:3d:
                    83:4c:ac:bd:5a:3d:1c:8a:64:9b:dd:68:94:df:0e:
                    ec:fd:c9:08:fa:42:96:7a:94:35:e3:d0:72:c6:f0:
                    70:eb:57:b6:be:2c:16:96:e8:4d:9c:c1:15:bb:a1:
                    52:a6:2f:51:80:5c:d7:56:e4:fd:dd:21:e3:2d:94:
                    36:99
                Exponent: 65537 (0x10001)
        X509v3 extensions:
            X509v3 Subject Key Identifier: 
                23:D0:B9:99:0D:19:D3:BF:CB:C6:94:3A:1D:C8:29:E8:D5:46:2F:25
            X509v3 Authority Key Identifier: 
                keyid:CE:9C:A1:7F:DB:6D:80:E4:8B:FE:52:7E:C8:B3:75:C6:7B:AC:4D:38
                DirName:/C=US/ST=California/L=Santa Clara/O=pkg5/CN=ta5/emailAddress=ta5
                serial:BB:F4:1E:3F:C5:39:AC:F4

            X509v3 Basic Constraints: critical
                CA:TRUE
            X509v3 CRL Distribution Points: 

                Full Name:
                  URI:http://localhost:12001/file/0/ta5_crl.pem

            X509v3 Key Usage: critical
                Certificate Sign, CRL Sign
    Signature Algorithm: sha256WithRSAEncryption
         5f:4c:f7:13:fc:34:6b:b1:05:89:e8:2b:72:af:f8:cc:ad:7f:
         ce:ee:5e:c0:44:83:b1:1a:93:bf:ff:58:0b:c0:38:53:7a:3d:
         f5:26:52:08:cb:42:fa:2f:93:d9:bc:b8:08:00:e0:72:90:1b:
         4a:6b:f3:ae:8d:97:1c:e1:57:5c:35:79:b9:b4:28:33:89:9f:
         3a:8d:4a:11:ba:ea:69:f4:8d:05:01:dd:6a:14:7d:4b:8f:d5:
         4f:f7:92:b7:a2:ad:f0:08:e2:09:64:ed:e6:13:2a:0a:77:9f:
         36:05:55:c1:9b:d4:2d:ea:fa:13:de:5e:9b:7f:a2:6f:ec:0e:
         55:53:26:9a:94:d4:62:9f:2d:24:2d:27:43:20:b0:c3:07:e9:
         3b:5f:b3:f6:cc:f9:d7:93:ea:16:2a:fd:23:3a:09:f8:e5:f3:
         10:68:63:2b:87:2e:fb:85:6f:d5:10:6d:00:18:02:5e:d8:23:
         c9:5f:af:d9:c7:c7:5c:c7:53:c4:54:fa:33:aa:d7:99:19:2f:
         f1:c4:11:a2:e1:cb:f2:06:af:5a:ca:5e:a0:5c:7c:4e:f9:f3:
         dd:5f:03:70:bc:0a:ae:e3:7e:99:1b:85:65:77:a5:63:83:ae:
         2a:75:46:03:78:c1:6a:a9:43:bc:5b:22:10:2e:cc:8e:3c:67:
         84:f7:c1:cd
-----BEGIN CERTIFICATE-----
MIIEdTCCA12gAwIBAgIBKTANBgkqhkiG9w0BAQsFADBpMQswCQYDVQQGEwJVUzET
MBEGA1UECAwKQ2FsaWZvcm5pYTEUMBIGA1UEBwwLU2FudGEgQ2xhcmExDTALBgNV
BAoMBHBrZzUxDDAKBgNVBAMMA3RhNTESMBAGCSqGSIb3DQEJARYDdGE1MB4XDTE4
MDMyMDEwMjA1NloXDTIwMTIxNDEwMjA1NlowcTELMAkGA1UEBhMCVVMxEzARBgNV
BAgMCkNhbGlmb3JuaWExFDASBgNVBAcMC1NhbnRhIENsYXJhMQ0wCwYDVQQKDARw
a2c1MRAwDgYDVQQDDAdjaDFfdGE1MRYwFAYJKoZIhvcNAQkBFgdjaDFfdGE1MIIB
IjANBgkqhkiG9w0BAQEFAAOCAQ8AMIIBCgKCAQEAuTyEkjZ191huyK//+PLRSjqm
wpEzhX6dKp5G2qE5Y4YEHVr6rGJPsJ6iTtt+qTnVDbZSsRbUFtQ7EGBE8PbFOmIY
oH5JCZbjYP/R+p9sgFNZl0kQn7fyR3QgdMwGZuLfS3qzg5xD+sf9YvQEaKCL3L/y
I3tUiTT5dI4BV+9ie0IE65TY9TPqa6Hyy0cVX19U7M1oWv/FFQp/pxwLoNdNaR9h
ZW25cBRiV54NiB2IKJFJ/F1NgY3NnN6C3Ht5fFZVtT2DTKy9Wj0cimSb3WiU3w7s
/ckI+kKWepQ149ByxvBw61e2viwWluhNnMEVu6FSpi9RgFzXVuT93SHjLZQ2mQID
AQABo4IBHjCCARowHQYDVR0OBBYEFCPQuZkNGdO/y8aUOh3IKejVRi8lMIGbBgNV
HSMEgZMwgZCAFM6coX/bbYDki/5SfsizdcZ7rE04oW2kazBpMQswCQYDVQQGEwJV
UzETMBEGA1UECAwKQ2FsaWZvcm5pYTEUMBIGA1UEBwwLU2FudGEgQ2xhcmExDTAL
BgNVBAoMBHBrZzUxDDAKBgNVBAMMA3RhNTESMBAGCSqGSIb3DQEJARYDdGE1ggkA
u/QeP8U5rPQwDwYDVR0TAQH/BAUwAwEB/zA6BgNVHR8EMzAxMC+gLaArhilodHRw
Oi8vbG9jYWxob3N0OjEyMDAxL2ZpbGUvMC90YTVfY3JsLnBlbTAOBgNVHQ8BAf8E
BAMCAQYwDQYJKoZIhvcNAQELBQADggEBAF9M9xP8NGuxBYnoK3Kv+Mytf87uXsBE
g7Eak7//WAvAOFN6PfUmUgjLQvovk9m8uAgA4HKQG0pr866NlxzhV1w1ebm0KDOJ
nzqNShG66mn0jQUB3WoUfUuP1U/3kreirfAI4glk7eYTKgp3nzYFVcGb1C3q+hPe
Xpt/om/sDlVTJpqU1GKfLSQtJ0MgsMMH6Ttfs/bM+deT6hYq/SM6Cfjl8xBoYyuH
LvuFb9UQbQAYAl7YI8lfr9nHx1zHU8RU+jOq15kZL/HEEaLhy/IGr1rKXqBcfE75
891fA3C8Cq7jfpkbhWV3pWODrip1RgN4wWqpQ7xbIhAuzI48Z4T3wc0=
-----END CERTIFICATE-----
