Certificate:
    Data:
        Version: 3 (0x2)
        Serial Number: 1 (0x1)
    Signature Algorithm: sha256WithRSAEncryption
        Issuer: C=US, ST=California, L=Santa Clara, O=pkg5, CN=ta1/emailAddress=ta1
        Validity
            Not Before: Dec  6 03:06:42 2014 GMT
            Not After : Sep  1 03:06:42 2017 GMT
        Subject: C=US, ST=California, L=Santa Clara, O=pkg5, CN=ch1_ta1/emailAddress=ch1_ta1
        Subject Public Key Info:
            Public Key Algorithm: rsaEncryption
                Public-Key: (1024 bit)
                Modulus:
                    00:de:8a:cc:1e:46:29:5f:36:3b:2c:82:d8:e8:4b:
                    ae:08:87:46:a4:ad:75:d0:64:0b:ca:bf:db:41:c4:
                    7a:67:73:9d:7d:c6:d7:4e:22:12:53:5f:0c:9f:bb:
                    45:65:cd:f2:bb:c8:5c:ae:18:30:f4:0b:63:72:cd:
                    55:53:f7:9d:bd:e6:74:2b:85:c4:97:c7:cb:52:3b:
                    ca:b3:f3:34:72:43:b3:5a:41:94:33:ae:12:fc:0c:
                    bc:d4:4e:ac:9b:12:5d:7e:f6:57:a2:3d:b5:17:e7:
                    a7:08:2f:a5:03:aa:eb:cc:4a:a8:18:71:04:a9:9a:
                    fa:01:ac:34:81:f9:d5:00:8b
                Exponent: 65537 (0x10001)
        X509v3 extensions:
            X509v3 Subject Key Identifier: 
                BE:9D:BF:A9:94:FF:A1:61:BA:FE:4F:44:1F:70:A8:88:56:5D:12:97
            X509v3 Authority Key Identifier: 
                keyid:EE:10:3C:75:59:B1:40:56:AF:48:E1:DE:8D:D1:E0:D9:F0:FA:1C:A7
                DirName:/C=US/ST=California/L=Santa Clara/O=pkg5/CN=ta1/emailAddress=ta1
                serial:B0:2A:94:2D:62:2C:13:E1

            X509v3 Basic Constraints: critical
                CA:TRUE, pathlen:4
            X509v3 Key Usage: critical
                Certificate Sign, CRL Sign
    Signature Algorithm: sha256WithRSAEncryption
         9b:69:84:67:f6:ad:ed:cf:b3:9a:a6:05:ce:7b:6c:9c:67:24:
         2f:fd:6f:54:ea:b9:ad:52:bc:7a:3a:eb:5a:ff:2a:ef:33:ca:
         13:05:2c:a6:5b:8a:87:9e:fc:38:fe:b2:90:d7:fd:8a:2b:ba:
         94:30:50:0e:68:21:b1:af:90:3b:93:36:72:52:05:2a:b8:42:
         55:29:24:f5:49:b0:8e:9b:a0:ed:3d:10:22:4d:b5:bd:04:1a:
         06:00:8d:35:01:db:31:ce:35:fb:4e:4c:c2:ba:38:0c:9d:2e:
         35:3f:91:cd:50:99:a8:8c:fa:75:41:f4:48:52:7c:a5:e5:70:
         c2:4b
-----BEGIN CERTIFICATE-----
MIIDNTCCAp6gAwIBAgIBATANBgkqhkiG9w0BAQsFADBpMQswCQYDVQQGEwJVUzET
MBEGA1UECAwKQ2FsaWZvcm5pYTEUMBIGA1UEBwwLU2FudGEgQ2xhcmExDTALBgNV
BAoMBHBrZzUxDDAKBgNVBAMMA3RhMTESMBAGCSqGSIb3DQEJARYDdGExMB4XDTE0
MTIwNjAzMDY0MloXDTE3MDkwMTAzMDY0MlowcTELMAkGA1UEBhMCVVMxEzARBgNV
BAgMCkNhbGlmb3JuaWExFDASBgNVBAcMC1NhbnRhIENsYXJhMQ0wCwYDVQQKDARw
a2c1MRAwDgYDVQQDDAdjaDFfdGExMRYwFAYJKoZIhvcNAQkBFgdjaDFfdGExMIGf
MA0GCSqGSIb3DQEBAQUAA4GNADCBiQKBgQDeisweRilfNjssgtjoS64Ih0akrXXQ
ZAvKv9tBxHpnc519xtdOIhJTXwyfu0VlzfK7yFyuGDD0C2NyzVVT95295nQrhcSX
x8tSO8qz8zRyQ7NaQZQzrhL8DLzUTqybEl1+9leiPbUX56cIL6UDquvMSqgYcQSp
mvoBrDSB+dUAiwIDAQABo4HkMIHhMB0GA1UdDgQWBBS+nb+plP+hYbr+T0QfcKiI
Vl0SlzCBmwYDVR0jBIGTMIGQgBTuEDx1WbFAVq9I4d6N0eDZ8Pocp6FtpGswaTEL
MAkGA1UEBhMCVVMxEzARBgNVBAgMCkNhbGlmb3JuaWExFDASBgNVBAcMC1NhbnRh
IENsYXJhMQ0wCwYDVQQKDARwa2c1MQwwCgYDVQQDDAN0YTExEjAQBgkqhkiG9w0B
CQEWA3RhMYIJALAqlC1iLBPhMBIGA1UdEwEB/wQIMAYBAf8CAQQwDgYDVR0PAQH/
BAQDAgEGMA0GCSqGSIb3DQEBCwUAA4GBAJtphGf2re3Ps5qmBc57bJxnJC/9b1Tq
ua1SvHo661r/Ku8zyhMFLKZbioee/Dj+spDX/YorupQwUA5oIbGvkDuTNnJSBSq4
QlUpJPVJsI6boO09ECJNtb0EGgYAjTUB2zHONftOTMK6OAydLjU/kc1QmaiM+nVB
9EhSfKXlcMJL
-----END CERTIFICATE-----
