Certificate:
    Data:
        Version: 3 (0x2)
        Serial Number: 16 (0x10)
    Signature Algorithm: sha256WithRSAEncryption
        Issuer: C=US, ST=California, L=Santa Clara, O=pkg5, CN=ta3/emailAddress=ta3
        Validity
            Not Before: Dec  6 03:06:42 2014 GMT
            Not After : Sep  1 03:06:42 2017 GMT
        Subject: C=US, ST=California, L=Santa Clara, O=pkg5, CN=ch1_ta3/emailAddress=ch1_ta3
        Subject Public Key Info:
            Public Key Algorithm: rsaEncryption
                Public-Key: (1024 bit)
                Modulus:
                    00:bb:50:bc:38:c6:b7:92:1d:15:28:67:78:e8:8a:
                    80:16:4b:02:0c:d7:62:1a:17:43:d1:ec:21:cd:fc:
                    be:4b:c7:de:9b:6c:36:da:b0:84:e0:75:c3:3a:ec:
                    34:bd:27:aa:2e:a5:4e:53:7d:f3:f4:dd:65:16:29:
                    ab:c8:73:8d:3b:2f:c4:ea:10:02:ac:f1:44:8d:73:
                    b1:d7:e2:cd:90:df:83:06:a6:ea:02:58:32:b5:ff:
                    32:dd:a6:e8:4d:31:03:26:d4:4c:30:7c:4a:01:74:
                    b2:9d:41:c5:7f:70:72:4a:cb:83:46:20:f6:46:b9:
                    a2:d1:95:3f:fc:9a:f3:af:6d
                Exponent: 65537 (0x10001)
        X509v3 extensions:
            X509v3 Subject Key Identifier: 
                6A:C8:79:FE:D2:6D:CC:6F:2F:0E:AE:BF:86:AA:79:D0:1D:03:75:85
            X509v3 Authority Key Identifier: 
                keyid:96:DC:B7:E9:9F:4E:3E:E7:7D:6D:D3:FC:4D:AA:7B:32:A1:2B:5A:6C
                DirName:/C=US/ST=California/L=Santa Clara/O=pkg5/CN=ta3/emailAddress=ta3
                serial:93:E7:9B:62:38:5C:7D:DF

            X509v3 Basic Constraints: critical
                CA:TRUE
            X509v3 Key Usage: critical
                Certificate Sign, CRL Sign
    Signature Algorithm: sha256WithRSAEncryption
         99:8f:7d:78:c9:fb:8e:2f:69:46:29:ac:04:ae:27:b8:52:69:
         9f:8e:df:6a:70:82:fb:ab:5c:ba:bb:59:ac:81:3e:df:e5:87:
         96:f4:13:e3:82:fa:81:57:72:dc:0d:45:13:c5:6d:b0:a8:39:
         3e:41:11:7f:c0:22:50:54:af:5d:a6:e6:06:99:d5:ad:26:ff:
         31:da:34:ae:80:c8:74:8c:0f:2f:2f:1b:88:d9:dc:d6:ae:85:
         25:0c:5f:84:28:6b:70:14:4e:bf:e8:80:b9:bc:2f:fa:0f:ba:
         bc:f3:6b:4c:eb:40:af:38:09:67:44:e2:15:9c:a4:c9:0c:24:
         c2:6e
-----BEGIN CERTIFICATE-----
MIIDMjCCApugAwIBAgIBEDANBgkqhkiG9w0BAQsFADBpMQswCQYDVQQGEwJVUzET
MBEGA1UECAwKQ2FsaWZvcm5pYTEUMBIGA1UEBwwLU2FudGEgQ2xhcmExDTALBgNV
BAoMBHBrZzUxDDAKBgNVBAMMA3RhMzESMBAGCSqGSIb3DQEJARYDdGEzMB4XDTE0
MTIwNjAzMDY0MloXDTE3MDkwMTAzMDY0MlowcTELMAkGA1UEBhMCVVMxEzARBgNV
BAgMCkNhbGlmb3JuaWExFDASBgNVBAcMC1NhbnRhIENsYXJhMQ0wCwYDVQQKDARw
a2c1MRAwDgYDVQQDDAdjaDFfdGEzMRYwFAYJKoZIhvcNAQkBFgdjaDFfdGEzMIGf
MA0GCSqGSIb3DQEBAQUAA4GNADCBiQKBgQC7ULw4xreSHRUoZ3joioAWSwIM12Ia
F0PR7CHN/L5Lx96bbDbasITgdcM67DS9J6oupU5TffP03WUWKavIc407L8TqEAKs
8USNc7HX4s2Q34MGpuoCWDK1/zLdpuhNMQMm1EwwfEoBdLKdQcV/cHJKy4NGIPZG
uaLRlT/8mvOvbQIDAQABo4HhMIHeMB0GA1UdDgQWBBRqyHn+0m3Mby8Orr+GqnnQ
HQN1hTCBmwYDVR0jBIGTMIGQgBSW3Lfpn04+531t0/xNqnsyoStabKFtpGswaTEL
MAkGA1UEBhMCVVMxEzARBgNVBAgMCkNhbGlmb3JuaWExFDASBgNVBAcMC1NhbnRh
IENsYXJhMQ0wCwYDVQQKDARwa2c1MQwwCgYDVQQDDAN0YTMxEjAQBgkqhkiG9w0B
CQEWA3RhM4IJAJPnm2I4XH3fMA8GA1UdEwEB/wQFMAMBAf8wDgYDVR0PAQH/BAQD
AgEGMA0GCSqGSIb3DQEBCwUAA4GBAJmPfXjJ+44vaUYprASuJ7hSaZ+O32pwgvur
XLq7WayBPt/lh5b0E+OC+oFXctwNRRPFbbCoOT5BEX/AIlBUr12m5gaZ1a0m/zHa
NK6AyHSMDy8vG4jZ3NauhSUMX4Qoa3AUTr/ogLm8L/oPurzza0zrQK84CWdE4hWc
pMkMJMJu
-----END CERTIFICATE-----
