Certificate:
    Data:
        Version: 3 (0x2)
        Serial Number: 16 (0x10)
        Signature Algorithm: sha256WithRSAEncryption
        Issuer: C=US, ST=California, L=Santa Clara, O=pkg5, CN=ta3/emailAddress=ta3
        Validity
            Not Before: Dec 15 15:37:21 2022 GMT
            Not After : Sep 10 15:37:21 2025 GMT
        Subject: C=US, ST=California, L=Santa Clara, O=pkg5, CN=ch1_ta3/emailAddress=ch1_ta3
        Subject Public Key Info:
            Public Key Algorithm: rsaEncryption
                Public-Key: (2048 bit)
                Modulus:
                    00:aa:ac:e8:d5:c3:7e:c5:1d:3b:5b:21:e8:92:55:
                    bf:db:e7:13:0a:16:6b:a7:51:86:b9:41:63:47:fc:
                    f5:f8:c5:c7:41:bf:2d:ab:22:84:e5:90:27:88:a5:
                    81:96:5f:e5:ff:41:0a:55:b6:18:a3:1c:e2:2a:1e:
                    af:61:e2:29:25:4a:95:5b:fc:7a:c6:33:f0:ad:c5:
                    74:e3:8b:1c:c9:bd:17:2e:e4:32:ca:d0:c9:f7:4e:
                    4f:cd:d1:b4:99:2b:e3:55:83:00:82:9d:b1:c7:a6:
                    7b:ca:10:15:01:ea:c5:ed:a8:a8:97:1f:82:32:6e:
                    15:00:41:84:f0:dc:87:e7:40:d8:cb:97:16:e2:41:
                    7d:23:a5:a4:9e:0c:cd:14:12:38:be:fc:15:32:20:
                    d7:fb:16:71:d7:0d:88:ed:4c:0f:9a:03:dd:a0:69:
                    29:c5:ea:dc:c2:37:a0:20:18:be:a0:5a:65:a1:3e:
                    78:9c:5f:47:af:6a:be:69:10:a0:0b:9d:c1:a4:13:
                    be:c1:d9:4f:a7:92:31:b4:27:95:16:c0:10:41:25:
                    3b:e6:cf:b7:06:16:f0:95:14:06:93:5f:91:81:06:
                    d7:b1:d0:38:fc:40:37:1e:1c:0f:05:0a:07:44:8b:
                    64:5f:c4:05:78:d8:58:6a:38:f9:97:12:98:f4:30:
                    16:93
                Exponent: 65537 (0x10001)
        X509v3 extensions:
            X509v3 Subject Key Identifier: 
                33:56:B5:6A:EF:83:5A:96:29:D5:64:57:A8:29:D0:28:D0:1D:D9:53
            X509v3 Authority Key Identifier: 
                keyid:EF:5A:9F:1D:45:27:6D:44:D8:59:31:21:A6:13:90:C9:6A:06:8C:1C
                DirName:/C=US/ST=California/L=Santa Clara/O=pkg5/CN=ta3/emailAddress=ta3
                serial:03:03:B7:3D:13:47:F5:0C:71:63:49:3A:98:BE:46:C0:AE:25:93:49
            X509v3 Basic Constraints: critical
                CA:TRUE
            X509v3 Key Usage: critical
                Certificate Sign, CRL Sign
            X509v3 Subject Alternative Name: 
                email:ch1_ta3
    Signature Algorithm: sha256WithRSAEncryption
    Signature Value:
        4b:74:b2:ce:78:6f:3e:35:d1:06:e1:e2:f3:11:a5:fe:0d:0d:
        2a:b7:e2:5f:04:46:df:6e:05:8c:b2:ac:8e:e4:4c:17:5b:54:
        2f:49:fb:92:5e:41:7f:b6:99:a2:75:00:70:fe:32:f5:55:40:
        86:cb:d9:1b:44:2f:4e:5b:3b:03:9a:19:84:53:f3:69:ca:f7:
        cc:5d:3a:3b:d5:d1:b1:8a:8e:13:b7:c7:32:71:2d:c3:3b:7b:
        2a:b7:1e:5e:5d:4a:52:78:90:51:b2:dd:30:79:4a:94:f7:23:
        b2:cd:09:ee:45:6e:5c:3b:dd:c2:97:14:7e:9b:05:94:9e:be:
        36:04:c5:74:c9:da:67:59:9c:9e:71:fb:fa:f9:2c:5b:cb:bd:
        51:cf:59:98:d2:ed:8a:fe:e8:a4:52:23:04:a0:cc:37:62:4d:
        f0:fd:0f:de:10:f0:8a:c6:7e:2e:ad:12:16:be:c0:55:50:6e:
        bf:98:29:c9:17:7a:d3:a9:09:36:52:81:77:0b:42:3b:11:3f:
        40:d2:4b:71:39:04:2a:8f:44:01:d2:73:45:bf:bf:f6:f6:ee:
        8a:41:03:2f:47:cf:b6:9e:4e:46:c5:2b:89:93:f7:14:5f:7d:
        fe:17:30:6a:16:58:ca:4f:9d:d4:f4:8b:42:24:8d:9c:40:a4:
        f4:61:c0:eb
-----BEGIN CERTIFICATE-----
MIIEVzCCAz+gAwIBAgIBEDANBgkqhkiG9w0BAQsFADBpMQswCQYDVQQGEwJVUzET
MBEGA1UECAwKQ2FsaWZvcm5pYTEUMBIGA1UEBwwLU2FudGEgQ2xhcmExDTALBgNV
BAoMBHBrZzUxDDAKBgNVBAMMA3RhMzESMBAGCSqGSIb3DQEJARYDdGEzMB4XDTIy
MTIxNTE1MzcyMVoXDTI1MDkxMDE1MzcyMVowcTELMAkGA1UEBhMCVVMxEzARBgNV
BAgMCkNhbGlmb3JuaWExFDASBgNVBAcMC1NhbnRhIENsYXJhMQ0wCwYDVQQKDARw
a2c1MRAwDgYDVQQDDAdjaDFfdGEzMRYwFAYJKoZIhvcNAQkBFgdjaDFfdGEzMIIB
IjANBgkqhkiG9w0BAQEFAAOCAQ8AMIIBCgKCAQEAqqzo1cN+xR07WyHoklW/2+cT
ChZrp1GGuUFjR/z1+MXHQb8tqyKE5ZAniKWBll/l/0EKVbYYoxziKh6vYeIpJUqV
W/x6xjPwrcV044scyb0XLuQyytDJ905PzdG0mSvjVYMAgp2xx6Z7yhAVAerF7aio
lx+CMm4VAEGE8NyH50DYy5cW4kF9I6WkngzNFBI4vvwVMiDX+xZx1w2I7UwPmgPd
oGkpxercwjegIBi+oFploT54nF9Hr2q+aRCgC53BpBO+wdlPp5IxtCeVFsAQQSU7
5s+3BhbwlRQGk1+RgQbXsdA4/EA3HhwPBQoHRItkX8QFeNhYajj5lxKY9DAWkwID
AQABo4IBADCB/TAdBgNVHQ4EFgQUM1a1au+DWpYp1WRXqCnQKNAd2VMwgaYGA1Ud
IwSBnjCBm4AU71qfHUUnbUTYWTEhphOQyWoGjByhbaRrMGkxCzAJBgNVBAYTAlVT
MRMwEQYDVQQIDApDYWxpZm9ybmlhMRQwEgYDVQQHDAtTYW50YSBDbGFyYTENMAsG
A1UECgwEcGtnNTEMMAoGA1UEAwwDdGEzMRIwEAYJKoZIhvcNAQkBFgN0YTOCFAMD
tz0TR/UMcWNJOpi+RsCuJZNJMA8GA1UdEwEB/wQFMAMBAf8wDgYDVR0PAQH/BAQD
AgEGMBIGA1UdEQQLMAmBB2NoMV90YTMwDQYJKoZIhvcNAQELBQADggEBAEt0ss54
bz410Qbh4vMRpf4NDSq34l8ERt9uBYyyrI7kTBdbVC9J+5JeQX+2maJ1AHD+MvVV
QIbL2RtEL05bOwOaGYRT82nK98xdOjvV0bGKjhO3xzJxLcM7eyq3Hl5dSlJ4kFGy
3TB5SpT3I7LNCe5Fblw73cKXFH6bBZSevjYExXTJ2mdZnJ5x+/r5LFvLvVHPWZjS
7Yr+6KRSIwSgzDdiTfD9D94Q8IrGfi6tEha+wFVQbr+YKckXetOpCTZSgXcLQjsR
P0DSS3E5BCqPRAHSc0W/v/b27opBAy9Hz7aeTkbFK4mT9xRfff4XMGoWWMpPndT0
i0IkjZxApPRhwOs=
-----END CERTIFICATE-----
