Certificate:
    Data:
        Version: 3 (0x2)
        Serial Number: 34 (0x22)
    Signature Algorithm: sha256WithRSAEncryption
        Issuer: C=US, ST=California, L=Santa Clara, O=pkg5, CN=ta4/emailAddress=ta4
        Validity
            Not Before: Dec  6 03:06:43 2014 GMT
            Not After : Sep  1 03:06:43 2017 GMT
        Subject: C=US, ST=California, L=Santa Clara, O=pkg5, CN=ch1_ta4/emailAddress=ch1_ta4
        Subject Public Key Info:
            Public Key Algorithm: rsaEncryption
                Public-Key: (1024 bit)
                Modulus:
                    00:df:a4:a1:04:0b:a4:df:ca:a1:87:85:c1:97:d2:
                    4f:70:31:38:35:57:1c:4e:e2:df:f1:0a:3b:21:ef:
                    5f:2e:b8:ef:65:cf:dd:7c:37:26:1b:95:a1:71:d1:
                    45:bc:35:20:c5:71:76:ca:d1:ac:21:c9:33:55:7c:
                    80:f9:7c:35:86:42:ac:49:a3:b7:2b:d2:ab:ed:6e:
                    53:03:6e:08:83:50:85:2d:9f:7d:bb:f3:d1:f1:78:
                    b0:a7:72:89:95:46:38:c2:98:3e:4a:c7:83:cd:d3:
                    b4:12:28:39:c8:63:82:e1:c3:7a:16:81:ed:7d:65:
                    c7:96:e7:ad:a8:7b:32:61:ad
                Exponent: 65537 (0x10001)
        X509v3 extensions:
            X509v3 Subject Key Identifier: 
                B7:CD:2E:E3:4E:F8:1F:1C:39:44:2E:36:BD:E6:50:36:3B:96:9D:61
            X509v3 Authority Key Identifier: 
                keyid:84:80:A1:5F:84:9C:D1:C3:B8:50:F3:B8:3F:AA:D1:9A:F4:D8:CF:6F
                DirName:/C=US/ST=California/L=Santa Clara/O=pkg5/CN=ta4/emailAddress=ta4
                serial:EC:FB:57:47:90:39:9D:DF

            X509v3 Basic Constraints: critical
                CA:TRUE
            X509v3 Key Usage: critical
                Certificate Sign, CRL Sign
    Signature Algorithm: sha256WithRSAEncryption
         46:2a:d7:99:84:bb:38:25:92:e7:60:18:53:7a:40:f8:81:7d:
         6a:30:95:3d:6c:0d:81:88:70:94:81:0c:ee:6e:a3:ef:76:c2:
         27:39:95:63:87:3f:fa:1d:8c:84:79:80:b0:e7:8c:e1:2c:0f:
         15:d6:76:2d:7a:87:11:ad:7a:18:ab:40:51:a3:33:3e:1e:a9:
         1c:7a:6b:b2:33:eb:2e:6e:9e:16:0c:4b:7f:6c:96:29:26:48:
         e0:42:13:a3:cc:6d:52:69:3f:2e:dc:52:47:7c:ff:f7:e1:66:
         c7:93:91:03:53:a4:a5:77:54:da:3f:90:c4:22:b3:b8:bc:24:
         64:39
-----BEGIN CERTIFICATE-----
MIIDMjCCApugAwIBAgIBIjANBgkqhkiG9w0BAQsFADBpMQswCQYDVQQGEwJVUzET
MBEGA1UECAwKQ2FsaWZvcm5pYTEUMBIGA1UEBwwLU2FudGEgQ2xhcmExDTALBgNV
BAoMBHBrZzUxDDAKBgNVBAMMA3RhNDESMBAGCSqGSIb3DQEJARYDdGE0MB4XDTE0
MTIwNjAzMDY0M1oXDTE3MDkwMTAzMDY0M1owcTELMAkGA1UEBhMCVVMxEzARBgNV
BAgMCkNhbGlmb3JuaWExFDASBgNVBAcMC1NhbnRhIENsYXJhMQ0wCwYDVQQKDARw
a2c1MRAwDgYDVQQDDAdjaDFfdGE0MRYwFAYJKoZIhvcNAQkBFgdjaDFfdGE0MIGf
MA0GCSqGSIb3DQEBAQUAA4GNADCBiQKBgQDfpKEEC6TfyqGHhcGX0k9wMTg1VxxO
4t/xCjsh718uuO9lz918NyYblaFx0UW8NSDFcXbK0awhyTNVfID5fDWGQqxJo7cr
0qvtblMDbgiDUIUtn32789HxeLCncomVRjjCmD5Kx4PN07QSKDnIY4Lhw3oWge19
ZceW562oezJhrQIDAQABo4HhMIHeMB0GA1UdDgQWBBS3zS7jTvgfHDlELja95lA2
O5adYTCBmwYDVR0jBIGTMIGQgBSEgKFfhJzRw7hQ87g/qtGa9NjPb6FtpGswaTEL
MAkGA1UEBhMCVVMxEzARBgNVBAgMCkNhbGlmb3JuaWExFDASBgNVBAcMC1NhbnRh
IENsYXJhMQ0wCwYDVQQKDARwa2c1MQwwCgYDVQQDDAN0YTQxEjAQBgkqhkiG9w0B
CQEWA3RhNIIJAOz7V0eQOZ3fMA8GA1UdEwEB/wQFMAMBAf8wDgYDVR0PAQH/BAQD
AgEGMA0GCSqGSIb3DQEBCwUAA4GBAEYq15mEuzglkudgGFN6QPiBfWowlT1sDYGI
cJSBDO5uo+92wic5lWOHP/odjIR5gLDnjOEsDxXWdi16hxGtehirQFGjMz4eqRx6
a7Iz6y5unhYMS39slikmSOBCE6PMbVJpPy7cUkd8//fhZseTkQNTpKV3VNo/kMQi
s7i8JGQ5
-----END CERTIFICATE-----
