Certificate:
    Data:
        Version: 3 (0x2)
        Serial Number: 41 (0x29)
        Signature Algorithm: sha256WithRSAEncryption
        Issuer: C=US, ST=California, L=Santa Clara, O=pkg5, CN=ta5/emailAddress=ta5
        Validity
            Not Before: Dec 15 15:37:31 2022 GMT
            Not After : Sep 10 15:37:31 2025 GMT
        Subject: C=US, ST=California, L=Santa Clara, O=pkg5, CN=ch1_ta5/emailAddress=ch1_ta5
        Subject Public Key Info:
            Public Key Algorithm: rsaEncryption
                Public-Key: (2048 bit)
                Modulus:
                    00:b3:aa:c0:b3:b1:72:52:59:1c:1f:bb:eb:8c:ba:
                    b1:a7:39:c0:74:4f:2a:68:c6:7f:d8:26:42:40:04:
                    ba:7c:37:67:cc:e8:09:c1:62:27:ba:c9:c1:a0:91:
                    0a:29:42:85:45:53:c8:37:65:ef:b9:99:b6:34:b8:
                    cb:a4:c6:7e:0d:c7:f6:7c:6d:e7:2f:3f:4d:84:a0:
                    b1:77:a0:3c:50:86:25:89:58:bd:40:df:2a:a3:1f:
                    6a:86:cc:7b:e0:52:ed:b1:bd:7a:97:08:69:f2:50:
                    ca:24:6d:be:46:f4:e7:e2:bd:9f:ba:04:1d:72:6e:
                    58:3a:71:09:67:c0:1c:99:9f:2f:5e:83:0b:f1:e4:
                    0e:45:34:92:35:ef:b4:e0:01:75:69:63:86:e2:6b:
                    83:ea:db:ab:ef:d5:e5:1f:76:19:e2:9b:2c:12:73:
                    36:5f:d5:04:cf:1c:02:7f:79:23:5c:9f:3c:56:cb:
                    87:f1:7d:72:b6:bb:56:d6:b5:99:c2:b7:3d:78:45:
                    25:b9:9a:de:46:a7:d8:c6:fe:30:b1:b4:86:c2:e5:
                    b0:e5:47:55:cc:97:25:42:88:a5:44:9c:56:32:cf:
                    e0:80:e7:07:cb:36:49:f5:69:5a:75:21:a0:a2:36:
                    16:e1:20:df:c2:ee:c6:42:53:ae:43:f9:9a:72:e4:
                    a5:93
                Exponent: 65537 (0x10001)
        X509v3 extensions:
            X509v3 Subject Key Identifier: 
                2A:99:33:5F:D4:B0:C8:9E:5F:CA:E9:BF:7C:1B:7B:63:F4:0C:17:BB
            X509v3 Authority Key Identifier: 
                keyid:91:36:11:B7:86:7E:75:74:39:F5:7F:F3:58:B2:09:77:7F:10:1D:7C
                DirName:/C=US/ST=California/L=Santa Clara/O=pkg5/CN=ta5/emailAddress=ta5
                serial:4A:B0:AF:7C:C5:7A:4C:D3:CE:C9:7B:AD:36:6D:63:16:80:38:E6:F1
            X509v3 Basic Constraints: critical
                CA:TRUE
            X509v3 CRL Distribution Points: 
                Full Name:
                  URI:http://localhost:12001/file/0/ta5_crl.pem
            X509v3 Key Usage: critical
                Certificate Sign, CRL Sign
    Signature Algorithm: sha256WithRSAEncryption
    Signature Value:
        1a:a2:e4:a7:30:f2:19:26:32:3c:52:bf:38:d3:0a:05:ce:51:
        08:f4:0e:33:3c:56:a8:f2:00:11:f2:86:ac:a5:7e:1b:83:49:
        fe:44:7b:7d:43:47:2d:05:a6:d2:46:67:e6:74:a9:75:44:91:
        79:9e:7d:d8:57:22:fe:04:ee:04:7c:ea:99:f9:13:92:03:ed:
        0b:fc:a4:e0:e9:96:ba:1e:c1:75:3b:3d:53:a4:d6:97:31:5f:
        66:0d:5b:11:e8:8b:ef:5f:2e:b4:2e:be:a1:21:7e:b5:3c:86:
        fc:93:cd:df:47:97:f9:6c:86:75:19:36:c7:b6:8c:4b:2b:7c:
        c9:8b:49:47:f2:42:9f:c5:b7:32:f4:ec:8c:7b:85:f5:af:68:
        de:54:81:61:8a:de:b5:a9:7f:0c:de:60:9b:e4:96:88:36:d2:
        3e:da:c8:da:ed:ae:d5:4b:19:19:91:9e:60:c1:c5:33:97:0d:
        e3:6e:ec:a0:e1:f4:5b:0f:b6:db:98:ec:08:cf:57:c7:fc:32:
        86:a6:41:4d:69:13:e3:fc:5f:d4:21:80:d2:81:27:fb:1c:46:
        a3:96:88:ca:23:45:16:b9:a5:09:6b:d1:c0:40:bb:b5:05:b9:
        af:ef:48:3b:2a:32:ef:c5:a9:eb:a4:7b:77:ed:3c:c4:d0:a2:
        59:e1:a4:b4
-----BEGIN CERTIFICATE-----
MIIEgDCCA2igAwIBAgIBKTANBgkqhkiG9w0BAQsFADBpMQswCQYDVQQGEwJVUzET
MBEGA1UECAwKQ2FsaWZvcm5pYTEUMBIGA1UEBwwLU2FudGEgQ2xhcmExDTALBgNV
BAoMBHBrZzUxDDAKBgNVBAMMA3RhNTESMBAGCSqGSIb3DQEJARYDdGE1MB4XDTIy
MTIxNTE1MzczMVoXDTI1MDkxMDE1MzczMVowcTELMAkGA1UEBhMCVVMxEzARBgNV
BAgMCkNhbGlmb3JuaWExFDASBgNVBAcMC1NhbnRhIENsYXJhMQ0wCwYDVQQKDARw
a2c1MRAwDgYDVQQDDAdjaDFfdGE1MRYwFAYJKoZIhvcNAQkBFgdjaDFfdGE1MIIB
IjANBgkqhkiG9w0BAQEFAAOCAQ8AMIIBCgKCAQEAs6rAs7FyUlkcH7vrjLqxpznA
dE8qaMZ/2CZCQAS6fDdnzOgJwWInusnBoJEKKUKFRVPIN2XvuZm2NLjLpMZ+Dcf2
fG3nLz9NhKCxd6A8UIYliVi9QN8qox9qhsx74FLtsb16lwhp8lDKJG2+RvTn4r2f
ugQdcm5YOnEJZ8AcmZ8vXoML8eQORTSSNe+04AF1aWOG4muD6tur79XlH3YZ4pss
EnM2X9UEzxwCf3kjXJ88VsuH8X1ytrtW1rWZwrc9eEUluZreRqfYxv4wsbSGwuWw
5UdVzJclQoilRJxWMs/ggOcHyzZJ9WladSGgojYW4SDfwu7GQlOuQ/macuSlkwID
AQABo4IBKTCCASUwHQYDVR0OBBYEFCqZM1/UsMieX8rpv3wbe2P0DBe7MIGmBgNV
HSMEgZ4wgZuAFJE2EbeGfnV0OfV/81iyCXd/EB18oW2kazBpMQswCQYDVQQGEwJV
UzETMBEGA1UECAwKQ2FsaWZvcm5pYTEUMBIGA1UEBwwLU2FudGEgQ2xhcmExDTAL
BgNVBAoMBHBrZzUxDDAKBgNVBAMMA3RhNTESMBAGCSqGSIb3DQEJARYDdGE1ghRK
sK98xXpM087Je602bWMWgDjm8TAPBgNVHRMBAf8EBTADAQH/MDoGA1UdHwQzMDEw
L6AtoCuGKWh0dHA6Ly9sb2NhbGhvc3Q6MTIwMDEvZmlsZS8wL3RhNV9jcmwucGVt
MA4GA1UdDwEB/wQEAwIBBjANBgkqhkiG9w0BAQsFAAOCAQEAGqLkpzDyGSYyPFK/
ONMKBc5RCPQOMzxWqPIAEfKGrKV+G4NJ/kR7fUNHLQWm0kZn5nSpdUSReZ592Fci
/gTuBHzqmfkTkgPtC/yk4OmWuh7BdTs9U6TWlzFfZg1bEeiL718utC6+oSF+tTyG
/JPN30eX+WyGdRk2x7aMSyt8yYtJR/JCn8W3MvTsjHuF9a9o3lSBYYretal/DN5g
m+SWiDbSPtrI2u2u1UsZGZGeYMHFM5cN427soOH0Ww+225jsCM9Xx/wyhqZBTWkT
4/xf1CGA0oEn+xxGo5aIyiNFFrmlCWvRwEC7tQW5r+9IOyoy78Wp66R7d+08xNCi
WeGktA==
-----END CERTIFICATE-----
