Certificate:
    Data:
        Version: 3 (0x2)
        Serial Number: 41 (0x29)
        Signature Algorithm: sha256WithRSAEncryption
        Issuer: C=US, ST=California, L=Santa Clara, O=pkg5, CN=ta5/emailAddress=ta5
        Validity
            Not Before: Oct 24 21:43:14 2023 GMT
            Not After : Jul 20 21:43:14 2026 GMT
        Subject: C=US, ST=California, L=Santa Clara, O=pkg5, CN=ch1_ta5/emailAddress=ch1_ta5
        Subject Public Key Info:
            Public Key Algorithm: rsaEncryption
                Public-Key: (2048 bit)
                Modulus:
                    00:c5:64:ff:e5:e3:e3:28:69:a3:8d:bc:e2:f9:2d:
                    c0:8f:c4:84:42:6a:b2:a2:a2:30:31:99:3b:fe:a2:
                    40:9c:26:cb:91:67:77:93:36:2a:ca:af:c3:98:1c:
                    36:28:42:7c:43:a2:09:33:ae:bb:38:b6:8f:57:5b:
                    60:a8:73:db:ae:f9:fa:d5:c8:d2:3f:f0:ad:cd:6f:
                    64:d3:ec:65:f1:de:b7:cc:5a:a9:c1:c4:5b:99:f6:
                    37:9f:02:43:56:0e:0b:81:9a:9a:cb:be:9c:82:83:
                    61:fc:c5:7e:bf:a4:e9:c8:3e:f6:bc:e6:56:ac:b6:
                    e9:43:66:b6:e0:11:44:d2:72:6a:d9:d1:7c:60:ea:
                    94:a7:d1:08:20:c9:10:4a:c5:ef:7a:fe:eb:54:db:
                    7e:97:34:27:61:70:b8:b7:27:84:13:c2:99:d3:a1:
                    37:c9:d3:bd:1b:79:1d:e3:72:9d:2d:3d:2d:06:ba:
                    d3:20:3e:ee:cc:fb:36:89:4d:f0:1b:18:f8:21:f5:
                    7f:e0:06:b0:d5:d1:2c:0a:df:ac:67:b7:26:5c:9f:
                    ca:c1:ce:4b:fe:79:4c:cd:cf:81:95:f2:23:1f:79:
                    e5:a3:99:4d:2b:2b:65:81:8c:a1:48:d9:83:59:f5:
                    f3:f2:95:79:c0:59:0a:ef:5c:3f:a5:4e:01:07:83:
                    5b:67
                Exponent: 65537 (0x10001)
        X509v3 extensions:
            X509v3 Subject Key Identifier: 
                6C:6B:53:EF:C0:AD:D4:CD:56:45:90:51:85:8D:E8:12:2F:65:BA:F1
            X509v3 Authority Key Identifier: 
                keyid:0A:64:AF:3B:AC:A1:C2:3D:AF:43:F9:33:AE:4D:2F:AE:C4:85:4D:4F
                DirName:/C=US/ST=California/L=Santa Clara/O=pkg5/CN=ta5/emailAddress=ta5
                serial:36:4B:98:76:0A:5C:42:7B:41:EF:1E:CC:AC:86:03:01:54:49:94:C0
            X509v3 Basic Constraints: critical
                CA:TRUE
            X509v3 CRL Distribution Points: 
                Full Name:
                  URI:http://localhost:12001/file/0/ta5_crl.pem
            X509v3 Key Usage: critical
                Certificate Sign, CRL Sign
    Signature Algorithm: sha256WithRSAEncryption
    Signature Value:
        87:fb:fb:32:c1:79:87:b5:d6:a1:6d:ac:13:d2:7c:98:29:ae:
        9c:8c:20:33:ad:75:ed:18:c1:84:aa:c7:14:66:85:80:d8:63:
        6a:4a:a0:d8:2a:5d:84:52:ab:5e:dc:b5:58:f7:75:5c:b4:2e:
        e1:8a:71:8a:e3:e8:75:76:38:43:b2:94:40:9f:79:df:5e:0e:
        fe:8e:cd:f9:ad:21:ce:3e:ff:a1:c5:d3:93:66:03:d8:47:2f:
        62:e1:38:df:2f:6d:33:a3:45:92:93:0d:95:c4:26:e5:14:b7:
        8b:62:d3:93:3f:ca:5e:69:85:7c:e5:cc:c3:99:de:e9:a7:a2:
        78:fc:90:c2:51:ad:4e:3c:ab:8a:58:eb:c5:f1:31:91:7b:62:
        cb:b9:56:04:bb:69:12:f6:c1:4c:3c:38:75:0f:d1:44:19:91:
        a5:22:2a:f9:1f:9f:f6:48:90:30:62:f7:bd:bb:91:60:5c:4f:
        fa:b6:71:9b:a7:3a:6d:5c:56:01:a5:cb:c6:e5:2e:12:d7:0a:
        48:3e:1e:54:4e:01:90:16:fe:0c:9f:a9:d0:81:23:a0:e2:ca:
        c0:6e:a0:5b:d5:46:90:67:89:bf:bd:1b:18:c7:02:2c:a3:ae:
        80:b8:05:08:28:b2:b2:32:4e:98:13:88:ce:ec:ae:3f:c3:ba:
        b0:df:86:a3
-----BEGIN CERTIFICATE-----
MIIEgDCCA2igAwIBAgIBKTANBgkqhkiG9w0BAQsFADBpMQswCQYDVQQGEwJVUzET
MBEGA1UECAwKQ2FsaWZvcm5pYTEUMBIGA1UEBwwLU2FudGEgQ2xhcmExDTALBgNV
BAoMBHBrZzUxDDAKBgNVBAMMA3RhNTESMBAGCSqGSIb3DQEJARYDdGE1MB4XDTIz
MTAyNDIxNDMxNFoXDTI2MDcyMDIxNDMxNFowcTELMAkGA1UEBhMCVVMxEzARBgNV
BAgMCkNhbGlmb3JuaWExFDASBgNVBAcMC1NhbnRhIENsYXJhMQ0wCwYDVQQKDARw
a2c1MRAwDgYDVQQDDAdjaDFfdGE1MRYwFAYJKoZIhvcNAQkBFgdjaDFfdGE1MIIB
IjANBgkqhkiG9w0BAQEFAAOCAQ8AMIIBCgKCAQEAxWT/5ePjKGmjjbzi+S3Aj8SE
QmqyoqIwMZk7/qJAnCbLkWd3kzYqyq/DmBw2KEJ8Q6IJM667OLaPV1tgqHPbrvn6
1cjSP/CtzW9k0+xl8d63zFqpwcRbmfY3nwJDVg4LgZqay76cgoNh/MV+v6TpyD72
vOZWrLbpQ2a24BFE0nJq2dF8YOqUp9EIIMkQSsXvev7rVNt+lzQnYXC4tyeEE8KZ
06E3ydO9G3kd43KdLT0tBrrTID7uzPs2iU3wGxj4IfV/4Aaw1dEsCt+sZ7cmXJ/K
wc5L/nlMzc+BlfIjH3nlo5lNKytlgYyhSNmDWfXz8pV5wFkK71w/pU4BB4NbZwID
AQABo4IBKTCCASUwHQYDVR0OBBYEFGxrU+/ArdTNVkWQUYWN6BIvZbrxMIGmBgNV
HSMEgZ4wgZuAFApkrzusocI9r0P5M65NL67EhU1PoW2kazBpMQswCQYDVQQGEwJV
UzETMBEGA1UECAwKQ2FsaWZvcm5pYTEUMBIGA1UEBwwLU2FudGEgQ2xhcmExDTAL
BgNVBAoMBHBrZzUxDDAKBgNVBAMMA3RhNTESMBAGCSqGSIb3DQEJARYDdGE1ghQ2
S5h2ClxCe0HvHsyshgMBVEmUwDAPBgNVHRMBAf8EBTADAQH/MDoGA1UdHwQzMDEw
L6AtoCuGKWh0dHA6Ly9sb2NhbGhvc3Q6MTIwMDEvZmlsZS8wL3RhNV9jcmwucGVt
MA4GA1UdDwEB/wQEAwIBBjANBgkqhkiG9w0BAQsFAAOCAQEAh/v7MsF5h7XWoW2s
E9J8mCmunIwgM6117RjBhKrHFGaFgNhjakqg2CpdhFKrXty1WPd1XLQu4YpxiuPo
dXY4Q7KUQJ95314O/o7N+a0hzj7/ocXTk2YD2EcvYuE43y9tM6NFkpMNlcQm5RS3
i2LTkz/KXmmFfOXMw5ne6aeiePyQwlGtTjyriljrxfExkXtiy7lWBLtpEvbBTDw4
dQ/RRBmRpSIq+R+f9kiQMGL3vbuRYFxP+rZxm6c6bVxWAaXLxuUuEtcKSD4eVE4B
kBb+DJ+p0IEjoOLKwG6gW9VGkGeJv70bGMcCLKOugLgFCCiysjJOmBOIzuyuP8O6
sN+Gow==
-----END CERTIFICATE-----
