Certificate:
    Data:
        Version: 3 (0x2)
        Serial Number: 16 (0x10)
        Signature Algorithm: sha256WithRSAEncryption
        Issuer: C=US, ST=California, L=Santa Clara, O=pkg5, CN=ta3/emailAddress=ta3
        Validity
            Not Before: Oct 24 21:43:04 2023 GMT
            Not After : Jul 20 21:43:04 2026 GMT
        Subject: C=US, ST=California, L=Santa Clara, O=pkg5, CN=ch1_ta3/emailAddress=ch1_ta3
        Subject Public Key Info:
            Public Key Algorithm: rsaEncryption
                Public-Key: (2048 bit)
                Modulus:
                    00:9c:22:b4:4c:f6:33:77:e8:e4:ee:6d:82:44:ab:
                    5a:28:00:71:5b:f4:ec:72:35:2c:1d:7a:e1:2f:8f:
                    5f:a6:78:b3:1d:f2:d5:ce:6c:9b:b8:9b:4d:5e:ee:
                    9e:25:2b:57:e9:a3:47:22:9b:9a:54:8e:5c:c2:b7:
                    11:d3:04:1e:2b:01:87:bd:79:88:8e:ac:87:89:d3:
                    08:e3:bd:38:3e:69:8b:da:d7:21:fd:ed:c5:73:ef:
                    15:3b:00:f0:14:14:2d:3b:a3:32:e7:01:e4:81:e5:
                    a5:1a:da:f6:71:65:f1:e1:8d:28:4e:9c:ca:ac:1f:
                    07:f6:e6:d4:80:bc:e2:23:d8:cc:c1:dc:25:fa:92:
                    fb:31:37:77:30:99:a1:ff:a3:42:e0:c6:ac:3b:e7:
                    c4:55:a6:3d:09:fa:37:45:c4:a7:a9:87:5b:cf:cd:
                    20:a1:a5:2e:72:64:12:fe:5c:8f:72:45:9f:35:8d:
                    f8:74:99:15:b4:7d:23:b9:88:93:c8:80:13:e4:6d:
                    94:35:66:a9:1f:a5:a1:4b:c2:1c:7f:5c:69:e9:a0:
                    45:cc:a2:21:a7:01:20:dc:6a:ef:0d:72:ab:f6:8e:
                    7f:9e:f7:88:0d:87:52:a2:08:42:a9:36:a5:5e:49:
                    ec:1f:0a:07:70:34:59:36:43:b0:c5:0f:ed:5f:79:
                    8f:f7
                Exponent: 65537 (0x10001)
        X509v3 extensions:
            X509v3 Subject Key Identifier: 
                EC:04:9D:52:42:13:3C:0B:DA:EF:1D:7E:FD:8C:02:F4:74:FA:24:6D
            X509v3 Authority Key Identifier: 
                keyid:DC:83:FD:15:4A:D3:A8:E9:0B:C4:90:16:2F:FE:AA:F4:AB:B7:EC:E3
                DirName:/C=US/ST=California/L=Santa Clara/O=pkg5/CN=ta3/emailAddress=ta3
                serial:54:04:4F:D7:5E:93:DA:45:DC:6F:3A:6E:37:AE:D3:81:91:BE:7E:72
            X509v3 Basic Constraints: critical
                CA:TRUE
            X509v3 Key Usage: critical
                Certificate Sign, CRL Sign
            X509v3 Subject Alternative Name: 
                email:ch1_ta3
    Signature Algorithm: sha256WithRSAEncryption
    Signature Value:
        a0:36:7a:5c:47:1a:4f:d9:23:41:ea:13:88:d9:ab:cd:91:4a:
        32:07:77:be:0a:20:04:31:a2:fb:3f:4b:56:0b:ea:ff:66:f2:
        43:7b:07:3d:3c:49:14:a6:e8:37:5d:12:02:ad:2a:bb:29:61:
        ca:fd:77:ca:5a:3f:c9:25:18:49:99:48:09:e9:e8:8c:e4:fe:
        e3:3e:90:28:6f:5b:f0:24:28:8d:33:50:21:78:e5:53:d0:32:
        3a:52:12:42:e6:04:b8:f6:0c:8a:41:e2:fc:8f:a9:40:76:09:
        43:72:a7:a7:ed:9a:b0:00:13:45:2a:cc:e9:b4:de:8a:81:fe:
        75:04:45:99:84:c0:d4:99:e1:6b:b3:db:e1:78:fe:77:98:8e:
        05:44:d4:8b:87:0d:22:f0:10:9f:df:6f:f4:94:1b:20:c1:79:
        da:72:f3:58:9b:75:ad:d6:f6:f7:bd:5e:51:59:a9:b3:48:77:
        b4:ac:ab:f2:78:64:13:5c:3f:9e:97:26:64:cd:2c:75:8e:a9:
        a3:00:bb:de:69:31:28:3a:40:98:fd:d3:8f:92:b5:d2:23:ed:
        19:78:4d:91:6f:50:7e:ee:b1:52:83:2a:c8:05:f8:67:e8:37:
        00:03:11:c9:23:1a:35:70:2c:13:2c:22:f2:04:17:99:e4:19:
        eb:ad:f6:35
-----BEGIN CERTIFICATE-----
MIIEVzCCAz+gAwIBAgIBEDANBgkqhkiG9w0BAQsFADBpMQswCQYDVQQGEwJVUzET
MBEGA1UECAwKQ2FsaWZvcm5pYTEUMBIGA1UEBwwLU2FudGEgQ2xhcmExDTALBgNV
BAoMBHBrZzUxDDAKBgNVBAMMA3RhMzESMBAGCSqGSIb3DQEJARYDdGEzMB4XDTIz
MTAyNDIxNDMwNFoXDTI2MDcyMDIxNDMwNFowcTELMAkGA1UEBhMCVVMxEzARBgNV
BAgMCkNhbGlmb3JuaWExFDASBgNVBAcMC1NhbnRhIENsYXJhMQ0wCwYDVQQKDARw
a2c1MRAwDgYDVQQDDAdjaDFfdGEzMRYwFAYJKoZIhvcNAQkBFgdjaDFfdGEzMIIB
IjANBgkqhkiG9w0BAQEFAAOCAQ8AMIIBCgKCAQEAnCK0TPYzd+jk7m2CRKtaKABx
W/TscjUsHXrhL49fpnizHfLVzmybuJtNXu6eJStX6aNHIpuaVI5cwrcR0wQeKwGH
vXmIjqyHidMI4704PmmL2tch/e3Fc+8VOwDwFBQtO6My5wHkgeWlGtr2cWXx4Y0o
TpzKrB8H9ubUgLziI9jMwdwl+pL7MTd3MJmh/6NC4MasO+fEVaY9Cfo3RcSnqYdb
z80goaUucmQS/lyPckWfNY34dJkVtH0juYiTyIAT5G2UNWapH6WhS8Icf1xp6aBF
zKIhpwEg3GrvDXKr9o5/nveIDYdSoghCqTalXknsHwoHcDRZNkOwxQ/tX3mP9wID
AQABo4IBADCB/TAdBgNVHQ4EFgQU7ASdUkITPAva7x1+/YwC9HT6JG0wgaYGA1Ud
IwSBnjCBm4AU3IP9FUrTqOkLxJAWL/6q9Ku37OOhbaRrMGkxCzAJBgNVBAYTAlVT
MRMwEQYDVQQIDApDYWxpZm9ybmlhMRQwEgYDVQQHDAtTYW50YSBDbGFyYTENMAsG
A1UECgwEcGtnNTEMMAoGA1UEAwwDdGEzMRIwEAYJKoZIhvcNAQkBFgN0YTOCFFQE
T9dek9pF3G86bjeu04GRvn5yMA8GA1UdEwEB/wQFMAMBAf8wDgYDVR0PAQH/BAQD
AgEGMBIGA1UdEQQLMAmBB2NoMV90YTMwDQYJKoZIhvcNAQELBQADggEBAKA2elxH
Gk/ZI0HqE4jZq82RSjIHd74KIAQxovs/S1YL6v9m8kN7Bz08SRSm6DddEgKtKrsp
Ycr9d8paP8klGEmZSAnp6Izk/uM+kChvW/AkKI0zUCF45VPQMjpSEkLmBLj2DIpB
4vyPqUB2CUNyp6ftmrAAE0UqzOm03oqB/nUERZmEwNSZ4Wuz2+F4/neYjgVE1IuH
DSLwEJ/fb/SUGyDBedpy81ibda3W9ve9XlFZqbNId7Ssq/J4ZBNcP56XJmTNLHWO
qaMAu95pMSg6QJj904+StdIj7Rl4TZFvUH7usVKDKsgF+GfoNwADEckjGjVwLBMs
IvIEF5nkGeut9jU=
-----END CERTIFICATE-----
