Certificate:
    Data:
        Version: 3 (0x2)
        Serial Number: 41 (0x29)
        Signature Algorithm: sha256WithRSAEncryption
        Issuer: C=US, ST=California, L=Santa Clara, O=pkg5, CN=ta5/emailAddress=ta5
        Validity
            Not Before: Oct 22 10:15:21 2021 GMT
            Not After : Jul 18 10:15:21 2024 GMT
        Subject: C=US, ST=California, L=Santa Clara, O=pkg5, CN=ch1_ta5/emailAddress=ch1_ta5
        Subject Public Key Info:
            Public Key Algorithm: rsaEncryption
                Public-Key: (2048 bit)
                Modulus:
                    00:a5:28:1e:f4:24:61:a6:df:60:1a:3a:53:4c:e2:
                    a4:95:ec:6a:c5:cf:4f:2a:0d:9d:7f:64:52:ed:08:
                    6a:0d:75:46:4d:51:be:c5:f2:b2:db:0b:5c:73:fc:
                    37:d2:fd:5e:7b:cc:93:59:ad:82:09:99:dc:46:2a:
                    e0:ea:df:f7:92:a0:2f:aa:68:bb:e7:53:45:7b:2d:
                    6f:4f:8a:4e:d3:3c:12:73:3f:94:28:25:ac:b3:1c:
                    b4:a8:8b:89:5f:ea:69:85:0d:1f:e7:b2:4c:2a:fd:
                    5b:1e:89:f5:df:1f:bd:4a:60:4e:c3:aa:7c:14:77:
                    ee:ff:da:f8:79:e7:59:57:80:83:42:cb:fc:93:06:
                    58:f1:84:fe:1a:69:f8:64:df:4d:60:30:d1:39:ee:
                    76:49:51:0c:74:cf:3c:96:d6:d2:e9:1d:84:6e:11:
                    3f:ec:27:be:04:76:e5:cf:c0:59:42:22:87:5f:ea:
                    be:96:4a:73:60:60:80:7b:c5:67:ae:10:1b:73:a4:
                    c1:fb:8c:63:e0:d6:e5:f2:ba:f1:2b:09:9b:b7:72:
                    fd:9a:b9:df:93:14:97:9d:e0:ae:66:ab:47:8c:a7:
                    4c:8c:ce:a3:ba:3e:d4:17:5b:d7:e9:b1:77:c0:d3:
                    d0:ef:15:d1:f9:f0:1e:bd:d4:ce:a8:6c:76:cd:24:
                    53:53
                Exponent: 65537 (0x10001)
        X509v3 extensions:
            X509v3 Subject Key Identifier: 
                13:AE:74:F3:AC:8A:72:30:04:8C:4B:5E:26:22:B3:00:D9:CC:AD:4B
            X509v3 Authority Key Identifier: 
                keyid:C1:AF:FD:B2:68:2B:17:ED:10:35:5E:BE:0B:D7:57:B1:6F:EC:16:37
                DirName:/C=US/ST=California/L=Santa Clara/O=pkg5/CN=ta5/emailAddress=ta5
                serial:78:D6:BB:E1:91:28:78:BF:0A:65:76:FA:94:9E:54:37:89:E3:EC:1F
            X509v3 Basic Constraints: critical
                CA:TRUE
            X509v3 CRL Distribution Points: 
                Full Name:
                  URI:http://localhost:12001/file/0/ta5_crl.pem
            X509v3 Key Usage: critical
                Certificate Sign, CRL Sign
    Signature Algorithm: sha256WithRSAEncryption
    Signature Value:
        3d:a0:ba:b1:4e:6c:ee:15:f8:8b:35:45:0f:6a:d3:90:df:9a:
        01:1e:fd:68:5b:a4:29:ca:f5:00:cd:03:96:51:fa:76:d5:17:
        91:5e:74:41:2d:1c:30:95:a2:06:d1:6b:70:ab:0d:a3:11:46:
        55:1e:f4:b0:2f:f7:cc:bb:51:01:b7:a0:e3:87:af:7a:17:d6:
        00:6e:c3:59:22:7d:d1:88:9b:0f:fd:aa:a7:64:c3:bf:f4:88:
        b3:71:84:45:4a:c7:85:9a:17:b6:e5:b1:3d:20:f3:ed:dd:f1:
        d1:2f:94:4d:4f:2f:44:1c:75:55:eb:75:8f:7d:c9:00:e4:9e:
        7a:fe:01:9f:a9:76:db:3d:55:25:35:c6:94:13:b3:15:17:15:
        8d:b2:b2:af:1b:f5:b3:90:7c:92:a1:eb:a7:5b:a5:7b:31:a9:
        f5:e7:49:f8:f0:ed:de:ae:94:a9:eb:22:85:ee:6e:ad:af:d6:
        0f:a2:11:94:8b:56:e3:e6:ea:ca:54:d7:39:47:7f:86:80:8d:
        c1:04:05:33:33:08:6d:9c:81:7d:3f:84:a3:55:0d:c0:d8:f5:
        76:fc:a5:15:9c:1d:3b:e5:94:9c:19:9a:62:3c:a7:f4:06:6d:
        83:6e:5e:73:c8:3e:95:4b:db:67:57:5d:7a:b0:22:a6:f9:96:
        0c:af:16:29
-----BEGIN CERTIFICATE-----
MIIEgDCCA2igAwIBAgIBKTANBgkqhkiG9w0BAQsFADBpMQswCQYDVQQGEwJVUzET
MBEGA1UECAwKQ2FsaWZvcm5pYTEUMBIGA1UEBwwLU2FudGEgQ2xhcmExDTALBgNV
BAoMBHBrZzUxDDAKBgNVBAMMA3RhNTESMBAGCSqGSIb3DQEJARYDdGE1MB4XDTIx
MTAyMjEwMTUyMVoXDTI0MDcxODEwMTUyMVowcTELMAkGA1UEBhMCVVMxEzARBgNV
BAgMCkNhbGlmb3JuaWExFDASBgNVBAcMC1NhbnRhIENsYXJhMQ0wCwYDVQQKDARw
a2c1MRAwDgYDVQQDDAdjaDFfdGE1MRYwFAYJKoZIhvcNAQkBFgdjaDFfdGE1MIIB
IjANBgkqhkiG9w0BAQEFAAOCAQ8AMIIBCgKCAQEApSge9CRhpt9gGjpTTOKklexq
xc9PKg2df2RS7QhqDXVGTVG+xfKy2wtcc/w30v1ee8yTWa2CCZncRirg6t/3kqAv
qmi751NFey1vT4pO0zwScz+UKCWssxy0qIuJX+pphQ0f57JMKv1bHon13x+9SmBO
w6p8FHfu/9r4eedZV4CDQsv8kwZY8YT+Gmn4ZN9NYDDROe52SVEMdM88ltbS6R2E
bhE/7Ce+BHblz8BZQiKHX+q+lkpzYGCAe8VnrhAbc6TB+4xj4Nbl8rrxKwmbt3L9
mrnfkxSXneCuZqtHjKdMjM6juj7UF1vX6bF3wNPQ7xXR+fAevdTOqGx2zSRTUwID
AQABo4IBKTCCASUwHQYDVR0OBBYEFBOudPOsinIwBIxLXiYiswDZzK1LMIGmBgNV
HSMEgZ4wgZuAFMGv/bJoKxftEDVevgvXV7Fv7BY3oW2kazBpMQswCQYDVQQGEwJV
UzETMBEGA1UECAwKQ2FsaWZvcm5pYTEUMBIGA1UEBwwLU2FudGEgQ2xhcmExDTAL
BgNVBAoMBHBrZzUxDDAKBgNVBAMMA3RhNTESMBAGCSqGSIb3DQEJARYDdGE1ghR4
1rvhkSh4vwpldvqUnlQ3iePsHzAPBgNVHRMBAf8EBTADAQH/MDoGA1UdHwQzMDEw
L6AtoCuGKWh0dHA6Ly9sb2NhbGhvc3Q6MTIwMDEvZmlsZS8wL3RhNV9jcmwucGVt
MA4GA1UdDwEB/wQEAwIBBjANBgkqhkiG9w0BAQsFAAOCAQEAPaC6sU5s7hX4izVF
D2rTkN+aAR79aFukKcr1AM0DllH6dtUXkV50QS0cMJWiBtFrcKsNoxFGVR70sC/3
zLtRAbeg44evehfWAG7DWSJ90YibD/2qp2TDv/SIs3GERUrHhZoXtuWxPSDz7d3x
0S+UTU8vRBx1Vet1j33JAOSeev4Bn6l22z1VJTXGlBOzFRcVjbKyrxv1s5B8kqHr
p1ulezGp9edJ+PDt3q6Uqesihe5ura/WD6IRlItW4+bqylTXOUd/hoCNwQQFMzMI
bZyBfT+Eo1UNwNj1dvylFZwdO+WUnBmaYjyn9AZtg25ec8g+lUvbZ1dderAipvmW
DK8WKQ==
-----END CERTIFICATE-----
