Certificate:
    Data:
        Version: 3 (0x2)
        Serial Number: 16 (0x10)
        Signature Algorithm: sha256WithRSAEncryption
        Issuer: C=US, ST=California, L=Santa Clara, O=pkg5, CN=ta3/emailAddress=ta3
        Validity
            Not Before: Nov 14 14:26:53 2024 GMT
            Not After : Aug 11 14:26:53 2027 GMT
        Subject: C=US, ST=California, L=Santa Clara, O=pkg5, CN=ch1_ta3/emailAddress=ch1_ta3
        Subject Public Key Info:
            Public Key Algorithm: rsaEncryption
                Public-Key: (2048 bit)
                Modulus:
                    00:e0:a1:24:11:5c:f5:ea:6d:26:3d:72:a4:87:83:
                    29:d5:4e:20:37:ea:3c:af:87:3e:95:4c:eb:49:cf:
                    d7:9d:ca:1f:00:0f:a4:21:ea:28:fc:38:0d:b3:e6:
                    cf:af:d6:34:a7:b8:bf:37:68:52:af:aa:6c:11:80:
                    0b:9a:36:1b:5c:67:9b:aa:b1:65:fa:92:0c:6b:9a:
                    eb:bc:d7:3a:a9:6f:da:47:7a:e5:54:13:57:78:c8:
                    66:55:6c:79:01:89:c3:38:08:93:9e:ca:ac:32:51:
                    62:1b:cf:37:1e:ad:4e:6d:34:4d:40:42:d9:36:59:
                    c9:a1:af:b8:2d:5c:a7:32:7d:de:66:1f:e6:17:4f:
                    df:11:df:90:7d:21:12:72:c3:e6:4d:fa:4a:8a:d4:
                    28:26:50:80:e7:0a:92:3c:c3:76:ea:84:e7:83:3e:
                    3d:eb:34:a9:a7:6a:54:b2:85:84:fe:ed:70:2d:02:
                    ce:2f:19:0a:f2:df:ab:6f:cb:9d:05:b2:06:9d:d9:
                    4a:b2:20:cb:95:5c:34:8f:d9:b5:7d:5e:61:63:84:
                    52:c4:8c:5c:50:39:03:cd:99:dc:9d:3f:35:ab:36:
                    c2:39:27:ab:db:8b:02:a9:0e:50:90:91:f1:6b:54:
                    07:ad:2c:dc:31:d0:0f:9d:d6:59:32:78:1c:92:00:
                    4d:f1
                Exponent: 65537 (0x10001)
        X509v3 extensions:
            X509v3 Subject Key Identifier: 
                AD:BE:5E:36:0D:CA:1F:58:96:99:52:1F:30:4B:F4:16:7A:8D:9E:7F
            X509v3 Authority Key Identifier: 
                keyid:C0:41:94:DE:CD:5D:DB:27:3B:CD:AB:4A:D5:3A:6F:DA:A7:7F:17:36
                DirName:/C=US/ST=California/L=Santa Clara/O=pkg5/CN=ta3/emailAddress=ta3
                serial:1B:62:5C:BC:2D:8D:5F:A5:80:A5:B4:97:A6:97:F7:C0:E8:74:B0:39
            X509v3 Basic Constraints: critical
                CA:TRUE
            X509v3 Key Usage: critical
                Certificate Sign, CRL Sign
            X509v3 Subject Alternative Name: 
                email:ch1_ta3
    Signature Algorithm: sha256WithRSAEncryption
    Signature Value:
        35:e8:1c:d8:3d:d7:94:e7:e0:4d:8f:a4:b6:c3:c0:b2:2f:ee:
        86:f8:cd:e7:d3:ce:cf:8c:35:32:b9:ba:14:6b:9d:e3:43:e1:
        f9:b0:f4:2e:c8:b1:2f:02:f1:53:ab:78:7b:ae:24:ef:46:4b:
        ee:c9:e6:d4:f0:e1:e0:df:36:04:f7:5f:3c:2d:f3:d0:9b:62:
        e2:3d:7a:5f:73:a8:19:b7:31:b0:71:9f:98:ed:f2:24:91:02:
        85:44:6d:e3:6f:3b:eb:01:95:47:c4:e9:32:8f:47:e8:55:52:
        96:f3:2b:5b:f0:e4:89:7e:4c:ef:81:34:7f:75:b3:e3:be:34:
        fd:eb:13:8c:54:96:3c:81:51:e4:7a:1e:40:72:ac:f7:a6:79:
        81:ff:aa:62:5d:b5:75:c5:e8:23:cd:07:15:e9:78:12:c9:78:
        33:b1:3d:65:bc:b4:68:d8:cb:1c:a0:a3:bd:82:ea:57:d1:c7:
        aa:ed:b3:73:ac:b3:c0:b3:c6:9d:0c:f1:1b:25:89:66:c0:30:
        29:e6:10:1e:71:ee:8b:23:8a:9f:d1:d6:d5:31:77:22:94:98:
        f8:a8:99:d3:4f:3f:ea:38:16:4b:b1:7d:ea:e7:85:3a:8e:dd:
        5c:5a:df:17:90:35:b8:b2:71:5f:1b:54:2b:c2:2b:90:02:dd:
        9b:c0:70:5a
-----BEGIN CERTIFICATE-----
MIIEVzCCAz+gAwIBAgIBEDANBgkqhkiG9w0BAQsFADBpMQswCQYDVQQGEwJVUzET
MBEGA1UECAwKQ2FsaWZvcm5pYTEUMBIGA1UEBwwLU2FudGEgQ2xhcmExDTALBgNV
BAoMBHBrZzUxDDAKBgNVBAMMA3RhMzESMBAGCSqGSIb3DQEJARYDdGEzMB4XDTI0
MTExNDE0MjY1M1oXDTI3MDgxMTE0MjY1M1owcTELMAkGA1UEBhMCVVMxEzARBgNV
BAgMCkNhbGlmb3JuaWExFDASBgNVBAcMC1NhbnRhIENsYXJhMQ0wCwYDVQQKDARw
a2c1MRAwDgYDVQQDDAdjaDFfdGEzMRYwFAYJKoZIhvcNAQkBFgdjaDFfdGEzMIIB
IjANBgkqhkiG9w0BAQEFAAOCAQ8AMIIBCgKCAQEA4KEkEVz16m0mPXKkh4Mp1U4g
N+o8r4c+lUzrSc/XncofAA+kIeoo/DgNs+bPr9Y0p7i/N2hSr6psEYALmjYbXGeb
qrFl+pIMa5rrvNc6qW/aR3rlVBNXeMhmVWx5AYnDOAiTnsqsMlFiG883Hq1ObTRN
QELZNlnJoa+4LVynMn3eZh/mF0/fEd+QfSEScsPmTfpKitQoJlCA5wqSPMN26oTn
gz496zSpp2pUsoWE/u1wLQLOLxkK8t+rb8udBbIGndlKsiDLlVw0j9m1fV5hY4RS
xIxcUDkDzZncnT81qzbCOSer24sCqQ5QkJHxa1QHrSzcMdAPndZZMngckgBN8QID
AQABo4IBADCB/TAdBgNVHQ4EFgQUrb5eNg3KH1iWmVIfMEv0FnqNnn8wgaYGA1Ud
IwSBnjCBm4AUwEGU3s1d2yc7zatK1Tpv2qd/FzahbaRrMGkxCzAJBgNVBAYTAlVT
MRMwEQYDVQQIDApDYWxpZm9ybmlhMRQwEgYDVQQHDAtTYW50YSBDbGFyYTENMAsG
A1UECgwEcGtnNTEMMAoGA1UEAwwDdGEzMRIwEAYJKoZIhvcNAQkBFgN0YTOCFBti
XLwtjV+lgKW0l6aX98DodLA5MA8GA1UdEwEB/wQFMAMBAf8wDgYDVR0PAQH/BAQD
AgEGMBIGA1UdEQQLMAmBB2NoMV90YTMwDQYJKoZIhvcNAQELBQADggEBADXoHNg9
15Tn4E2PpLbDwLIv7ob4zefTzs+MNTK5uhRrneND4fmw9C7IsS8C8VOreHuuJO9G
S+7J5tTw4eDfNgT3Xzwt89CbYuI9el9zqBm3MbBxn5jt8iSRAoVEbeNvO+sBlUfE
6TKPR+hVUpbzK1vw5Il+TO+BNH91s+O+NP3rE4xUljyBUeR6HkByrPemeYH/qmJd
tXXF6CPNBxXpeBLJeDOxPWW8tGjYyxygo72C6lfRx6rts3Oss8Czxp0M8RsliWbA
MCnmEB5x7osjip/R1tUxdyKUmPiomdNPP+o4FkuxfernhTqO3Vxa3xeQNbiycV8b
VCvCK5AC3ZvAcFo=
-----END CERTIFICATE-----
