Certificate:
    Data:
        Version: 3 (0x2)
        Serial Number: 16 (0x10)
        Signature Algorithm: sha256WithRSAEncryption
        Issuer: C=US, ST=California, L=Santa Clara, O=pkg5, CN=ta3/emailAddress=ta3
        Validity
            Not Before: Nov 17 23:01:30 2020 GMT
            Not After : Aug 14 23:01:30 2023 GMT
        Subject: C=US, ST=California, L=Santa Clara, O=pkg5, CN=ch1_ta3/emailAddress=ch1_ta3
        Subject Public Key Info:
            Public Key Algorithm: rsaEncryption
                RSA Public-Key: (2048 bit)
                Modulus:
                    00:b9:73:67:85:8b:5c:19:cf:74:6b:60:bf:19:62:
                    24:f3:8e:06:84:23:e3:49:66:5a:a1:94:71:a0:ac:
                    8b:76:49:15:be:15:d7:32:a9:bc:9e:54:43:27:47:
                    48:f8:24:b1:81:ab:cb:e7:c9:38:2a:a4:66:7e:54:
                    fa:0c:36:81:0c:47:73:cf:9e:fe:01:6d:b5:9d:ff:
                    a6:1a:6e:ee:ab:3b:67:8f:74:c4:6b:78:2a:94:5d:
                    39:68:b6:88:c8:92:7e:57:c2:54:dd:9f:c6:0b:7e:
                    b9:6e:52:61:78:56:a3:f0:c7:1e:78:f9:12:d5:66:
                    80:a4:6c:7d:97:7d:b6:70:44:15:7a:30:e7:70:7b:
                    70:48:48:ef:fa:81:c9:39:66:70:df:ee:c5:fb:61:
                    34:a3:ee:a9:ff:ac:87:e3:49:f3:df:c9:3b:a2:fc:
                    b0:3c:94:c7:59:1d:d6:75:f1:21:5e:aa:d4:94:ba:
                    e0:0c:c4:a6:bd:6a:09:49:27:85:30:08:36:40:5e:
                    69:5d:c3:b1:c9:a1:d1:a9:eb:1e:0d:a7:96:74:77:
                    0a:1a:01:92:12:bf:a3:f6:b9:e1:46:62:cd:ed:38:
                    8a:f5:a5:26:18:6a:06:00:04:da:48:fc:28:29:e8:
                    be:d5:52:bb:4f:ec:b0:71:80:0b:52:2d:d8:c9:00:
                    7b:f5
                Exponent: 65537 (0x10001)
        X509v3 extensions:
            X509v3 Subject Key Identifier: 
                96:0C:63:8E:D2:A7:03:B8:88:1F:DD:E0:27:AC:35:DE:CE:F5:8F:97
            X509v3 Authority Key Identifier: 
                keyid:A2:40:C4:DE:F2:7E:C6:C5:85:D5:CC:0E:28:07:4F:C6:FC:7E:A1:27
                DirName:/C=US/ST=California/L=Santa Clara/O=pkg5/CN=ta3/emailAddress=ta3
                serial:74:45:D3:D5:3A:84:B9:06:57:8F:B0:E1:16:54:ED:0C:D1:24:59:9E

            X509v3 Basic Constraints: critical
                CA:TRUE
            X509v3 Key Usage: critical
                Certificate Sign, CRL Sign
            X509v3 Subject Alternative Name: 
                email:ch1_ta3
    Signature Algorithm: sha256WithRSAEncryption
         44:6b:fb:6f:6e:48:ac:8a:dd:b4:9a:a7:84:2a:f4:79:f7:1a:
         41:02:69:e7:26:43:bd:5a:d3:8a:73:ab:18:e7:dc:97:93:7a:
         d5:d4:73:fb:ee:1a:18:e4:0d:17:f5:76:d8:9c:ec:2f:57:44:
         33:21:90:8f:de:7e:69:d5:1b:db:7b:1b:34:5b:7b:ae:57:47:
         f2:4c:46:19:34:dc:12:9f:b2:61:64:c0:b7:ab:a3:e1:88:4e:
         96:23:32:ee:c9:33:4c:61:4f:0c:13:85:15:94:5a:aa:5e:35:
         9f:8d:d4:69:e1:65:ec:32:00:e8:2a:01:15:13:a8:cb:49:5c:
         f6:2d:ef:54:92:31:1e:c6:bc:05:b8:a7:b5:39:9b:e1:07:11:
         15:1b:53:e3:be:49:b7:c4:c3:68:fb:ee:22:d6:0a:b7:e0:3b:
         53:26:c2:eb:e1:46:cc:38:8b:23:41:6c:02:39:8d:dd:ec:4b:
         d0:85:93:8d:44:03:f4:07:bb:cf:7c:31:0e:cf:a0:b3:75:b1:
         86:23:75:49:c9:84:ce:4c:9d:26:05:d8:6c:64:9d:c9:44:1f:
         93:8a:b2:c6:04:9b:87:8d:9c:1e:74:cb:b9:66:24:12:0a:91:
         90:83:4a:f1:e0:a1:32:d0:de:7d:c9:39:04:79:ca:d8:35:46:
         56:e2:3b:79
-----BEGIN CERTIFICATE-----
MIIEVzCCAz+gAwIBAgIBEDANBgkqhkiG9w0BAQsFADBpMQswCQYDVQQGEwJVUzET
MBEGA1UECAwKQ2FsaWZvcm5pYTEUMBIGA1UEBwwLU2FudGEgQ2xhcmExDTALBgNV
BAoMBHBrZzUxDDAKBgNVBAMMA3RhMzESMBAGCSqGSIb3DQEJARYDdGEzMB4XDTIw
MTExNzIzMDEzMFoXDTIzMDgxNDIzMDEzMFowcTELMAkGA1UEBhMCVVMxEzARBgNV
BAgMCkNhbGlmb3JuaWExFDASBgNVBAcMC1NhbnRhIENsYXJhMQ0wCwYDVQQKDARw
a2c1MRAwDgYDVQQDDAdjaDFfdGEzMRYwFAYJKoZIhvcNAQkBFgdjaDFfdGEzMIIB
IjANBgkqhkiG9w0BAQEFAAOCAQ8AMIIBCgKCAQEAuXNnhYtcGc90a2C/GWIk844G
hCPjSWZaoZRxoKyLdkkVvhXXMqm8nlRDJ0dI+CSxgavL58k4KqRmflT6DDaBDEdz
z57+AW21nf+mGm7uqztnj3TEa3gqlF05aLaIyJJ+V8JU3Z/GC365blJheFaj8Mce
ePkS1WaApGx9l322cEQVejDncHtwSEjv+oHJOWZw3+7F+2E0o+6p/6yH40nz38k7
ovywPJTHWR3WdfEhXqrUlLrgDMSmvWoJSSeFMAg2QF5pXcOxyaHRqeseDaeWdHcK
GgGSEr+j9rnhRmLN7TiK9aUmGGoGAATaSPwoKei+1VK7T+ywcYALUi3YyQB79QID
AQABo4IBADCB/TAdBgNVHQ4EFgQUlgxjjtKnA7iIH93gJ6w13s71j5cwgaYGA1Ud
IwSBnjCBm4AUokDE3vJ+xsWF1cwOKAdPxvx+oSehbaRrMGkxCzAJBgNVBAYTAlVT
MRMwEQYDVQQIDApDYWxpZm9ybmlhMRQwEgYDVQQHDAtTYW50YSBDbGFyYTENMAsG
A1UECgwEcGtnNTEMMAoGA1UEAwwDdGEzMRIwEAYJKoZIhvcNAQkBFgN0YTOCFHRF
09U6hLkGV4+w4RZU7QzRJFmeMA8GA1UdEwEB/wQFMAMBAf8wDgYDVR0PAQH/BAQD
AgEGMBIGA1UdEQQLMAmBB2NoMV90YTMwDQYJKoZIhvcNAQELBQADggEBAERr+29u
SKyK3bSap4Qq9Hn3GkECaecmQ71a04pzqxjn3JeTetXUc/vuGhjkDRf1dtic7C9X
RDMhkI/efmnVG9t7GzRbe65XR/JMRhk03BKfsmFkwLero+GITpYjMu7JM0xhTwwT
hRWUWqpeNZ+N1GnhZewyAOgqARUTqMtJXPYt71SSMR7GvAW4p7U5m+EHERUbU+O+
SbfEw2j77iLWCrfgO1MmwuvhRsw4iyNBbAI5jd3sS9CFk41EA/QHu898MQ7PoLN1
sYYjdUnJhM5MnSYF2GxknclEH5OKssYEm4eNnB50y7lmJBIKkZCDSvHgoTLQ3n3J
OQR5ytg1RlbiO3k=
-----END CERTIFICATE-----
