Certificate:
    Data:
        Version: 3 (0x2)
        Serial Number: 41 (0x29)
        Signature Algorithm: sha256WithRSAEncryption
        Issuer: C=US, ST=California, L=Santa Clara, O=pkg5, CN=ta5/emailAddress=ta5
        Validity
            Not Before: May 23 15:47:22 2024 GMT
            Not After : Feb 17 15:47:22 2027 GMT
        Subject: C=US, ST=California, L=Santa Clara, O=pkg5, CN=ch1_ta5/emailAddress=ch1_ta5
        Subject Public Key Info:
            Public Key Algorithm: rsaEncryption
                Public-Key: (2048 bit)
                Modulus:
                    00:bb:64:0d:5a:44:19:19:9e:25:8c:89:ed:5f:6e:
                    34:1a:ac:70:e5:68:32:5a:e5:92:06:1b:46:70:a2:
                    8b:52:7f:63:b6:3a:f8:6a:6f:c3:6a:11:dd:87:3f:
                    3a:70:e7:66:1f:61:f3:47:a6:1a:32:8c:7a:5a:79:
                    6a:2c:0a:06:7c:5e:db:3b:bc:2d:4e:c9:db:34:46:
                    1c:1d:a2:77:29:85:0e:db:cb:28:96:1b:02:ad:e9:
                    d5:64:5f:41:35:e3:84:fd:8e:9a:75:8d:da:89:b1:
                    3f:33:01:f7:99:bf:8e:70:a0:ef:30:f4:46:ec:93:
                    9c:53:74:f3:08:f6:9f:dd:96:a1:7f:30:b9:40:eb:
                    ef:3a:ee:16:d4:36:e8:8f:3c:f8:55:e1:b0:45:f5:
                    d5:05:41:45:1b:c3:65:db:2f:18:1a:7f:39:b5:6e:
                    69:13:99:2e:89:83:ab:e6:4f:f9:91:6f:f0:52:36:
                    9b:34:f1:8b:0f:82:bc:59:81:91:4d:6a:82:32:76:
                    bb:c7:60:0d:77:41:2e:a7:53:38:63:90:80:91:6e:
                    6c:3f:22:73:4d:db:f8:13:1c:c5:88:3b:60:75:e0:
                    62:a3:1f:b2:85:a9:87:4b:e4:fb:9e:6d:46:82:7e:
                    8b:c6:9a:cb:b3:65:4b:45:42:74:08:84:71:62:c6:
                    4c:cb
                Exponent: 65537 (0x10001)
        X509v3 extensions:
            X509v3 Subject Key Identifier: 
                28:37:E5:12:4F:95:B6:44:CE:D2:2F:C8:1E:04:10:E6:72:92:F9:E4
            X509v3 Authority Key Identifier: 
                keyid:08:32:47:05:B4:E3:A5:30:CF:31:42:E4:CE:66:D7:32:E2:3D:7F:7F
                DirName:/C=US/ST=California/L=Santa Clara/O=pkg5/CN=ta5/emailAddress=ta5
                serial:4F:0B:E0:A1:BA:E5:6A:CE:9D:28:C8:50:7B:91:31:49:29:38:80:19
            X509v3 Basic Constraints: critical
                CA:TRUE
            X509v3 CRL Distribution Points: 
                Full Name:
                  URI:http://localhost:12001/file/0/ta5_crl.pem
            X509v3 Key Usage: critical
                Certificate Sign, CRL Sign
    Signature Algorithm: sha256WithRSAEncryption
    Signature Value:
        20:a3:1c:02:0c:f8:0b:cb:68:6a:4f:f2:ff:fb:c9:01:63:a0:
        e3:ff:08:c2:81:ff:b3:62:84:b1:00:cb:31:78:d3:74:20:7b:
        b0:dc:0e:39:0a:73:57:10:87:bd:ee:32:66:f1:77:08:da:b6:
        32:b7:bb:3a:74:0f:f5:35:1d:3d:af:bb:2a:50:29:d0:43:24:
        3a:3e:7d:46:ab:8f:83:46:db:46:1f:a0:73:35:ab:04:c0:5f:
        ed:43:ef:e3:09:78:63:f8:ba:57:54:3d:a5:c9:83:bb:d7:34:
        e9:99:b7:5f:93:71:b6:68:cb:c7:2d:3e:14:fe:bc:ab:c6:14:
        80:a3:0b:26:9e:cc:3b:b5:37:7c:b3:cd:a8:b2:b1:11:c4:0c:
        8e:cb:dc:e6:9f:08:43:1b:0f:01:1f:c6:51:96:60:99:27:43:
        f5:ab:c3:5c:33:1a:a8:67:e7:38:e7:ec:73:cd:c3:4b:ec:6f:
        8e:02:58:76:55:21:3a:4f:05:cb:66:61:cb:34:0c:34:7d:17:
        ab:3e:df:55:ea:87:09:86:13:cb:7f:57:30:d2:4d:3d:d1:52:
        4c:5d:85:50:69:00:fb:96:01:f3:e2:f3:86:8b:aa:d4:ae:0e:
        4b:6c:22:92:06:e5:81:50:12:de:93:b8:1a:f5:33:c4:a1:cb:
        b5:97:bc:19
-----BEGIN CERTIFICATE-----
MIIEgDCCA2igAwIBAgIBKTANBgkqhkiG9w0BAQsFADBpMQswCQYDVQQGEwJVUzET
MBEGA1UECAwKQ2FsaWZvcm5pYTEUMBIGA1UEBwwLU2FudGEgQ2xhcmExDTALBgNV
BAoMBHBrZzUxDDAKBgNVBAMMA3RhNTESMBAGCSqGSIb3DQEJARYDdGE1MB4XDTI0
MDUyMzE1NDcyMloXDTI3MDIxNzE1NDcyMlowcTELMAkGA1UEBhMCVVMxEzARBgNV
BAgMCkNhbGlmb3JuaWExFDASBgNVBAcMC1NhbnRhIENsYXJhMQ0wCwYDVQQKDARw
a2c1MRAwDgYDVQQDDAdjaDFfdGE1MRYwFAYJKoZIhvcNAQkBFgdjaDFfdGE1MIIB
IjANBgkqhkiG9w0BAQEFAAOCAQ8AMIIBCgKCAQEAu2QNWkQZGZ4ljIntX240Gqxw
5WgyWuWSBhtGcKKLUn9jtjr4am/DahHdhz86cOdmH2HzR6YaMox6WnlqLAoGfF7b
O7wtTsnbNEYcHaJ3KYUO28solhsCrenVZF9BNeOE/Y6adY3aibE/MwH3mb+OcKDv
MPRG7JOcU3TzCPaf3ZahfzC5QOvvOu4W1Dbojzz4VeGwRfXVBUFFG8Nl2y8YGn85
tW5pE5kuiYOr5k/5kW/wUjabNPGLD4K8WYGRTWqCMna7x2ANd0Eup1M4Y5CAkW5s
PyJzTdv4ExzFiDtgdeBiox+yhamHS+T7nm1Ggn6LxprLs2VLRUJ0CIRxYsZMywID
AQABo4IBKTCCASUwHQYDVR0OBBYEFCg35RJPlbZEztIvyB4EEOZykvnkMIGmBgNV
HSMEgZ4wgZuAFAgyRwW046UwzzFC5M5m1zLiPX9/oW2kazBpMQswCQYDVQQGEwJV
UzETMBEGA1UECAwKQ2FsaWZvcm5pYTEUMBIGA1UEBwwLU2FudGEgQ2xhcmExDTAL
BgNVBAoMBHBrZzUxDDAKBgNVBAMMA3RhNTESMBAGCSqGSIb3DQEJARYDdGE1ghRP
C+ChuuVqzp0oyFB7kTFJKTiAGTAPBgNVHRMBAf8EBTADAQH/MDoGA1UdHwQzMDEw
L6AtoCuGKWh0dHA6Ly9sb2NhbGhvc3Q6MTIwMDEvZmlsZS8wL3RhNV9jcmwucGVt
MA4GA1UdDwEB/wQEAwIBBjANBgkqhkiG9w0BAQsFAAOCAQEAIKMcAgz4C8toak/y
//vJAWOg4/8IwoH/s2KEsQDLMXjTdCB7sNwOOQpzVxCHve4yZvF3CNq2Mre7OnQP
9TUdPa+7KlAp0EMkOj59RquPg0bbRh+gczWrBMBf7UPv4wl4Y/i6V1Q9pcmDu9c0
6Zm3X5NxtmjLxy0+FP68q8YUgKMLJp7MO7U3fLPNqLKxEcQMjsvc5p8IQxsPAR/G
UZZgmSdD9avDXDMaqGfnOOfsc83DS+xvjgJYdlUhOk8Fy2ZhyzQMNH0Xqz7fVeqH
CYYTy39XMNJNPdFSTF2FUGkA+5YB8+Lzhouq1K4OS2wikgblgVAS3pO4GvUzxKHL
tZe8GQ==
-----END CERTIFICATE-----
