Certificate:
    Data:
        Version: 3 (0x2)
        Serial Number: 1 (0x1)
    Signature Algorithm: sha256WithRSAEncryption
        Issuer: C=US, ST=California, L=Santa Clara, O=pkg5, CN=ta1/emailAddress=ta1
        Validity
            Not Before: Nov 28 22:50:54 2016 GMT
            Not After : Aug 25 22:50:54 2019 GMT
        Subject: C=US, ST=California, L=Santa Clara, O=pkg5, CN=ch1_ta1/emailAddress=ch1_ta1
        Subject Public Key Info:
            Public Key Algorithm: rsaEncryption
                Public-Key: (2048 bit)
                Modulus:
                    00:c9:5a:d2:9a:82:60:67:e5:14:93:ad:65:da:73:
                    a6:6d:3b:86:7e:84:f6:d9:fb:8a:37:b4:f2:c8:9c:
                    32:75:cf:de:4a:9f:0a:cd:93:a5:99:3a:48:aa:0d:
                    77:74:ad:6b:46:2b:ae:a7:a9:11:f3:f5:a8:43:d5:
                    20:ef:84:f6:b4:05:f5:89:db:62:bc:d4:c0:20:c9:
                    e9:c3:46:29:7c:79:64:e4:32:64:2a:01:b9:71:61:
                    bf:99:6d:cb:ba:eb:e4:d9:61:9b:03:80:6c:70:1b:
                    da:f6:47:6c:a6:e1:b9:02:2c:b7:2c:88:4b:dd:e3:
                    b7:7e:78:af:43:39:2c:51:51:45:87:8d:70:10:bb:
                    02:35:a3:02:69:b9:91:e2:c7:21:95:0c:40:a1:51:
                    1c:76:d3:bf:45:b6:0b:1a:8a:1c:f8:f7:34:93:f5:
                    a0:02:6e:4f:11:d9:bc:3c:fd:ae:7a:18:db:52:7e:
                    5e:0a:b1:63:aa:0d:09:8a:77:1e:b1:c2:96:0d:ff:
                    2e:f2:f0:9d:12:ad:f0:10:c4:7b:fe:d3:a8:ac:65:
                    ff:f6:98:17:68:25:63:7b:38:54:8c:6b:75:76:65:
                    16:36:64:45:a3:6d:26:3a:bd:e0:4a:39:6c:7c:fd:
                    a7:4a:03:d2:58:e3:03:af:2a:7a:81:c7:5c:66:a9:
                    36:fb
                Exponent: 65537 (0x10001)
        X509v3 extensions:
            X509v3 Subject Key Identifier: 
                55:56:E5:64:DD:FB:C5:E1:9F:AA:8A:39:32:C0:DE:51:30:81:B0:60
            X509v3 Authority Key Identifier: 
                keyid:09:74:11:51:65:F4:1C:32:DB:45:57:F0:54:4F:38:A9:60:2E:47:57
                DirName:/C=US/ST=California/L=Santa Clara/O=pkg5/CN=ta1/emailAddress=ta1
                serial:B7:EA:86:FD:FF:A9:62:C6

            X509v3 Basic Constraints: critical
                CA:TRUE, pathlen:4
            X509v3 Key Usage: critical
                Certificate Sign, CRL Sign
    Signature Algorithm: sha256WithRSAEncryption
         18:91:71:40:ff:03:11:ab:7d:0f:56:74:73:d2:94:d9:24:d3:
         c9:ea:cf:f3:36:23:7c:cf:e4:50:b4:73:e1:34:c6:45:c0:00:
         47:77:dd:e6:94:07:a4:e7:23:26:6f:45:e4:e9:2c:54:29:15:
         da:f9:ad:47:20:bf:8d:17:a2:97:a3:a4:30:60:2e:c2:4c:fa:
         ef:8c:95:68:a5:d9:8d:09:9d:75:d5:8b:61:4c:15:a5:51:36:
         be:59:be:2e:a1:bd:4f:ff:8e:9b:13:49:57:01:3a:72:1f:d9:
         cc:b9:de:f4:21:72:e4:05:76:42:64:38:57:17:9f:46:85:b0:
         dd:d8:9a:ab:96:1c:17:93:57:45:76:de:d8:97:9e:27:cb:3f:
         2b:1d:12:3e:54:a6:2f:79:d9:78:b5:1d:04:52:5f:42:d5:2e:
         66:d7:be:82:ac:65:42:80:48:62:fa:34:72:1f:0a:bc:2c:35:
         bc:99:d8:b6:26:96:9d:db:f2:00:90:86:7c:41:35:1b:7a:80:
         5c:fa:ad:58:d2:26:29:a9:d2:6d:c3:68:8e:61:84:e5:7d:d1:
         f3:7c:e2:26:c0:4c:a0:67:55:6d:2a:d4:63:0d:ae:23:12:6e:
         ea:0d:49:45:b7:ba:95:e1:c4:60:4d:7f:fd:98:79:06:fd:b3:
         25:92:06:07
-----BEGIN CERTIFICATE-----
MIIEOjCCAyKgAwIBAgIBATANBgkqhkiG9w0BAQsFADBpMQswCQYDVQQGEwJVUzET
MBEGA1UECAwKQ2FsaWZvcm5pYTEUMBIGA1UEBwwLU2FudGEgQ2xhcmExDTALBgNV
BAoMBHBrZzUxDDAKBgNVBAMMA3RhMTESMBAGCSqGSIb3DQEJARYDdGExMB4XDTE2
MTEyODIyNTA1NFoXDTE5MDgyNTIyNTA1NFowcTELMAkGA1UEBhMCVVMxEzARBgNV
BAgMCkNhbGlmb3JuaWExFDASBgNVBAcMC1NhbnRhIENsYXJhMQ0wCwYDVQQKDARw
a2c1MRAwDgYDVQQDDAdjaDFfdGExMRYwFAYJKoZIhvcNAQkBFgdjaDFfdGExMIIB
IjANBgkqhkiG9w0BAQEFAAOCAQ8AMIIBCgKCAQEAyVrSmoJgZ+UUk61l2nOmbTuG
foT22fuKN7TyyJwydc/eSp8KzZOlmTpIqg13dK1rRiuup6kR8/WoQ9Ug74T2tAX1
idtivNTAIMnpw0YpfHlk5DJkKgG5cWG/mW3Luuvk2WGbA4BscBva9kdspuG5Aiy3
LIhL3eO3fnivQzksUVFFh41wELsCNaMCabmR4schlQxAoVEcdtO/RbYLGooc+Pc0
k/WgAm5PEdm8PP2uehjbUn5eCrFjqg0JincescKWDf8u8vCdEq3wEMR7/tOorGX/
9pgXaCVjezhUjGt1dmUWNmRFo20mOr3gSjlsfP2nSgPSWOMDryp6gcdcZqk2+wID
AQABo4HkMIHhMB0GA1UdDgQWBBRVVuVk3fvF4Z+qijkywN5RMIGwYDCBmwYDVR0j
BIGTMIGQgBQJdBFRZfQcMttFV/BUTzipYC5HV6FtpGswaTELMAkGA1UEBhMCVVMx
EzARBgNVBAgMCkNhbGlmb3JuaWExFDASBgNVBAcMC1NhbnRhIENsYXJhMQ0wCwYD
VQQKDARwa2c1MQwwCgYDVQQDDAN0YTExEjAQBgkqhkiG9w0BCQEWA3RhMYIJALfq
hv3/qWLGMBIGA1UdEwEB/wQIMAYBAf8CAQQwDgYDVR0PAQH/BAQDAgEGMA0GCSqG
SIb3DQEBCwUAA4IBAQAYkXFA/wMRq30PVnRz0pTZJNPJ6s/zNiN8z+RQtHPhNMZF
wABHd93mlAek5yMmb0Xk6SxUKRXa+a1HIL+NF6KXo6QwYC7CTPrvjJVopdmNCZ11
1YthTBWlUTa+Wb4uob1P/46bE0lXATpyH9nMud70IXLkBXZCZDhXF59GhbDd2Jqr
lhwXk1dFdt7Yl54nyz8rHRI+VKYvedl4tR0EUl9C1S5m176CrGVCgEhi+jRyHwq8
LDW8mdi2Jpad2/IAkIZ8QTUbeoBc+q1Y0iYpqdJtw2iOYYTlfdHzfOImwEygZ1Vt
KtRjDa4jEm7qDUlFt7qV4cRgTX/9mHkG/bMlkgYH
-----END CERTIFICATE-----
