Certificate:
    Data:
        Version: 3 (0x2)
        Serial Number: 40 (0x28)
    Signature Algorithm: sha256WithRSAEncryption
        Issuer: C=US, ST=California, L=Santa Clara, O=pkg5, CN=ta5/emailAddress=ta5
        Validity
            Not Before: Dec  6 03:06:43 2014 GMT
            Not After : Sep  1 03:06:43 2017 GMT
        Subject: C=US, ST=California, L=Santa Clara, O=pkg5, CN=ch1_ta5/emailAddress=ch1_ta5
        Subject Public Key Info:
            Public Key Algorithm: rsaEncryption
                Public-Key: (1024 bit)
                Modulus:
                    00:a8:6e:41:22:d0:58:7c:16:f0:48:c6:cb:d4:2a:
                    2b:ba:a2:34:7d:89:ab:91:23:66:c2:1c:85:53:89:
                    8e:a9:21:ca:f6:74:dc:97:ef:3e:5d:b9:6c:39:43:
                    98:d5:96:52:6c:5a:bc:b7:57:f3:25:51:31:46:c1:
                    0d:89:a3:e4:84:ee:94:56:5b:4e:b8:ee:6c:c7:05:
                    1b:ef:c1:22:61:7f:62:67:d0:58:a5:5b:68:65:44:
                    4a:cd:ec:4f:c4:f6:de:a6:17:2f:84:be:ef:16:94:
                    ed:47:1d:fc:ee:97:31:da:cb:e3:d1:94:f3:a6:8b:
                    ed:3b:a4:52:85:c4:b3:be:b7
                Exponent: 65537 (0x10001)
        X509v3 extensions:
            X509v3 Subject Key Identifier: 
                0B:42:BC:68:FA:D0:C0:BE:08:05:C9:B7:66:63:2A:28:C5:94:33:E8
            X509v3 Authority Key Identifier: 
                keyid:0E:C5:6E:E1:5F:98:ED:D6:82:E4:E1:85:22:3F:4C:81:00:9E:45:49
                DirName:/C=US/ST=California/L=Santa Clara/O=pkg5/CN=ta5/emailAddress=ta5
                serial:96:1A:CC:A1:C5:49:A8:AB

            X509v3 Basic Constraints: critical
                CA:TRUE
            X509v3 CRL Distribution Points: 

                Full Name:
                  URI:http://localhost:12001/file/0/ta5_crl.pem

            X509v3 Key Usage: critical
                Certificate Sign, CRL Sign
    Signature Algorithm: sha256WithRSAEncryption
         51:a6:ce:de:dc:4c:20:b2:56:f4:f7:67:cc:d8:c9:21:36:86:
         b0:00:56:60:29:c3:52:c7:22:e6:da:69:9d:16:46:a1:de:57:
         6e:58:40:ea:a6:6f:49:f8:51:f5:b9:b3:af:65:e0:f0:74:8a:
         4b:a9:1e:fe:13:c0:d5:59:93:7b:27:de:79:7a:a0:af:19:63:
         ac:59:30:d0:a3:f4:42:db:da:a5:b4:ba:85:21:9b:6e:eb:ef:
         bb:ed:9f:87:11:4d:22:e9:4f:3f:47:2b:18:81:f1:96:4f:bf:
         2a:bb:90:02:a2:b9:59:5a:3e:b3:9e:b1:ee:12:9b:17:0c:d8:
         2a:6e
-----BEGIN CERTIFICATE-----
MIIDcDCCAtmgAwIBAgIBKDANBgkqhkiG9w0BAQsFADBpMQswCQYDVQQGEwJVUzET
MBEGA1UECAwKQ2FsaWZvcm5pYTEUMBIGA1UEBwwLU2FudGEgQ2xhcmExDTALBgNV
BAoMBHBrZzUxDDAKBgNVBAMMA3RhNTESMBAGCSqGSIb3DQEJARYDdGE1MB4XDTE0
MTIwNjAzMDY0M1oXDTE3MDkwMTAzMDY0M1owcTELMAkGA1UEBhMCVVMxEzARBgNV
BAgMCkNhbGlmb3JuaWExFDASBgNVBAcMC1NhbnRhIENsYXJhMQ0wCwYDVQQKDARw
a2c1MRAwDgYDVQQDDAdjaDFfdGE1MRYwFAYJKoZIhvcNAQkBFgdjaDFfdGE1MIGf
MA0GCSqGSIb3DQEBAQUAA4GNADCBiQKBgQCobkEi0Fh8FvBIxsvUKiu6ojR9iauR
I2bCHIVTiY6pIcr2dNyX7z5duWw5Q5jVllJsWry3V/MlUTFGwQ2Jo+SE7pRWW064
7mzHBRvvwSJhf2Jn0FilW2hlRErN7E/E9t6mFy+Evu8WlO1HHfzulzHay+PRlPOm
i+07pFKFxLO+twIDAQABo4IBHjCCARowHQYDVR0OBBYEFAtCvGj60MC+CAXJt2Zj
KijFlDPoMIGbBgNVHSMEgZMwgZCAFA7FbuFfmO3WguThhSI/TIEAnkVJoW2kazBp
MQswCQYDVQQGEwJVUzETMBEGA1UECAwKQ2FsaWZvcm5pYTEUMBIGA1UEBwwLU2Fu
dGEgQ2xhcmExDTALBgNVBAoMBHBrZzUxDDAKBgNVBAMMA3RhNTESMBAGCSqGSIb3
DQEJARYDdGE1ggkAlhrMocVJqKswDwYDVR0TAQH/BAUwAwEB/zA6BgNVHR8EMzAx
MC+gLaArhilodHRwOi8vbG9jYWxob3N0OjEyMDAxL2ZpbGUvMC90YTVfY3JsLnBl
bTAOBgNVHQ8BAf8EBAMCAQYwDQYJKoZIhvcNAQELBQADgYEAUabO3txMILJW9Pdn
zNjJITaGsABWYCnDUsci5tppnRZGod5XblhA6qZvSfhR9bmzr2Xg8HSKS6ke/hPA
1VmTeyfeeXqgrxljrFkw0KP0QtvapbS6hSGbbuvvu+2fhxFNIulPP0crGIHxlk+/
KruQAqK5WVo+s56x7hKbFwzYKm4=
-----END CERTIFICATE-----
