Certificate:
    Data:
        Version: 3 (0x2)
        Serial Number: 41 (0x29)
        Signature Algorithm: sha256WithRSAEncryption
        Issuer: C=US, ST=California, L=Santa Clara, O=pkg5, CN=ta5/emailAddress=ta5
        Validity
            Not Before: Nov 17 23:01:33 2020 GMT
            Not After : Aug 14 23:01:33 2023 GMT
        Subject: C=US, ST=California, L=Santa Clara, O=pkg5, CN=ch1_ta5/emailAddress=ch1_ta5
        Subject Public Key Info:
            Public Key Algorithm: rsaEncryption
                RSA Public-Key: (2048 bit)
                Modulus:
                    00:b7:1d:3e:c5:08:f7:b0:44:0a:2c:de:ce:f3:d2:
                    5f:42:fe:9e:32:a9:f8:a4:62:b0:7f:15:fb:61:ab:
                    71:70:6b:53:62:fb:9a:90:c1:d4:c5:7b:39:8b:3c:
                    d7:7e:fd:c9:3d:d5:e3:08:38:64:83:d9:c6:ac:6a:
                    54:10:dd:81:6e:58:2f:f2:8d:46:02:b5:49:99:4b:
                    9a:a5:e2:19:81:cb:57:f6:db:93:34:7a:f4:e2:97:
                    8c:40:d4:76:9f:f6:e1:46:e6:5e:43:9d:8e:ba:e6:
                    5a:32:b6:78:67:38:14:c8:da:94:b7:5b:fe:e9:e4:
                    b3:c3:ea:d7:c3:e6:6c:dc:76:85:66:90:d8:71:b4:
                    72:1a:84:9a:8c:75:14:a0:90:24:f6:68:8d:11:b6:
                    f3:c6:ce:72:ff:e7:65:ca:ed:34:e5:27:7e:77:f3:
                    82:f5:7a:46:77:53:22:51:48:5b:bc:d4:7d:87:8a:
                    7b:36:53:7f:e7:43:7f:5f:77:67:8f:0e:4e:f5:dd:
                    f3:07:a4:90:d5:ae:b9:74:1a:c6:38:13:73:d6:12:
                    f1:57:57:fd:da:a9:7c:12:47:29:8e:f0:40:c5:05:
                    bb:7c:71:df:a9:cd:fa:2b:89:1b:d1:91:1e:31:6e:
                    48:05:d3:0d:c4:ac:f2:0d:38:00:b9:fe:77:02:21:
                    5e:47
                Exponent: 65537 (0x10001)
        X509v3 extensions:
            X509v3 Subject Key Identifier: 
                55:28:D2:40:02:76:24:61:0B:80:CB:2A:56:B0:6D:9C:AD:13:38:1B
            X509v3 Authority Key Identifier: 
                keyid:87:66:C3:47:FC:70:11:B7:5C:28:8B:0B:02:3A:17:31:EE:D6:31:E4
                DirName:/C=US/ST=California/L=Santa Clara/O=pkg5/CN=ta5/emailAddress=ta5
                serial:1A:52:3C:53:58:F4:14:9C:F4:D2:90:E9:E7:C4:FF:CF:CC:C8:9A:6B

            X509v3 Basic Constraints: critical
                CA:TRUE
            X509v3 CRL Distribution Points: 

                Full Name:
                  URI:http://localhost:12001/file/0/ta5_crl.pem

            X509v3 Key Usage: critical
                Certificate Sign, CRL Sign
    Signature Algorithm: sha256WithRSAEncryption
         f5:4c:ba:90:d7:07:8c:db:77:b6:88:c0:9d:b8:74:ac:42:60:
         9e:f7:c2:7b:8b:85:3e:70:bb:e3:2e:bc:84:7d:58:95:ae:91:
         a4:8a:f5:4b:6b:69:c3:e8:bb:5b:e0:b7:cd:e9:5a:29:19:57:
         4b:09:58:5c:a8:d6:ce:e8:86:d2:0f:2a:b6:23:a8:fa:b1:7f:
         df:5b:75:6a:df:be:e0:f6:de:a2:14:02:4d:a7:55:06:8f:16:
         1c:ab:1d:a2:16:15:62:96:dc:b8:96:c7:68:96:b8:c1:76:10:
         84:67:ec:d8:ec:a8:41:00:2a:8d:fb:1c:d0:76:1f:23:3f:1f:
         82:04:5c:a1:2e:b4:8f:5b:d8:28:72:c1:d8:0d:76:51:f1:ac:
         1f:c1:aa:fd:ef:5d:cb:17:e5:4c:88:6b:58:66:5e:71:97:0e:
         d5:c4:af:9a:41:c1:94:27:b9:cf:c9:fb:da:c2:e2:33:9b:b1:
         6b:4c:e0:ed:be:e1:1b:29:5d:54:b0:d3:29:17:33:f8:c4:5d:
         64:e9:d8:76:c6:09:cd:ce:aa:ac:2a:4c:51:b7:a0:3b:2b:e7:
         d7:71:82:4c:1f:ee:03:2f:dc:69:8b:e4:ea:8a:fc:f4:32:76:
         59:78:c1:82:d9:c6:1c:9f:9f:cd:88:17:3d:16:8d:d0:92:2e:
         15:6f:bc:8e
-----BEGIN CERTIFICATE-----
MIIEgDCCA2igAwIBAgIBKTANBgkqhkiG9w0BAQsFADBpMQswCQYDVQQGEwJVUzET
MBEGA1UECAwKQ2FsaWZvcm5pYTEUMBIGA1UEBwwLU2FudGEgQ2xhcmExDTALBgNV
BAoMBHBrZzUxDDAKBgNVBAMMA3RhNTESMBAGCSqGSIb3DQEJARYDdGE1MB4XDTIw
MTExNzIzMDEzM1oXDTIzMDgxNDIzMDEzM1owcTELMAkGA1UEBhMCVVMxEzARBgNV
BAgMCkNhbGlmb3JuaWExFDASBgNVBAcMC1NhbnRhIENsYXJhMQ0wCwYDVQQKDARw
a2c1MRAwDgYDVQQDDAdjaDFfdGE1MRYwFAYJKoZIhvcNAQkBFgdjaDFfdGE1MIIB
IjANBgkqhkiG9w0BAQEFAAOCAQ8AMIIBCgKCAQEAtx0+xQj3sEQKLN7O89JfQv6e
Mqn4pGKwfxX7YatxcGtTYvuakMHUxXs5izzXfv3JPdXjCDhkg9nGrGpUEN2Bblgv
8o1GArVJmUuapeIZgctX9tuTNHr04peMQNR2n/bhRuZeQ52OuuZaMrZ4ZzgUyNqU
t1v+6eSzw+rXw+Zs3HaFZpDYcbRyGoSajHUUoJAk9miNEbbzxs5y/+dlyu005Sd+
d/OC9XpGd1MiUUhbvNR9h4p7NlN/50N/X3dnjw5O9d3zB6SQ1a65dBrGOBNz1hLx
V1f92ql8EkcpjvBAxQW7fHHfqc36K4kb0ZEeMW5IBdMNxKzyDTgAuf53AiFeRwID
AQABo4IBKTCCASUwHQYDVR0OBBYEFFUo0kACdiRhC4DLKlawbZytEzgbMIGmBgNV
HSMEgZ4wgZuAFIdmw0f8cBG3XCiLCwI6FzHu1jHkoW2kazBpMQswCQYDVQQGEwJV
UzETMBEGA1UECAwKQ2FsaWZvcm5pYTEUMBIGA1UEBwwLU2FudGEgQ2xhcmExDTAL
BgNVBAoMBHBrZzUxDDAKBgNVBAMMA3RhNTESMBAGCSqGSIb3DQEJARYDdGE1ghQa
UjxTWPQUnPTSkOnnxP/PzMiaazAPBgNVHRMBAf8EBTADAQH/MDoGA1UdHwQzMDEw
L6AtoCuGKWh0dHA6Ly9sb2NhbGhvc3Q6MTIwMDEvZmlsZS8wL3RhNV9jcmwucGVt
MA4GA1UdDwEB/wQEAwIBBjANBgkqhkiG9w0BAQsFAAOCAQEA9Uy6kNcHjNt3tojA
nbh0rEJgnvfCe4uFPnC74y68hH1Yla6RpIr1S2tpw+i7W+C3zelaKRlXSwlYXKjW
zuiG0g8qtiOo+rF/31t1at++4PbeohQCTadVBo8WHKsdohYVYpbcuJbHaJa4wXYQ
hGfs2OyoQQAqjfsc0HYfIz8fggRcoS60j1vYKHLB2A12UfGsH8Gq/e9dyxflTIhr
WGZecZcO1cSvmkHBlCe5z8n72sLiM5uxa0zg7b7hGyldVLDTKRcz+MRdZOnYdsYJ
zc6qrCpMUbegOyvn13GCTB/uAy/caYvk6or89DJ2WXjBgtnGHJ+fzYgXPRaN0JIu
FW+8jg==
-----END CERTIFICATE-----
