Certificate:
    Data:
        Version: 3 (0x2)
        Serial Number: 1 (0x1)
        Signature Algorithm: sha256WithRSAEncryption
        Issuer: C=US, ST=California, L=Santa Clara, O=pkg5, CN=ta1/emailAddress=ta1
        Validity
            Not Before: Nov 17 23:01:27 2020 GMT
            Not After : Aug 14 23:01:27 2023 GMT
        Subject: C=US, ST=California, L=Santa Clara, O=pkg5, CN=ch1_ta1/emailAddress=ch1_ta1
        Subject Public Key Info:
            Public Key Algorithm: rsaEncryption
                RSA Public-Key: (2048 bit)
                Modulus:
                    00:bc:35:3d:41:70:71:e0:ba:77:13:a5:52:b9:44:
                    00:a2:80:8e:59:8c:4e:50:fb:ee:48:29:38:10:3b:
                    6c:18:8c:b9:33:c4:f2:c2:50:8f:45:8f:a2:ba:f8:
                    26:2d:f6:94:10:bc:51:18:5c:73:97:8a:f8:f0:54:
                    e7:26:2e:ac:34:80:65:f5:2f:9a:56:85:9b:ff:b2:
                    85:42:a6:47:57:3a:f4:37:b7:e0:f2:ea:ec:9d:bc:
                    95:ac:14:b4:61:8e:cd:ec:96:ce:7b:6f:57:9d:79:
                    75:df:b0:77:eb:6c:a9:c9:76:6a:86:a8:35:b4:f1:
                    44:e1:e9:11:f4:b6:3c:bf:fa:12:a3:32:4f:b6:04:
                    1a:43:a2:f4:55:fa:2f:ff:6e:b6:62:40:a0:00:6a:
                    b6:15:cd:bd:b9:7c:15:ba:66:09:bb:80:16:7b:21:
                    1c:cc:0b:9d:06:3c:d0:71:04:25:d9:90:d4:b6:a7:
                    4e:ac:e3:45:62:54:ea:e0:78:db:5d:24:dc:dd:73:
                    ab:d1:48:89:dd:23:d8:57:3d:1d:e6:d4:b8:4c:3c:
                    cc:b0:03:d9:07:90:3f:f7:55:fb:e8:04:ae:9a:70:
                    8c:aa:e4:cb:01:3c:ed:20:c2:b8:5f:00:16:88:80:
                    77:be:c4:94:db:81:43:31:6c:46:ba:a0:42:56:5c:
                    84:5d
                Exponent: 65537 (0x10001)
        X509v3 extensions:
            X509v3 Subject Key Identifier: 
                00:00:32:67:0B:02:0E:0B:56:F4:08:61:AD:42:14:E8:8E:C4:1A:C1
            X509v3 Authority Key Identifier: 
                keyid:23:4C:14:6A:21:11:6E:27:31:DF:89:2F:6F:0B:C3:92:A1:89:65:A9
                DirName:/C=US/ST=California/L=Santa Clara/O=pkg5/CN=ta1/emailAddress=ta1
                serial:79:46:CF:D3:E1:7A:80:6F:DD:14:55:1C:89:5F:06:09:6C:A3:4C:44

            X509v3 Basic Constraints: critical
                CA:TRUE, pathlen:4
            X509v3 Key Usage: critical
                Certificate Sign, CRL Sign
    Signature Algorithm: sha256WithRSAEncryption
         7a:15:e7:d5:d7:0a:aa:2e:fd:22:be:cb:e9:b4:8e:da:ff:44:
         06:b0:6a:0b:1b:06:a9:65:17:7d:1c:ec:ca:20:94:5d:d7:21:
         c6:57:09:be:f6:1c:bf:79:dc:6b:3e:75:31:70:a7:b7:1a:47:
         4e:38:70:11:33:11:1e:44:56:51:34:9c:11:2c:f1:f0:d3:57:
         d8:89:42:b1:9c:a8:8c:6c:93:7a:58:90:b4:8a:37:27:95:60:
         28:91:13:9d:ce:52:c4:67:e7:92:6f:fa:28:0e:86:15:91:11:
         8c:a7:1a:9e:c4:71:51:fd:93:58:d0:22:32:b9:95:21:71:43:
         d0:e2:1f:dd:5c:52:fc:e1:0e:de:75:5d:a1:7f:e1:0a:30:f8:
         fd:1a:06:43:5a:ec:95:b3:66:97:37:b3:93:e2:25:2a:bb:c4:
         68:6b:1a:d9:8b:61:0d:09:b3:e7:8a:1c:77:19:6f:88:05:e1:
         e1:e6:69:3d:88:a4:9a:49:c2:b3:4b:c8:17:d9:30:f2:73:2e:
         52:b3:df:de:5a:09:4e:85:7a:04:67:c9:6c:76:04:98:7e:52:
         cb:2f:e5:08:68:70:cd:5d:f6:4c:78:5f:ec:33:c2:55:48:c8:
         a8:4c:bb:93:dd:55:26:31:d2:81:42:91:eb:0f:fe:85:d6:77:
         fc:a8:24:d5
-----BEGIN CERTIFICATE-----
MIIERTCCAy2gAwIBAgIBATANBgkqhkiG9w0BAQsFADBpMQswCQYDVQQGEwJVUzET
MBEGA1UECAwKQ2FsaWZvcm5pYTEUMBIGA1UEBwwLU2FudGEgQ2xhcmExDTALBgNV
BAoMBHBrZzUxDDAKBgNVBAMMA3RhMTESMBAGCSqGSIb3DQEJARYDdGExMB4XDTIw
MTExNzIzMDEyN1oXDTIzMDgxNDIzMDEyN1owcTELMAkGA1UEBhMCVVMxEzARBgNV
BAgMCkNhbGlmb3JuaWExFDASBgNVBAcMC1NhbnRhIENsYXJhMQ0wCwYDVQQKDARw
a2c1MRAwDgYDVQQDDAdjaDFfdGExMRYwFAYJKoZIhvcNAQkBFgdjaDFfdGExMIIB
IjANBgkqhkiG9w0BAQEFAAOCAQ8AMIIBCgKCAQEAvDU9QXBx4Lp3E6VSuUQAooCO
WYxOUPvuSCk4EDtsGIy5M8TywlCPRY+iuvgmLfaUELxRGFxzl4r48FTnJi6sNIBl
9S+aVoWb/7KFQqZHVzr0N7fg8ursnbyVrBS0YY7N7JbOe29XnXl137B362ypyXZq
hqg1tPFE4ekR9LY8v/oSozJPtgQaQ6L0Vfov/262YkCgAGq2Fc29uXwVumYJu4AW
eyEczAudBjzQcQQl2ZDUtqdOrONFYlTq4HjbXSTc3XOr0UiJ3SPYVz0d5tS4TDzM
sAPZB5A/91X76ASumnCMquTLATztIMK4XwAWiIB3vsSU24FDMWxGuqBCVlyEXQID
AQABo4HvMIHsMB0GA1UdDgQWBBQAADJnCwIOC1b0CGGtQhTojsQawTCBpgYDVR0j
BIGeMIGbgBQjTBRqIRFuJzHfiS9vC8OSoYllqaFtpGswaTELMAkGA1UEBhMCVVMx
EzARBgNVBAgMCkNhbGlmb3JuaWExFDASBgNVBAcMC1NhbnRhIENsYXJhMQ0wCwYD
VQQKDARwa2c1MQwwCgYDVQQDDAN0YTExEjAQBgkqhkiG9w0BCQEWA3RhMYIUeUbP
0+F6gG/dFFUciV8GCWyjTEQwEgYDVR0TAQH/BAgwBgEB/wIBBDAOBgNVHQ8BAf8E
BAMCAQYwDQYJKoZIhvcNAQELBQADggEBAHoV59XXCqou/SK+y+m0jtr/RAawagsb
BqllF30c7MoglF3XIcZXCb72HL953Gs+dTFwp7caR044cBEzER5EVlE0nBEs8fDT
V9iJQrGcqIxsk3pYkLSKNyeVYCiRE53OUsRn55Jv+igOhhWREYynGp7EcVH9k1jQ
IjK5lSFxQ9DiH91cUvzhDt51XaF/4Qow+P0aBkNa7JWzZpc3s5PiJSq7xGhrGtmL
YQ0Js+eKHHcZb4gF4eHmaT2IpJpJwrNLyBfZMPJzLlKz395aCU6FegRnyWx2BJh+
Ussv5QhocM1d9kx4X+wzwlVIyKhMu5PdVSYx0oFCkesP/oXWd/yoJNU=
-----END CERTIFICATE-----
