Certificate:
    Data:
        Version: 3 (0x2)
        Serial Number: 1 (0x1)
        Signature Algorithm: sha256WithRSAEncryption
        Issuer: C=US, ST=California, L=Santa Clara, O=pkg5, CN=ta1/emailAddress=ta1
        Validity
            Not Before: May 23 15:47:14 2024 GMT
            Not After : Feb 17 15:47:14 2027 GMT
        Subject: C=US, ST=California, L=Santa Clara, O=pkg5, CN=ch1_ta1/emailAddress=ch1_ta1
        Subject Public Key Info:
            Public Key Algorithm: rsaEncryption
                Public-Key: (2048 bit)
                Modulus:
                    00:9c:06:35:6c:05:68:fc:06:2a:cf:ad:5a:b3:da:
                    d0:d3:f9:3d:8f:61:84:25:1d:ad:99:82:62:21:3d:
                    2e:21:34:6c:6c:06:b0:e5:34:bb:da:bf:3b:6c:62:
                    e4:7d:8d:bf:90:76:52:90:d9:c7:75:fe:68:c6:4a:
                    b7:11:51:17:70:b4:0b:dd:6e:1f:45:8b:6c:c3:7d:
                    3a:79:d7:f1:4a:e3:8a:9f:1b:4c:f3:ab:74:3c:0f:
                    48:91:77:5b:1a:1a:9b:1d:59:4c:32:11:a0:e7:23:
                    51:e5:c9:97:c4:a4:4b:c0:b0:44:b3:52:d2:d7:e9:
                    2f:7a:88:9c:24:c7:3b:21:c4:3b:35:ee:d3:24:9b:
                    01:bd:a1:2c:c2:12:f6:5c:a9:fa:6a:35:c9:c1:d7:
                    ee:d5:57:97:2d:75:27:b9:6a:68:b7:dd:53:4c:9f:
                    94:93:4a:3e:e8:48:cc:34:78:00:d1:78:7e:95:71:
                    f0:bc:13:dc:55:15:50:17:f6:e5:52:d4:c0:6c:5e:
                    3a:7a:c4:c7:c6:95:36:db:81:77:9f:cf:c2:89:c5:
                    60:a8:7c:f3:d6:8e:74:35:1a:52:aa:d0:a8:d0:41:
                    4e:7f:1b:e6:2a:d0:51:6f:e9:38:ab:a8:a3:b8:52:
                    e9:7b:1b:34:ae:7d:ba:7a:63:4e:e8:1f:5a:e1:43:
                    82:09
                Exponent: 65537 (0x10001)
        X509v3 extensions:
            X509v3 Subject Key Identifier: 
                DE:89:F6:DE:DE:3A:9C:9D:4E:53:9E:EF:94:FB:80:85:49:09:98:86
            X509v3 Authority Key Identifier: 
                keyid:C3:56:EC:5B:73:9E:EB:BA:54:5D:93:DD:D7:36:A8:FA:6B:16:5A:1A
                DirName:/C=US/ST=California/L=Santa Clara/O=pkg5/CN=ta1/emailAddress=ta1
                serial:6A:CC:95:0F:EC:75:01:12:F8:0F:4F:B8:21:74:A5:3C:4C:DC:9E:AB
            X509v3 Basic Constraints: critical
                CA:TRUE, pathlen:4
            X509v3 Key Usage: critical
                Certificate Sign, CRL Sign
    Signature Algorithm: sha256WithRSAEncryption
    Signature Value:
        2d:84:9e:05:45:28:25:27:32:23:63:17:b5:6a:f4:d6:33:8c:
        fb:b1:d4:74:81:15:42:66:2a:ca:5e:40:b6:c8:f7:15:7f:72:
        f4:75:54:1b:01:3f:7e:5c:7d:81:da:c1:9a:b7:c2:73:d6:69:
        83:ea:d6:be:56:d6:43:f4:87:44:69:fa:c3:32:2e:c2:99:50:
        61:08:7a:41:db:56:d2:5e:27:46:f9:08:6c:20:aa:47:67:25:
        68:a0:6a:c3:13:87:ae:11:fc:3c:2e:2c:8b:6a:77:a6:59:23:
        bc:24:8e:4f:16:68:4c:35:ee:3e:01:ec:b8:dd:b5:f3:74:1d:
        ef:f2:38:eb:ea:2b:0c:e1:ca:e2:3f:ec:45:64:ed:58:aa:07:
        56:cc:f7:2b:ac:f3:f9:09:1f:0b:a6:85:2a:e6:ee:70:fc:0f:
        cb:36:a9:a5:2d:c0:f5:63:0a:8e:c9:0e:4d:7b:d0:7e:37:1d:
        88:bd:17:61:cd:ff:02:05:29:14:83:02:99:a6:b1:b3:af:d4:
        42:04:f3:00:73:60:d1:56:6a:0d:a3:b9:46:5c:11:68:05:4e:
        51:1c:a1:bd:27:08:1f:11:10:e9:37:b1:6a:8e:48:50:52:1b:
        94:09:5f:9c:49:80:cf:91:b0:6f:22:3d:a7:33:ae:b5:3f:bc:
        e2:aa:13:04
-----BEGIN CERTIFICATE-----
MIIERTCCAy2gAwIBAgIBATANBgkqhkiG9w0BAQsFADBpMQswCQYDVQQGEwJVUzET
MBEGA1UECAwKQ2FsaWZvcm5pYTEUMBIGA1UEBwwLU2FudGEgQ2xhcmExDTALBgNV
BAoMBHBrZzUxDDAKBgNVBAMMA3RhMTESMBAGCSqGSIb3DQEJARYDdGExMB4XDTI0
MDUyMzE1NDcxNFoXDTI3MDIxNzE1NDcxNFowcTELMAkGA1UEBhMCVVMxEzARBgNV
BAgMCkNhbGlmb3JuaWExFDASBgNVBAcMC1NhbnRhIENsYXJhMQ0wCwYDVQQKDARw
a2c1MRAwDgYDVQQDDAdjaDFfdGExMRYwFAYJKoZIhvcNAQkBFgdjaDFfdGExMIIB
IjANBgkqhkiG9w0BAQEFAAOCAQ8AMIIBCgKCAQEAnAY1bAVo/AYqz61as9rQ0/k9
j2GEJR2tmYJiIT0uITRsbAaw5TS72r87bGLkfY2/kHZSkNnHdf5oxkq3EVEXcLQL
3W4fRYtsw306edfxSuOKnxtM86t0PA9IkXdbGhqbHVlMMhGg5yNR5cmXxKRLwLBE
s1LS1+kveoicJMc7IcQ7Ne7TJJsBvaEswhL2XKn6ajXJwdfu1VeXLXUnuWpot91T
TJ+Uk0o+6EjMNHgA0Xh+lXHwvBPcVRVQF/blUtTAbF46esTHxpU224F3n8/CicVg
qHzz1o50NRpSqtCo0EFOfxvmKtBRb+k4q6ijuFLpexs0rn26emNO6B9a4UOCCQID
AQABo4HvMIHsMB0GA1UdDgQWBBTeifbe3jqcnU5Tnu+U+4CFSQmYhjCBpgYDVR0j
BIGeMIGbgBTDVuxbc57rulRdk93XNqj6axZaGqFtpGswaTELMAkGA1UEBhMCVVMx
EzARBgNVBAgMCkNhbGlmb3JuaWExFDASBgNVBAcMC1NhbnRhIENsYXJhMQ0wCwYD
VQQKDARwa2c1MQwwCgYDVQQDDAN0YTExEjAQBgkqhkiG9w0BCQEWA3RhMYIUasyV
D+x1ARL4D0+4IXSlPEzcnqswEgYDVR0TAQH/BAgwBgEB/wIBBDAOBgNVHQ8BAf8E
BAMCAQYwDQYJKoZIhvcNAQELBQADggEBAC2EngVFKCUnMiNjF7Vq9NYzjPux1HSB
FUJmKspeQLbI9xV/cvR1VBsBP35cfYHawZq3wnPWaYPq1r5W1kP0h0Rp+sMyLsKZ
UGEIekHbVtJeJ0b5CGwgqkdnJWigasMTh64R/DwuLItqd6ZZI7wkjk8WaEw17j4B
7LjdtfN0He/yOOvqKwzhyuI/7EVk7ViqB1bM9yus8/kJHwumhSrm7nD8D8s2qaUt
wPVjCo7JDk170H43HYi9F2HN/wIFKRSDApmmsbOv1EIE8wBzYNFWag2juUZcEWgF
TlEcob0nCB8REOk3sWqOSFBSG5QJX5xJgM+RsG8iPaczrrU/vOKqEwQ=
-----END CERTIFICATE-----
