Certificate:
    Data:
        Version: 3 (0x2)
        Serial Number: 1 (0x1)
    Signature Algorithm: sha256WithRSAEncryption
        Issuer: C=US, ST=California, L=Santa Clara, O=pkg5, CN=ta1/emailAddress=ta1
        Validity
            Not Before: Mar 20 10:20:51 2018 GMT
            Not After : Dec 14 10:20:51 2020 GMT
        Subject: C=US, ST=California, L=Santa Clara, O=pkg5, CN=ch1_ta1/emailAddress=ch1_ta1
        Subject Public Key Info:
            Public Key Algorithm: rsaEncryption
                Public-Key: (2048 bit)
                Modulus:
                    00:96:e4:10:a8:90:e7:7d:b8:46:e8:ed:ca:cb:f9:
                    dd:03:93:4e:3e:13:eb:5e:94:69:c4:18:db:dc:de:
                    59:a7:07:d4:5a:1c:d6:35:ef:b5:2d:1e:4c:b1:42:
                    b9:71:08:de:b8:ff:50:34:34:ce:49:57:73:6b:3c:
                    a6:be:1d:d2:c4:91:7e:89:92:25:c7:cb:87:bb:36:
                    9f:f8:fc:fd:cc:83:d8:84:f3:8c:dc:32:bb:eb:34:
                    43:2f:b9:95:b2:89:29:a3:35:0b:33:c8:06:49:17:
                    4e:e6:3e:c1:fb:6b:86:f5:6c:67:6a:2e:4a:6f:55:
                    ae:e8:5e:aa:c2:5c:59:72:96:91:ae:8a:cf:9b:48:
                    bd:77:b8:34:dc:f7:2f:04:89:a7:9e:d5:d5:e5:a4:
                    41:10:07:e1:0f:8e:8b:be:f4:67:0b:19:8f:0c:26:
                    aa:78:2b:54:46:af:f0:5d:99:da:e0:fb:8a:78:51:
                    97:0e:1e:e7:02:e4:3c:46:7c:ff:9e:3d:a8:36:62:
                    9b:f4:a5:f1:b5:4b:a3:95:62:bb:0a:85:ce:bb:f9:
                    25:9d:37:c7:62:52:b6:7c:6d:ec:4b:4e:8b:8a:63:
                    fb:08:ad:df:ab:02:1f:f0:86:bc:3c:ae:e9:a9:f7:
                    ff:43:51:aa:ac:1a:72:ef:47:c7:20:4b:70:c3:43:
                    4f:d1
                Exponent: 65537 (0x10001)
        X509v3 extensions:
            X509v3 Subject Key Identifier: 
                E7:4C:62:84:04:66:B1:27:AD:45:F1:ED:53:58:72:AA:35:AF:BA:66
            X509v3 Authority Key Identifier: 
                keyid:64:46:51:16:02:A9:CE:D5:85:37:9B:78:93:DB:8B:27:27:AA:5D:FF
                DirName:/C=US/ST=California/L=Santa Clara/O=pkg5/CN=ta1/emailAddress=ta1
                serial:FA:A5:2C:FB:09:28:0E:3B

            X509v3 Basic Constraints: critical
                CA:TRUE, pathlen:4
            X509v3 Key Usage: critical
                Certificate Sign, CRL Sign
    Signature Algorithm: sha256WithRSAEncryption
         3a:c8:a4:63:dd:31:92:0e:b9:0c:02:8f:0f:2f:0d:1a:94:2f:
         b6:54:ac:6e:96:72:9d:1b:26:c7:3c:a0:2b:b3:2d:6b:0c:ee:
         62:cf:c9:ef:45:5b:45:7c:e1:11:04:5c:68:d9:97:e0:1e:c7:
         09:72:ab:92:61:dc:96:7c:21:ef:55:85:19:82:b3:20:9d:71:
         9a:b0:c4:df:2e:91:5e:2e:1a:1b:90:ab:21:c8:d6:c5:78:15:
         f7:d1:b4:69:ac:18:de:ef:d1:26:3d:4d:28:8d:6d:17:5b:06:
         2a:6f:59:95:96:7a:48:7c:73:fa:ab:f1:12:7e:68:0a:a7:2e:
         5f:57:b0:a6:40:98:97:8b:e6:42:eb:05:15:77:a0:11:3c:93:
         2e:e2:1e:8b:ea:6d:fe:4d:ca:72:06:a0:30:1f:91:06:25:88:
         6e:fc:ce:de:0f:4a:10:34:89:67:d7:bc:04:cb:54:af:7b:f3:
         3e:f8:13:9b:f6:aa:39:c8:76:c5:17:5b:99:fc:1b:8c:a5:32:
         0b:86:07:0d:3c:9d:27:9d:30:f2:0c:6f:f9:10:ee:d6:62:80:
         c3:cc:4a:ba:ab:0e:96:d8:1c:e2:92:b2:9b:a4:66:ac:e0:0a:
         8d:d2:a5:19:63:6e:b8:63:4d:95:52:4f:ac:74:47:1e:1b:ca:
         9f:3e:7b:d2
-----BEGIN CERTIFICATE-----
MIIEOjCCAyKgAwIBAgIBATANBgkqhkiG9w0BAQsFADBpMQswCQYDVQQGEwJVUzET
MBEGA1UECAwKQ2FsaWZvcm5pYTEUMBIGA1UEBwwLU2FudGEgQ2xhcmExDTALBgNV
BAoMBHBrZzUxDDAKBgNVBAMMA3RhMTESMBAGCSqGSIb3DQEJARYDdGExMB4XDTE4
MDMyMDEwMjA1MVoXDTIwMTIxNDEwMjA1MVowcTELMAkGA1UEBhMCVVMxEzARBgNV
BAgMCkNhbGlmb3JuaWExFDASBgNVBAcMC1NhbnRhIENsYXJhMQ0wCwYDVQQKDARw
a2c1MRAwDgYDVQQDDAdjaDFfdGExMRYwFAYJKoZIhvcNAQkBFgdjaDFfdGExMIIB
IjANBgkqhkiG9w0BAQEFAAOCAQ8AMIIBCgKCAQEAluQQqJDnfbhG6O3Ky/ndA5NO
PhPrXpRpxBjb3N5ZpwfUWhzWNe+1LR5MsUK5cQjeuP9QNDTOSVdzazymvh3SxJF+
iZIlx8uHuzaf+Pz9zIPYhPOM3DK76zRDL7mVsokpozULM8gGSRdO5j7B+2uG9Wxn
ai5Kb1Wu6F6qwlxZcpaRrorPm0i9d7g03PcvBImnntXV5aRBEAfhD46LvvRnCxmP
DCaqeCtURq/wXZna4PuKeFGXDh7nAuQ8Rnz/nj2oNmKb9KXxtUujlWK7CoXOu/kl
nTfHYlK2fG3sS06LimP7CK3fqwIf8Ia8PK7pqff/Q1GqrBpy70fHIEtww0NP0QID
AQABo4HkMIHhMB0GA1UdDgQWBBTnTGKEBGaxJ61F8e1TWHKqNa+6ZjCBmwYDVR0j
BIGTMIGQgBRkRlEWAqnO1YU3m3iT24snJ6pd/6FtpGswaTELMAkGA1UEBhMCVVMx
EzARBgNVBAgMCkNhbGlmb3JuaWExFDASBgNVBAcMC1NhbnRhIENsYXJhMQ0wCwYD
VQQKDARwa2c1MQwwCgYDVQQDDAN0YTExEjAQBgkqhkiG9w0BCQEWA3RhMYIJAPql
LPsJKA47MBIGA1UdEwEB/wQIMAYBAf8CAQQwDgYDVR0PAQH/BAQDAgEGMA0GCSqG
SIb3DQEBCwUAA4IBAQA6yKRj3TGSDrkMAo8PLw0alC+2VKxulnKdGybHPKArsy1r
DO5iz8nvRVtFfOERBFxo2ZfgHscJcquSYdyWfCHvVYUZgrMgnXGasMTfLpFeLhob
kKshyNbFeBX30bRprBje79EmPU0ojW0XWwYqb1mVlnpIfHP6q/ESfmgKpy5fV7Cm
QJiXi+ZC6wUVd6ARPJMu4h6L6m3+TcpyBqAwH5EGJYhu/M7eD0oQNIln17wEy1Sv
e/M++BOb9qo5yHbFF1uZ/BuMpTILhgcNPJ0nnTDyDG/5EO7WYoDDzEq6qw6W2Bzi
krKbpGas4AqN0qUZY264Y02VUk+sdEceG8qfPnvS
-----END CERTIFICATE-----
