Certificate:
    Data:
        Version: 3 (0x2)
        Serial Number: 2 (0x2)
    Signature Algorithm: sha256WithRSAEncryption
        Issuer: C=US, ST=California, L=Santa Clara, O=pkg5, CN=ch1_ta1/emailAddress=ch1_ta1
        Validity
            Not Before: Dec  6 03:06:42 2014 GMT
            Not After : Sep  1 03:06:42 2017 GMT
        Subject: C=US, ST=California, L=Santa Clara, O=pkg5, CN=ch2_ta1/emailAddress=ch2_ta1
        Subject Public Key Info:
            Public Key Algorithm: rsaEncryption
                Public-Key: (1024 bit)
                Modulus:
                    00:a7:bd:d3:01:74:f2:8f:c5:bb:b4:e7:34:d3:64:
                    ff:5a:24:8d:3f:f7:28:8a:90:fa:c7:4f:15:95:4d:
                    c2:c9:be:b9:bb:96:0d:91:39:ce:21:34:dc:5b:77:
                    8e:98:39:70:b2:d8:4a:85:9e:54:e7:75:3b:fc:f8:
                    11:fc:80:7e:60:2a:b5:c4:bc:c7:2c:32:4c:58:dd:
                    ce:83:81:64:24:36:6f:ed:a1:33:ed:62:e9:24:bb:
                    9c:11:97:0d:9c:43:44:a2:23:0f:05:86:fe:80:d6:
                    19:2c:1f:79:fd:6a:d9:66:28:ef:11:5c:a9:b6:26:
                    7d:63:1f:07:0f:fd:0c:b9:c5
                Exponent: 65537 (0x10001)
        X509v3 extensions:
            X509v3 Subject Key Identifier: 
                5D:D0:CB:D7:A6:97:DA:71:E5:4C:1A:01:3D:06:00:0E:B1:8B:9B:0E
            X509v3 Authority Key Identifier: 
                keyid:BE:9D:BF:A9:94:FF:A1:61:BA:FE:4F:44:1F:70:A8:88:56:5D:12:97
                DirName:/C=US/ST=California/L=Santa Clara/O=pkg5/CN=ta1/emailAddress=ta1
                serial:01

            X509v3 Basic Constraints: critical
                CA:TRUE, pathlen:3
            X509v3 Key Usage: critical
                Certificate Sign, CRL Sign
    Signature Algorithm: sha256WithRSAEncryption
         35:6c:78:ab:a0:70:9b:4a:a0:94:9d:01:1c:59:96:84:4a:41:
         6b:51:c8:a4:97:ca:22:75:d4:40:ca:1c:0c:0d:55:7a:4c:4f:
         0a:db:b1:da:13:a5:79:a8:9b:12:3c:f5:95:a7:7d:3f:a5:6b:
         db:ba:b2:05:1a:89:78:4e:32:d9:42:c5:81:78:e4:dc:08:b3:
         ed:2e:6e:3c:6d:7a:9c:44:06:f4:72:9d:ae:ed:0f:2c:38:aa:
         37:7d:64:9e:97:9b:6e:96:ff:7d:17:f0:9b:5b:af:86:73:5d:
         6c:54:fa:7a:64:31:ee:d9:27:04:f7:25:5b:d5:c9:99:33:50:
         b9:67
-----BEGIN CERTIFICATE-----
MIIDNTCCAp6gAwIBAgIBAjANBgkqhkiG9w0BAQsFADBxMQswCQYDVQQGEwJVUzET
MBEGA1UECAwKQ2FsaWZvcm5pYTEUMBIGA1UEBwwLU2FudGEgQ2xhcmExDTALBgNV
BAoMBHBrZzUxEDAOBgNVBAMMB2NoMV90YTExFjAUBgkqhkiG9w0BCQEWB2NoMV90
YTEwHhcNMTQxMjA2MDMwNjQyWhcNMTcwOTAxMDMwNjQyWjBxMQswCQYDVQQGEwJV
UzETMBEGA1UECAwKQ2FsaWZvcm5pYTEUMBIGA1UEBwwLU2FudGEgQ2xhcmExDTAL
BgNVBAoMBHBrZzUxEDAOBgNVBAMMB2NoMl90YTExFjAUBgkqhkiG9w0BCQEWB2No
Ml90YTEwgZ8wDQYJKoZIhvcNAQEBBQADgY0AMIGJAoGBAKe90wF08o/Fu7TnNNNk
/1okjT/3KIqQ+sdPFZVNwsm+ubuWDZE5ziE03Ft3jpg5cLLYSoWeVOd1O/z4EfyA
fmAqtcS8xywyTFjdzoOBZCQ2b+2hM+1i6SS7nBGXDZxDRKIjDwWG/oDWGSwfef1q
2WYo7xFcqbYmfWMfBw/9DLnFAgMBAAGjgdwwgdkwHQYDVR0OBBYEFF3Qy9eml9px
5UwaAT0GAA6xi5sOMIGTBgNVHSMEgYswgYiAFL6dv6mU/6Fhuv5PRB9wqIhWXRKX
oW2kazBpMQswCQYDVQQGEwJVUzETMBEGA1UECAwKQ2FsaWZvcm5pYTEUMBIGA1UE
BwwLU2FudGEgQ2xhcmExDTALBgNVBAoMBHBrZzUxDDAKBgNVBAMMA3RhMTESMBAG
CSqGSIb3DQEJARYDdGExggEBMBIGA1UdEwEB/wQIMAYBAf8CAQMwDgYDVR0PAQH/
BAQDAgEGMA0GCSqGSIb3DQEBCwUAA4GBADVseKugcJtKoJSdARxZloRKQWtRyKSX
yiJ11EDKHAwNVXpMTwrbsdoTpXmomxI89ZWnfT+la9u6sgUaiXhOMtlCxYF45NwI
s+0ubjxtepxEBvRyna7tDyw4qjd9ZJ6Xm26W/30X8Jtbr4ZzXWxU+npkMe7ZJwT3
JVvVyZkzULln
-----END CERTIFICATE-----
