Certificate:
    Data:
        Version: 3 (0x2)
        Serial Number: 2 (0x2)
        Signature Algorithm: sha256WithRSAEncryption
        Issuer: C=US, ST=California, L=Santa Clara, O=pkg5, CN=ch1_ta1/emailAddress=ch1_ta1
        Validity
            Not Before: Oct 24 21:42:58 2023 GMT
            Not After : Jul 20 21:42:58 2026 GMT
        Subject: C=US, ST=California, L=Santa Clara, O=pkg5, CN=ch2_ta1/emailAddress=ch2_ta1
        Subject Public Key Info:
            Public Key Algorithm: rsaEncryption
                Public-Key: (2048 bit)
                Modulus:
                    00:e1:31:f7:95:59:36:66:d7:9c:32:3a:88:85:70:
                    c1:03:0e:02:d3:70:b9:a3:8d:43:27:38:3d:3c:5c:
                    08:da:a5:b0:9f:87:e3:23:7c:28:a0:58:01:c5:1b:
                    30:0f:63:a7:bb:bd:fd:52:a9:40:b3:9f:bc:16:e0:
                    89:32:b7:6e:81:71:44:47:90:f4:3b:5d:57:1d:00:
                    15:dd:f8:ca:cb:e1:b0:6b:15:0f:7d:7a:fa:ec:51:
                    89:71:83:0d:c9:88:d3:bd:36:2b:8a:73:8b:60:85:
                    99:ea:3f:d7:61:e6:d2:f8:18:36:16:30:08:0b:8d:
                    5c:f6:da:10:22:71:eb:48:ae:e8:47:90:95:a4:d9:
                    38:96:98:4d:27:9d:d5:6f:3e:36:31:3d:11:19:63:
                    87:93:d6:26:b6:e7:e0:81:e8:00:18:e2:44:41:4d:
                    fe:55:37:6a:49:12:f1:1e:8f:3a:03:73:9b:a5:8b:
                    b2:33:11:6c:88:5e:22:30:74:bd:34:8f:15:34:e4:
                    ad:0c:d5:7b:d7:e3:f4:09:ff:9d:ea:a6:0c:60:10:
                    77:9d:d5:55:db:e1:fe:7f:57:a5:a5:5b:0f:5d:99:
                    1a:77:1e:73:27:f9:88:1a:4a:24:5a:bb:0d:e8:4e:
                    c6:79:ce:10:28:43:f1:1e:fa:36:89:60:4d:cc:5a:
                    8b:0d
                Exponent: 65537 (0x10001)
        X509v3 extensions:
            X509v3 Subject Key Identifier: 
                F8:51:CA:19:84:AC:03:6F:0A:A2:ED:4A:17:32:29:54:C4:B9:C1:8C
            X509v3 Authority Key Identifier: 
                keyid:43:AA:A0:08:BC:13:08:F0:7F:6F:4F:8B:0D:33:17:60:5D:AA:07:20
                DirName:/C=US/ST=California/L=Santa Clara/O=pkg5/CN=ta1/emailAddress=ta1
                serial:01
            X509v3 Basic Constraints: critical
                CA:TRUE, pathlen:3
            X509v3 Key Usage: critical
                Certificate Sign, CRL Sign
    Signature Algorithm: sha256WithRSAEncryption
    Signature Value:
        5d:70:9f:c8:4f:44:0a:d0:26:33:eb:3f:06:41:58:94:45:41:
        d3:1b:a7:bf:07:b0:2b:5e:6c:5f:d5:48:e6:44:aa:5a:87:4c:
        04:ba:9f:15:ec:ce:c2:32:ca:45:77:24:2a:f5:e9:0b:2e:94:
        87:2c:ec:9f:b4:30:3e:52:fd:bb:3b:38:eb:67:14:57:cf:e3:
        af:ce:fc:5b:10:46:b9:27:ac:44:ca:86:ae:be:e0:70:36:7e:
        1b:49:71:4a:86:05:72:ac:b3:d7:cd:8d:ca:08:69:c8:b3:f3:
        9c:57:32:cd:c3:64:b4:fa:04:92:0b:90:69:eb:36:83:90:16:
        37:9b:97:6a:4f:e6:29:27:e7:72:5b:4e:95:15:bb:e3:d8:c3:
        b7:1d:c0:0b:9b:eb:68:cc:0e:5f:d8:3b:94:22:3a:e9:60:e9:
        06:57:9c:d6:58:02:ae:d4:1d:05:08:e4:77:aa:6f:a6:c0:ad:
        82:50:d5:f1:5d:1c:a9:17:59:da:9e:02:03:05:30:a2:e8:30:
        b6:34:b4:e5:a5:83:34:38:90:cc:cc:18:31:17:4f:1e:d3:84:
        d4:6a:6c:52:4a:76:52:df:ed:49:ed:3c:91:b1:b9:11:0d:0a:
        ad:16:a5:73:0e:8d:2a:44:7d:e1:4e:84:5d:9f:46:96:3f:79:
        cc:0a:5f:c6
-----BEGIN CERTIFICATE-----
MIIEOjCCAyKgAwIBAgIBAjANBgkqhkiG9w0BAQsFADBxMQswCQYDVQQGEwJVUzET
MBEGA1UECAwKQ2FsaWZvcm5pYTEUMBIGA1UEBwwLU2FudGEgQ2xhcmExDTALBgNV
BAoMBHBrZzUxEDAOBgNVBAMMB2NoMV90YTExFjAUBgkqhkiG9w0BCQEWB2NoMV90
YTEwHhcNMjMxMDI0MjE0MjU4WhcNMjYwNzIwMjE0MjU4WjBxMQswCQYDVQQGEwJV
UzETMBEGA1UECAwKQ2FsaWZvcm5pYTEUMBIGA1UEBwwLU2FudGEgQ2xhcmExDTAL
BgNVBAoMBHBrZzUxEDAOBgNVBAMMB2NoMl90YTExFjAUBgkqhkiG9w0BCQEWB2No
Ml90YTEwggEiMA0GCSqGSIb3DQEBAQUAA4IBDwAwggEKAoIBAQDhMfeVWTZm15wy
OoiFcMEDDgLTcLmjjUMnOD08XAjapbCfh+MjfCigWAHFGzAPY6e7vf1SqUCzn7wW
4Ikyt26BcURHkPQ7XVcdABXd+MrL4bBrFQ99evrsUYlxgw3JiNO9NiuKc4tghZnq
P9dh5tL4GDYWMAgLjVz22hAicetIruhHkJWk2TiWmE0nndVvPjYxPREZY4eT1ia2
5+CB6AAY4kRBTf5VN2pJEvEejzoDc5uli7IzEWyIXiIwdL00jxU05K0M1XvX4/QJ
/53qpgxgEHed1VXb4f5/V6WlWw9dmRp3HnMn+YgaSiRauw3oTsZ5zhAoQ/Ee+jaJ
YE3MWosNAgMBAAGjgdwwgdkwHQYDVR0OBBYEFPhRyhmErANvCqLtShcyKVTEucGM
MIGTBgNVHSMEgYswgYiAFEOqoAi8Ewjwf29Piw0zF2BdqgcgoW2kazBpMQswCQYD
VQQGEwJVUzETMBEGA1UECAwKQ2FsaWZvcm5pYTEUMBIGA1UEBwwLU2FudGEgQ2xh
cmExDTALBgNVBAoMBHBrZzUxDDAKBgNVBAMMA3RhMTESMBAGCSqGSIb3DQEJARYD
dGExggEBMBIGA1UdEwEB/wQIMAYBAf8CAQMwDgYDVR0PAQH/BAQDAgEGMA0GCSqG
SIb3DQEBCwUAA4IBAQBdcJ/IT0QK0CYz6z8GQViURUHTG6e/B7ArXmxf1UjmRKpa
h0wEup8V7M7CMspFdyQq9ekLLpSHLOyftDA+Uv27OzjrZxRXz+OvzvxbEEa5J6xE
yoauvuBwNn4bSXFKhgVyrLPXzY3KCGnIs/OcVzLNw2S0+gSSC5Bp6zaDkBY3m5dq
T+YpJ+dyW06VFbvj2MO3HcALm+tozA5f2DuUIjrpYOkGV5zWWAKu1B0FCOR3qm+m
wK2CUNXxXRypF1nangIDBTCi6DC2NLTlpYM0OJDMzBgxF08e04TUamxSSnZS3+1J
7TyRsbkRDQqtFqVzDo0qRH3hToRdn0aWP3nMCl/G
-----END CERTIFICATE-----
