Certificate:
    Data:
        Version: 3 (0x2)
        Serial Number: 2 (0x2)
    Signature Algorithm: sha256WithRSAEncryption
        Issuer: C=US, ST=California, L=Santa Clara, O=pkg5, CN=ch1_ta1/emailAddress=ch1_ta1
        Validity
            Not Before: Nov 16 10:58:46 2017 GMT
            Not After : Aug 12 10:58:46 2020 GMT
        Subject: C=US, ST=California, L=Santa Clara, O=pkg5, CN=ch2_ta1/emailAddress=ch2_ta1
        Subject Public Key Info:
            Public Key Algorithm: rsaEncryption
                Public-Key: (2048 bit)
                Modulus:
                    00:e1:0e:0e:1f:57:d6:3c:c5:d1:05:c3:2c:e6:bb:
                    a6:39:fe:4c:d2:eb:bf:8b:63:3f:6c:5f:2a:89:b7:
                    1c:97:17:d8:62:a4:98:7d:1a:91:24:26:f6:ab:c2:
                    c4:20:b6:13:15:59:fd:03:1f:0d:8a:54:16:60:93:
                    ef:3e:ac:9f:e7:b1:9b:df:14:49:4d:e3:04:fe:ff:
                    15:e1:3b:78:8b:08:89:7b:35:72:86:f9:24:ba:da:
                    53:d9:86:93:10:93:ae:c2:84:2e:9e:2b:4c:91:60:
                    06:7b:93:ba:04:65:54:1f:d9:23:7e:e0:13:89:1a:
                    b7:84:25:00:38:c6:78:a3:75:1f:77:0e:07:85:9d:
                    eb:30:4c:13:d7:c9:95:5f:96:e0:fb:7c:36:4a:b8:
                    a6:8d:20:eb:bb:28:21:e7:15:3f:01:27:b7:56:4e:
                    b1:d6:86:a2:69:d9:f5:e7:b1:de:77:df:91:1c:0d:
                    9c:cf:04:f2:e1:da:90:1e:51:be:f5:c7:5b:f6:b4:
                    95:47:62:99:ed:10:b6:f8:c8:2d:86:c8:0c:e2:2f:
                    b7:9e:44:9e:ad:c0:46:4c:8c:20:cd:5a:8a:cf:3f:
                    fb:ab:65:a7:93:7d:77:b3:5d:9f:ac:4f:09:90:83:
                    61:a2:ef:c1:69:c4:11:e7:ad:fa:9c:d4:98:ea:b9:
                    62:1d
                Exponent: 65537 (0x10001)
        X509v3 extensions:
            X509v3 Subject Key Identifier: 
                51:C5:9E:D5:E2:E9:40:7B:A1:AC:FB:91:D5:C8:62:C7:39:DD:9F:01
            X509v3 Authority Key Identifier: 
                keyid:25:2C:9F:41:22:80:0C:8E:DD:D2:B9:52:A8:34:12:83:AC:07:7C:7D
                DirName:/C=US/ST=California/L=Santa Clara/O=pkg5/CN=ta1/emailAddress=ta1
                serial:01

            X509v3 Basic Constraints: critical
                CA:TRUE, pathlen:3
            X509v3 Key Usage: critical
                Certificate Sign, CRL Sign
    Signature Algorithm: sha256WithRSAEncryption
         82:7d:c2:3d:c6:b3:ef:d3:c1:9b:41:88:4b:7f:d7:2f:e1:03:
         e0:d0:88:b8:42:40:87:c1:58:11:b7:85:29:59:71:c6:70:1a:
         9a:a1:48:24:54:a3:e4:a7:ba:fe:56:d9:ea:26:3f:71:8a:36:
         c1:34:59:b8:8a:a2:f3:b9:50:9f:17:a2:f9:da:55:1a:e1:a1:
         9f:45:97:af:7c:35:90:fb:49:49:51:a3:74:85:8f:53:d3:4d:
         6a:c5:04:b4:77:45:5a:78:f0:f9:ec:4f:a3:69:c2:59:29:70:
         e1:fd:3d:ee:44:43:bc:4e:8a:0d:15:bf:d7:d3:bf:70:f8:44:
         5c:6d:9e:04:a5:01:9c:e1:77:56:75:01:0d:dd:36:a1:2a:29:
         d0:e3:9a:96:52:7f:0f:ad:6e:ba:b0:d2:55:6b:aa:e8:ea:c1:
         6e:67:79:53:73:33:c8:6b:39:cf:66:64:6f:13:17:3e:bf:0b:
         6a:80:f2:2f:29:6d:a6:fd:75:49:4d:12:8f:68:0b:06:3c:1b:
         ac:c3:2a:82:a6:af:33:7f:c5:0f:fa:79:96:f9:c8:07:ef:ca:
         fe:3f:00:82:9a:01:99:d4:93:87:7f:63:67:12:95:5c:76:11:
         08:c5:ac:40:21:5c:c6:23:de:6e:d5:57:f3:94:73:cb:22:59:
         73:1d:af:24
-----BEGIN CERTIFICATE-----
MIIEOjCCAyKgAwIBAgIBAjANBgkqhkiG9w0BAQsFADBxMQswCQYDVQQGEwJVUzET
MBEGA1UECAwKQ2FsaWZvcm5pYTEUMBIGA1UEBwwLU2FudGEgQ2xhcmExDTALBgNV
BAoMBHBrZzUxEDAOBgNVBAMMB2NoMV90YTExFjAUBgkqhkiG9w0BCQEWB2NoMV90
YTEwHhcNMTcxMTE2MTA1ODQ2WhcNMjAwODEyMTA1ODQ2WjBxMQswCQYDVQQGEwJV
UzETMBEGA1UECAwKQ2FsaWZvcm5pYTEUMBIGA1UEBwwLU2FudGEgQ2xhcmExDTAL
BgNVBAoMBHBrZzUxEDAOBgNVBAMMB2NoMl90YTExFjAUBgkqhkiG9w0BCQEWB2No
Ml90YTEwggEiMA0GCSqGSIb3DQEBAQUAA4IBDwAwggEKAoIBAQDhDg4fV9Y8xdEF
wyzmu6Y5/kzS67+LYz9sXyqJtxyXF9hipJh9GpEkJvarwsQgthMVWf0DHw2KVBZg
k+8+rJ/nsZvfFElN4wT+/xXhO3iLCIl7NXKG+SS62lPZhpMQk67ChC6eK0yRYAZ7
k7oEZVQf2SN+4BOJGreEJQA4xnijdR93DgeFneswTBPXyZVfluD7fDZKuKaNIOu7
KCHnFT8BJ7dWTrHWhqJp2fXnsd5335EcDZzPBPLh2pAeUb71x1v2tJVHYpntELb4
yC2GyAziL7eeRJ6twEZMjCDNWorPP/urZaeTfXezXZ+sTwmQg2Gi78FpxBHnrfqc
1JjquWIdAgMBAAGjgdwwgdkwHQYDVR0OBBYEFFHFntXi6UB7oaz7kdXIYsc53Z8B
MIGTBgNVHSMEgYswgYiAFCUsn0EigAyO3dK5Uqg0EoOsB3x9oW2kazBpMQswCQYD
VQQGEwJVUzETMBEGA1UECAwKQ2FsaWZvcm5pYTEUMBIGA1UEBwwLU2FudGEgQ2xh
cmExDTALBgNVBAoMBHBrZzUxDDAKBgNVBAMMA3RhMTESMBAGCSqGSIb3DQEJARYD
dGExggEBMBIGA1UdEwEB/wQIMAYBAf8CAQMwDgYDVR0PAQH/BAQDAgEGMA0GCSqG
SIb3DQEBCwUAA4IBAQCCfcI9xrPv08GbQYhLf9cv4QPg0Ii4QkCHwVgRt4UpWXHG
cBqaoUgkVKPkp7r+VtnqJj9xijbBNFm4iqLzuVCfF6L52lUa4aGfRZevfDWQ+0lJ
UaN0hY9T001qxQS0d0VaePD57E+jacJZKXDh/T3uREO8TooNFb/X079w+ERcbZ4E
pQGc4XdWdQEN3TahKinQ45qWUn8PrW66sNJVa6ro6sFuZ3lTczPIaznPZmRvExc+
vwtqgPIvKW2m/XVJTRKPaAsGPBuswyqCpq8zf8UP+nmW+cgH78r+PwCCmgGZ1JOH
f2NnEpVcdhEIxaxAIVzGI95u1VfzlHPLIllzHa8k
-----END CERTIFICATE-----
