Certificate:
    Data:
        Version: 3 (0x2)
        Serial Number: 2 (0x2)
    Signature Algorithm: sha256WithRSAEncryption
        Issuer: C=US, ST=California, L=Santa Clara, O=pkg5, CN=ch1_ta1/emailAddress=ch1_ta1
        Validity
            Not Before: Nov 28 22:50:54 2016 GMT
            Not After : Aug 25 22:50:54 2019 GMT
        Subject: C=US, ST=California, L=Santa Clara, O=pkg5, CN=ch2_ta1/emailAddress=ch2_ta1
        Subject Public Key Info:
            Public Key Algorithm: rsaEncryption
                Public-Key: (2048 bit)
                Modulus:
                    00:e5:65:e2:7a:20:b5:05:57:a9:a0:88:71:3b:7d:
                    8b:cd:14:e6:39:52:eb:2b:49:45:a4:65:30:1d:9c:
                    41:ca:4b:62:9d:4f:a8:ee:77:11:aa:54:aa:f5:13:
                    e9:bb:4a:c6:99:64:47:03:09:e0:47:d0:97:93:b4:
                    ac:c7:50:e9:b9:cf:d7:d3:9e:84:71:55:dd:f0:67:
                    b7:38:46:48:fc:59:ce:34:0b:b8:30:df:3a:1f:d4:
                    eb:02:63:1e:0d:78:50:86:18:70:52:a0:d2:ef:61:
                    83:ea:83:bd:95:bb:4b:cb:05:ea:40:6a:eb:80:36:
                    ba:8c:17:9e:37:f3:bc:a2:56:1d:3d:01:69:6e:26:
                    eb:02:f8:52:a6:45:a6:21:2a:6b:c1:22:18:31:87:
                    0d:30:87:7e:c1:83:b7:22:c3:3b:f2:6a:ef:78:f4:
                    9c:f0:60:ac:d2:e0:79:83:3d:83:ff:c7:2e:23:b8:
                    c8:9f:cd:11:eb:e1:d5:89:a6:18:e0:42:db:5b:57:
                    3d:fe:7f:18:9f:41:f6:64:08:15:b6:59:ac:9d:11:
                    a1:6a:0d:1c:f5:43:b3:48:a9:b2:24:61:b9:11:f9:
                    a9:df:a2:30:12:72:92:bb:bb:f3:aa:86:94:e2:58:
                    11:a4:7a:1e:2c:23:99:72:e1:fb:a5:15:4b:52:a5:
                    c6:3f
                Exponent: 65537 (0x10001)
        X509v3 extensions:
            X509v3 Subject Key Identifier: 
                58:8E:F8:38:C1:56:D0:C4:A6:73:40:54:DC:79:EC:F8:04:C7:58:9C
            X509v3 Authority Key Identifier: 
                keyid:55:56:E5:64:DD:FB:C5:E1:9F:AA:8A:39:32:C0:DE:51:30:81:B0:60
                DirName:/C=US/ST=California/L=Santa Clara/O=pkg5/CN=ta1/emailAddress=ta1
                serial:01

            X509v3 Basic Constraints: critical
                CA:TRUE, pathlen:3
            X509v3 Key Usage: critical
                Certificate Sign, CRL Sign
    Signature Algorithm: sha256WithRSAEncryption
         a7:de:d3:a0:01:9d:85:ac:07:c1:ae:c1:0c:6d:4f:91:71:c6:
         bc:61:e5:ae:3a:44:fa:1d:60:14:d3:ec:63:4b:8c:b9:97:5f:
         27:72:6e:fd:8f:e9:c2:47:f9:7d:d1:c0:2a:db:fc:b3:22:1d:
         70:37:1c:d5:4c:3f:05:3d:92:c8:b5:77:cf:86:bb:70:d6:52:
         63:29:fa:20:79:3b:f7:25:2b:08:bf:1b:8f:0f:62:fe:5e:70:
         b4:a8:a9:bf:e2:7d:f2:1c:49:48:48:e9:4d:99:55:ae:f1:8e:
         61:4d:0e:9d:77:a1:49:ab:2c:30:9d:ef:0a:86:82:93:87:51:
         b4:54:ce:40:9e:10:a8:1b:5d:ca:00:8a:92:31:bd:d3:15:6b:
         18:af:ed:e9:d2:9c:31:89:d9:8e:ce:44:3c:77:e9:32:7d:e4:
         dd:f7:7c:20:b6:c9:1c:4e:f2:d3:3e:d5:5b:cc:d8:8b:5f:9a:
         64:bc:28:80:94:e4:30:f4:d1:75:48:de:9c:db:35:ea:c2:aa:
         13:6d:f5:b4:4a:7f:52:e2:27:a6:0f:23:a2:5d:d6:38:97:d5:
         19:6d:11:dd:21:1d:a5:c7:c1:fe:ca:29:3a:fa:c6:10:94:f6:
         db:bb:aa:50:0b:f4:35:53:d8:24:a0:f3:f5:07:56:0d:15:4e:
         50:46:5b:e7
-----BEGIN CERTIFICATE-----
MIIEOjCCAyKgAwIBAgIBAjANBgkqhkiG9w0BAQsFADBxMQswCQYDVQQGEwJVUzET
MBEGA1UECAwKQ2FsaWZvcm5pYTEUMBIGA1UEBwwLU2FudGEgQ2xhcmExDTALBgNV
BAoMBHBrZzUxEDAOBgNVBAMMB2NoMV90YTExFjAUBgkqhkiG9w0BCQEWB2NoMV90
YTEwHhcNMTYxMTI4MjI1MDU0WhcNMTkwODI1MjI1MDU0WjBxMQswCQYDVQQGEwJV
UzETMBEGA1UECAwKQ2FsaWZvcm5pYTEUMBIGA1UEBwwLU2FudGEgQ2xhcmExDTAL
BgNVBAoMBHBrZzUxEDAOBgNVBAMMB2NoMl90YTExFjAUBgkqhkiG9w0BCQEWB2No
Ml90YTEwggEiMA0GCSqGSIb3DQEBAQUAA4IBDwAwggEKAoIBAQDlZeJ6ILUFV6mg
iHE7fYvNFOY5UusrSUWkZTAdnEHKS2KdT6judxGqVKr1E+m7SsaZZEcDCeBH0JeT
tKzHUOm5z9fTnoRxVd3wZ7c4Rkj8Wc40C7gw3zof1OsCYx4NeFCGGHBSoNLvYYPq
g72Vu0vLBepAauuANrqMF54387yiVh09AWluJusC+FKmRaYhKmvBIhgxhw0wh37B
g7ciwzvyau949JzwYKzS4HmDPYP/xy4juMifzRHr4dWJphjgQttbVz3+fxifQfZk
CBW2WaydEaFqDRz1Q7NIqbIkYbkR+anfojAScpK7u/OqhpTiWBGkeh4sI5ly4ful
FUtSpcY/AgMBAAGjgdwwgdkwHQYDVR0OBBYEFFiO+DjBVtDEpnNAVNx57PgEx1ic
MIGTBgNVHSMEgYswgYiAFFVW5WTd+8Xhn6qKOTLA3lEwgbBgoW2kazBpMQswCQYD
VQQGEwJVUzETMBEGA1UECAwKQ2FsaWZvcm5pYTEUMBIGA1UEBwwLU2FudGEgQ2xh
cmExDTALBgNVBAoMBHBrZzUxDDAKBgNVBAMMA3RhMTESMBAGCSqGSIb3DQEJARYD
dGExggEBMBIGA1UdEwEB/wQIMAYBAf8CAQMwDgYDVR0PAQH/BAQDAgEGMA0GCSqG
SIb3DQEBCwUAA4IBAQCn3tOgAZ2FrAfBrsEMbU+Rcca8YeWuOkT6HWAU0+xjS4y5
l18ncm79j+nCR/l90cAq2/yzIh1wNxzVTD8FPZLItXfPhrtw1lJjKfogeTv3JSsI
vxuPD2L+XnC0qKm/4n3yHElISOlNmVWu8Y5hTQ6dd6FJqywwne8KhoKTh1G0VM5A
nhCoG13KAIqSMb3TFWsYr+3p0pwxidmOzkQ8d+kyfeTd93wgtskcTvLTPtVbzNiL
X5pkvCiAlOQw9NF1SN6c2zXqwqoTbfW0Sn9S4iemDyOiXdY4l9UZbRHdIR2lx8H+
yik6+sYQlPbbu6pQC/Q1U9gkoPP1B1YNFU5QRlvn
-----END CERTIFICATE-----
