Certificate:
    Data:
        Version: 3 (0x2)
        Serial Number: 2 (0x2)
        Signature Algorithm: sha256WithRSAEncryption
        Issuer: C=US, ST=California, L=Santa Clara, O=pkg5, CN=ch1_ta1/emailAddress=ch1_ta1
        Validity
            Not Before: May 23 15:47:14 2024 GMT
            Not After : Feb 17 15:47:14 2027 GMT
        Subject: C=US, ST=California, L=Santa Clara, O=pkg5, CN=ch2_ta1/emailAddress=ch2_ta1
        Subject Public Key Info:
            Public Key Algorithm: rsaEncryption
                Public-Key: (2048 bit)
                Modulus:
                    00:e6:43:00:e4:da:27:42:49:de:4c:75:34:c9:ff:
                    eb:cd:a4:39:c3:b6:42:5e:26:58:77:7f:0e:de:d8:
                    f3:fc:93:ba:af:a6:c3:69:d7:52:2a:7e:84:77:2b:
                    30:2f:ca:ea:7e:a5:16:a8:b0:e4:ac:47:d5:eb:d2:
                    e7:50:71:fb:52:ba:35:3d:78:10:9b:43:28:75:cf:
                    b9:c9:b2:84:95:01:55:bc:eb:a9:0c:19:01:a1:92:
                    bb:86:8f:c1:b4:33:86:b7:e3:63:9c:4f:64:c7:20:
                    ed:03:8f:1b:69:cc:be:06:2f:d9:92:d3:d3:c4:7d:
                    49:3a:e6:67:49:9a:8e:ea:d1:6b:62:51:2d:86:b1:
                    d7:60:2c:f5:cf:5f:ba:80:08:b3:2c:b3:d4:8d:4b:
                    8b:6c:dd:f4:ef:54:c5:df:89:b4:bf:8e:35:45:6e:
                    2d:d8:e2:b0:f1:30:55:63:3a:8a:a9:1a:8b:d8:9f:
                    d5:b4:94:a7:14:52:b2:e9:a9:fb:25:34:7f:16:24:
                    41:2d:fe:b4:21:30:a9:0e:f4:83:bd:72:d3:27:8a:
                    ae:61:c6:c5:83:24:ea:d4:39:31:11:cc:4d:1b:10:
                    d5:36:8e:de:f3:a3:79:39:3b:d9:c6:fa:cf:d2:b0:
                    6d:c0:c1:d4:9a:00:57:8b:bf:ea:01:02:63:12:96:
                    3d:db
                Exponent: 65537 (0x10001)
        X509v3 extensions:
            X509v3 Subject Key Identifier: 
                3B:35:2F:D9:4A:64:FB:45:6A:2E:59:83:0A:EA:92:01:C6:CE:49:C2
            X509v3 Authority Key Identifier: 
                keyid:DE:89:F6:DE:DE:3A:9C:9D:4E:53:9E:EF:94:FB:80:85:49:09:98:86
                DirName:/C=US/ST=California/L=Santa Clara/O=pkg5/CN=ta1/emailAddress=ta1
                serial:01
            X509v3 Basic Constraints: critical
                CA:TRUE, pathlen:3
            X509v3 Key Usage: critical
                Certificate Sign, CRL Sign
    Signature Algorithm: sha256WithRSAEncryption
    Signature Value:
        10:63:b1:19:b0:37:df:73:3e:cd:a6:01:4d:f8:94:92:74:82:
        e1:20:67:8a:8b:39:c5:f2:64:da:01:82:63:b9:26:d6:4c:e9:
        9b:04:8b:28:fb:56:a3:86:a7:34:40:4a:7b:60:8b:25:92:a8:
        53:ea:c7:6b:d6:9c:05:62:cc:16:24:a5:7d:e3:fb:2b:34:66:
        f4:21:42:1d:64:73:a7:7d:2d:03:5f:7e:a5:1f:ad:0a:24:91:
        66:a5:12:f3:be:c1:a4:b3:30:b0:e8:1b:11:42:76:bd:a1:1f:
        5b:57:62:02:3b:ab:62:21:60:9b:2c:fe:97:40:f1:8a:7a:81:
        e6:bc:4f:bb:49:71:a8:ea:c5:ea:0c:82:d0:c9:17:5c:0a:dd:
        88:8e:30:01:c7:68:2f:f5:99:b6:49:83:ca:ec:d3:fb:e0:fc:
        04:60:f5:dc:24:d2:9f:82:94:ce:01:05:7f:63:32:ac:40:fb:
        9b:c5:4a:4a:63:b8:5c:46:11:4f:d6:cf:16:3f:a9:b8:fc:f8:
        d9:87:bc:ec:5b:dc:bb:69:7d:14:61:0e:35:03:b7:a0:95:d1:
        d2:ef:b5:8a:22:2d:a2:84:44:4d:a2:98:87:fa:91:26:46:19:
        21:f6:12:16:1f:10:e4:f9:44:b5:4c:47:45:2d:83:7b:f4:4b:
        eb:c2:0e:02
-----BEGIN CERTIFICATE-----
MIIEOjCCAyKgAwIBAgIBAjANBgkqhkiG9w0BAQsFADBxMQswCQYDVQQGEwJVUzET
MBEGA1UECAwKQ2FsaWZvcm5pYTEUMBIGA1UEBwwLU2FudGEgQ2xhcmExDTALBgNV
BAoMBHBrZzUxEDAOBgNVBAMMB2NoMV90YTExFjAUBgkqhkiG9w0BCQEWB2NoMV90
YTEwHhcNMjQwNTIzMTU0NzE0WhcNMjcwMjE3MTU0NzE0WjBxMQswCQYDVQQGEwJV
UzETMBEGA1UECAwKQ2FsaWZvcm5pYTEUMBIGA1UEBwwLU2FudGEgQ2xhcmExDTAL
BgNVBAoMBHBrZzUxEDAOBgNVBAMMB2NoMl90YTExFjAUBgkqhkiG9w0BCQEWB2No
Ml90YTEwggEiMA0GCSqGSIb3DQEBAQUAA4IBDwAwggEKAoIBAQDmQwDk2idCSd5M
dTTJ/+vNpDnDtkJeJlh3fw7e2PP8k7qvpsNp11IqfoR3KzAvyup+pRaosOSsR9Xr
0udQcftSujU9eBCbQyh1z7nJsoSVAVW866kMGQGhkruGj8G0M4a342OcT2THIO0D
jxtpzL4GL9mS09PEfUk65mdJmo7q0WtiUS2GsddgLPXPX7qACLMss9SNS4ts3fTv
VMXfibS/jjVFbi3Y4rDxMFVjOoqpGovYn9W0lKcUUrLpqfslNH8WJEEt/rQhMKkO
9IO9ctMniq5hxsWDJOrUOTERzE0bENU2jt7zo3k5O9nG+s/SsG3AwdSaAFeLv+oB
AmMSlj3bAgMBAAGjgdwwgdkwHQYDVR0OBBYEFDs1L9lKZPtFai5ZgwrqkgHGzknC
MIGTBgNVHSMEgYswgYiAFN6J9t7eOpydTlOe75T7gIVJCZiGoW2kazBpMQswCQYD
VQQGEwJVUzETMBEGA1UECAwKQ2FsaWZvcm5pYTEUMBIGA1UEBwwLU2FudGEgQ2xh
cmExDTALBgNVBAoMBHBrZzUxDDAKBgNVBAMMA3RhMTESMBAGCSqGSIb3DQEJARYD
dGExggEBMBIGA1UdEwEB/wQIMAYBAf8CAQMwDgYDVR0PAQH/BAQDAgEGMA0GCSqG
SIb3DQEBCwUAA4IBAQAQY7EZsDffcz7NpgFN+JSSdILhIGeKiznF8mTaAYJjuSbW
TOmbBIso+1ajhqc0QEp7YIslkqhT6sdr1pwFYswWJKV94/srNGb0IUIdZHOnfS0D
X36lH60KJJFmpRLzvsGkszCw6BsRQna9oR9bV2ICO6tiIWCbLP6XQPGKeoHmvE+7
SXGo6sXqDILQyRdcCt2IjjABx2gv9Zm2SYPK7NP74PwEYPXcJNKfgpTOAQV/YzKs
QPubxUpKY7hcRhFP1s8WP6m4/PjZh7zsW9y7aX0UYQ41A7egldHS77WKIi2ihERN
opiH+pEmRhkh9hIWHxDk+US1TEdFLYN79Evrwg4C
-----END CERTIFICATE-----
