Certificate:
    Data:
        Version: 3 (0x2)
        Serial Number: 2 (0x2)
        Signature Algorithm: sha256WithRSAEncryption
        Issuer: C=US, ST=California, L=Santa Clara, O=pkg5, CN=ch1_ta1/emailAddress=ch1_ta1
        Validity
            Not Before: Nov 14 14:26:51 2024 GMT
            Not After : Aug 11 14:26:51 2027 GMT
        Subject: C=US, ST=California, L=Santa Clara, O=pkg5, CN=ch2_ta1/emailAddress=ch2_ta1
        Subject Public Key Info:
            Public Key Algorithm: rsaEncryption
                Public-Key: (2048 bit)
                Modulus:
                    00:8d:b8:0f:16:ae:77:78:65:f9:a3:19:f6:d5:1f:
                    92:a7:8e:ac:81:6a:7d:f4:5b:4f:09:6a:3b:22:f0:
                    02:b0:ed:e6:b3:1c:cf:69:85:78:bf:8c:f7:37:76:
                    f5:fc:7b:6c:37:98:99:cf:7f:12:f6:92:aa:a5:f6:
                    b4:8d:17:24:81:ae:4d:c9:34:12:d5:96:42:d4:11:
                    49:81:b9:46:92:e2:3e:36:f8:0a:07:21:9c:da:a6:
                    0d:6d:57:82:20:9f:21:d4:01:a0:ba:3f:0f:d0:b4:
                    b4:04:b7:77:4d:cd:5d:66:27:ac:f0:f7:24:e6:d9:
                    67:58:b7:79:a3:03:29:f3:57:6e:9c:97:da:85:8c:
                    05:ab:e9:a0:63:c2:be:e9:8b:b9:a0:4c:ad:d2:38:
                    3a:da:28:49:ba:3c:3b:fa:65:7b:ec:bf:4d:19:cd:
                    95:61:72:a3:2b:4b:a6:79:be:63:ed:f7:a2:88:a3:
                    7d:72:52:86:88:e0:66:e5:6d:c1:7b:13:a3:ad:d7:
                    ea:0d:9d:6e:11:2b:ff:6d:f8:b1:71:86:a3:ed:26:
                    bb:87:d9:aa:0b:4d:48:95:1a:d8:0d:92:44:6c:78:
                    f5:8f:06:32:13:ff:04:1d:d1:a2:ff:41:62:ae:ec:
                    48:82:3d:b8:ee:c4:b8:a8:03:2c:fa:85:a5:8e:5e:
                    51:03
                Exponent: 65537 (0x10001)
        X509v3 extensions:
            X509v3 Subject Key Identifier: 
                9A:BC:E5:C9:8C:E0:AA:80:F7:C8:96:07:AE:1A:B4:34:03:3F:26:1B
            X509v3 Authority Key Identifier: 
                keyid:C8:E6:C2:BC:C5:DD:E7:CF:06:D6:8D:33:89:97:68:81:CE:93:63:12
                DirName:/C=US/ST=California/L=Santa Clara/O=pkg5/CN=ta1/emailAddress=ta1
                serial:01
            X509v3 Basic Constraints: critical
                CA:TRUE, pathlen:3
            X509v3 Key Usage: critical
                Certificate Sign, CRL Sign
    Signature Algorithm: sha256WithRSAEncryption
    Signature Value:
        07:8b:5a:a2:a7:df:a4:86:ed:17:8a:3c:d0:01:e5:6f:37:e2:
        ca:7c:be:c5:31:1f:e9:b7:fe:c5:b9:8c:ed:54:62:73:61:e6:
        ad:5c:60:92:11:bd:e7:7f:71:99:5f:96:23:5a:ad:98:b6:f0:
        80:8f:bd:a2:ab:b0:4f:dd:c2:69:66:c4:c5:db:34:fd:2f:5d:
        de:94:df:bb:f2:14:ff:7f:86:1e:70:7a:48:d6:d5:79:7f:68:
        e9:4a:27:c7:57:88:1f:9f:10:81:dc:38:2d:3b:d9:92:27:b1:
        af:43:0d:08:42:20:58:20:03:cb:78:81:71:40:38:96:41:03:
        20:1b:64:69:62:b0:fb:19:ef:b1:d1:3b:5a:12:81:af:79:e4:
        e8:c5:d0:e6:41:b1:3b:5d:35:ef:95:51:01:7a:6d:93:b4:74:
        ae:1f:b1:b4:a9:64:eb:bd:8a:84:59:47:83:8c:38:aa:c0:e9:
        24:9d:14:3a:5a:5b:6a:85:7e:0f:21:c4:dc:e8:c5:e9:19:8e:
        fa:f8:f9:86:92:9d:6b:df:54:ee:90:58:4f:10:92:8a:7e:b4:
        f7:da:6c:1c:54:d9:44:e7:98:62:9b:77:9a:bf:5b:2c:89:5a:
        aa:3c:50:25:63:e1:36:32:95:20:bb:83:1b:80:c3:79:e2:e1:
        0d:42:25:21
-----BEGIN CERTIFICATE-----
MIIEOjCCAyKgAwIBAgIBAjANBgkqhkiG9w0BAQsFADBxMQswCQYDVQQGEwJVUzET
MBEGA1UECAwKQ2FsaWZvcm5pYTEUMBIGA1UEBwwLU2FudGEgQ2xhcmExDTALBgNV
BAoMBHBrZzUxEDAOBgNVBAMMB2NoMV90YTExFjAUBgkqhkiG9w0BCQEWB2NoMV90
YTEwHhcNMjQxMTE0MTQyNjUxWhcNMjcwODExMTQyNjUxWjBxMQswCQYDVQQGEwJV
UzETMBEGA1UECAwKQ2FsaWZvcm5pYTEUMBIGA1UEBwwLU2FudGEgQ2xhcmExDTAL
BgNVBAoMBHBrZzUxEDAOBgNVBAMMB2NoMl90YTExFjAUBgkqhkiG9w0BCQEWB2No
Ml90YTEwggEiMA0GCSqGSIb3DQEBAQUAA4IBDwAwggEKAoIBAQCNuA8Wrnd4Zfmj
GfbVH5KnjqyBan30W08Jajsi8AKw7eazHM9phXi/jPc3dvX8e2w3mJnPfxL2kqql
9rSNFySBrk3JNBLVlkLUEUmBuUaS4j42+AoHIZzapg1tV4IgnyHUAaC6Pw/QtLQE
t3dNzV1mJ6zw9yTm2WdYt3mjAynzV26cl9qFjAWr6aBjwr7pi7mgTK3SODraKEm6
PDv6ZXvsv00ZzZVhcqMrS6Z5vmPt96KIo31yUoaI4GblbcF7E6Ot1+oNnW4RK/9t
+LFxhqPtJruH2aoLTUiVGtgNkkRsePWPBjIT/wQd0aL/QWKu7EiCPbjuxLioAyz6
haWOXlEDAgMBAAGjgdwwgdkwHQYDVR0OBBYEFJq85cmM4KqA98iWB64atDQDPyYb
MIGTBgNVHSMEgYswgYiAFMjmwrzF3efPBtaNM4mXaIHOk2MSoW2kazBpMQswCQYD
VQQGEwJVUzETMBEGA1UECAwKQ2FsaWZvcm5pYTEUMBIGA1UEBwwLU2FudGEgQ2xh
cmExDTALBgNVBAoMBHBrZzUxDDAKBgNVBAMMA3RhMTESMBAGCSqGSIb3DQEJARYD
dGExggEBMBIGA1UdEwEB/wQIMAYBAf8CAQMwDgYDVR0PAQH/BAQDAgEGMA0GCSqG
SIb3DQEBCwUAA4IBAQAHi1qip9+khu0XijzQAeVvN+LKfL7FMR/pt/7FuYztVGJz
YeatXGCSEb3nf3GZX5YjWq2YtvCAj72iq7BP3cJpZsTF2zT9L13elN+78hT/f4Ye
cHpI1tV5f2jpSifHV4gfnxCB3DgtO9mSJ7GvQw0IQiBYIAPLeIFxQDiWQQMgG2Rp
YrD7Ge+x0TtaEoGveeToxdDmQbE7XTXvlVEBem2TtHSuH7G0qWTrvYqEWUeDjDiq
wOkknRQ6WltqhX4PIcTc6MXpGY76+PmGkp1r31TukFhPEJKKfrT32mwcVNlE55hi
m3eav1ssiVqqPFAlY+E2MpUgu4MbgMN54uENQiUh
-----END CERTIFICATE-----
