Certificate:
    Data:
        Version: 3 (0x2)
        Serial Number: 2 (0x2)
        Signature Algorithm: sha256WithRSAEncryption
        Issuer: C=US, ST=California, L=Santa Clara, O=pkg5, CN=ch1_ta1/emailAddress=ch1_ta1
        Validity
            Not Before: Nov 17 23:01:27 2020 GMT
            Not After : Aug 14 23:01:27 2023 GMT
        Subject: C=US, ST=California, L=Santa Clara, O=pkg5, CN=ch2_ta1/emailAddress=ch2_ta1
        Subject Public Key Info:
            Public Key Algorithm: rsaEncryption
                RSA Public-Key: (2048 bit)
                Modulus:
                    00:bd:7b:26:21:b1:84:56:f0:ce:44:69:d2:a9:8e:
                    d3:26:08:7c:d2:a5:4e:9c:23:eb:84:7d:05:48:96:
                    32:d1:db:9e:80:0c:12:32:10:69:32:b8:8d:40:f6:
                    e0:de:d6:09:ca:4e:60:cb:a5:1b:9b:f6:17:04:0c:
                    19:cc:27:49:f7:fe:9c:4a:b5:4f:6a:62:e4:7b:23:
                    84:33:81:35:14:7c:92:9d:35:d6:3a:01:57:37:62:
                    cd:16:0f:15:ed:be:a7:29:28:3c:c7:97:a1:c2:95:
                    d3:4e:26:52:48:ca:bf:04:1b:60:e1:53:f4:c5:e5:
                    c9:52:68:a6:d1:09:af:05:2b:e7:7c:6f:6f:9c:e5:
                    78:76:e4:a8:94:a3:7c:8a:8b:fd:1d:d3:37:eb:5d:
                    bc:d1:30:7a:b0:35:2c:31:82:61:8d:cf:74:b8:e5:
                    6b:ad:fd:d1:8e:dd:34:64:97:d9:f6:75:a5:69:d4:
                    fa:a3:11:49:8b:8f:89:8c:96:5e:d7:29:7a:9b:d9:
                    72:d5:91:71:68:c1:39:00:ee:f5:d0:4d:97:f5:d4:
                    1a:55:46:04:fc:63:94:90:96:c5:fc:fd:04:37:d2:
                    e8:65:55:c3:74:3b:2c:7b:b0:e4:d9:ea:91:90:67:
                    51:ef:2b:38:93:2b:66:82:81:61:62:dd:63:54:82:
                    80:f3
                Exponent: 65537 (0x10001)
        X509v3 extensions:
            X509v3 Subject Key Identifier: 
                D2:FE:3E:9E:21:ED:F5:2E:5C:7B:C2:EB:D2:BC:87:BF:00:64:33:49
            X509v3 Authority Key Identifier: 
                keyid:00:00:32:67:0B:02:0E:0B:56:F4:08:61:AD:42:14:E8:8E:C4:1A:C1
                DirName:/C=US/ST=California/L=Santa Clara/O=pkg5/CN=ta1/emailAddress=ta1
                serial:01

            X509v3 Basic Constraints: critical
                CA:TRUE, pathlen:3
            X509v3 Key Usage: critical
                Certificate Sign, CRL Sign
    Signature Algorithm: sha256WithRSAEncryption
         a2:80:31:be:39:56:a0:5c:6d:fd:ba:04:3a:04:8e:89:1a:4e:
         e3:58:17:c4:6c:7f:14:a5:4d:81:6b:0e:49:74:fb:26:a6:97:
         b9:2f:04:1f:d8:b1:e5:97:2c:63:43:62:28:53:e4:7c:77:42:
         8b:d0:8d:f9:56:af:57:3b:7a:da:27:f8:1f:c9:22:84:ea:81:
         2f:aa:fe:84:ef:d0:b6:e5:0a:45:0d:d7:a1:7c:12:89:9b:e7:
         88:0d:e7:d0:f6:3f:90:e1:27:63:a0:a5:d9:3b:5f:31:be:b6:
         86:78:4e:27:ca:f4:7d:e8:1f:6f:86:fe:e6:0f:55:f5:f4:7e:
         3f:ac:e3:7a:ac:79:70:dc:c4:ba:4e:63:2a:82:6e:30:ff:45:
         40:8e:91:43:41:bc:62:ca:a0:37:21:4b:3d:3e:46:ad:97:5f:
         96:ad:fd:8b:0b:8f:dd:4b:09:1b:98:f3:1b:fc:06:f1:86:36:
         95:bb:a1:bd:09:25:1f:f7:39:f4:2b:9d:da:cc:87:a0:b4:8c:
         62:fb:51:eb:99:31:c7:0a:4e:0e:46:2d:0d:db:50:f1:6f:5c:
         26:28:13:91:ad:2a:34:7b:69:53:96:01:ba:d1:86:6c:23:22:
         cd:7c:71:8d:b3:e6:2a:d5:32:5f:d5:26:6f:77:f1:25:a9:2e:
         c5:bb:6f:c3
-----BEGIN CERTIFICATE-----
MIIEOjCCAyKgAwIBAgIBAjANBgkqhkiG9w0BAQsFADBxMQswCQYDVQQGEwJVUzET
MBEGA1UECAwKQ2FsaWZvcm5pYTEUMBIGA1UEBwwLU2FudGEgQ2xhcmExDTALBgNV
BAoMBHBrZzUxEDAOBgNVBAMMB2NoMV90YTExFjAUBgkqhkiG9w0BCQEWB2NoMV90
YTEwHhcNMjAxMTE3MjMwMTI3WhcNMjMwODE0MjMwMTI3WjBxMQswCQYDVQQGEwJV
UzETMBEGA1UECAwKQ2FsaWZvcm5pYTEUMBIGA1UEBwwLU2FudGEgQ2xhcmExDTAL
BgNVBAoMBHBrZzUxEDAOBgNVBAMMB2NoMl90YTExFjAUBgkqhkiG9w0BCQEWB2No
Ml90YTEwggEiMA0GCSqGSIb3DQEBAQUAA4IBDwAwggEKAoIBAQC9eyYhsYRW8M5E
adKpjtMmCHzSpU6cI+uEfQVIljLR256ADBIyEGkyuI1A9uDe1gnKTmDLpRub9hcE
DBnMJ0n3/pxKtU9qYuR7I4QzgTUUfJKdNdY6AVc3Ys0WDxXtvqcpKDzHl6HCldNO
JlJIyr8EG2DhU/TF5clSaKbRCa8FK+d8b2+c5Xh25KiUo3yKi/0d0zfrXbzRMHqw
NSwxgmGNz3S45Wut/dGO3TRkl9n2daVp1PqjEUmLj4mMll7XKXqb2XLVkXFowTkA
7vXQTZf11BpVRgT8Y5SQlsX8/QQ30uhlVcN0Oyx7sOTZ6pGQZ1HvKziTK2aCgWFi
3WNUgoDzAgMBAAGjgdwwgdkwHQYDVR0OBBYEFNL+Pp4h7fUuXHvC69K8h78AZDNJ
MIGTBgNVHSMEgYswgYiAFAAAMmcLAg4LVvQIYa1CFOiOxBrBoW2kazBpMQswCQYD
VQQGEwJVUzETMBEGA1UECAwKQ2FsaWZvcm5pYTEUMBIGA1UEBwwLU2FudGEgQ2xh
cmExDTALBgNVBAoMBHBrZzUxDDAKBgNVBAMMA3RhMTESMBAGCSqGSIb3DQEJARYD
dGExggEBMBIGA1UdEwEB/wQIMAYBAf8CAQMwDgYDVR0PAQH/BAQDAgEGMA0GCSqG
SIb3DQEBCwUAA4IBAQCigDG+OVagXG39ugQ6BI6JGk7jWBfEbH8UpU2Baw5JdPsm
ppe5LwQf2LHllyxjQ2IoU+R8d0KL0I35Vq9XO3raJ/gfySKE6oEvqv6E79C25QpF
DdehfBKJm+eIDefQ9j+Q4SdjoKXZO18xvraGeE4nyvR96B9vhv7mD1X19H4/rON6
rHlw3MS6TmMqgm4w/0VAjpFDQbxiyqA3IUs9Pkatl1+Wrf2LC4/dSwkbmPMb/Abx
hjaVu6G9CSUf9zn0K53azIegtIxi+1HrmTHHCk4ORi0N21Dxb1wmKBORrSo0e2lT
lgG60YZsIyLNfHGNs+Yq1TJf1SZvd/ElqS7Fu2/D
-----END CERTIFICATE-----
