Certificate:
    Data:
        Version: 3 (0x2)
        Serial Number: 3 (0x3)
    Signature Algorithm: sha256WithRSAEncryption
        Issuer: C=US, ST=California, L=Santa Clara, O=pkg5, CN=ch2_ta1/emailAddress=ch2_ta1
        Validity
            Not Before: Dec  6 03:06:42 2014 GMT
            Not After : Sep  1 03:06:42 2017 GMT
        Subject: C=US, ST=California, L=Santa Clara, O=pkg5, CN=ch3_ta1/emailAddress=ch3_ta1
        Subject Public Key Info:
            Public Key Algorithm: rsaEncryption
                Public-Key: (1024 bit)
                Modulus:
                    00:db:f0:9e:88:0b:2f:15:52:1a:19:83:e0:22:4a:
                    ef:3a:d4:0b:74:67:a9:b2:60:29:27:d3:c8:8f:a2:
                    ac:55:87:b5:12:5c:0c:41:49:77:09:e9:47:55:e0:
                    9d:23:51:d2:a5:d4:02:f3:17:db:e2:71:f0:88:06:
                    b9:d7:0b:6a:1c:20:77:de:91:bb:d1:85:e9:70:13:
                    c1:7e:73:19:b4:71:40:c4:20:4b:e8:8f:ab:8a:94:
                    ac:b4:15:08:4a:f6:a2:1d:86:8e:58:01:44:0a:17:
                    7f:ad:d9:9c:80:34:b3:5e:21:a1:18:b3:39:2a:c2:
                    f6:f0:d6:1b:91:f4:32:67:65
                Exponent: 65537 (0x10001)
        X509v3 extensions:
            X509v3 Subject Key Identifier: 
                D6:18:F4:DC:85:E5:39:00:2D:5D:9F:8F:24:44:86:97:2A:67:3A:72
            X509v3 Authority Key Identifier: 
                keyid:5D:D0:CB:D7:A6:97:DA:71:E5:4C:1A:01:3D:06:00:0E:B1:8B:9B:0E
                DirName:/C=US/ST=California/L=Santa Clara/O=pkg5/CN=ch1_ta1/emailAddress=ch1_ta1
                serial:02

            X509v3 Basic Constraints: critical
                CA:TRUE, pathlen:2
            X509v3 Key Usage: critical
                Certificate Sign, CRL Sign
    Signature Algorithm: sha256WithRSAEncryption
         84:09:db:e9:dd:5c:19:0f:59:11:79:f8:72:7f:5b:54:c2:a9:
         3b:d5:cf:e7:a4:ea:95:08:3c:ff:7d:ad:d8:b7:5c:ed:42:1a:
         2f:e9:47:82:60:ba:1c:29:5d:1d:57:82:f9:07:68:25:4a:bc:
         70:d3:29:25:8d:c6:e6:ea:f0:30:d7:f0:e0:ab:1d:64:6f:82:
         87:19:09:76:c3:27:13:e6:cf:67:fe:46:bc:29:11:6d:39:ce:
         c6:5c:1a:2b:bb:08:ec:03:c3:39:30:01:fe:2d:8c:a9:7d:f3:
         ee:35:8a:1d:88:a4:33:6a:1c:19:fe:21:b0:57:37:c2:1f:68:
         36:cf
-----BEGIN CERTIFICATE-----
MIIDPTCCAqagAwIBAgIBAzANBgkqhkiG9w0BAQsFADBxMQswCQYDVQQGEwJVUzET
MBEGA1UECAwKQ2FsaWZvcm5pYTEUMBIGA1UEBwwLU2FudGEgQ2xhcmExDTALBgNV
BAoMBHBrZzUxEDAOBgNVBAMMB2NoMl90YTExFjAUBgkqhkiG9w0BCQEWB2NoMl90
YTEwHhcNMTQxMjA2MDMwNjQyWhcNMTcwOTAxMDMwNjQyWjBxMQswCQYDVQQGEwJV
UzETMBEGA1UECAwKQ2FsaWZvcm5pYTEUMBIGA1UEBwwLU2FudGEgQ2xhcmExDTAL
BgNVBAoMBHBrZzUxEDAOBgNVBAMMB2NoM190YTExFjAUBgkqhkiG9w0BCQEWB2No
M190YTEwgZ8wDQYJKoZIhvcNAQEBBQADgY0AMIGJAoGBANvwnogLLxVSGhmD4CJK
7zrUC3RnqbJgKSfTyI+irFWHtRJcDEFJdwnpR1XgnSNR0qXUAvMX2+Jx8IgGudcL
ahwgd96Ru9GF6XATwX5zGbRxQMQgS+iPq4qUrLQVCEr2oh2GjlgBRAoXf63ZnIA0
s14hoRizOSrC9vDWG5H0MmdlAgMBAAGjgeQwgeEwHQYDVR0OBBYEFNYY9NyF5TkA
LV2fjyREhpcqZzpyMIGbBgNVHSMEgZMwgZCAFF3Qy9eml9px5UwaAT0GAA6xi5sO
oXWkczBxMQswCQYDVQQGEwJVUzETMBEGA1UECAwKQ2FsaWZvcm5pYTEUMBIGA1UE
BwwLU2FudGEgQ2xhcmExDTALBgNVBAoMBHBrZzUxEDAOBgNVBAMMB2NoMV90YTEx
FjAUBgkqhkiG9w0BCQEWB2NoMV90YTGCAQIwEgYDVR0TAQH/BAgwBgEB/wIBAjAO
BgNVHQ8BAf8EBAMCAQYwDQYJKoZIhvcNAQELBQADgYEAhAnb6d1cGQ9ZEXn4cn9b
VMKpO9XP56TqlQg8/32t2Ldc7UIaL+lHgmC6HCldHVeC+QdoJUq8cNMpJY3G5urw
MNfw4KsdZG+ChxkJdsMnE+bPZ/5GvCkRbTnOxlwaK7sI7APDOTAB/i2MqX3z7jWK
HYikM2ocGf4hsFc3wh9oNs8=
-----END CERTIFICATE-----
