Certificate:
    Data:
        Version: 3 (0x2)
        Serial Number: 3 (0x3)
        Signature Algorithm: sha256WithRSAEncryption
        Issuer: C=US, ST=California, L=Santa Clara, O=pkg5, CN=ch2_ta1/emailAddress=ch2_ta1
        Validity
            Not Before: Nov 14 14:26:51 2024 GMT
            Not After : Aug 11 14:26:51 2027 GMT
        Subject: C=US, ST=California, L=Santa Clara, O=pkg5, CN=ch3_ta1/emailAddress=ch3_ta1
        Subject Public Key Info:
            Public Key Algorithm: rsaEncryption
                Public-Key: (2048 bit)
                Modulus:
                    00:ab:06:c0:7b:66:be:1e:16:13:f4:f9:63:6d:9e:
                    ea:d4:77:4a:4c:77:3f:23:f7:54:a0:a6:41:dc:fc:
                    ad:50:3a:9f:0e:f6:17:1d:8f:28:48:4a:64:6c:01:
                    f3:1a:83:80:03:d4:13:60:e1:3e:df:79:c8:dc:68:
                    34:4a:d5:b0:a4:9e:cb:67:34:83:43:e9:18:50:62:
                    2c:d5:f9:ff:ae:12:22:05:f8:6f:f6:6e:ad:a7:f5:
                    f6:18:c8:4a:9d:31:01:01:d6:33:c7:60:67:6e:a0:
                    dd:6a:18:cd:07:b9:61:69:e8:98:26:57:81:65:2e:
                    65:1b:9a:cc:dc:93:c9:58:a9:e8:9c:27:87:df:d1:
                    88:b1:24:25:4e:9b:25:9d:bb:e2:3b:85:04:c2:48:
                    c9:90:57:bc:de:38:8b:26:0a:fe:46:c4:9b:3c:37:
                    26:a3:5c:f8:74:46:eb:53:47:3c:08:d0:bd:58:c5:
                    02:1a:b4:65:60:d1:7a:7d:9d:63:d7:b3:6d:47:a5:
                    7a:4b:7b:b1:33:2f:81:b4:ba:a4:a8:aa:23:2f:97:
                    83:ea:56:fa:21:7a:70:8e:8d:da:9b:7d:5b:59:75:
                    e4:3a:00:07:8d:27:02:64:cd:09:38:86:75:6a:d6:
                    24:60:f7:4f:06:e8:a3:03:2f:1b:23:df:0f:48:e1:
                    a0:e3
                Exponent: 65537 (0x10001)
        X509v3 extensions:
            X509v3 Subject Key Identifier: 
                9F:C9:8F:96:B8:44:63:58:A6:99:AC:B9:77:A1:93:F3:F9:60:D8:FC
            X509v3 Authority Key Identifier: 
                keyid:9A:BC:E5:C9:8C:E0:AA:80:F7:C8:96:07:AE:1A:B4:34:03:3F:26:1B
                DirName:/C=US/ST=California/L=Santa Clara/O=pkg5/CN=ch1_ta1/emailAddress=ch1_ta1
                serial:02
            X509v3 Basic Constraints: critical
                CA:TRUE, pathlen:2
            X509v3 Key Usage: critical
                Certificate Sign, CRL Sign
    Signature Algorithm: sha256WithRSAEncryption
    Signature Value:
        46:c9:f3:61:f2:3c:8c:41:99:0b:95:de:b8:3f:fa:01:0c:96:
        c3:73:1e:90:8b:ef:c9:49:72:82:1f:44:72:4e:e8:ab:42:11:
        75:0a:67:6f:9e:2f:57:ba:5e:62:e7:70:1a:36:01:b8:a9:4e:
        e0:45:9b:53:13:ed:20:46:c7:92:91:11:3b:5a:9e:55:32:43:
        35:d2:1e:21:66:d5:f0:28:c7:8c:95:3b:14:c2:cb:3d:df:cf:
        fc:ba:01:f6:80:04:3b:25:cb:8b:19:84:90:36:15:ad:52:f3:
        41:09:9a:66:63:56:a9:a1:25:5c:c7:a4:3a:f0:4a:eb:23:9f:
        f0:9f:e7:8c:75:dd:d1:cb:ab:73:bc:90:a7:82:15:99:cd:9b:
        df:55:8b:31:f9:32:89:a0:13:fc:b6:2d:8a:2c:1b:89:e0:92:
        1a:51:5f:63:f0:97:48:79:72:fb:6f:c4:ce:a0:6f:e9:8d:d7:
        2b:99:76:89:0f:67:de:de:94:e7:eb:bd:88:91:a8:8d:3a:4b:
        64:c6:6a:9d:c9:80:d9:eb:64:0d:06:c1:c6:d3:4b:62:16:18:
        33:37:ab:dd:b0:bb:e0:5f:e1:1b:81:e7:f9:fe:16:78:f2:f8:
        a9:23:2d:fb:8a:50:05:a3:1c:d7:0f:89:17:3b:10:c1:17:1e:
        cd:9a:e8:dc
-----BEGIN CERTIFICATE-----
MIIEQjCCAyqgAwIBAgIBAzANBgkqhkiG9w0BAQsFADBxMQswCQYDVQQGEwJVUzET
MBEGA1UECAwKQ2FsaWZvcm5pYTEUMBIGA1UEBwwLU2FudGEgQ2xhcmExDTALBgNV
BAoMBHBrZzUxEDAOBgNVBAMMB2NoMl90YTExFjAUBgkqhkiG9w0BCQEWB2NoMl90
YTEwHhcNMjQxMTE0MTQyNjUxWhcNMjcwODExMTQyNjUxWjBxMQswCQYDVQQGEwJV
UzETMBEGA1UECAwKQ2FsaWZvcm5pYTEUMBIGA1UEBwwLU2FudGEgQ2xhcmExDTAL
BgNVBAoMBHBrZzUxEDAOBgNVBAMMB2NoM190YTExFjAUBgkqhkiG9w0BCQEWB2No
M190YTEwggEiMA0GCSqGSIb3DQEBAQUAA4IBDwAwggEKAoIBAQCrBsB7Zr4eFhP0
+WNtnurUd0pMdz8j91SgpkHc/K1QOp8O9hcdjyhISmRsAfMag4AD1BNg4T7fecjc
aDRK1bCknstnNIND6RhQYizV+f+uEiIF+G/2bq2n9fYYyEqdMQEB1jPHYGduoN1q
GM0HuWFp6JgmV4FlLmUbmszck8lYqeicJ4ff0YixJCVOmyWdu+I7hQTCSMmQV7ze
OIsmCv5GxJs8NyajXPh0RutTRzwI0L1YxQIatGVg0Xp9nWPXs21HpXpLe7EzL4G0
uqSoqiMvl4PqVvohenCOjdqbfVtZdeQ6AAeNJwJkzQk4hnVq1iRg908G6KMDLxsj
3w9I4aDjAgMBAAGjgeQwgeEwHQYDVR0OBBYEFJ/Jj5a4RGNYppmsuXehk/P5YNj8
MIGbBgNVHSMEgZMwgZCAFJq85cmM4KqA98iWB64atDQDPyYboXWkczBxMQswCQYD
VQQGEwJVUzETMBEGA1UECAwKQ2FsaWZvcm5pYTEUMBIGA1UEBwwLU2FudGEgQ2xh
cmExDTALBgNVBAoMBHBrZzUxEDAOBgNVBAMMB2NoMV90YTExFjAUBgkqhkiG9w0B
CQEWB2NoMV90YTGCAQIwEgYDVR0TAQH/BAgwBgEB/wIBAjAOBgNVHQ8BAf8EBAMC
AQYwDQYJKoZIhvcNAQELBQADggEBAEbJ82HyPIxBmQuV3rg/+gEMlsNzHpCL78lJ
coIfRHJO6KtCEXUKZ2+eL1e6XmLncBo2AbipTuBFm1MT7SBGx5KRETtanlUyQzXS
HiFm1fAox4yVOxTCyz3fz/y6AfaABDsly4sZhJA2Fa1S80EJmmZjVqmhJVzHpDrw
Susjn/Cf54x13dHLq3O8kKeCFZnNm99VizH5MomgE/y2LYosG4ngkhpRX2Pwl0h5
cvtvxM6gb+mN1yuZdokPZ97elOfrvYiRqI06S2TGap3JgNnrZA0GwcbTS2IWGDM3
q92wu+Bf4RuB5/n+Fnjy+KkjLfuKUAWjHNcPiRc7EMEXHs2a6Nw=
-----END CERTIFICATE-----
