Certificate:
    Data:
        Version: 3 (0x2)
        Serial Number: 3 (0x3)
        Signature Algorithm: sha256WithRSAEncryption
        Issuer: C=US, ST=California, L=Santa Clara, O=pkg5, CN=ch2_ta1/emailAddress=ch2_ta1
        Validity
            Not Before: Nov 17 23:01:27 2020 GMT
            Not After : Aug 14 23:01:27 2023 GMT
        Subject: C=US, ST=California, L=Santa Clara, O=pkg5, CN=ch3_ta1/emailAddress=ch3_ta1
        Subject Public Key Info:
            Public Key Algorithm: rsaEncryption
                RSA Public-Key: (2048 bit)
                Modulus:
                    00:ac:85:2f:d8:7a:f5:e5:58:35:44:ad:81:ed:22:
                    17:d7:23:74:74:9e:5f:dc:a5:82:c0:6c:4e:cc:75:
                    69:12:1d:d0:9d:c2:53:35:9c:99:5b:43:9c:84:45:
                    1d:9b:6e:d3:81:81:af:aa:90:97:ad:ac:47:01:fb:
                    b8:cc:ab:56:75:d7:2f:8f:f9:c3:94:00:6e:53:a9:
                    97:db:3f:d0:46:0b:da:b6:bf:c5:39:dd:42:75:e5:
                    fc:f7:cd:82:13:27:62:e9:7d:78:37:89:51:6f:e2:
                    26:ba:72:f0:19:c2:32:d4:d5:b1:ce:47:ef:70:1b:
                    46:15:f6:ff:86:72:ca:ef:21:4d:d7:cc:dd:33:ea:
                    01:bc:e1:b2:3e:7f:4e:95:ba:d9:7f:83:1e:71:59:
                    a6:02:16:4e:20:d4:fe:bc:d1:d1:74:fb:54:1b:b8:
                    b3:49:05:d8:1a:04:12:6d:8c:12:cc:c9:bf:19:59:
                    eb:2b:27:0e:2c:ad:cf:9b:dc:02:f9:bd:b5:72:eb:
                    0f:b7:8c:9f:d9:bc:61:7d:ab:c1:60:50:f4:d0:e1:
                    cc:df:00:c8:0f:12:0b:21:14:b3:e3:22:a5:8c:b8:
                    06:35:92:bf:52:22:86:53:1b:93:9e:70:bd:2b:f6:
                    42:c2:c0:78:63:83:f3:1c:84:36:88:ea:17:13:a1:
                    f7:25
                Exponent: 65537 (0x10001)
        X509v3 extensions:
            X509v3 Subject Key Identifier: 
                68:3D:A5:22:1A:F1:F1:67:39:3E:71:66:9D:1A:E1:E1:A2:64:A2:E1
            X509v3 Authority Key Identifier: 
                keyid:D2:FE:3E:9E:21:ED:F5:2E:5C:7B:C2:EB:D2:BC:87:BF:00:64:33:49
                DirName:/C=US/ST=California/L=Santa Clara/O=pkg5/CN=ch1_ta1/emailAddress=ch1_ta1
                serial:02

            X509v3 Basic Constraints: critical
                CA:TRUE, pathlen:2
            X509v3 Key Usage: critical
                Certificate Sign, CRL Sign
    Signature Algorithm: sha256WithRSAEncryption
         5f:df:82:f3:fa:20:6d:a7:66:2f:ac:a7:ea:8f:a0:aa:87:6a:
         ba:f7:de:0f:17:7b:6f:de:01:13:e2:3a:fa:74:2b:2e:94:36:
         4d:b6:79:49:56:df:ef:ef:8e:3e:d7:0c:95:6d:9e:76:1c:f8:
         77:eb:12:d0:36:ee:ce:0a:37:b1:ab:9a:79:02:16:1d:a3:4e:
         d5:48:3a:cf:19:40:41:cb:39:fc:2b:35:0f:47:73:53:60:f4:
         24:7a:9e:b0:a5:70:a7:1f:83:8f:ec:55:3e:a6:dc:5a:ab:d6:
         5e:8f:fb:6c:9c:a3:90:92:71:58:9e:ff:89:15:ef:3d:b6:5b:
         7d:a3:04:d5:7f:1a:42:b9:0e:28:0a:81:29:11:4e:e7:09:5a:
         3b:1e:36:21:cb:9a:88:ad:c8:ac:91:a9:61:b6:d0:19:a5:fa:
         0e:25:73:44:11:30:f9:65:f9:62:b3:3d:c4:5f:8b:a1:a8:35:
         7a:2f:5b:08:1f:0d:2b:7a:36:09:43:df:1a:c2:38:69:d2:12:
         83:2d:1c:8b:0e:df:e5:9d:fd:88:e5:91:b7:77:de:eb:24:e5:
         0b:6a:06:73:a1:3a:ff:cd:df:63:0e:b6:84:bb:e2:d4:e6:45:
         d8:3c:63:a4:4e:a1:9c:62:4c:00:27:eb:a4:d0:49:33:01:ca:
         f0:fa:a8:eb
-----BEGIN CERTIFICATE-----
MIIEQjCCAyqgAwIBAgIBAzANBgkqhkiG9w0BAQsFADBxMQswCQYDVQQGEwJVUzET
MBEGA1UECAwKQ2FsaWZvcm5pYTEUMBIGA1UEBwwLU2FudGEgQ2xhcmExDTALBgNV
BAoMBHBrZzUxEDAOBgNVBAMMB2NoMl90YTExFjAUBgkqhkiG9w0BCQEWB2NoMl90
YTEwHhcNMjAxMTE3MjMwMTI3WhcNMjMwODE0MjMwMTI3WjBxMQswCQYDVQQGEwJV
UzETMBEGA1UECAwKQ2FsaWZvcm5pYTEUMBIGA1UEBwwLU2FudGEgQ2xhcmExDTAL
BgNVBAoMBHBrZzUxEDAOBgNVBAMMB2NoM190YTExFjAUBgkqhkiG9w0BCQEWB2No
M190YTEwggEiMA0GCSqGSIb3DQEBAQUAA4IBDwAwggEKAoIBAQCshS/YevXlWDVE
rYHtIhfXI3R0nl/cpYLAbE7MdWkSHdCdwlM1nJlbQ5yERR2bbtOBga+qkJetrEcB
+7jMq1Z11y+P+cOUAG5TqZfbP9BGC9q2v8U53UJ15fz3zYITJ2LpfXg3iVFv4ia6
cvAZwjLU1bHOR+9wG0YV9v+GcsrvIU3XzN0z6gG84bI+f06Vutl/gx5xWaYCFk4g
1P680dF0+1QbuLNJBdgaBBJtjBLMyb8ZWesrJw4src+b3AL5vbVy6w+3jJ/ZvGF9
q8FgUPTQ4czfAMgPEgshFLPjIqWMuAY1kr9SIoZTG5OecL0r9kLCwHhjg/MchDaI
6hcTofclAgMBAAGjgeQwgeEwHQYDVR0OBBYEFGg9pSIa8fFnOT5xZp0a4eGiZKLh
MIGbBgNVHSMEgZMwgZCAFNL+Pp4h7fUuXHvC69K8h78AZDNJoXWkczBxMQswCQYD
VQQGEwJVUzETMBEGA1UECAwKQ2FsaWZvcm5pYTEUMBIGA1UEBwwLU2FudGEgQ2xh
cmExDTALBgNVBAoMBHBrZzUxEDAOBgNVBAMMB2NoMV90YTExFjAUBgkqhkiG9w0B
CQEWB2NoMV90YTGCAQIwEgYDVR0TAQH/BAgwBgEB/wIBAjAOBgNVHQ8BAf8EBAMC
AQYwDQYJKoZIhvcNAQELBQADggEBAF/fgvP6IG2nZi+sp+qPoKqHarr33g8Xe2/e
ARPiOvp0Ky6UNk22eUlW3+/vjj7XDJVtnnYc+HfrEtA27s4KN7GrmnkCFh2jTtVI
Os8ZQEHLOfwrNQ9Hc1Ng9CR6nrClcKcfg4/sVT6m3Fqr1l6P+2yco5CScVie/4kV
7z22W32jBNV/GkK5DigKgSkRTucJWjseNiHLmoityKyRqWG20Bml+g4lc0QRMPll
+WKzPcRfi6GoNXovWwgfDSt6NglD3xrCOGnSEoMtHIsO3+Wd/Yjlkbd33usk5Qtq
BnOhOv/N32MOtoS74tTmRdg8Y6ROoZxiTAAn66TQSTMByvD6qOs=
-----END CERTIFICATE-----
