Certificate:
    Data:
        Version: 3 (0x2)
        Serial Number: 3 (0x3)
    Signature Algorithm: sha256WithRSAEncryption
        Issuer: C=US, ST=California, L=Santa Clara, O=pkg5, CN=ch2_ta1/emailAddress=ch2_ta1
        Validity
            Not Before: Mar 20 10:20:52 2018 GMT
            Not After : Dec 14 10:20:52 2020 GMT
        Subject: C=US, ST=California, L=Santa Clara, O=pkg5, CN=ch3_ta1/emailAddress=ch3_ta1
        Subject Public Key Info:
            Public Key Algorithm: rsaEncryption
                Public-Key: (2048 bit)
                Modulus:
                    00:c8:0b:97:37:0c:a1:1e:0f:4f:4e:8c:b3:5e:25:
                    24:fd:e2:ec:8c:8f:4d:a0:ba:9a:df:de:56:a9:a3:
                    e2:a1:a7:90:4a:7d:b0:b8:96:93:09:ee:64:bc:b5:
                    de:7b:91:a6:b2:76:57:f2:06:4a:7a:bd:76:0e:f1:
                    11:1f:ba:52:9c:57:bc:f9:10:28:62:ca:b4:22:d3:
                    0c:ae:77:3b:e9:f6:64:8a:0c:79:54:02:fe:0d:eb:
                    e7:a2:20:7e:2a:dc:1f:46:84:15:4b:38:ab:c7:ea:
                    78:1f:a6:58:b6:bc:b5:7a:d7:e5:e6:d0:00:e1:50:
                    f9:90:a3:e8:a5:22:28:31:f6:a4:7b:98:12:a3:ef:
                    20:99:6b:ae:53:06:6b:f8:29:bd:e3:ca:93:ce:2e:
                    da:62:8c:7e:b8:d6:ab:6a:b5:af:73:4a:5b:00:37:
                    a8:09:b1:09:bd:c0:38:43:8a:b4:95:68:7f:af:53:
                    a7:41:65:00:dd:84:e6:13:88:dc:f4:94:6b:d3:e5:
                    00:78:f4:eb:f0:a8:48:02:7f:b6:73:f3:b7:a8:3f:
                    f5:96:a2:c4:04:5e:15:9f:71:4f:ce:32:39:c1:ca:
                    13:d0:6d:2a:61:c7:70:36:c7:de:1b:96:16:e2:94:
                    c4:07:4c:7e:61:11:8c:b3:58:1a:46:27:72:c0:c2:
                    97:6f
                Exponent: 65537 (0x10001)
        X509v3 extensions:
            X509v3 Subject Key Identifier: 
                28:3E:8F:B6:52:6D:AD:E3:3C:E9:B6:EB:E5:F3:5A:F6:A7:9B:CF:45
            X509v3 Authority Key Identifier: 
                keyid:18:5A:F7:75:33:CE:5F:66:42:D5:63:C3:E7:CC:FC:B9:F7:24:DB:CA
                DirName:/C=US/ST=California/L=Santa Clara/O=pkg5/CN=ch1_ta1/emailAddress=ch1_ta1
                serial:02

            X509v3 Basic Constraints: critical
                CA:TRUE, pathlen:2
            X509v3 Key Usage: critical
                Certificate Sign, CRL Sign
    Signature Algorithm: sha256WithRSAEncryption
         38:ec:34:ab:79:55:fa:8c:1c:dd:bd:47:ce:dc:fe:b6:c2:0a:
         41:dc:1b:73:1d:39:b2:e5:5a:9b:91:cf:78:24:f2:21:6d:8d:
         30:40:17:1b:a8:d7:10:29:4f:e8:6b:59:2e:4b:5e:8c:43:89:
         b5:9f:e6:89:23:ec:4e:f3:1a:bd:88:ca:69:94:8b:d5:48:84:
         30:59:93:9a:de:75:74:e4:f9:1f:01:e7:51:aa:c8:b1:16:46:
         b9:12:38:61:10:ce:44:98:6d:cf:41:97:17:89:74:de:89:8f:
         69:84:ca:11:8d:8a:1a:69:a3:d6:62:4f:b8:64:d4:d0:7e:ce:
         af:f2:23:69:ce:71:66:fd:02:8d:a3:c0:c0:4c:bf:c0:99:f9:
         f0:88:e6:00:c5:11:11:4c:1d:58:d8:a2:a8:70:d5:9b:b9:b8:
         db:f3:39:ed:b6:60:8e:84:0b:69:09:61:65:9c:7f:19:ed:1d:
         16:68:67:02:b1:21:33:55:11:44:c5:bb:61:26:c7:12:1f:06:
         16:ef:00:ae:6a:0b:cc:a3:1a:50:02:2b:6e:3d:82:90:c2:49:
         b1:22:4c:90:98:4f:d5:3b:c0:5a:98:bd:0e:13:c8:8b:e9:02:
         1e:13:de:a5:a7:09:33:d6:68:74:ca:d4:a5:2b:f6:92:f7:f1:
         c5:55:0f:3d
-----BEGIN CERTIFICATE-----
MIIEQjCCAyqgAwIBAgIBAzANBgkqhkiG9w0BAQsFADBxMQswCQYDVQQGEwJVUzET
MBEGA1UECAwKQ2FsaWZvcm5pYTEUMBIGA1UEBwwLU2FudGEgQ2xhcmExDTALBgNV
BAoMBHBrZzUxEDAOBgNVBAMMB2NoMl90YTExFjAUBgkqhkiG9w0BCQEWB2NoMl90
YTEwHhcNMTgwMzIwMTAyMDUyWhcNMjAxMjE0MTAyMDUyWjBxMQswCQYDVQQGEwJV
UzETMBEGA1UECAwKQ2FsaWZvcm5pYTEUMBIGA1UEBwwLU2FudGEgQ2xhcmExDTAL
BgNVBAoMBHBrZzUxEDAOBgNVBAMMB2NoM190YTExFjAUBgkqhkiG9w0BCQEWB2No
M190YTEwggEiMA0GCSqGSIb3DQEBAQUAA4IBDwAwggEKAoIBAQDIC5c3DKEeD09O
jLNeJST94uyMj02guprf3lapo+Khp5BKfbC4lpMJ7mS8td57kaaydlfyBkp6vXYO
8REfulKcV7z5EChiyrQi0wyudzvp9mSKDHlUAv4N6+eiIH4q3B9GhBVLOKvH6ngf
pli2vLV61+Xm0ADhUPmQo+ilIigx9qR7mBKj7yCZa65TBmv4Kb3jypPOLtpijH64
1qtqta9zSlsAN6gJsQm9wDhDirSVaH+vU6dBZQDdhOYTiNz0lGvT5QB49OvwqEgC
f7Zz87eoP/WWosQEXhWfcU/OMjnByhPQbSphx3A2x94blhbilMQHTH5hEYyzWBpG
J3LAwpdvAgMBAAGjgeQwgeEwHQYDVR0OBBYEFCg+j7ZSba3jPOm26+XzWvanm89F
MIGbBgNVHSMEgZMwgZCAFBha93Uzzl9mQtVjw+fM/Ln3JNvKoXWkczBxMQswCQYD
VQQGEwJVUzETMBEGA1UECAwKQ2FsaWZvcm5pYTEUMBIGA1UEBwwLU2FudGEgQ2xh
cmExDTALBgNVBAoMBHBrZzUxEDAOBgNVBAMMB2NoMV90YTExFjAUBgkqhkiG9w0B
CQEWB2NoMV90YTGCAQIwEgYDVR0TAQH/BAgwBgEB/wIBAjAOBgNVHQ8BAf8EBAMC
AQYwDQYJKoZIhvcNAQELBQADggEBADjsNKt5VfqMHN29R87c/rbCCkHcG3MdObLl
WpuRz3gk8iFtjTBAFxuo1xApT+hrWS5LXoxDibWf5okj7E7zGr2IymmUi9VIhDBZ
k5redXTk+R8B51GqyLEWRrkSOGEQzkSYbc9BlxeJdN6Jj2mEyhGNihppo9ZiT7hk
1NB+zq/yI2nOcWb9Ao2jwMBMv8CZ+fCI5gDFERFMHVjYoqhw1Zu5uNvzOe22YI6E
C2kJYWWcfxntHRZoZwKxITNVEUTFu2EmxxIfBhbvAK5qC8yjGlACK249gpDCSbEi
TJCYT9U7wFqYvQ4TyIvpAh4T3qWnCTPWaHTK1KUr9pL38cVVDz0=
-----END CERTIFICATE-----
