Certificate:
    Data:
        Version: 3 (0x2)
        Serial Number: 12 (0xc)
    Signature Algorithm: sha256WithRSAEncryption
        Issuer: C=US, ST=California, L=Santa Clara, O=pkg5, CN=ch3_ta1/emailAddress=ch3_ta1
        Validity
            Not Before: Mar 20 10:20:53 2018 GMT
            Not After : Dec 14 10:20:53 2020 GMT
        Subject: C=US, ST=California, L=Santa Clara, O=pkg5, CN=ch4.3_ta1/emailAddress=ch4.3_ta1
        Subject Public Key Info:
            Public Key Algorithm: rsaEncryption
                Public-Key: (2048 bit)
                Modulus:
                    00:be:47:a5:a0:9e:19:ba:ad:8a:2d:cc:c1:44:8d:
                    c5:1e:35:cd:a5:78:bb:6a:1e:3c:97:9c:3e:4a:67:
                    50:5e:16:60:39:0e:39:17:19:b7:33:90:fe:b6:88:
                    07:e9:a1:2a:ea:f2:89:7a:f2:ba:b0:90:27:50:49:
                    95:21:ea:73:fb:20:da:a6:35:00:3d:79:74:23:65:
                    69:1b:34:01:0c:85:37:16:34:4e:25:f2:a6:79:45:
                    fe:92:ef:30:c9:4a:fc:2f:73:96:98:7c:b0:c3:c3:
                    e3:4e:ea:d3:3f:02:e1:8f:aa:70:7a:89:0c:14:12:
                    42:e1:41:5e:41:c0:c1:e9:34:33:59:b9:30:b9:0d:
                    04:11:db:72:ff:fa:3b:d0:a9:8c:3a:86:18:0e:f2:
                    38:cb:00:8a:a3:27:88:b3:3e:4e:8c:ac:46:22:3f:
                    60:2a:5e:75:7c:71:25:a2:6a:6f:20:cf:9d:b6:c5:
                    09:8b:df:d5:ce:5c:73:75:34:43:a4:52:a2:bd:34:
                    1c:91:18:f4:79:74:26:47:8c:24:10:7d:c8:ee:09:
                    13:e4:3f:2f:81:18:09:cf:1b:1b:41:50:43:de:fe:
                    cb:21:65:62:b8:fd:26:d5:1a:af:31:22:5c:46:59:
                    1e:89:59:3d:41:31:f7:f8:6d:ba:2a:c1:ac:65:4b:
                    52:99
                Exponent: 65537 (0x10001)
        X509v3 extensions:
            X509v3 Subject Key Identifier: 
                D7:41:20:C9:18:B7:D9:F9:13:C5:DD:C9:EC:34:BD:FA:C8:90:E2:06
            X509v3 Authority Key Identifier: 
                keyid:28:3E:8F:B6:52:6D:AD:E3:3C:E9:B6:EB:E5:F3:5A:F6:A7:9B:CF:45
                DirName:/C=US/ST=California/L=Santa Clara/O=pkg5/CN=ch2_ta1/emailAddress=ch2_ta1
                serial:03

            X509v3 Basic Constraints: critical
                CA:TRUE, pathlen:0
            X509v3 Key Usage: critical
                Certificate Sign, CRL Sign
    Signature Algorithm: sha256WithRSAEncryption
         77:1e:56:50:ee:2a:f2:9a:18:c8:bb:6b:bf:9a:f0:f8:1f:eb:
         5d:df:98:f1:32:76:56:f8:43:3d:dd:1c:0c:92:9f:6d:d5:a9:
         6b:7d:5a:ff:55:f4:5c:11:e0:6b:a6:51:5a:56:37:b7:f0:eb:
         57:e8:b2:13:5f:4d:b9:5e:93:40:37:e8:4d:aa:ae:1e:3c:c1:
         9d:9c:df:0b:43:47:ec:bf:05:ce:3d:9c:83:e4:11:39:58:94:
         48:c0:eb:c5:9e:5e:03:36:de:e0:bd:f3:f2:c0:98:4b:e0:59:
         23:7b:c3:2f:6c:45:f1:58:6b:ea:d2:bb:8c:f0:64:18:19:3e:
         35:ba:72:bb:8e:9f:3c:2a:00:9e:49:f8:94:e7:d2:b4:d9:79:
         87:00:e6:a1:b3:6a:a6:9f:ee:2a:f1:c1:a1:26:de:3f:c5:b3:
         d2:a8:96:c4:5a:5b:99:d2:6f:99:0f:34:6a:bc:3e:34:d8:ba:
         05:10:5c:43:6c:7d:6c:b7:af:ff:02:37:f1:0f:6b:f9:6b:9c:
         30:97:68:22:77:69:ba:86:8b:96:56:8a:bb:78:ca:27:fe:4b:
         c6:1a:e6:7c:10:6a:7d:ae:95:81:11:21:90:a7:62:ef:74:61:
         ef:2e:68:4a:97:10:49:a3:3b:da:8a:29:08:ba:a7:a3:8d:a3:
         ba:80:d6:cb
-----BEGIN CERTIFICATE-----
MIIERjCCAy6gAwIBAgIBDDANBgkqhkiG9w0BAQsFADBxMQswCQYDVQQGEwJVUzET
MBEGA1UECAwKQ2FsaWZvcm5pYTEUMBIGA1UEBwwLU2FudGEgQ2xhcmExDTALBgNV
BAoMBHBrZzUxEDAOBgNVBAMMB2NoM190YTExFjAUBgkqhkiG9w0BCQEWB2NoM190
YTEwHhcNMTgwMzIwMTAyMDUzWhcNMjAxMjE0MTAyMDUzWjB1MQswCQYDVQQGEwJV
UzETMBEGA1UECAwKQ2FsaWZvcm5pYTEUMBIGA1UEBwwLU2FudGEgQ2xhcmExDTAL
BgNVBAoMBHBrZzUxEjAQBgNVBAMMCWNoNC4zX3RhMTEYMBYGCSqGSIb3DQEJARYJ
Y2g0LjNfdGExMIIBIjANBgkqhkiG9w0BAQEFAAOCAQ8AMIIBCgKCAQEAvkeloJ4Z
uq2KLczBRI3FHjXNpXi7ah48l5w+SmdQXhZgOQ45Fxm3M5D+togH6aEq6vKJevK6
sJAnUEmVIepz+yDapjUAPXl0I2VpGzQBDIU3FjROJfKmeUX+ku8wyUr8L3OWmHyw
w8PjTurTPwLhj6pweokMFBJC4UFeQcDB6TQzWbkwuQ0EEdty//o70KmMOoYYDvI4
ywCKoyeIsz5OjKxGIj9gKl51fHElompvIM+dtsUJi9/VzlxzdTRDpFKivTQckRj0
eXQmR4wkEH3I7gkT5D8vgRgJzxsbQVBD3v7LIWViuP0m1RqvMSJcRlkeiVk9QTH3
+G26KsGsZUtSmQIDAQABo4HkMIHhMB0GA1UdDgQWBBTXQSDJGLfZ+RPF3cnsNL36
yJDiBjCBmwYDVR0jBIGTMIGQgBQoPo+2Um2t4zzptuvl81r2p5vPRaF1pHMwcTEL
MAkGA1UEBhMCVVMxEzARBgNVBAgMCkNhbGlmb3JuaWExFDASBgNVBAcMC1NhbnRh
IENsYXJhMQ0wCwYDVQQKDARwa2c1MRAwDgYDVQQDDAdjaDJfdGExMRYwFAYJKoZI
hvcNAQkBFgdjaDJfdGExggEDMBIGA1UdEwEB/wQIMAYBAf8CAQAwDgYDVR0PAQH/
BAQDAgEGMA0GCSqGSIb3DQEBCwUAA4IBAQB3HlZQ7irymhjIu2u/mvD4H+td35jx
MnZW+EM93RwMkp9t1alrfVr/VfRcEeBrplFaVje38OtX6LITX025XpNAN+hNqq4e
PMGdnN8LQ0fsvwXOPZyD5BE5WJRIwOvFnl4DNt7gvfPywJhL4Fkje8MvbEXxWGvq
0ruM8GQYGT41unK7jp88KgCeSfiU59K02XmHAOahs2qmn+4q8cGhJt4/xbPSqJbE
WluZ0m+ZDzRqvD402LoFEFxDbH1st6//AjfxD2v5a5wwl2gid2m6houWVoq7eMon
/kvGGuZ8EGp9rpWBESGQp2LvdGHvLmhKlxBJozvaiikIuqejjaO6gNbL
-----END CERTIFICATE-----
