Certificate:
    Data:
        Version: 3 (0x2)
        Serial Number: 12 (0xc)
    Signature Algorithm: sha256WithRSAEncryption
        Issuer: C=US, ST=California, L=Santa Clara, O=pkg5, CN=ch3_ta1/emailAddress=ch3_ta1
        Validity
            Not Before: Nov 28 22:50:55 2016 GMT
            Not After : Aug 25 22:50:55 2019 GMT
        Subject: C=US, ST=California, L=Santa Clara, O=pkg5, CN=ch4.3_ta1/emailAddress=ch4.3_ta1
        Subject Public Key Info:
            Public Key Algorithm: rsaEncryption
                Public-Key: (2048 bit)
                Modulus:
                    00:ea:c3:e6:7c:46:7d:d2:0c:9e:d8:0a:f6:7e:68:
                    cf:11:f0:3a:cd:77:90:b2:b0:1c:d6:93:f2:ce:4c:
                    84:25:6b:71:47:1c:f7:d1:c9:a2:33:77:4f:fe:55:
                    b0:db:a1:a2:15:9d:e6:e4:73:82:2c:d3:aa:ba:86:
                    6b:e1:1a:da:80:f2:97:32:4c:58:7a:4c:bb:9a:a5:
                    61:e4:8b:59:7a:f8:11:44:a0:c3:90:4d:40:eb:69:
                    40:f2:8d:2f:82:67:6c:9f:90:1c:5a:c5:e8:a6:23:
                    b7:2b:e7:3b:ce:8a:c4:93:9d:01:fc:40:b5:3d:05:
                    74:e3:37:6f:39:e6:b4:da:e4:ff:fc:bd:48:c2:ad:
                    27:69:eb:ed:8a:f7:9e:07:6e:67:8a:9b:fe:a2:53:
                    07:05:7c:72:84:dc:46:77:76:1c:ce:f7:1a:bf:dc:
                    9b:2b:aa:bb:a9:b3:e9:22:ad:a9:7e:41:c1:4d:2c:
                    8f:db:c4:79:47:8f:e0:13:e9:d7:0b:49:7c:73:21:
                    24:0a:0a:d5:7f:c6:b3:16:8c:71:ac:04:81:7c:d8:
                    bc:db:41:fe:55:3d:c6:29:f6:7e:f9:29:85:f7:d2:
                    7f:6f:8a:f6:60:ea:77:0f:34:48:f3:da:58:53:4b:
                    d7:d5:83:3f:1e:2c:3b:77:15:d0:6c:14:f0:f2:f7:
                    4c:d3
                Exponent: 65537 (0x10001)
        X509v3 extensions:
            X509v3 Subject Key Identifier: 
                B9:04:EC:6E:4C:B6:F0:CE:0B:91:1D:49:E7:E8:CD:01:46:31:38:3D
            X509v3 Authority Key Identifier: 
                keyid:83:07:85:F9:76:F6:8C:DA:A2:C3:D8:62:0A:87:DD:EE:6B:42:55:30
                DirName:/C=US/ST=California/L=Santa Clara/O=pkg5/CN=ch2_ta1/emailAddress=ch2_ta1
                serial:03

            X509v3 Basic Constraints: critical
                CA:TRUE, pathlen:0
            X509v3 Key Usage: critical
                Certificate Sign, CRL Sign
    Signature Algorithm: sha256WithRSAEncryption
         a5:10:2e:df:ac:31:dd:04:f8:bb:88:41:6d:0d:7d:fa:6d:16:
         2b:84:9f:e5:d9:48:fc:e0:b7:47:29:82:86:7a:1a:1b:cd:f0:
         95:16:a0:af:47:1d:4d:23:be:4d:3e:17:99:41:5d:fb:0a:84:
         40:19:bf:27:ba:69:4f:e2:8d:74:30:cd:2e:48:9c:6f:50:34:
         42:e5:b8:cc:ef:e6:0f:d2:63:8d:26:78:6e:d5:56:1e:b4:9e:
         ee:56:bf:42:9c:11:96:d7:3a:39:45:7b:51:70:cc:93:79:35:
         6c:ff:25:a6:b2:77:86:9b:06:bd:25:00:03:08:90:5e:df:45:
         c7:4d:09:02:91:c8:a3:79:f8:f7:9b:59:82:11:fd:14:dd:1f:
         99:cd:f1:d0:b2:c9:a7:33:ed:ba:70:64:fa:a3:de:8a:30:05:
         9f:fd:70:1a:b0:ea:69:ac:2d:8b:23:b6:de:54:8b:73:86:18:
         b7:c7:00:25:3c:28:cc:d9:45:94:f9:b2:cc:31:bf:6c:f6:de:
         b0:21:f4:4d:99:73:a3:e4:63:aa:b9:66:f9:77:79:5a:6c:c1:
         14:bf:ca:ad:38:6d:1f:db:3e:3d:79:9d:df:7f:65:2a:b2:96:
         d0:5a:68:00:23:c3:30:81:c0:fc:e8:28:39:a2:06:79:30:6e:
         40:78:ea:01
-----BEGIN CERTIFICATE-----
MIIERjCCAy6gAwIBAgIBDDANBgkqhkiG9w0BAQsFADBxMQswCQYDVQQGEwJVUzET
MBEGA1UECAwKQ2FsaWZvcm5pYTEUMBIGA1UEBwwLU2FudGEgQ2xhcmExDTALBgNV
BAoMBHBrZzUxEDAOBgNVBAMMB2NoM190YTExFjAUBgkqhkiG9w0BCQEWB2NoM190
YTEwHhcNMTYxMTI4MjI1MDU1WhcNMTkwODI1MjI1MDU1WjB1MQswCQYDVQQGEwJV
UzETMBEGA1UECAwKQ2FsaWZvcm5pYTEUMBIGA1UEBwwLU2FudGEgQ2xhcmExDTAL
BgNVBAoMBHBrZzUxEjAQBgNVBAMMCWNoNC4zX3RhMTEYMBYGCSqGSIb3DQEJARYJ
Y2g0LjNfdGExMIIBIjANBgkqhkiG9w0BAQEFAAOCAQ8AMIIBCgKCAQEA6sPmfEZ9
0gye2Ar2fmjPEfA6zXeQsrAc1pPyzkyEJWtxRxz30cmiM3dP/lWw26GiFZ3m5HOC
LNOquoZr4RragPKXMkxYeky7mqVh5ItZevgRRKDDkE1A62lA8o0vgmdsn5AcWsXo
piO3K+c7zorEk50B/EC1PQV04zdvOea02uT//L1Iwq0naevtiveeB25nipv+olMH
BXxyhNxGd3Yczvcav9ybK6q7qbPpIq2pfkHBTSyP28R5R4/gE+nXC0l8cyEkCgrV
f8azFoxxrASBfNi820H+VT3GKfZ++SmF99J/b4r2YOp3DzRI89pYU0vX1YM/Hiw7
dxXQbBTw8vdM0wIDAQABo4HkMIHhMB0GA1UdDgQWBBS5BOxuTLbwzguRHUnn6M0B
RjE4PTCBmwYDVR0jBIGTMIGQgBSDB4X5dvaM2qLD2GIKh93ua0JVMKF1pHMwcTEL
MAkGA1UEBhMCVVMxEzARBgNVBAgMCkNhbGlmb3JuaWExFDASBgNVBAcMC1NhbnRh
IENsYXJhMQ0wCwYDVQQKDARwa2c1MRAwDgYDVQQDDAdjaDJfdGExMRYwFAYJKoZI
hvcNAQkBFgdjaDJfdGExggEDMBIGA1UdEwEB/wQIMAYBAf8CAQAwDgYDVR0PAQH/
BAQDAgEGMA0GCSqGSIb3DQEBCwUAA4IBAQClEC7frDHdBPi7iEFtDX36bRYrhJ/l
2Uj84LdHKYKGehobzfCVFqCvRx1NI75NPheZQV37CoRAGb8numlP4o10MM0uSJxv
UDRC5bjM7+YP0mONJnhu1VYetJ7uVr9CnBGW1zo5RXtRcMyTeTVs/yWmsneGmwa9
JQADCJBe30XHTQkCkcijefj3m1mCEf0U3R+ZzfHQssmnM+26cGT6o96KMAWf/XAa
sOpprC2LI7beVItzhhi3xwAlPCjM2UWU+bLMMb9s9t6wIfRNmXOj5GOquWb5d3la
bMEUv8qtOG0f2z49eZ3ff2UqspbQWmgAI8MwgcD86Cg5ogZ5MG5AeOoB
-----END CERTIFICATE-----
