Certificate:
    Data:
        Version: 3 (0x2)
        Serial Number: 12 (0xc)
        Signature Algorithm: sha256WithRSAEncryption
        Issuer: C=US, ST=California, L=Santa Clara, O=pkg5, CN=ch3_ta1/emailAddress=ch3_ta1
        Validity
            Not Before: Nov 14 14:26:52 2024 GMT
            Not After : Aug 11 14:26:52 2027 GMT
        Subject: C=US, ST=California, L=Santa Clara, O=pkg5, CN=ch4.3_ta1/emailAddress=ch4.3_ta1
        Subject Public Key Info:
            Public Key Algorithm: rsaEncryption
                Public-Key: (2048 bit)
                Modulus:
                    00:91:45:3e:e4:6e:86:f2:27:e4:25:b2:04:05:76:
                    01:d5:dc:0e:3d:f4:4d:1a:a2:8e:cc:56:0f:e2:68:
                    5e:91:36:90:81:3e:79:fe:82:3d:6f:55:12:42:72:
                    47:3c:19:09:7d:cf:fd:96:95:04:81:c2:8b:89:b7:
                    14:02:ce:57:ca:91:de:04:5e:fa:b4:68:77:35:71:
                    46:ea:b7:4c:96:af:57:45:37:57:30:27:a3:38:79:
                    0e:a2:da:39:3d:89:67:a0:56:67:32:ed:e8:aa:82:
                    ad:35:a1:23:1c:7b:ae:4d:93:f8:c1:f5:fc:0f:98:
                    9d:fd:f2:0b:56:19:e5:03:03:23:42:b9:ca:5f:22:
                    9a:61:dc:9a:f4:57:a5:48:b0:2a:1e:d1:82:79:5b:
                    1d:78:87:32:f2:69:7e:3b:52:aa:70:f2:17:44:8d:
                    b5:0f:4f:e7:71:d1:32:47:23:4a:8b:2e:68:56:d9:
                    cf:6b:09:a5:a3:06:46:e8:f3:a1:b0:c6:9b:b6:a6:
                    15:ac:2f:62:62:7d:91:1e:42:dd:03:3b:d7:02:d0:
                    9c:3c:4a:82:6b:49:33:c5:d6:4b:0b:64:36:5b:53:
                    df:9a:72:12:92:5d:67:4a:06:49:0a:71:03:79:9c:
                    27:0a:94:45:46:af:c4:42:9c:c6:81:7d:96:4a:c2:
                    98:15
                Exponent: 65537 (0x10001)
        X509v3 extensions:
            X509v3 Subject Key Identifier: 
                4C:44:2B:C7:72:A7:20:E5:EF:60:54:51:4C:A2:AB:B5:69:B3:55:FA
            X509v3 Authority Key Identifier: 
                keyid:9F:C9:8F:96:B8:44:63:58:A6:99:AC:B9:77:A1:93:F3:F9:60:D8:FC
                DirName:/C=US/ST=California/L=Santa Clara/O=pkg5/CN=ch2_ta1/emailAddress=ch2_ta1
                serial:03
            X509v3 Basic Constraints: critical
                CA:TRUE, pathlen:0
            X509v3 Key Usage: critical
                Certificate Sign, CRL Sign
    Signature Algorithm: sha256WithRSAEncryption
    Signature Value:
        51:cc:70:e3:3a:82:17:3b:01:33:8a:29:95:96:63:87:cf:94:
        24:68:35:d2:71:e5:c1:8b:1b:4e:e7:2f:c4:b2:c3:e5:5b:28:
        c8:78:25:8d:59:5f:6a:91:75:42:18:38:2d:df:d7:bb:28:d4:
        e5:d2:fd:2d:31:1f:9b:04:c2:dc:1c:90:da:1a:6b:4f:38:a2:
        68:6a:f1:82:10:34:a4:29:70:3b:17:e7:e6:00:29:3a:2f:9c:
        c0:ec:09:c8:e1:2e:7a:40:00:42:e0:91:c9:69:d5:ae:86:42:
        2f:ab:2e:19:64:84:37:4d:a9:64:16:c2:80:26:b5:cb:0d:e9:
        f4:d1:8d:04:b1:85:6a:fc:06:22:82:96:0b:72:bd:4e:19:db:
        11:01:e6:7f:6b:5a:5c:75:38:b8:fd:43:b2:60:25:29:6a:84:
        2b:bf:97:e8:e0:9b:01:c5:48:0e:a6:3e:99:d8:99:94:b3:2a:
        f8:13:55:63:74:d5:61:c5:22:6e:2d:ab:e5:3d:75:11:0f:57:
        d3:3a:ac:a5:d2:3f:d8:e7:92:2d:8b:c3:12:b3:18:7d:19:e6:
        91:95:f8:8e:20:f0:bb:7c:ac:3e:7c:ff:f5:e4:e2:e5:4c:4c:
        54:75:4d:c2:05:bf:45:f3:c2:ed:66:c1:31:c5:ec:6b:db:c2:
        c0:98:2f:27
-----BEGIN CERTIFICATE-----
MIIERjCCAy6gAwIBAgIBDDANBgkqhkiG9w0BAQsFADBxMQswCQYDVQQGEwJVUzET
MBEGA1UECAwKQ2FsaWZvcm5pYTEUMBIGA1UEBwwLU2FudGEgQ2xhcmExDTALBgNV
BAoMBHBrZzUxEDAOBgNVBAMMB2NoM190YTExFjAUBgkqhkiG9w0BCQEWB2NoM190
YTEwHhcNMjQxMTE0MTQyNjUyWhcNMjcwODExMTQyNjUyWjB1MQswCQYDVQQGEwJV
UzETMBEGA1UECAwKQ2FsaWZvcm5pYTEUMBIGA1UEBwwLU2FudGEgQ2xhcmExDTAL
BgNVBAoMBHBrZzUxEjAQBgNVBAMMCWNoNC4zX3RhMTEYMBYGCSqGSIb3DQEJARYJ
Y2g0LjNfdGExMIIBIjANBgkqhkiG9w0BAQEFAAOCAQ8AMIIBCgKCAQEAkUU+5G6G
8ifkJbIEBXYB1dwOPfRNGqKOzFYP4mhekTaQgT55/oI9b1USQnJHPBkJfc/9lpUE
gcKLibcUAs5XypHeBF76tGh3NXFG6rdMlq9XRTdXMCejOHkOoto5PYlnoFZnMu3o
qoKtNaEjHHuuTZP4wfX8D5id/fILVhnlAwMjQrnKXyKaYdya9FelSLAqHtGCeVsd
eIcy8ml+O1KqcPIXRI21D0/ncdEyRyNKiy5oVtnPawmlowZG6POhsMabtqYVrC9i
Yn2RHkLdAzvXAtCcPEqCa0kzxdZLC2Q2W1PfmnISkl1nSgZJCnEDeZwnCpRFRq/E
QpzGgX2WSsKYFQIDAQABo4HkMIHhMB0GA1UdDgQWBBRMRCvHcqcg5e9gVFFMoqu1
abNV+jCBmwYDVR0jBIGTMIGQgBSfyY+WuERjWKaZrLl3oZPz+WDY/KF1pHMwcTEL
MAkGA1UEBhMCVVMxEzARBgNVBAgMCkNhbGlmb3JuaWExFDASBgNVBAcMC1NhbnRh
IENsYXJhMQ0wCwYDVQQKDARwa2c1MRAwDgYDVQQDDAdjaDJfdGExMRYwFAYJKoZI
hvcNAQkBFgdjaDJfdGExggEDMBIGA1UdEwEB/wQIMAYBAf8CAQAwDgYDVR0PAQH/
BAQDAgEGMA0GCSqGSIb3DQEBCwUAA4IBAQBRzHDjOoIXOwEziimVlmOHz5QkaDXS
ceXBixtO5y/EssPlWyjIeCWNWV9qkXVCGDgt39e7KNTl0v0tMR+bBMLcHJDaGmtP
OKJoavGCEDSkKXA7F+fmACk6L5zA7AnI4S56QABC4JHJadWuhkIvqy4ZZIQ3Talk
FsKAJrXLDen00Y0EsYVq/AYigpYLcr1OGdsRAeZ/a1pcdTi4/UOyYCUpaoQrv5fo
4JsBxUgOpj6Z2JmUsyr4E1VjdNVhxSJuLavlPXURD1fTOqyl0j/Y55Iti8MSsxh9
GeaRlfiOIPC7fKw+fP/15OLlTExUdU3CBb9F88LtZsExxexr28LAmC8n
-----END CERTIFICATE-----
