Certificate:
    Data:
        Version: 3 (0x2)
        Serial Number: 12 (0xc)
    Signature Algorithm: sha256WithRSAEncryption
        Issuer: C=US, ST=California, L=Santa Clara, O=pkg5, CN=ch3_ta1/emailAddress=ch3_ta1
        Validity
            Not Before: Nov 16 10:58:48 2017 GMT
            Not After : Aug 12 10:58:48 2020 GMT
        Subject: C=US, ST=California, L=Santa Clara, O=pkg5, CN=ch4.3_ta1/emailAddress=ch4.3_ta1
        Subject Public Key Info:
            Public Key Algorithm: rsaEncryption
                Public-Key: (2048 bit)
                Modulus:
                    00:c8:c0:32:57:76:ee:f0:fc:25:51:55:9f:33:ac:
                    35:d8:5a:71:8a:00:79:d1:57:69:53:f5:98:11:56:
                    ec:94:97:35:1e:f3:5a:e2:19:26:08:56:31:15:68:
                    e5:78:7d:60:43:b3:21:99:5e:5d:76:b0:62:1c:d2:
                    13:c3:29:c5:41:75:fd:8c:fc:84:95:5f:90:3e:91:
                    b7:5d:56:65:d8:a7:b2:c4:9a:dd:e9:36:ed:c4:18:
                    a0:eb:e2:91:e4:16:cf:5e:1f:79:5f:8b:dc:1b:11:
                    fe:1a:f1:c5:a4:a2:d7:3a:bc:06:bf:01:70:ed:90:
                    79:c4:8b:ab:b4:df:03:c5:46:bc:aa:03:b1:8a:ec:
                    ee:60:b8:4d:be:1e:d5:ff:39:d1:1b:e6:03:98:c0:
                    ca:a5:09:e3:d2:ce:0e:93:98:ea:d9:32:01:1e:6c:
                    f2:8a:63:ce:d5:ed:63:04:c6:bd:97:cf:04:a4:9c:
                    c5:a1:f2:d9:66:c3:a5:fc:7c:e8:6e:31:38:ee:45:
                    58:ad:1d:d6:6a:33:98:86:ba:b5:d5:51:e4:86:9e:
                    5a:20:b0:85:f4:f4:87:dd:54:d0:e5:f8:14:17:c3:
                    67:7d:ab:d7:70:75:40:bb:6c:7a:c6:db:6d:73:5c:
                    49:f6:d2:05:14:45:33:15:a0:26:cd:69:c6:a3:26:
                    9c:e9
                Exponent: 65537 (0x10001)
        X509v3 extensions:
            X509v3 Subject Key Identifier: 
                BA:E1:13:9D:12:D5:F7:5E:7B:9F:4B:1C:0F:37:C9:3E:AC:98:12:0E
            X509v3 Authority Key Identifier: 
                keyid:30:1E:F8:A6:1D:94:7C:C4:84:3B:67:45:6C:CC:EB:C2:FE:71:55:35
                DirName:/C=US/ST=California/L=Santa Clara/O=pkg5/CN=ch2_ta1/emailAddress=ch2_ta1
                serial:03

            X509v3 Basic Constraints: critical
                CA:TRUE, pathlen:0
            X509v3 Key Usage: critical
                Certificate Sign, CRL Sign
    Signature Algorithm: sha256WithRSAEncryption
         96:f9:7d:69:96:6e:6e:8f:1c:54:83:5f:b6:42:ff:8f:82:ee:
         59:e7:8e:0f:1a:a5:03:34:91:0e:2c:b6:b8:4d:7f:f1:28:47:
         a4:21:04:eb:0f:c0:7f:67:49:79:7c:35:16:76:1d:bf:f0:27:
         1f:cf:58:82:41:2c:21:c8:72:bb:29:73:bb:e5:58:a7:54:fd:
         9b:ec:bc:99:e2:4a:7e:c2:3c:ac:f1:63:23:52:67:eb:83:3f:
         1c:25:8d:47:1a:22:80:98:9e:ff:67:c9:b0:5a:3e:0b:7e:cd:
         ee:48:5e:2c:3d:18:2b:65:36:16:d5:73:03:67:c1:3c:50:82:
         85:d1:4f:7d:3d:37:0d:3f:66:4d:cb:0e:dc:b0:fd:b3:14:e1:
         b0:cb:5b:93:5b:47:fa:d4:6d:94:e0:60:2f:91:7a:79:d2:06:
         52:87:49:7a:f2:13:f9:8d:8b:88:a2:de:9b:f4:fd:a3:1d:8f:
         99:a4:d0:d8:31:0c:64:95:16:69:43:b3:42:8c:17:be:fe:ee:
         ff:05:25:63:b6:ad:67:d7:6a:aa:6d:35:7c:a5:49:51:06:f5:
         aa:e3:59:44:43:eb:9b:df:2e:4f:43:77:42:f8:3d:3b:07:17:
         05:79:d6:9e:2f:65:21:fa:bc:d6:cc:7b:34:fe:67:a9:a0:ac:
         f6:50:48:af
-----BEGIN CERTIFICATE-----
MIIERjCCAy6gAwIBAgIBDDANBgkqhkiG9w0BAQsFADBxMQswCQYDVQQGEwJVUzET
MBEGA1UECAwKQ2FsaWZvcm5pYTEUMBIGA1UEBwwLU2FudGEgQ2xhcmExDTALBgNV
BAoMBHBrZzUxEDAOBgNVBAMMB2NoM190YTExFjAUBgkqhkiG9w0BCQEWB2NoM190
YTEwHhcNMTcxMTE2MTA1ODQ4WhcNMjAwODEyMTA1ODQ4WjB1MQswCQYDVQQGEwJV
UzETMBEGA1UECAwKQ2FsaWZvcm5pYTEUMBIGA1UEBwwLU2FudGEgQ2xhcmExDTAL
BgNVBAoMBHBrZzUxEjAQBgNVBAMMCWNoNC4zX3RhMTEYMBYGCSqGSIb3DQEJARYJ
Y2g0LjNfdGExMIIBIjANBgkqhkiG9w0BAQEFAAOCAQ8AMIIBCgKCAQEAyMAyV3bu
8PwlUVWfM6w12FpxigB50VdpU/WYEVbslJc1HvNa4hkmCFYxFWjleH1gQ7MhmV5d
drBiHNITwynFQXX9jPyElV+QPpG3XVZl2KeyxJrd6TbtxBig6+KR5BbPXh95X4vc
GxH+GvHFpKLXOrwGvwFw7ZB5xIurtN8DxUa8qgOxiuzuYLhNvh7V/znRG+YDmMDK
pQnj0s4Ok5jq2TIBHmzyimPO1e1jBMa9l88EpJzFofLZZsOl/HzobjE47kVYrR3W
ajOYhrq11VHkhp5aILCF9PSH3VTQ5fgUF8NnfavXcHVAu2x6xtttc1xJ9tIFFEUz
FaAmzWnGoyac6QIDAQABo4HkMIHhMB0GA1UdDgQWBBS64ROdEtX3XnufSxwPN8k+
rJgSDjCBmwYDVR0jBIGTMIGQgBQwHvimHZR8xIQ7Z0VszOvC/nFVNaF1pHMwcTEL
MAkGA1UEBhMCVVMxEzARBgNVBAgMCkNhbGlmb3JuaWExFDASBgNVBAcMC1NhbnRh
IENsYXJhMQ0wCwYDVQQKDARwa2c1MRAwDgYDVQQDDAdjaDJfdGExMRYwFAYJKoZI
hvcNAQkBFgdjaDJfdGExggEDMBIGA1UdEwEB/wQIMAYBAf8CAQAwDgYDVR0PAQH/
BAQDAgEGMA0GCSqGSIb3DQEBCwUAA4IBAQCW+X1plm5ujxxUg1+2Qv+Pgu5Z544P
GqUDNJEOLLa4TX/xKEekIQTrD8B/Z0l5fDUWdh2/8Ccfz1iCQSwhyHK7KXO75Vin
VP2b7LyZ4kp+wjys8WMjUmfrgz8cJY1HGiKAmJ7/Z8mwWj4Lfs3uSF4sPRgrZTYW
1XMDZ8E8UIKF0U99PTcNP2ZNyw7csP2zFOGwy1uTW0f61G2U4GAvkXp50gZSh0l6
8hP5jYuIot6b9P2jHY+ZpNDYMQxklRZpQ7NCjBe+/u7/BSVjtq1n12qqbTV8pUlR
BvWq41lEQ+ub3y5PQ3dC+D07BxcFedaeL2Uh+rzWzHs0/mepoKz2UEiv
-----END CERTIFICATE-----
