Certificate:
    Data:
        Version: 3 (0x2)
        Serial Number: 12 (0xc)
        Signature Algorithm: sha256WithRSAEncryption
        Issuer: C=US, ST=California, L=Santa Clara, O=pkg5, CN=ch3_ta1/emailAddress=ch3_ta1
        Validity
            Not Before: Nov 17 23:01:29 2020 GMT
            Not After : Aug 14 23:01:29 2023 GMT
        Subject: C=US, ST=California, L=Santa Clara, O=pkg5, CN=ch4.3_ta1/emailAddress=ch4.3_ta1
        Subject Public Key Info:
            Public Key Algorithm: rsaEncryption
                RSA Public-Key: (2048 bit)
                Modulus:
                    00:9e:d7:38:80:c3:35:4a:c7:be:12:d2:f9:be:dc:
                    d9:a8:92:87:c4:b1:1f:03:e6:ec:4f:a8:ef:5b:52:
                    cb:36:a0:ee:0d:79:a6:85:a0:33:64:e4:aa:9a:fd:
                    87:42:a0:7e:2d:e6:87:7a:d3:62:7d:e1:ad:08:50:
                    01:dd:3b:d6:87:21:8e:3e:e9:e6:36:8f:b2:35:e4:
                    0f:ba:cf:cc:48:4b:0b:eb:32:46:be:db:6c:62:7c:
                    b3:8f:52:e1:95:43:a4:66:31:24:6f:58:a2:4b:84:
                    2e:1a:47:1e:fa:f4:24:0c:1e:38:82:f0:92:79:3f:
                    5d:fb:e6:f5:26:5b:a9:36:b9:84:66:56:e3:c8:36:
                    0d:6d:05:dc:2b:0f:af:1d:a4:4c:36:cc:17:28:0d:
                    ce:ec:0f:82:e1:39:fa:d1:02:0d:4e:bf:b2:e1:23:
                    2d:bc:44:af:58:31:ce:cc:b4:dc:b0:92:09:ba:8f:
                    a3:0b:a3:b1:df:1c:9e:85:c8:d0:8d:b3:82:e0:b9:
                    62:ab:ba:e0:c8:26:fb:9b:a8:a9:60:a4:1c:5f:65:
                    26:9e:ae:76:20:15:0d:5e:ed:df:12:6a:d4:60:25:
                    32:12:6a:ca:e2:a4:75:13:20:35:5a:c5:c4:79:85:
                    55:27:92:b9:82:a7:57:12:f4:bc:6f:bd:5a:4e:88:
                    b3:57
                Exponent: 65537 (0x10001)
        X509v3 extensions:
            X509v3 Subject Key Identifier: 
                9F:28:94:9F:62:31:69:C6:4F:2A:F7:C5:F0:2C:1E:23:90:84:44:A2
            X509v3 Authority Key Identifier: 
                keyid:68:3D:A5:22:1A:F1:F1:67:39:3E:71:66:9D:1A:E1:E1:A2:64:A2:E1
                DirName:/C=US/ST=California/L=Santa Clara/O=pkg5/CN=ch2_ta1/emailAddress=ch2_ta1
                serial:03

            X509v3 Basic Constraints: critical
                CA:TRUE, pathlen:0
            X509v3 Key Usage: critical
                Certificate Sign, CRL Sign
    Signature Algorithm: sha256WithRSAEncryption
         83:95:4f:44:ff:48:a5:99:cb:ee:7b:1d:da:f6:1d:ed:24:17:
         51:b0:1d:10:6e:74:c0:ad:8f:0d:fc:52:a3:04:92:ba:d1:07:
         d1:89:4d:ef:c6:d2:2f:19:a7:1c:75:8a:85:af:28:98:19:8e:
         75:85:83:a5:fa:9f:70:13:e6:db:7d:ce:ea:c0:01:3a:20:31:
         7c:12:6a:78:fe:7f:a9:d1:26:b4:60:d2:a5:63:b2:19:84:7a:
         4f:57:b7:02:32:c5:14:9d:d3:fb:3c:78:f2:a9:7d:07:0f:2e:
         6c:92:78:0b:59:9b:fd:78:47:7f:d8:18:17:a2:b3:f9:fb:38:
         32:de:b4:bb:bc:74:21:f5:e7:45:9f:4c:74:d2:78:eb:8c:8f:
         17:04:6c:9b:a5:d5:8a:0c:d6:96:df:a2:a7:31:27:00:42:08:
         88:c5:71:0e:1d:a3:fb:e4:bf:a0:25:9d:c3:df:31:35:ff:da:
         c0:c0:4d:f5:f8:d6:50:96:64:7f:bc:6d:57:4d:20:da:bf:fb:
         b5:50:70:88:a3:a5:91:e2:c2:fe:02:4e:94:41:3b:6d:62:8e:
         b0:62:c9:f2:6f:4d:ca:66:65:5b:6f:f7:4b:55:50:dc:47:2a:
         40:89:d5:5f:fa:7d:31:20:52:74:2e:63:11:77:30:5b:07:e9:
         e3:4a:3c:ab
-----BEGIN CERTIFICATE-----
MIIERjCCAy6gAwIBAgIBDDANBgkqhkiG9w0BAQsFADBxMQswCQYDVQQGEwJVUzET
MBEGA1UECAwKQ2FsaWZvcm5pYTEUMBIGA1UEBwwLU2FudGEgQ2xhcmExDTALBgNV
BAoMBHBrZzUxEDAOBgNVBAMMB2NoM190YTExFjAUBgkqhkiG9w0BCQEWB2NoM190
YTEwHhcNMjAxMTE3MjMwMTI5WhcNMjMwODE0MjMwMTI5WjB1MQswCQYDVQQGEwJV
UzETMBEGA1UECAwKQ2FsaWZvcm5pYTEUMBIGA1UEBwwLU2FudGEgQ2xhcmExDTAL
BgNVBAoMBHBrZzUxEjAQBgNVBAMMCWNoNC4zX3RhMTEYMBYGCSqGSIb3DQEJARYJ
Y2g0LjNfdGExMIIBIjANBgkqhkiG9w0BAQEFAAOCAQ8AMIIBCgKCAQEAntc4gMM1
Sse+EtL5vtzZqJKHxLEfA+bsT6jvW1LLNqDuDXmmhaAzZOSqmv2HQqB+LeaHetNi
feGtCFAB3TvWhyGOPunmNo+yNeQPus/MSEsL6zJGvttsYnyzj1LhlUOkZjEkb1ii
S4QuGkce+vQkDB44gvCSeT9d++b1JlupNrmEZlbjyDYNbQXcKw+vHaRMNswXKA3O
7A+C4Tn60QINTr+y4SMtvESvWDHOzLTcsJIJuo+jC6Ox3xyehcjQjbOC4Lliq7rg
yCb7m6ipYKQcX2Umnq52IBUNXu3fEmrUYCUyEmrK4qR1EyA1WsXEeYVVJ5K5gqdX
EvS8b71aToizVwIDAQABo4HkMIHhMB0GA1UdDgQWBBSfKJSfYjFpxk8q98XwLB4j
kIREojCBmwYDVR0jBIGTMIGQgBRoPaUiGvHxZzk+cWadGuHhomSi4aF1pHMwcTEL
MAkGA1UEBhMCVVMxEzARBgNVBAgMCkNhbGlmb3JuaWExFDASBgNVBAcMC1NhbnRh
IENsYXJhMQ0wCwYDVQQKDARwa2c1MRAwDgYDVQQDDAdjaDJfdGExMRYwFAYJKoZI
hvcNAQkBFgdjaDJfdGExggEDMBIGA1UdEwEB/wQIMAYBAf8CAQAwDgYDVR0PAQH/
BAQDAgEGMA0GCSqGSIb3DQEBCwUAA4IBAQCDlU9E/0ilmcvuex3a9h3tJBdRsB0Q
bnTArY8N/FKjBJK60QfRiU3vxtIvGaccdYqFryiYGY51hYOl+p9wE+bbfc7qwAE6
IDF8Emp4/n+p0Sa0YNKlY7IZhHpPV7cCMsUUndP7PHjyqX0HDy5skngLWZv9eEd/
2BgXorP5+zgy3rS7vHQh9edFn0x00njrjI8XBGybpdWKDNaW36KnMScAQgiIxXEO
HaP75L+gJZ3D3zE1/9rAwE31+NZQlmR/vG1XTSDav/u1UHCIo6WR4sL+Ak6UQTtt
Yo6wYsnyb03KZmVbb/dLVVDcRypAidVf+n0xIFJ0LmMRdzBbB+njSjyr
-----END CERTIFICATE-----
