Certificate:
    Data:
        Version: 3 (0x2)
        Serial Number: 4 (0x4)
    Signature Algorithm: sha256WithRSAEncryption
        Issuer: C=US, ST=California, L=Santa Clara, O=pkg5, CN=ch3_ta1/emailAddress=ch3_ta1
        Validity
            Not Before: Nov 28 22:50:55 2016 GMT
            Not After : Aug 25 22:50:55 2019 GMT
        Subject: C=US, ST=California, L=Santa Clara, O=pkg5, CN=ch4_ta1/emailAddress=ch4_ta1
        Subject Public Key Info:
            Public Key Algorithm: rsaEncryption
                Public-Key: (2048 bit)
                Modulus:
                    00:c3:05:ac:b7:b9:21:e9:f0:00:7c:67:28:33:12:
                    10:78:c4:dd:dd:ae:ad:30:05:fb:13:c2:54:df:03:
                    d3:e3:b2:ba:e1:18:15:6b:69:6c:40:f3:41:68:53:
                    69:51:b4:25:31:c5:18:9d:fe:78:76:e8:2e:17:28:
                    a4:5f:d5:46:73:3c:57:8f:3c:e4:69:a5:ef:b8:81:
                    d5:26:3a:82:25:55:72:dd:93:45:34:31:b4:24:e7:
                    28:30:f6:5b:09:11:ef:20:e5:44:33:b0:80:80:65:
                    4a:10:a2:e0:a4:cb:c1:15:79:3f:8c:da:3b:94:b1:
                    d8:67:d9:74:c1:d1:9b:f0:96:93:1c:c1:c6:01:eb:
                    19:2b:a6:af:4b:23:22:bd:9a:2d:55:8b:71:d7:b9:
                    e3:44:23:29:78:34:5a:ab:a9:41:07:c7:4f:e8:d2:
                    aa:a3:88:74:e5:5f:4e:3e:63:4f:c3:da:b0:75:b3:
                    39:29:fb:65:15:27:eb:8e:df:93:64:24:15:be:68:
                    d6:c6:6d:77:1b:7c:c0:a4:44:da:ca:cf:f6:dd:f9:
                    c9:5f:81:6d:68:69:94:27:3d:f2:24:db:fa:4b:be:
                    df:fe:91:c2:29:3b:18:29:63:07:b3:cb:fa:6e:4a:
                    85:cb:27:fd:07:87:81:63:66:23:48:57:fe:44:6c:
                    20:7f
                Exponent: 65537 (0x10001)
        X509v3 extensions:
            X509v3 Subject Key Identifier: 
                A7:85:EE:86:00:F2:4F:F8:1A:E9:FD:A9:7B:33:4E:24:30:2A:44:DB
            X509v3 Authority Key Identifier: 
                keyid:83:07:85:F9:76:F6:8C:DA:A2:C3:D8:62:0A:87:DD:EE:6B:42:55:30
                DirName:/C=US/ST=California/L=Santa Clara/O=pkg5/CN=ch2_ta1/emailAddress=ch2_ta1
                serial:03

            X509v3 Basic Constraints: critical
                CA:TRUE, pathlen:1
            X509v3 Key Usage: critical
                Certificate Sign, CRL Sign
    Signature Algorithm: sha256WithRSAEncryption
         69:31:89:46:dc:14:ab:56:d5:12:b3:3f:be:71:aa:62:97:02:
         86:5c:a1:e1:56:49:3a:f1:43:ad:24:fd:41:a3:90:05:75:31:
         03:53:90:d7:fc:99:9c:16:cc:f1:bb:2a:07:e9:69:d6:8b:3e:
         44:04:0e:76:8e:c0:5a:27:f0:c6:4c:1d:29:8b:6b:f4:f3:c5:
         d3:0a:58:b0:f9:cf:41:c7:81:61:50:58:59:0a:b6:cc:be:d6:
         b4:80:bd:82:c1:3f:44:fa:7b:08:18:a5:7b:d3:94:64:50:4c:
         2a:33:c2:0a:d1:a4:38:59:de:a8:12:7e:b3:f9:6b:97:83:f3:
         07:df:fb:b0:74:1e:9f:b2:71:4c:45:70:cf:f7:75:57:2f:22:
         78:23:06:d8:2c:ae:08:c9:ac:0e:13:d9:e8:02:28:ac:09:e9:
         e0:55:0a:99:a8:bc:8f:5b:e3:ce:14:56:8e:ae:08:18:8b:30:
         19:f4:49:35:93:30:88:92:19:44:36:63:6e:2d:b1:c1:ae:81:
         22:a0:62:90:ae:ef:45:af:bb:26:85:bc:8f:4e:87:0f:cb:b3:
         d8:46:cb:98:1e:70:08:99:a7:5f:17:62:12:fe:47:9a:b7:bd:
         77:f7:7c:ff:21:52:34:19:1b:52:06:24:df:34:0e:35:7d:59:
         fc:b3:55:ec
-----BEGIN CERTIFICATE-----
MIIEQjCCAyqgAwIBAgIBBDANBgkqhkiG9w0BAQsFADBxMQswCQYDVQQGEwJVUzET
MBEGA1UECAwKQ2FsaWZvcm5pYTEUMBIGA1UEBwwLU2FudGEgQ2xhcmExDTALBgNV
BAoMBHBrZzUxEDAOBgNVBAMMB2NoM190YTExFjAUBgkqhkiG9w0BCQEWB2NoM190
YTEwHhcNMTYxMTI4MjI1MDU1WhcNMTkwODI1MjI1MDU1WjBxMQswCQYDVQQGEwJV
UzETMBEGA1UECAwKQ2FsaWZvcm5pYTEUMBIGA1UEBwwLU2FudGEgQ2xhcmExDTAL
BgNVBAoMBHBrZzUxEDAOBgNVBAMMB2NoNF90YTExFjAUBgkqhkiG9w0BCQEWB2No
NF90YTEwggEiMA0GCSqGSIb3DQEBAQUAA4IBDwAwggEKAoIBAQDDBay3uSHp8AB8
ZygzEhB4xN3drq0wBfsTwlTfA9PjsrrhGBVraWxA80FoU2lRtCUxxRid/nh26C4X
KKRf1UZzPFePPORppe+4gdUmOoIlVXLdk0U0MbQk5ygw9lsJEe8g5UQzsICAZUoQ
ouCky8EVeT+M2juUsdhn2XTB0ZvwlpMcwcYB6xkrpq9LIyK9mi1Vi3HXueNEIyl4
NFqrqUEHx0/o0qqjiHTlX04+Y0/D2rB1szkp+2UVJ+uO35NkJBW+aNbGbXcbfMCk
RNrKz/bd+clfgW1oaZQnPfIk2/pLvt/+kcIpOxgpYwezy/puSoXLJ/0Hh4FjZiNI
V/5EbCB/AgMBAAGjgeQwgeEwHQYDVR0OBBYEFKeF7oYA8k/4Gun9qXszTiQwKkTb
MIGbBgNVHSMEgZMwgZCAFIMHhfl29ozaosPYYgqH3e5rQlUwoXWkczBxMQswCQYD
VQQGEwJVUzETMBEGA1UECAwKQ2FsaWZvcm5pYTEUMBIGA1UEBwwLU2FudGEgQ2xh
cmExDTALBgNVBAoMBHBrZzUxEDAOBgNVBAMMB2NoMl90YTExFjAUBgkqhkiG9w0B
CQEWB2NoMl90YTGCAQMwEgYDVR0TAQH/BAgwBgEB/wIBATAOBgNVHQ8BAf8EBAMC
AQYwDQYJKoZIhvcNAQELBQADggEBAGkxiUbcFKtW1RKzP75xqmKXAoZcoeFWSTrx
Q60k/UGjkAV1MQNTkNf8mZwWzPG7KgfpadaLPkQEDnaOwFon8MZMHSmLa/TzxdMK
WLD5z0HHgWFQWFkKtsy+1rSAvYLBP0T6ewgYpXvTlGRQTCozwgrRpDhZ3qgSfrP5
a5eD8wff+7B0Hp+ycUxFcM/3dVcvIngjBtgsrgjJrA4T2egCKKwJ6eBVCpmovI9b
484UVo6uCBiLMBn0STWTMIiSGUQ2Y24tscGugSKgYpCu70WvuyaFvI9Ohw/Ls9hG
y5gecAiZp18XYhL+R5q3vXf3fP8hUjQZG1IGJN80DjV9WfyzVew=
-----END CERTIFICATE-----
