Certificate:
    Data:
        Version: 3 (0x2)
        Serial Number: 4 (0x4)
    Signature Algorithm: sha256WithRSAEncryption
        Issuer: C=US, ST=California, L=Santa Clara, O=pkg5, CN=ch3_ta1/emailAddress=ch3_ta1
        Validity
            Not Before: Dec  6 03:06:42 2014 GMT
            Not After : Sep  1 03:06:42 2017 GMT
        Subject: C=US, ST=California, L=Santa Clara, O=pkg5, CN=ch4_ta1/emailAddress=ch4_ta1
        Subject Public Key Info:
            Public Key Algorithm: rsaEncryption
                Public-Key: (1024 bit)
                Modulus:
                    00:cf:c5:90:11:86:9b:a1:8c:6b:45:1f:de:db:16:
                    e0:14:33:cf:c3:c9:a9:78:ca:2a:0c:2a:49:5b:29:
                    cb:cd:63:e8:bf:15:21:b7:7e:82:66:06:82:98:2f:
                    96:07:45:41:9b:b7:3d:0c:25:13:ab:ce:cf:9d:8c:
                    02:66:74:55:1c:6b:21:4b:89:e8:07:ee:83:3d:ed:
                    e2:23:e9:27:a5:4d:32:e8:b8:03:0d:f6:b0:ab:92:
                    b5:81:4b:cf:5e:63:01:18:bc:21:ca:29:db:f1:be:
                    24:ba:97:68:91:f3:b4:77:4a:32:26:77:a3:2a:6f:
                    4a:08:dc:b2:97:45:ca:c6:5f
                Exponent: 65537 (0x10001)
        X509v3 extensions:
            X509v3 Subject Key Identifier: 
                3D:B8:D0:07:CD:06:B2:96:FB:37:98:55:C0:86:60:B6:72:7C:AD:AD
            X509v3 Authority Key Identifier: 
                keyid:D6:18:F4:DC:85:E5:39:00:2D:5D:9F:8F:24:44:86:97:2A:67:3A:72
                DirName:/C=US/ST=California/L=Santa Clara/O=pkg5/CN=ch2_ta1/emailAddress=ch2_ta1
                serial:03

            X509v3 Basic Constraints: critical
                CA:TRUE, pathlen:1
            X509v3 Key Usage: critical
                Certificate Sign, CRL Sign
    Signature Algorithm: sha256WithRSAEncryption
         c2:f7:b6:ca:d7:26:60:df:b0:c4:b3:fe:88:d1:84:97:8d:81:
         a8:67:c4:f7:cf:3e:06:ab:cf:63:6c:e5:9e:b0:44:7f:3a:44:
         1f:5c:c4:80:b5:27:a5:82:7c:5a:59:50:ed:33:cc:14:57:a7:
         3c:c0:68:5e:a5:31:59:fa:d6:74:29:c4:60:17:fe:0c:03:8c:
         9a:db:9a:06:70:69:d1:82:70:4f:9b:9c:4a:37:77:1c:a2:08:
         0d:63:02:be:c9:17:f1:f2:7e:e5:5b:94:2d:97:32:a3:95:31:
         9f:62:be:f5:12:1d:c0:1e:9e:ff:44:c0:b8:c3:0b:b7:ab:f3:
         e7:a4
-----BEGIN CERTIFICATE-----
MIIDPTCCAqagAwIBAgIBBDANBgkqhkiG9w0BAQsFADBxMQswCQYDVQQGEwJVUzET
MBEGA1UECAwKQ2FsaWZvcm5pYTEUMBIGA1UEBwwLU2FudGEgQ2xhcmExDTALBgNV
BAoMBHBrZzUxEDAOBgNVBAMMB2NoM190YTExFjAUBgkqhkiG9w0BCQEWB2NoM190
YTEwHhcNMTQxMjA2MDMwNjQyWhcNMTcwOTAxMDMwNjQyWjBxMQswCQYDVQQGEwJV
UzETMBEGA1UECAwKQ2FsaWZvcm5pYTEUMBIGA1UEBwwLU2FudGEgQ2xhcmExDTAL
BgNVBAoMBHBrZzUxEDAOBgNVBAMMB2NoNF90YTExFjAUBgkqhkiG9w0BCQEWB2No
NF90YTEwgZ8wDQYJKoZIhvcNAQEBBQADgY0AMIGJAoGBAM/FkBGGm6GMa0Uf3tsW
4BQzz8PJqXjKKgwqSVspy81j6L8VIbd+gmYGgpgvlgdFQZu3PQwlE6vOz52MAmZ0
VRxrIUuJ6Afugz3t4iPpJ6VNMui4Aw32sKuStYFLz15jARi8Icop2/G+JLqXaJHz
tHdKMiZ3oypvSgjcspdFysZfAgMBAAGjgeQwgeEwHQYDVR0OBBYEFD240AfNBrKW
+zeYVcCGYLZyfK2tMIGbBgNVHSMEgZMwgZCAFNYY9NyF5TkALV2fjyREhpcqZzpy
oXWkczBxMQswCQYDVQQGEwJVUzETMBEGA1UECAwKQ2FsaWZvcm5pYTEUMBIGA1UE
BwwLU2FudGEgQ2xhcmExDTALBgNVBAoMBHBrZzUxEDAOBgNVBAMMB2NoMl90YTEx
FjAUBgkqhkiG9w0BCQEWB2NoMl90YTGCAQMwEgYDVR0TAQH/BAgwBgEB/wIBATAO
BgNVHQ8BAf8EBAMCAQYwDQYJKoZIhvcNAQELBQADgYEAwve2ytcmYN+wxLP+iNGE
l42BqGfE988+BqvPY2zlnrBEfzpEH1zEgLUnpYJ8WllQ7TPMFFenPMBoXqUxWfrW
dCnEYBf+DAOMmtuaBnBp0YJwT5ucSjd3HKIIDWMCvskX8fJ+5VuULZcyo5Uxn2K+
9RIdwB6e/0TAuMMLt6vz56Q=
-----END CERTIFICATE-----
