Certificate:
    Data:
        Version: 3 (0x2)
        Serial Number: 4 (0x4)
    Signature Algorithm: sha256WithRSAEncryption
        Issuer: C=US, ST=California, L=Santa Clara, O=pkg5, CN=ch3_ta1/emailAddress=ch3_ta1
        Validity
            Not Before: Mar 20 10:20:52 2018 GMT
            Not After : Dec 14 10:20:52 2020 GMT
        Subject: C=US, ST=California, L=Santa Clara, O=pkg5, CN=ch4_ta1/emailAddress=ch4_ta1
        Subject Public Key Info:
            Public Key Algorithm: rsaEncryption
                Public-Key: (2048 bit)
                Modulus:
                    00:c9:9c:41:00:df:63:04:0e:d4:95:a4:b0:67:c1:
                    37:e3:89:3e:86:78:f5:d3:26:1b:02:7b:5b:08:88:
                    59:76:f1:1e:e6:40:92:1d:dd:07:88:98:98:57:54:
                    dd:75:45:7c:e7:8c:bb:03:ba:ba:08:27:da:22:62:
                    09:2a:4d:b3:39:a2:9d:16:3a:97:5b:14:d3:b1:f3:
                    9b:ae:73:7c:90:86:ef:a4:32:66:db:4e:70:e3:42:
                    b9:9a:8a:be:3e:1c:d1:ab:d0:c4:1e:b2:a0:2d:6b:
                    8c:25:90:ec:e2:73:9a:27:50:46:e2:6a:7a:05:66:
                    e8:c0:4b:47:10:68:31:43:fd:e1:1b:6a:65:0b:d7:
                    3a:b0:fd:8b:0f:91:34:54:a8:c1:62:56:36:b6:ab:
                    40:95:0d:40:ed:89:38:4c:a8:b4:62:f2:8d:e1:5f:
                    9c:9a:bf:17:5e:08:3b:ae:71:9a:ef:fe:db:1b:7c:
                    37:ee:f0:9f:41:c4:02:17:a7:82:2c:60:38:63:0e:
                    7e:e3:89:f0:b4:c1:7e:66:73:fd:74:22:0c:0f:70:
                    dc:5b:65:d4:0b:14:41:8d:86:ef:8a:de:44:f7:fa:
                    5e:a5:f7:30:b7:0d:c9:c9:94:60:79:1e:2a:b1:f7:
                    f6:4b:7d:77:05:7a:fd:44:ee:22:de:ec:67:07:b3:
                    39:93
                Exponent: 65537 (0x10001)
        X509v3 extensions:
            X509v3 Subject Key Identifier: 
                27:98:7F:68:04:5A:B7:1E:13:EC:A4:9B:44:90:F6:58:2F:11:03:AD
            X509v3 Authority Key Identifier: 
                keyid:28:3E:8F:B6:52:6D:AD:E3:3C:E9:B6:EB:E5:F3:5A:F6:A7:9B:CF:45
                DirName:/C=US/ST=California/L=Santa Clara/O=pkg5/CN=ch2_ta1/emailAddress=ch2_ta1
                serial:03

            X509v3 Basic Constraints: critical
                CA:TRUE, pathlen:1
            X509v3 Key Usage: critical
                Certificate Sign, CRL Sign
    Signature Algorithm: sha256WithRSAEncryption
         16:1f:cb:65:4f:1c:58:c8:c9:fb:19:a1:2a:d4:55:3d:86:6a:
         86:32:0d:75:12:e5:b3:53:0d:2f:09:e1:84:cc:0b:2a:8b:91:
         62:f9:eb:b7:a4:2b:15:47:8f:23:87:e9:98:d7:d7:22:aa:f5:
         3b:36:04:51:fa:0a:82:96:66:4a:7b:4b:4e:5b:ac:9a:62:31:
         6e:46:bc:23:d8:95:e9:3e:f2:55:b9:6d:7a:94:52:b1:81:23:
         1a:bd:98:46:82:34:dc:2a:53:cf:f0:6a:01:c0:3d:87:4d:d8:
         5a:62:a3:f3:f4:45:54:29:16:92:ba:c3:b0:ee:b7:f3:4a:ee:
         f7:4c:3c:5c:e6:c2:66:df:91:c4:13:44:20:4d:fe:46:5c:ee:
         19:9b:4e:96:bb:0b:9e:36:94:20:27:7f:10:3c:26:72:3b:b5:
         2d:1d:d8:41:82:c4:4f:ce:0b:80:7b:95:c7:db:50:f9:12:92:
         5f:11:b3:ea:fc:67:14:66:11:84:e1:9a:fb:76:1d:78:fc:61:
         31:1d:34:ae:35:28:fa:fd:f2:d4:d9:c0:48:42:68:db:4b:13:
         29:ba:18:0e:67:74:56:39:d4:7d:51:16:c0:2d:02:36:fa:8d:
         1f:eb:b1:23:1f:60:fc:89:36:f2:04:22:a7:d9:12:e0:2d:3c:
         b6:26:e6:8b
-----BEGIN CERTIFICATE-----
MIIEQjCCAyqgAwIBAgIBBDANBgkqhkiG9w0BAQsFADBxMQswCQYDVQQGEwJVUzET
MBEGA1UECAwKQ2FsaWZvcm5pYTEUMBIGA1UEBwwLU2FudGEgQ2xhcmExDTALBgNV
BAoMBHBrZzUxEDAOBgNVBAMMB2NoM190YTExFjAUBgkqhkiG9w0BCQEWB2NoM190
YTEwHhcNMTgwMzIwMTAyMDUyWhcNMjAxMjE0MTAyMDUyWjBxMQswCQYDVQQGEwJV
UzETMBEGA1UECAwKQ2FsaWZvcm5pYTEUMBIGA1UEBwwLU2FudGEgQ2xhcmExDTAL
BgNVBAoMBHBrZzUxEDAOBgNVBAMMB2NoNF90YTExFjAUBgkqhkiG9w0BCQEWB2No
NF90YTEwggEiMA0GCSqGSIb3DQEBAQUAA4IBDwAwggEKAoIBAQDJnEEA32MEDtSV
pLBnwTfjiT6GePXTJhsCe1sIiFl28R7mQJId3QeImJhXVN11RXznjLsDuroIJ9oi
YgkqTbM5op0WOpdbFNOx85uuc3yQhu+kMmbbTnDjQrmair4+HNGr0MQesqAta4wl
kOzic5onUEbianoFZujAS0cQaDFD/eEbamUL1zqw/YsPkTRUqMFiVja2q0CVDUDt
iThMqLRi8o3hX5yavxdeCDuucZrv/tsbfDfu8J9BxAIXp4IsYDhjDn7jifC0wX5m
c/10IgwPcNxbZdQLFEGNhu+K3kT3+l6l9zC3DcnJlGB5Hiqx9/ZLfXcFev1E7iLe
7GcHszmTAgMBAAGjgeQwgeEwHQYDVR0OBBYEFCeYf2gEWrceE+ykm0SQ9lgvEQOt
MIGbBgNVHSMEgZMwgZCAFCg+j7ZSba3jPOm26+XzWvanm89FoXWkczBxMQswCQYD
VQQGEwJVUzETMBEGA1UECAwKQ2FsaWZvcm5pYTEUMBIGA1UEBwwLU2FudGEgQ2xh
cmExDTALBgNVBAoMBHBrZzUxEDAOBgNVBAMMB2NoMl90YTExFjAUBgkqhkiG9w0B
CQEWB2NoMl90YTGCAQMwEgYDVR0TAQH/BAgwBgEB/wIBATAOBgNVHQ8BAf8EBAMC
AQYwDQYJKoZIhvcNAQELBQADggEBABYfy2VPHFjIyfsZoSrUVT2GaoYyDXUS5bNT
DS8J4YTMCyqLkWL567ekKxVHjyOH6ZjX1yKq9Ts2BFH6CoKWZkp7S05brJpiMW5G
vCPYlek+8lW5bXqUUrGBIxq9mEaCNNwqU8/wagHAPYdN2Fpio/P0RVQpFpK6w7Du
t/NK7vdMPFzmwmbfkcQTRCBN/kZc7hmbTpa7C542lCAnfxA8JnI7tS0d2EGCxE/O
C4B7lcfbUPkSkl8Rs+r8ZxRmEYThmvt2HXj8YTEdNK41KPr98tTZwEhCaNtLEym6
GA5ndFY51H1RFsAtAjb6jR/rsSMfYPyJNvIEIqfZEuAtPLYm5os=
-----END CERTIFICATE-----
