Certificate:
    Data:
        Version: 3 (0x2)
        Serial Number: 4 (0x4)
        Signature Algorithm: sha256WithRSAEncryption
        Issuer: C=US, ST=California, L=Santa Clara, O=pkg5, CN=ch3_ta1/emailAddress=ch3_ta1
        Validity
            Not Before: Oct 22 10:15:05 2021 GMT
            Not After : Jul 18 10:15:05 2024 GMT
        Subject: C=US, ST=California, L=Santa Clara, O=pkg5, CN=ch4_ta1/emailAddress=ch4_ta1
        Subject Public Key Info:
            Public Key Algorithm: rsaEncryption
                Public-Key: (2048 bit)
                Modulus:
                    00:93:32:4a:0c:6a:91:b4:a2:4d:eb:89:e8:39:8d:
                    23:2c:f8:ec:be:91:6d:5c:89:29:5a:e5:ab:9a:d0:
                    2d:a9:2a:df:89:04:e1:34:cc:0e:f0:46:91:e9:af:
                    9b:5b:f3:58:e1:dc:19:8a:4c:a1:84:a3:2f:71:d8:
                    d4:95:77:ac:dd:2a:71:a2:bb:1f:6f:d6:6f:8b:80:
                    89:cb:b5:ec:e4:16:97:9b:a0:6d:fc:b8:63:7e:a1:
                    e1:33:65:f4:40:97:c9:a6:1f:f9:0c:d0:3a:aa:e2:
                    76:47:bb:c2:d9:61:d2:07:5f:bd:a3:66:71:79:a7:
                    8b:09:99:d9:39:77:20:f6:97:97:1b:16:ba:09:c4:
                    7f:a1:b1:3d:d2:ab:97:4c:97:0e:1c:f7:ab:bc:cd:
                    35:e8:8e:83:d7:e6:f6:ff:34:4f:25:19:03:11:36:
                    51:75:2e:35:1e:64:d7:c7:f4:b5:4d:83:e9:2d:7f:
                    0a:e9:1e:cb:3a:20:7a:c0:f5:a2:e9:9c:68:24:6d:
                    f3:d5:53:bd:fc:50:bc:68:7f:ae:16:f5:48:01:a1:
                    a9:7f:dc:69:1c:7e:24:ce:c5:4d:e7:20:36:44:4b:
                    7e:c9:27:5e:be:4c:32:33:13:60:0e:a6:e3:eb:6f:
                    f5:04:79:16:62:a1:a8:d8:ff:9e:fe:d4:79:93:c4:
                    e2:2d
                Exponent: 65537 (0x10001)
        X509v3 extensions:
            X509v3 Subject Key Identifier: 
                D6:51:0D:B0:DE:78:F7:44:30:3C:C2:1D:A6:03:F7:67:39:80:57:29
            X509v3 Authority Key Identifier: 
                keyid:9C:29:86:7E:84:2F:00:DD:2A:1D:B3:22:03:9A:F5:7A:BD:18:E5:CF
                DirName:/C=US/ST=California/L=Santa Clara/O=pkg5/CN=ch2_ta1/emailAddress=ch2_ta1
                serial:03
            X509v3 Basic Constraints: critical
                CA:TRUE, pathlen:1
            X509v3 Key Usage: critical
                Certificate Sign, CRL Sign
    Signature Algorithm: sha256WithRSAEncryption
    Signature Value:
        7c:5d:23:41:e0:96:5f:db:67:48:55:3c:fd:00:14:50:ec:ad:
        a3:8a:0c:bd:15:f5:e0:87:cc:03:7c:bb:c3:8d:49:48:6d:51:
        af:02:94:3f:5b:be:f9:34:6d:16:bd:ec:27:f3:8c:86:4e:81:
        42:19:00:b3:71:05:35:fe:7f:7b:e3:ca:50:6a:35:7f:ef:b0:
        82:c7:90:38:b8:64:2d:06:de:64:3a:81:84:94:e1:ee:26:51:
        42:d9:64:ae:c6:3f:30:f2:d2:f6:5e:32:73:80:54:6f:0a:42:
        71:cb:09:2e:fb:63:22:c0:14:b5:5a:f7:83:39:bf:06:ea:1e:
        d6:d3:fb:f6:e7:d8:8c:4e:c4:46:e5:b9:f8:77:78:d1:7e:c7:
        94:60:ad:c0:4c:a5:c8:89:53:7f:ba:0d:53:f0:23:f9:06:e5:
        31:d5:cc:f8:ca:d0:3b:45:37:e3:55:2a:16:b5:7b:92:12:a4:
        15:7b:63:4a:6a:9c:3d:20:c8:71:44:b8:85:40:96:16:f2:35:
        02:dd:91:fa:f0:53:cf:d6:1d:c2:8d:a9:4a:e9:8f:32:c1:7a:
        0a:40:0a:fd:6b:7d:08:b9:7d:4d:2e:e1:c4:e9:04:6d:9e:b0:
        d0:2b:fb:90:d1:90:5b:fd:52:76:02:32:6e:a1:0b:f1:b5:c7:
        89:1e:06:62
-----BEGIN CERTIFICATE-----
MIIEQjCCAyqgAwIBAgIBBDANBgkqhkiG9w0BAQsFADBxMQswCQYDVQQGEwJVUzET
MBEGA1UECAwKQ2FsaWZvcm5pYTEUMBIGA1UEBwwLU2FudGEgQ2xhcmExDTALBgNV
BAoMBHBrZzUxEDAOBgNVBAMMB2NoM190YTExFjAUBgkqhkiG9w0BCQEWB2NoM190
YTEwHhcNMjExMDIyMTAxNTA1WhcNMjQwNzE4MTAxNTA1WjBxMQswCQYDVQQGEwJV
UzETMBEGA1UECAwKQ2FsaWZvcm5pYTEUMBIGA1UEBwwLU2FudGEgQ2xhcmExDTAL
BgNVBAoMBHBrZzUxEDAOBgNVBAMMB2NoNF90YTExFjAUBgkqhkiG9w0BCQEWB2No
NF90YTEwggEiMA0GCSqGSIb3DQEBAQUAA4IBDwAwggEKAoIBAQCTMkoMapG0ok3r
ieg5jSMs+Oy+kW1ciSla5aua0C2pKt+JBOE0zA7wRpHpr5tb81jh3BmKTKGEoy9x
2NSVd6zdKnGiux9v1m+LgInLtezkFpeboG38uGN+oeEzZfRAl8mmH/kM0Dqq4nZH
u8LZYdIHX72jZnF5p4sJmdk5dyD2l5cbFroJxH+hsT3Sq5dMlw4c96u8zTXojoPX
5vb/NE8lGQMRNlF1LjUeZNfH9LVNg+ktfwrpHss6IHrA9aLpnGgkbfPVU738ULxo
f64W9UgBoal/3GkcfiTOxU3nIDZES37JJ16+TDIzE2AOpuPrb/UEeRZioajY/57+
1HmTxOItAgMBAAGjgeQwgeEwHQYDVR0OBBYEFNZRDbDeePdEMDzCHaYD92c5gFcp
MIGbBgNVHSMEgZMwgZCAFJwphn6ELwDdKh2zIgOa9Xq9GOXPoXWkczBxMQswCQYD
VQQGEwJVUzETMBEGA1UECAwKQ2FsaWZvcm5pYTEUMBIGA1UEBwwLU2FudGEgQ2xh
cmExDTALBgNVBAoMBHBrZzUxEDAOBgNVBAMMB2NoMl90YTExFjAUBgkqhkiG9w0B
CQEWB2NoMl90YTGCAQMwEgYDVR0TAQH/BAgwBgEB/wIBATAOBgNVHQ8BAf8EBAMC
AQYwDQYJKoZIhvcNAQELBQADggEBAHxdI0Hgll/bZ0hVPP0AFFDsraOKDL0V9eCH
zAN8u8ONSUhtUa8ClD9bvvk0bRa97CfzjIZOgUIZALNxBTX+f3vjylBqNX/vsILH
kDi4ZC0G3mQ6gYSU4e4mUULZZK7GPzDy0vZeMnOAVG8KQnHLCS77YyLAFLVa94M5
vwbqHtbT+/bn2IxOxEblufh3eNF+x5RgrcBMpciJU3+6DVPwI/kG5THVzPjK0DtF
N+NVKha1e5ISpBV7Y0pqnD0gyHFEuIVAlhbyNQLdkfrwU8/WHcKNqUrpjzLBegpA
Cv1rfQi5fU0u4cTpBG2esNAr+5DRkFv9UnYCMm6hC/G1x4keBmI=
-----END CERTIFICATE-----
