Certificate:
    Data:
        Version: 3 (0x2)
        Serial Number: 4 (0x4)
        Signature Algorithm: sha256WithRSAEncryption
        Issuer: C=US, ST=California, L=Santa Clara, O=pkg5, CN=ch3_ta1/emailAddress=ch3_ta1
        Validity
            Not Before: Oct 24 21:42:59 2023 GMT
            Not After : Jul 20 21:42:59 2026 GMT
        Subject: C=US, ST=California, L=Santa Clara, O=pkg5, CN=ch4_ta1/emailAddress=ch4_ta1
        Subject Public Key Info:
            Public Key Algorithm: rsaEncryption
                Public-Key: (2048 bit)
                Modulus:
                    00:cf:b9:58:3d:89:8f:9a:43:0d:e4:60:df:4b:74:
                    1b:56:f9:7a:af:26:97:27:1b:04:ab:1b:8c:f2:26:
                    e0:82:72:3b:70:87:f2:46:51:36:bc:0d:cc:71:93:
                    bd:fd:61:6c:7d:55:13:05:ad:dd:2e:1e:ad:0e:41:
                    f4:d1:2b:8a:b5:7b:d9:05:f3:34:62:05:9c:7a:de:
                    5d:52:ad:8b:a8:11:d8:5b:8d:ce:a5:68:f5:7f:15:
                    e7:a7:8f:ff:b6:c9:35:e4:5a:74:96:10:c1:87:85:
                    ed:92:7f:b0:87:94:15:30:79:65:0d:df:58:a8:82:
                    d3:0d:f3:04:9e:27:fb:ee:4b:3c:e9:4d:ca:42:6d:
                    70:d4:a8:5c:7a:f9:2f:d0:f6:42:cb:2d:07:27:92:
                    2d:85:5f:e4:3a:82:59:2e:0f:ca:cc:b0:09:7a:62:
                    ff:b6:c6:43:6a:0b:9c:61:96:9e:00:04:f8:cf:9d:
                    84:23:28:b6:b2:3e:8d:65:c3:12:f0:02:25:40:76:
                    9c:f8:47:64:35:1e:64:d5:98:e0:f5:0b:49:10:8b:
                    e1:34:8d:f0:1c:6b:08:2c:88:a1:83:e9:80:e5:14:
                    b8:4d:ed:4a:87:59:23:96:d0:3a:ef:c0:1b:02:df:
                    62:0d:65:c7:a0:d2:6c:68:54:34:34:d6:36:a9:93:
                    4f:b3
                Exponent: 65537 (0x10001)
        X509v3 extensions:
            X509v3 Subject Key Identifier: 
                F0:C5:5C:7D:97:FB:05:C7:4A:9D:A4:6A:53:4D:B4:1F:3D:6D:AB:0F
            X509v3 Authority Key Identifier: 
                keyid:E0:51:33:F5:C1:D6:F1:14:C5:B4:E1:75:EE:81:DA:14:E2:00:F6:88
                DirName:/C=US/ST=California/L=Santa Clara/O=pkg5/CN=ch2_ta1/emailAddress=ch2_ta1
                serial:03
            X509v3 Basic Constraints: critical
                CA:TRUE, pathlen:1
            X509v3 Key Usage: critical
                Certificate Sign, CRL Sign
    Signature Algorithm: sha256WithRSAEncryption
    Signature Value:
        ba:30:aa:26:35:00:62:ae:e4:f9:52:68:98:a6:25:16:19:9e:
        f3:18:f5:7d:b3:a6:23:7d:a1:f1:af:41:36:4e:8a:88:45:53:
        27:ed:be:ef:7d:49:24:03:9e:08:b0:76:f9:96:ca:03:c6:cf:
        a8:8b:b9:b5:d9:95:c9:9e:7c:95:34:8d:06:97:ee:37:77:93:
        3d:0e:19:0a:a9:c1:10:79:6e:18:3d:86:cb:52:6f:c4:c6:a1:
        e5:4f:fd:53:f8:d2:8c:a8:30:cb:37:0c:ba:ce:05:01:da:84:
        72:ff:3a:e8:c7:31:54:2d:a1:56:d9:cb:7b:0b:f7:0c:aa:04:
        06:2a:c5:23:c9:17:29:81:da:3a:e5:91:ac:83:94:b7:3e:f6:
        d2:12:d6:87:4a:0e:2f:ef:2d:66:57:a2:21:70:02:17:51:e7:
        81:de:ef:cd:ff:55:ea:f1:9f:0d:e4:51:d9:4b:39:6a:a6:06:
        f6:9b:6c:1c:d5:37:0e:8e:26:f2:8c:89:48:1d:5c:c5:06:7c:
        4a:62:df:17:8d:b8:ca:fc:91:1d:a1:99:5c:fd:f0:f4:1e:1d:
        b0:90:80:5a:a3:bd:4c:02:77:ac:be:55:82:b0:e5:30:5f:84:
        35:6b:93:8b:03:09:c0:8d:4a:7e:3a:ae:04:19:d2:8a:7f:55:
        32:97:fc:fe
-----BEGIN CERTIFICATE-----
MIIEQjCCAyqgAwIBAgIBBDANBgkqhkiG9w0BAQsFADBxMQswCQYDVQQGEwJVUzET
MBEGA1UECAwKQ2FsaWZvcm5pYTEUMBIGA1UEBwwLU2FudGEgQ2xhcmExDTALBgNV
BAoMBHBrZzUxEDAOBgNVBAMMB2NoM190YTExFjAUBgkqhkiG9w0BCQEWB2NoM190
YTEwHhcNMjMxMDI0MjE0MjU5WhcNMjYwNzIwMjE0MjU5WjBxMQswCQYDVQQGEwJV
UzETMBEGA1UECAwKQ2FsaWZvcm5pYTEUMBIGA1UEBwwLU2FudGEgQ2xhcmExDTAL
BgNVBAoMBHBrZzUxEDAOBgNVBAMMB2NoNF90YTExFjAUBgkqhkiG9w0BCQEWB2No
NF90YTEwggEiMA0GCSqGSIb3DQEBAQUAA4IBDwAwggEKAoIBAQDPuVg9iY+aQw3k
YN9LdBtW+XqvJpcnGwSrG4zyJuCCcjtwh/JGUTa8Dcxxk739YWx9VRMFrd0uHq0O
QfTRK4q1e9kF8zRiBZx63l1SrYuoEdhbjc6laPV/Feenj/+2yTXkWnSWEMGHhe2S
f7CHlBUweWUN31iogtMN8wSeJ/vuSzzpTcpCbXDUqFx6+S/Q9kLLLQcnki2FX+Q6
glkuD8rMsAl6Yv+2xkNqC5xhlp4ABPjPnYQjKLayPo1lwxLwAiVAdpz4R2Q1HmTV
mOD1C0kQi+E0jfAcawgsiKGD6YDlFLhN7UqHWSOW0DrvwBsC32INZceg0mxoVDQ0
1japk0+zAgMBAAGjgeQwgeEwHQYDVR0OBBYEFPDFXH2X+wXHSp2kalNNtB89basP
MIGbBgNVHSMEgZMwgZCAFOBRM/XB1vEUxbThde6B2hTiAPaIoXWkczBxMQswCQYD
VQQGEwJVUzETMBEGA1UECAwKQ2FsaWZvcm5pYTEUMBIGA1UEBwwLU2FudGEgQ2xh
cmExDTALBgNVBAoMBHBrZzUxEDAOBgNVBAMMB2NoMl90YTExFjAUBgkqhkiG9w0B
CQEWB2NoMl90YTGCAQMwEgYDVR0TAQH/BAgwBgEB/wIBATAOBgNVHQ8BAf8EBAMC
AQYwDQYJKoZIhvcNAQELBQADggEBALowqiY1AGKu5PlSaJimJRYZnvMY9X2zpiN9
ofGvQTZOiohFUyftvu99SSQDngiwdvmWygPGz6iLubXZlcmefJU0jQaX7jd3kz0O
GQqpwRB5bhg9hstSb8TGoeVP/VP40oyoMMs3DLrOBQHahHL/OujHMVQtoVbZy3sL
9wyqBAYqxSPJFymB2jrlkayDlLc+9tIS1odKDi/vLWZXoiFwAhdR54He783/Verx
nw3kUdlLOWqmBvabbBzVNw6OJvKMiUgdXMUGfEpi3xeNuMr8kR2hmVz98PQeHbCQ
gFqjvUwCd6y+VYKw5TBfhDVrk4sDCcCNSn46rgQZ0op/VTKX/P4=
-----END CERTIFICATE-----
