Certificate:
    Data:
        Version: 3 (0x2)
        Serial Number: 4 (0x4)
        Signature Algorithm: sha256WithRSAEncryption
        Issuer: C=US, ST=California, L=Santa Clara, O=pkg5, CN=ch3_ta1/emailAddress=ch3_ta1
        Validity
            Not Before: Nov 14 14:26:51 2024 GMT
            Not After : Aug 11 14:26:51 2027 GMT
        Subject: C=US, ST=California, L=Santa Clara, O=pkg5, CN=ch4_ta1/emailAddress=ch4_ta1
        Subject Public Key Info:
            Public Key Algorithm: rsaEncryption
                Public-Key: (2048 bit)
                Modulus:
                    00:b2:e0:b6:ee:14:a0:f9:64:14:c9:b3:29:70:eb:
                    bd:77:d4:6f:42:fc:c5:47:5e:2e:71:11:5f:22:0d:
                    03:4a:20:82:c1:d0:cf:2b:53:1b:9a:ea:88:2a:75:
                    94:17:4a:12:d7:28:09:9b:f4:86:66:17:ee:44:d8:
                    2f:33:de:62:07:d6:0c:12:d4:fc:0d:20:04:1d:e8:
                    ed:80:1b:29:54:33:e8:31:fa:15:1a:5b:fa:c4:ea:
                    7a:cc:5c:88:8b:de:9a:67:f1:6f:7a:1f:1b:dd:27:
                    13:23:2d:9c:0f:be:6a:74:e3:c2:1e:a9:70:df:88:
                    16:98:b0:75:6f:5c:1b:07:98:a2:ee:11:f9:e1:19:
                    fd:4b:67:ed:58:0d:19:c6:04:a2:b0:86:af:07:7c:
                    c8:b5:18:c2:65:32:3d:dc:cc:03:a0:03:3b:6b:8c:
                    b2:ec:b5:f6:7d:1e:4f:44:42:1c:e2:4e:c7:bb:0e:
                    6b:7d:ea:ea:b5:f9:cb:fe:a6:37:46:e0:e5:ef:13:
                    49:eb:3f:8a:4a:c7:68:85:c6:c8:30:1b:0b:09:2b:
                    f3:52:00:72:f0:d0:09:7a:fe:ae:5e:18:f6:36:f1:
                    f0:f2:2e:23:c5:8a:43:d8:ed:36:de:7c:b9:7d:a4:
                    36:29:98:85:11:b0:34:73:34:b7:d9:96:d6:9a:4f:
                    1c:f9
                Exponent: 65537 (0x10001)
        X509v3 extensions:
            X509v3 Subject Key Identifier: 
                16:B2:AA:05:84:89:41:E5:7C:FA:3D:A3:F4:20:3A:23:36:A9:95:08
            X509v3 Authority Key Identifier: 
                keyid:9F:C9:8F:96:B8:44:63:58:A6:99:AC:B9:77:A1:93:F3:F9:60:D8:FC
                DirName:/C=US/ST=California/L=Santa Clara/O=pkg5/CN=ch2_ta1/emailAddress=ch2_ta1
                serial:03
            X509v3 Basic Constraints: critical
                CA:TRUE, pathlen:1
            X509v3 Key Usage: critical
                Certificate Sign, CRL Sign
    Signature Algorithm: sha256WithRSAEncryption
    Signature Value:
        09:36:2b:92:70:28:3c:59:1a:bf:b4:3c:c7:39:a7:7a:11:93:
        5d:f7:37:46:58:50:66:2b:f4:6a:ae:6c:7d:c2:4e:04:9d:ec:
        f8:06:41:d7:8b:a7:65:28:25:7f:e2:aa:e4:56:eb:27:ac:86:
        4d:1c:37:8b:69:af:12:39:aa:14:bd:8e:05:90:1a:ac:b4:de:
        5e:73:21:f9:cf:67:e7:7b:af:6e:48:b2:ee:2f:87:56:3c:b2:
        d5:da:bf:59:96:e2:4a:e0:25:7d:7d:2b:10:a4:f6:13:d9:88:
        f1:b6:d4:50:67:84:88:47:a0:bb:b1:04:b6:99:46:bb:5c:94:
        47:48:a6:8c:68:c4:0d:3e:46:db:16:89:82:19:13:4f:11:7d:
        c0:fe:fb:1c:df:85:fa:56:33:ea:87:a0:15:f1:24:c9:d9:eb:
        4c:7f:68:74:86:44:24:fd:b0:6f:0a:1b:36:ec:f7:32:f0:3a:
        f5:9f:45:21:2e:d4:bc:82:18:86:60:53:c0:68:9a:04:37:59:
        f5:44:57:0a:fe:7b:82:2f:69:7d:50:37:09:9a:31:2d:7a:9e:
        02:0a:a3:f8:be:23:49:80:7f:c0:f2:0f:cf:43:92:29:be:47:
        71:c3:9d:d0:72:a4:02:f3:13:b3:3b:09:a6:62:04:ef:82:a9:
        55:fa:72:5a
-----BEGIN CERTIFICATE-----
MIIEQjCCAyqgAwIBAgIBBDANBgkqhkiG9w0BAQsFADBxMQswCQYDVQQGEwJVUzET
MBEGA1UECAwKQ2FsaWZvcm5pYTEUMBIGA1UEBwwLU2FudGEgQ2xhcmExDTALBgNV
BAoMBHBrZzUxEDAOBgNVBAMMB2NoM190YTExFjAUBgkqhkiG9w0BCQEWB2NoM190
YTEwHhcNMjQxMTE0MTQyNjUxWhcNMjcwODExMTQyNjUxWjBxMQswCQYDVQQGEwJV
UzETMBEGA1UECAwKQ2FsaWZvcm5pYTEUMBIGA1UEBwwLU2FudGEgQ2xhcmExDTAL
BgNVBAoMBHBrZzUxEDAOBgNVBAMMB2NoNF90YTExFjAUBgkqhkiG9w0BCQEWB2No
NF90YTEwggEiMA0GCSqGSIb3DQEBAQUAA4IBDwAwggEKAoIBAQCy4LbuFKD5ZBTJ
sylw67131G9C/MVHXi5xEV8iDQNKIILB0M8rUxua6ogqdZQXShLXKAmb9IZmF+5E
2C8z3mIH1gwS1PwNIAQd6O2AGylUM+gx+hUaW/rE6nrMXIiL3ppn8W96HxvdJxMj
LZwPvmp048IeqXDfiBaYsHVvXBsHmKLuEfnhGf1LZ+1YDRnGBKKwhq8HfMi1GMJl
Mj3czAOgAztrjLLstfZ9Hk9EQhziTse7Dmt96uq1+cv+pjdG4OXvE0nrP4pKx2iF
xsgwGwsJK/NSAHLw0Al6/q5eGPY28fDyLiPFikPY7TbefLl9pDYpmIURsDRzNLfZ
ltaaTxz5AgMBAAGjgeQwgeEwHQYDVR0OBBYEFBayqgWEiUHlfPo9o/QgOiM2qZUI
MIGbBgNVHSMEgZMwgZCAFJ/Jj5a4RGNYppmsuXehk/P5YNj8oXWkczBxMQswCQYD
VQQGEwJVUzETMBEGA1UECAwKQ2FsaWZvcm5pYTEUMBIGA1UEBwwLU2FudGEgQ2xh
cmExDTALBgNVBAoMBHBrZzUxEDAOBgNVBAMMB2NoMl90YTExFjAUBgkqhkiG9w0B
CQEWB2NoMl90YTGCAQMwEgYDVR0TAQH/BAgwBgEB/wIBATAOBgNVHQ8BAf8EBAMC
AQYwDQYJKoZIhvcNAQELBQADggEBAAk2K5JwKDxZGr+0PMc5p3oRk133N0ZYUGYr
9GqubH3CTgSd7PgGQdeLp2UoJX/iquRW6yeshk0cN4tprxI5qhS9jgWQGqy03l5z
IfnPZ+d7r25Isu4vh1Y8stXav1mW4krgJX19KxCk9hPZiPG21FBnhIhHoLuxBLaZ
RrtclEdIpoxoxA0+RtsWiYIZE08RfcD++xzfhfpWM+qHoBXxJMnZ60x/aHSGRCT9
sG8KGzbs9zLwOvWfRSEu1LyCGIZgU8BomgQ3WfVEVwr+e4IvaX1QNwmaMS16ngIK
o/i+I0mAf8DyD89Dkim+R3HDndBypALzE7M7CaZiBO+CqVX6clo=
-----END CERTIFICATE-----
