Certificate:
    Data:
        Version: 3 (0x2)
        Serial Number: 10 (0xa)
        Signature Algorithm: sha256WithRSAEncryption
        Issuer: C=US, ST=California, L=Santa Clara, O=pkg5, CN=ch4_ta1/emailAddress=ch4_ta1
        Validity
            Not Before: Dec 15 15:37:18 2022 GMT
            Not After : Sep 10 15:37:18 2025 GMT
        Subject: C=US, ST=California, L=Santa Clara, O=pkg5, CN=ch5.2_ta1/emailAddress=ch5.2_ta1
        Subject Public Key Info:
            Public Key Algorithm: rsaEncryption
                Public-Key: (2048 bit)
                Modulus:
                    00:cd:5c:44:68:e1:cb:f1:7d:bf:8b:dd:f9:14:ee:
                    01:c3:c2:fb:08:76:9e:42:2e:79:21:4d:bd:ec:8a:
                    7e:38:24:57:7c:6f:18:8d:53:30:2a:71:7d:2a:2c:
                    47:7d:b9:4a:97:4c:23:cc:e2:18:1e:34:5c:32:57:
                    9e:4b:b8:db:ca:db:12:3d:05:f1:d5:a2:8f:50:33:
                    72:b2:91:c5:4d:1d:34:7c:1d:2a:84:40:ec:ae:b1:
                    9d:c7:c3:89:74:f7:84:0e:25:d1:2e:06:11:c6:88:
                    0e:f9:bd:48:69:d3:76:bc:71:60:d3:83:ae:12:d6:
                    57:87:1a:ed:2d:3b:b4:4d:1a:72:4c:68:ea:6c:52:
                    8f:e2:a4:93:a3:38:8a:7d:1a:0c:66:bb:72:30:27:
                    26:1c:3d:aa:46:21:50:2d:19:b7:c2:d5:22:32:8b:
                    0e:87:b1:54:bb:14:ec:7d:6c:25:c4:2f:79:0c:e7:
                    91:2e:73:50:69:1b:e6:07:da:5f:a3:33:8f:23:9e:
                    5a:cb:20:b8:73:3b:fa:06:b6:28:e2:cc:78:f9:e0:
                    b1:3f:6f:fc:0b:55:8a:bb:17:78:e2:9f:e6:ad:b9:
                    68:e0:bf:e8:0f:95:a6:f7:af:5a:a4:74:4c:fc:bc:
                    87:ac:c2:ac:b1:28:7a:64:b3:cf:69:5e:dc:98:04:
                    bf:85
                Exponent: 65537 (0x10001)
        X509v3 extensions:
            X509v3 Subject Key Identifier: 
                6B:BC:D7:00:86:9A:0F:E6:0B:AA:55:26:D2:E3:7C:A9:0F:B2:64:22
            X509v3 Authority Key Identifier: 
                keyid:AB:AA:B3:26:CE:41:5B:E6:B4:C7:60:66:EF:8E:7A:38:71:FF:78:6B
                DirName:/C=US/ST=California/L=Santa Clara/O=pkg5/CN=ch3_ta1/emailAddress=ch3_ta1
                serial:04
            X509v3 Basic Constraints: critical
                CA:TRUE, pathlen:1
            X509v3 Key Usage: critical
                Certificate Sign, CRL Sign
    Signature Algorithm: sha256WithRSAEncryption
    Signature Value:
        70:10:d2:ee:b8:bc:bd:f7:e4:e3:d0:05:d4:c1:f0:55:05:25:
        e2:38:68:70:5e:44:17:f1:11:96:76:c7:82:1d:70:94:ee:b0:
        b6:38:90:ef:72:7a:b0:6e:61:fa:c5:ae:47:5d:9c:49:70:35:
        8d:85:b2:d1:d8:36:90:ac:61:a0:52:48:13:dd:81:da:8a:a0:
        c4:db:50:00:a5:73:53:3b:bc:9f:69:8a:53:3c:1b:c9:ef:c8:
        3e:a4:41:37:5b:3d:16:27:68:24:51:6b:35:fa:1b:c9:d1:6c:
        55:45:08:54:b9:2f:76:ca:2b:63:ff:d2:95:ac:f5:05:bc:d9:
        b3:f1:90:85:15:7e:01:d2:df:7e:d2:25:db:d1:77:89:23:6b:
        17:41:7e:6c:89:8d:20:d4:96:cd:f7:ce:08:9e:ce:6d:d5:35:
        24:05:e0:4d:30:d2:d3:85:76:dd:34:d0:ba:8f:0a:64:27:27:
        3f:30:83:42:ec:5a:0e:46:25:da:6e:33:38:e5:f3:ac:0a:9f:
        e0:7b:35:d2:f4:da:10:97:65:66:f0:57:ee:d4:97:00:3e:4c:
        51:f8:ee:fa:4a:29:db:0d:35:e2:ea:98:9e:b4:6d:70:25:be:
        83:e9:2b:31:55:c1:5f:1b:0c:93:eb:bf:0b:0e:7e:34:9a:72:
        a5:ce:68:8c
-----BEGIN CERTIFICATE-----
MIIERjCCAy6gAwIBAgIBCjANBgkqhkiG9w0BAQsFADBxMQswCQYDVQQGEwJVUzET
MBEGA1UECAwKQ2FsaWZvcm5pYTEUMBIGA1UEBwwLU2FudGEgQ2xhcmExDTALBgNV
BAoMBHBrZzUxEDAOBgNVBAMMB2NoNF90YTExFjAUBgkqhkiG9w0BCQEWB2NoNF90
YTEwHhcNMjIxMjE1MTUzNzE4WhcNMjUwOTEwMTUzNzE4WjB1MQswCQYDVQQGEwJV
UzETMBEGA1UECAwKQ2FsaWZvcm5pYTEUMBIGA1UEBwwLU2FudGEgQ2xhcmExDTAL
BgNVBAoMBHBrZzUxEjAQBgNVBAMMCWNoNS4yX3RhMTEYMBYGCSqGSIb3DQEJARYJ
Y2g1LjJfdGExMIIBIjANBgkqhkiG9w0BAQEFAAOCAQ8AMIIBCgKCAQEAzVxEaOHL
8X2/i935FO4Bw8L7CHaeQi55IU297Ip+OCRXfG8YjVMwKnF9KixHfblKl0wjzOIY
HjRcMleeS7jbytsSPQXx1aKPUDNyspHFTR00fB0qhEDsrrGdx8OJdPeEDiXRLgYR
xogO+b1IadN2vHFg04OuEtZXhxrtLTu0TRpyTGjqbFKP4qSToziKfRoMZrtyMCcm
HD2qRiFQLRm3wtUiMosOh7FUuxTsfWwlxC95DOeRLnNQaRvmB9pfozOPI55ayyC4
czv6BrYo4sx4+eCxP2/8C1WKuxd44p/mrblo4L/oD5Wm969apHRM/LyHrMKssSh6
ZLPPaV7cmAS/hQIDAQABo4HkMIHhMB0GA1UdDgQWBBRrvNcAhpoP5guqVSbS43yp
D7JkIjCBmwYDVR0jBIGTMIGQgBSrqrMmzkFb5rTHYGbvjno4cf94a6F1pHMwcTEL
MAkGA1UEBhMCVVMxEzARBgNVBAgMCkNhbGlmb3JuaWExFDASBgNVBAcMC1NhbnRh
IENsYXJhMQ0wCwYDVQQKDARwa2c1MRAwDgYDVQQDDAdjaDNfdGExMRYwFAYJKoZI
hvcNAQkBFgdjaDNfdGExggEEMBIGA1UdEwEB/wQIMAYBAf8CAQEwDgYDVR0PAQH/
BAQDAgEGMA0GCSqGSIb3DQEBCwUAA4IBAQBwENLuuLy99+Tj0AXUwfBVBSXiOGhw
XkQX8RGWdseCHXCU7rC2OJDvcnqwbmH6xa5HXZxJcDWNhbLR2DaQrGGgUkgT3YHa
iqDE21AApXNTO7yfaYpTPBvJ78g+pEE3Wz0WJ2gkUWs1+hvJ0WxVRQhUuS92yitj
/9KVrPUFvNmz8ZCFFX4B0t9+0iXb0XeJI2sXQX5siY0g1JbN984Ins5t1TUkBeBN
MNLThXbdNNC6jwpkJyc/MINC7FoORiXabjM45fOsCp/gezXS9NoQl2Vm8Ffu1JcA
PkxR+O76SinbDTXi6pietG1wJb6D6SsxVcFfGwyT678LDn40mnKlzmiM
-----END CERTIFICATE-----
