Certificate:
    Data:
        Version: 3 (0x2)
        Serial Number: 10 (0xa)
    Signature Algorithm: sha256WithRSAEncryption
        Issuer: C=US, ST=California, L=Santa Clara, O=pkg5, CN=ch4_ta1/emailAddress=ch4_ta1
        Validity
            Not Before: Dec  6 03:06:42 2014 GMT
            Not After : Sep  1 03:06:42 2017 GMT
        Subject: C=US, ST=California, L=Santa Clara, O=pkg5, CN=ch5.2_ta1/emailAddress=ch5.2_ta1
        Subject Public Key Info:
            Public Key Algorithm: rsaEncryption
                Public-Key: (1024 bit)
                Modulus:
                    00:cd:c5:f4:35:28:c0:a5:d9:a7:1b:89:11:74:27:
                    23:71:c8:c1:ed:a6:dd:86:ec:ca:47:a0:7b:2d:a6:
                    cb:d7:c8:7c:48:54:fd:e7:08:61:24:fe:e5:5f:f2:
                    82:06:58:c8:83:d1:9e:cc:d6:21:b5:b7:b7:39:f7:
                    cc:30:1b:22:c6:82:4b:e0:fc:9f:14:a1:08:15:af:
                    67:14:47:32:5c:07:ba:e8:f1:21:f4:a3:c9:56:d6:
                    a1:2e:bf:5e:06:b3:8f:56:4b:99:89:db:17:78:1c:
                    f9:0c:0d:b9:10:7e:c4:2b:78:50:c6:d8:1e:2b:d0:
                    36:ce:fa:9c:38:40:9f:4f:9b
                Exponent: 65537 (0x10001)
        X509v3 extensions:
            X509v3 Subject Key Identifier: 
                1C:08:8B:7C:41:44:58:3A:54:5C:47:13:BD:84:A3:9D:4B:08:BD:B4
            X509v3 Authority Key Identifier: 
                keyid:3D:B8:D0:07:CD:06:B2:96:FB:37:98:55:C0:86:60:B6:72:7C:AD:AD
                DirName:/C=US/ST=California/L=Santa Clara/O=pkg5/CN=ch3_ta1/emailAddress=ch3_ta1
                serial:04

            X509v3 Basic Constraints: critical
                CA:TRUE, pathlen:1
            X509v3 Key Usage: critical
                Certificate Sign, CRL Sign
    Signature Algorithm: sha256WithRSAEncryption
         8e:b2:43:6d:03:11:1c:77:15:ec:66:59:f0:39:09:45:2a:79:
         f2:35:e6:95:80:55:4d:02:11:29:4c:bb:e7:74:47:c6:18:a6:
         2d:ef:54:3c:8d:8d:65:b9:d4:85:42:0d:09:5e:11:e4:01:89:
         bf:f3:c4:b9:fe:d8:c2:bd:ff:cb:1f:ff:9c:8d:b6:14:34:e9:
         af:b0:78:04:e0:f1:94:81:99:19:5a:e2:1f:75:3d:41:98:bb:
         32:58:79:dd:54:eb:c2:bd:9d:9f:18:56:99:5b:47:0d:68:d7:
         ab:24:0b:69:2d:44:ae:c0:46:95:1a:33:30:58:35:e5:98:50:
         30:ab
-----BEGIN CERTIFICATE-----
MIIDQTCCAqqgAwIBAgIBCjANBgkqhkiG9w0BAQsFADBxMQswCQYDVQQGEwJVUzET
MBEGA1UECAwKQ2FsaWZvcm5pYTEUMBIGA1UEBwwLU2FudGEgQ2xhcmExDTALBgNV
BAoMBHBrZzUxEDAOBgNVBAMMB2NoNF90YTExFjAUBgkqhkiG9w0BCQEWB2NoNF90
YTEwHhcNMTQxMjA2MDMwNjQyWhcNMTcwOTAxMDMwNjQyWjB1MQswCQYDVQQGEwJV
UzETMBEGA1UECAwKQ2FsaWZvcm5pYTEUMBIGA1UEBwwLU2FudGEgQ2xhcmExDTAL
BgNVBAoMBHBrZzUxEjAQBgNVBAMMCWNoNS4yX3RhMTEYMBYGCSqGSIb3DQEJARYJ
Y2g1LjJfdGExMIGfMA0GCSqGSIb3DQEBAQUAA4GNADCBiQKBgQDNxfQ1KMCl2acb
iRF0JyNxyMHtpt2G7MpHoHstpsvXyHxIVP3nCGEk/uVf8oIGWMiD0Z7M1iG1t7c5
98wwGyLGgkvg/J8UoQgVr2cURzJcB7ro8SH0o8lW1qEuv14Gs49WS5mJ2xd4HPkM
DbkQfsQreFDG2B4r0DbO+pw4QJ9PmwIDAQABo4HkMIHhMB0GA1UdDgQWBBQcCIt8
QURYOlRcRxO9hKOdSwi9tDCBmwYDVR0jBIGTMIGQgBQ9uNAHzQaylvs3mFXAhmC2
cnytraF1pHMwcTELMAkGA1UEBhMCVVMxEzARBgNVBAgMCkNhbGlmb3JuaWExFDAS
BgNVBAcMC1NhbnRhIENsYXJhMQ0wCwYDVQQKDARwa2c1MRAwDgYDVQQDDAdjaDNf
dGExMRYwFAYJKoZIhvcNAQkBFgdjaDNfdGExggEEMBIGA1UdEwEB/wQIMAYBAf8C
AQEwDgYDVR0PAQH/BAQDAgEGMA0GCSqGSIb3DQEBCwUAA4GBAI6yQ20DERx3Fexm
WfA5CUUqefI15pWAVU0CESlMu+d0R8YYpi3vVDyNjWW51IVCDQleEeQBib/zxLn+
2MK9/8sf/5yNthQ06a+weATg8ZSBmRla4h91PUGYuzJYed1U68K9nZ8YVplbRw1o
16skC2ktRK7ARpUaMzBYNeWYUDCr
-----END CERTIFICATE-----
