Certificate:
    Data:
        Version: 3 (0x2)
        Serial Number: 8 (0x8)
        Signature Algorithm: sha256WithRSAEncryption
        Issuer: C=US, ST=California, L=Santa Clara, O=pkg5, CN=ch4_ta1/emailAddress=ch4_ta1
        Validity
            Not Before: Nov 17 23:01:28 2020 GMT
            Not After : Aug 14 23:01:28 2023 GMT
        Subject: C=US, ST=California, L=Santa Clara, O=pkg5, CN=ch5.1_ta1/emailAddress=ch5.1_ta1
        Subject Public Key Info:
            Public Key Algorithm: rsaEncryption
                RSA Public-Key: (2048 bit)
                Modulus:
                    00:bd:4a:45:9a:02:a5:0b:8a:aa:c6:5c:f9:65:28:
                    36:73:98:65:57:d8:da:54:69:a1:ee:6b:af:b7:39:
                    1c:a6:09:b3:18:31:a0:36:e2:5e:4d:71:67:03:37:
                    c7:11:e0:53:68:ba:77:28:74:08:0a:ba:e1:ca:2c:
                    48:91:c5:cf:b4:9b:8a:81:90:c8:f3:47:63:76:a1:
                    18:6f:47:3f:9a:1e:64:48:15:f8:d6:df:36:5e:d2:
                    8e:cb:de:d0:c0:50:ee:27:05:73:1d:35:9e:8a:87:
                    12:e4:60:3d:91:06:c7:27:85:b1:51:bb:a1:90:ef:
                    cd:17:33:c3:9d:24:b4:67:f9:d7:c1:72:74:97:d9:
                    83:88:c6:ee:4c:85:eb:bc:0a:8e:d6:57:9b:1c:8b:
                    60:d6:c0:23:bf:f9:97:66:65:35:2e:a3:03:2a:13:
                    23:76:21:fd:b5:f7:32:7c:99:f3:b0:14:e0:24:7c:
                    bb:7f:98:7c:8f:f2:5a:81:c3:5d:d7:a4:54:10:04:
                    b8:2f:c4:18:a8:fb:f7:be:05:f5:8a:0b:94:dc:22:
                    c1:e5:1b:6e:ca:0b:ba:76:4b:49:62:04:8e:f5:50:
                    01:b1:6a:e1:3a:b0:44:e4:6d:06:c0:6a:e2:92:26:
                    16:96:07:e5:0c:20:fa:05:25:71:38:bf:9b:60:6b:
                    e7:65
                Exponent: 65537 (0x10001)
        X509v3 extensions:
            X509v3 Basic Constraints: critical
                CA:TRUE
            X509v3 Subject Alternative Name: 
                email:ch5.1_ta1
            X509v3 Issuer Alternative Name: critical
                email:ca
    Signature Algorithm: sha256WithRSAEncryption
         92:36:60:45:22:70:14:22:c1:d5:07:46:1e:27:ab:42:28:e0:
         0b:39:86:e5:43:65:cb:1d:f9:d1:a0:7b:1c:4c:6b:b7:b4:6f:
         55:79:54:b8:60:51:95:01:05:e3:11:8b:c3:8a:83:71:ed:99:
         b3:e3:5f:2f:e7:44:85:4e:39:78:91:a5:6f:ab:d2:92:be:a3:
         1b:a8:bc:88:b8:83:b6:20:6c:90:73:6c:5f:c3:67:a5:6b:60:
         9b:53:72:05:0e:b8:82:bd:37:0d:c6:86:6b:35:86:25:c1:76:
         42:f1:9a:9b:00:87:84:15:d0:b7:60:74:1a:2f:9f:b4:af:8f:
         bc:d6:77:b2:17:71:7d:71:4b:4f:8a:67:20:57:8b:2e:9c:8f:
         98:cc:ca:10:96:aa:81:b3:ed:7d:15:a1:7e:e8:6e:b5:1d:ac:
         13:da:38:ce:a2:58:4f:91:4d:11:37:ac:08:6c:af:33:0f:9a:
         ba:2d:bf:23:78:6f:62:47:bc:0f:37:f0:af:5b:28:37:82:0e:
         cb:a4:33:cb:b8:3c:34:f3:b5:66:e7:1d:86:28:c4:7c:50:4d:
         fe:8c:97:be:76:0e:b8:9a:61:71:c0:2c:19:ac:2a:50:47:bc:
         e9:e0:fb:52:41:67:a3:fe:31:b0:17:03:35:43:70:74:63:a4:
         61:46:c6:90
-----BEGIN CERTIFICATE-----
MIIDnDCCAoSgAwIBAgIBCDANBgkqhkiG9w0BAQsFADBxMQswCQYDVQQGEwJVUzET
MBEGA1UECAwKQ2FsaWZvcm5pYTEUMBIGA1UEBwwLU2FudGEgQ2xhcmExDTALBgNV
BAoMBHBrZzUxEDAOBgNVBAMMB2NoNF90YTExFjAUBgkqhkiG9w0BCQEWB2NoNF90
YTEwHhcNMjAxMTE3MjMwMTI4WhcNMjMwODE0MjMwMTI4WjB1MQswCQYDVQQGEwJV
UzETMBEGA1UECAwKQ2FsaWZvcm5pYTEUMBIGA1UEBwwLU2FudGEgQ2xhcmExDTAL
BgNVBAoMBHBrZzUxEjAQBgNVBAMMCWNoNS4xX3RhMTEYMBYGCSqGSIb3DQEJARYJ
Y2g1LjFfdGExMIIBIjANBgkqhkiG9w0BAQEFAAOCAQ8AMIIBCgKCAQEAvUpFmgKl
C4qqxlz5ZSg2c5hlV9jaVGmh7muvtzkcpgmzGDGgNuJeTXFnAzfHEeBTaLp3KHQI
CrrhyixIkcXPtJuKgZDI80djdqEYb0c/mh5kSBX41t82XtKOy97QwFDuJwVzHTWe
iocS5GA9kQbHJ4WxUbuhkO/NFzPDnSS0Z/nXwXJ0l9mDiMbuTIXrvAqO1lebHItg
1sAjv/mXZmU1LqMDKhMjdiH9tfcyfJnzsBTgJHy7f5h8j/JagcNd16RUEAS4L8QY
qPv3vgX1iguU3CLB5Rtuygu6dktJYgSO9VABsWrhOrBE5G0GwGrikiYWlgflDCD6
BSVxOL+bYGvnZQIDAQABozswOTAPBgNVHRMBAf8EBTADAQH/MBQGA1UdEQQNMAuB
CWNoNS4xX3RhMTAQBgNVHRIBAf8EBjAEgQJjYTANBgkqhkiG9w0BAQsFAAOCAQEA
kjZgRSJwFCLB1QdGHierQijgCzmG5UNlyx350aB7HExrt7RvVXlUuGBRlQEF4xGL
w4qDce2Zs+NfL+dEhU45eJGlb6vSkr6jG6i8iLiDtiBskHNsX8NnpWtgm1NyBQ64
gr03DcaGazWGJcF2QvGamwCHhBXQt2B0Gi+ftK+PvNZ3shdxfXFLT4pnIFeLLpyP
mMzKEJaqgbPtfRWhfuhutR2sE9o4zqJYT5FNETesCGyvMw+aui2/I3hvYke8Dzfw
r1soN4IOy6Qzy7g8NPO1ZucdhijEfFBN/oyXvnYOuJphccAsGawqUEe86eD7UkFn
o/4xsBcDNUNwdGOkYUbGkA==
-----END CERTIFICATE-----
