Certificate:
    Data:
        Version: 3 (0x2)
        Serial Number: 8 (0x8)
        Signature Algorithm: sha256WithRSAEncryption
        Issuer: C=US, ST=California, L=Santa Clara, O=pkg5, CN=ch4_ta1/emailAddress=ch4_ta1
        Validity
            Not Before: Oct 22 10:15:06 2021 GMT
            Not After : Jul 18 10:15:06 2024 GMT
        Subject: C=US, ST=California, L=Santa Clara, O=pkg5, CN=ch5.1_ta1/emailAddress=ch5.1_ta1
        Subject Public Key Info:
            Public Key Algorithm: rsaEncryption
                Public-Key: (2048 bit)
                Modulus:
                    00:8f:e5:1d:5c:72:22:27:51:b3:de:eb:5c:99:6a:
                    ed:26:6a:37:fe:2f:bb:dd:2a:2d:d9:de:4f:ab:15:
                    01:07:f0:d5:23:68:a9:b8:f5:fd:35:81:39:ff:ca:
                    3b:df:cc:14:57:5b:54:01:7c:ea:9e:f6:bd:bb:47:
                    01:a9:8e:64:6f:ab:04:4c:e2:0e:84:92:5a:15:e4:
                    0b:62:55:3d:94:0e:e6:9b:90:cf:eb:42:cc:54:3e:
                    9c:0c:62:9a:f0:c9:a4:58:2e:de:0f:84:b1:03:93:
                    11:bd:21:47:a3:1c:07:3b:7b:5f:7f:a5:4e:d4:0b:
                    44:75:2f:7f:35:e9:2b:7b:a6:42:c8:65:6a:81:6d:
                    a6:51:6a:88:20:36:3f:38:be:42:16:f9:6f:da:24:
                    11:09:19:f9:47:da:ef:db:f1:15:b2:85:65:1e:d0:
                    ce:51:83:d4:59:ee:f8:d0:b3:14:02:7d:34:53:1f:
                    2f:17:f4:25:3c:5c:61:ac:2a:7b:28:b5:ed:1b:ed:
                    1f:a4:f2:08:fc:ce:80:e2:06:ca:f9:d8:1b:7e:85:
                    06:a7:bf:88:cd:ab:ea:23:44:73:52:10:ce:55:bd:
                    3e:73:54:61:a3:93:7f:17:17:f7:99:91:bb:82:50:
                    d4:4f:53:07:93:f3:2e:4e:ee:b5:11:78:ff:9b:0a:
                    0d:21
                Exponent: 65537 (0x10001)
        X509v3 extensions:
            X509v3 Basic Constraints: critical
                CA:TRUE
            X509v3 Subject Alternative Name: 
                email:ch5.1_ta1
            X509v3 Issuer Alternative Name: critical
                email:ca
            X509v3 Subject Key Identifier: 
                49:22:80:C3:03:88:E1:DF:61:D4:CB:2F:7B:91:84:0D:3B:9D:7A:59
            X509v3 Authority Key Identifier: 
                D6:51:0D:B0:DE:78:F7:44:30:3C:C2:1D:A6:03:F7:67:39:80:57:29
    Signature Algorithm: sha256WithRSAEncryption
    Signature Value:
        58:b0:f6:b4:e8:a0:60:68:6e:1d:41:01:ea:71:e1:12:e9:e3:
        e0:4e:2d:ed:82:8f:06:e8:84:f7:7d:97:4c:67:22:47:e2:25:
        92:61:ae:64:8e:fd:b8:c6:5f:b2:45:0a:00:a3:79:f8:48:21:
        d9:9a:ed:c8:4f:25:75:10:6d:9f:bc:fd:04:37:c5:6f:83:30:
        8d:d1:7e:ed:67:53:9a:87:66:51:6f:3e:47:c9:e3:bc:24:21:
        5c:34:12:23:d8:00:b8:f5:3c:4b:2b:8d:f5:a2:8a:9e:9d:62:
        4c:7b:7d:57:70:05:2b:97:15:ce:b1:eb:fa:83:6e:1e:c7:f4:
        8b:c4:3d:ca:8a:3c:8b:3e:d3:5f:4a:0f:79:23:d2:e3:3a:04:
        8c:14:1d:8f:81:bb:e5:70:df:95:a1:1a:da:ff:b6:17:ea:e1:
        2a:87:6b:41:92:d9:8c:1e:3d:56:22:3b:fe:34:12:66:7e:9b:
        21:06:5f:34:d9:b6:79:e2:36:56:8c:d7:73:da:3a:c6:5d:e9:
        d6:c8:7a:75:76:f9:7a:ca:f4:0d:16:34:07:78:00:45:aa:e0:
        dc:de:17:e4:9a:80:39:0c:4e:29:ca:6a:68:27:87:a3:66:df:
        96:64:b6:a4:96:ea:44:aa:f0:3a:8d:58:61:78:5c:d5:d7:d0:
        d6:bd:f4:43
-----BEGIN CERTIFICATE-----
MIID3DCCAsSgAwIBAgIBCDANBgkqhkiG9w0BAQsFADBxMQswCQYDVQQGEwJVUzET
MBEGA1UECAwKQ2FsaWZvcm5pYTEUMBIGA1UEBwwLU2FudGEgQ2xhcmExDTALBgNV
BAoMBHBrZzUxEDAOBgNVBAMMB2NoNF90YTExFjAUBgkqhkiG9w0BCQEWB2NoNF90
YTEwHhcNMjExMDIyMTAxNTA2WhcNMjQwNzE4MTAxNTA2WjB1MQswCQYDVQQGEwJV
UzETMBEGA1UECAwKQ2FsaWZvcm5pYTEUMBIGA1UEBwwLU2FudGEgQ2xhcmExDTAL
BgNVBAoMBHBrZzUxEjAQBgNVBAMMCWNoNS4xX3RhMTEYMBYGCSqGSIb3DQEJARYJ
Y2g1LjFfdGExMIIBIjANBgkqhkiG9w0BAQEFAAOCAQ8AMIIBCgKCAQEAj+UdXHIi
J1Gz3utcmWrtJmo3/i+73Sot2d5PqxUBB/DVI2ipuPX9NYE5/8o738wUV1tUAXzq
nva9u0cBqY5kb6sETOIOhJJaFeQLYlU9lA7mm5DP60LMVD6cDGKa8MmkWC7eD4Sx
A5MRvSFHoxwHO3tff6VO1AtEdS9/Nekre6ZCyGVqgW2mUWqIIDY/OL5CFvlv2iQR
CRn5R9rv2/EVsoVlHtDOUYPUWe740LMUAn00Ux8vF/QlPFxhrCp7KLXtG+0fpPII
/M6A4gbK+dgbfoUGp7+IzavqI0RzUhDOVb0+c1Rho5N/Fxf3mZG7glDUT1MHk/Mu
Tu61EXj/mwoNIQIDAQABo3sweTAPBgNVHRMBAf8EBTADAQH/MBQGA1UdEQQNMAuB
CWNoNS4xX3RhMTAQBgNVHRIBAf8EBjAEgQJjYTAdBgNVHQ4EFgQUSSKAwwOI4d9h
1Msve5GEDTudelkwHwYDVR0jBBgwFoAU1lENsN5490QwPMIdpgP3ZzmAVykwDQYJ
KoZIhvcNAQELBQADggEBAFiw9rTooGBobh1BAepx4RLp4+BOLe2CjwbohPd9l0xn
IkfiJZJhrmSO/bjGX7JFCgCjefhIIdma7chPJXUQbZ+8/QQ3xW+DMI3Rfu1nU5qH
ZlFvPkfJ47wkIVw0EiPYALj1PEsrjfWiip6dYkx7fVdwBSuXFc6x6/qDbh7H9IvE
PcqKPIs+019KD3kj0uM6BIwUHY+Bu+Vw35WhGtr/thfq4SqHa0GS2YwePVYiO/40
EmZ+myEGXzTZtnniNlaM13PaOsZd6dbIenV2+XrK9A0WNAd4AEWq4NzeF+SagDkM
TinKamgnh6Nm35ZktqSW6kSq8DqNWGF4XNXX0Na99EM=
-----END CERTIFICATE-----
