Certificate:
    Data:
        Version: 3 (0x2)
        Serial Number: 13 (0xd)
    Signature Algorithm: sha256WithRSAEncryption
        Issuer: C=US, ST=California, L=Santa Clara, O=pkg5, CN=ch4.3_ta1/emailAddress=ch4.3_ta1
        Validity
            Not Before: Dec  6 03:06:42 2014 GMT
            Not After : Sep  1 03:06:42 2017 GMT
        Subject: C=US, ST=California, L=Santa Clara, O=pkg5, CN=ch5.3_ta1/emailAddress=ch5.3_ta1
        Subject Public Key Info:
            Public Key Algorithm: rsaEncryption
                Public-Key: (1024 bit)
                Modulus:
                    00:b6:8e:19:be:15:68:7d:32:6e:22:ce:bc:db:04:
                    0b:fd:0c:6e:dd:47:3a:23:f4:f0:52:c8:e2:23:15:
                    1a:12:7b:39:48:df:32:2c:0a:bc:2f:21:91:62:d5:
                    2d:87:0f:b5:3a:fe:26:7c:08:9c:81:63:d3:4e:d8:
                    db:bc:9b:29:3f:0a:af:02:a9:d9:02:36:46:66:b2:
                    65:5f:a3:12:c9:22:3e:cd:91:5a:2e:7e:91:ce:7a:
                    42:8c:b5:02:78:19:e3:ef:02:80:24:25:51:ed:39:
                    72:c7:7f:10:51:1b:b6:d7:1a:d2:d2:b1:ab:64:31:
                    cf:c6:42:31:aa:cd:49:b4:25
                Exponent: 65537 (0x10001)
        X509v3 extensions:
            X509v3 Subject Key Identifier: 
                80:77:AA:9E:3C:45:2C:1C:BA:70:17:6A:77:B8:BF:31:47:58:CB:85
            X509v3 Authority Key Identifier: 
                keyid:4F:9F:D9:83:FD:A2:D0:89:38:5F:31:7B:2D:38:3B:54:DC:65:63:81
                DirName:/C=US/ST=California/L=Santa Clara/O=pkg5/CN=ch3_ta1/emailAddress=ch3_ta1
                serial:0C

            X509v3 Basic Constraints: critical
                CA:TRUE, pathlen:0
            X509v3 Key Usage: critical
                Certificate Sign, CRL Sign
    Signature Algorithm: sha256WithRSAEncryption
         74:01:c8:16:b1:9a:ec:51:d5:c5:74:4a:b6:bd:a3:98:1f:24:
         16:34:15:ac:ef:55:61:05:8e:92:61:78:6f:b2:b8:d2:7d:c2:
         f5:44:dd:cb:b6:2e:02:20:85:40:c1:2e:47:45:93:40:81:94:
         b6:63:9b:77:ec:50:c2:01:e6:2e:d7:9e:8e:89:6c:bd:d8:8d:
         cf:9d:aa:20:9f:36:81:a1:1f:ea:1f:04:c5:27:8f:0e:ff:fc:
         e5:74:ef:44:b8:8a:8f:70:a3:80:f2:9b:fa:03:32:fc:ad:65:
         8f:89:80:62:48:7b:a8:c7:9a:d1:8b:74:70:2a:23:e2:eb:83:
         ee:87
-----BEGIN CERTIFICATE-----
MIIDRTCCAq6gAwIBAgIBDTANBgkqhkiG9w0BAQsFADB1MQswCQYDVQQGEwJVUzET
MBEGA1UECAwKQ2FsaWZvcm5pYTEUMBIGA1UEBwwLU2FudGEgQ2xhcmExDTALBgNV
BAoMBHBrZzUxEjAQBgNVBAMMCWNoNC4zX3RhMTEYMBYGCSqGSIb3DQEJARYJY2g0
LjNfdGExMB4XDTE0MTIwNjAzMDY0MloXDTE3MDkwMTAzMDY0MlowdTELMAkGA1UE
BhMCVVMxEzARBgNVBAgMCkNhbGlmb3JuaWExFDASBgNVBAcMC1NhbnRhIENsYXJh
MQ0wCwYDVQQKDARwa2c1MRIwEAYDVQQDDAljaDUuM190YTExGDAWBgkqhkiG9w0B
CQEWCWNoNS4zX3RhMTCBnzANBgkqhkiG9w0BAQEFAAOBjQAwgYkCgYEAto4ZvhVo
fTJuIs682wQL/Qxu3Uc6I/TwUsjiIxUaEns5SN8yLAq8LyGRYtUthw+1Ov4mfAic
gWPTTtjbvJspPwqvAqnZAjZGZrJlX6MSySI+zZFaLn6RznpCjLUCeBnj7wKAJCVR
7Tlyx38QURu21xrS0rGrZDHPxkIxqs1JtCUCAwEAAaOB5DCB4TAdBgNVHQ4EFgQU
gHeqnjxFLBy6cBdqd7i/MUdYy4UwgZsGA1UdIwSBkzCBkIAUT5/Zg/2i0Ik4XzF7
LTg7VNxlY4GhdaRzMHExCzAJBgNVBAYTAlVTMRMwEQYDVQQIDApDYWxpZm9ybmlh
MRQwEgYDVQQHDAtTYW50YSBDbGFyYTENMAsGA1UECgwEcGtnNTEQMA4GA1UEAwwH
Y2gzX3RhMTEWMBQGCSqGSIb3DQEJARYHY2gzX3RhMYIBDDASBgNVHRMBAf8ECDAG
AQH/AgEAMA4GA1UdDwEB/wQEAwIBBjANBgkqhkiG9w0BAQsFAAOBgQB0AcgWsZrs
UdXFdEq2vaOYHyQWNBWs71VhBY6SYXhvsrjSfcL1RN3Lti4CIIVAwS5HRZNAgZS2
Y5t37FDCAeYu156OiWy92I3PnaognzaBoR/qHwTFJ48O//zldO9EuIqPcKOA8pv6
AzL8rWWPiYBiSHuox5rRi3RwKiPi64Puhw==
-----END CERTIFICATE-----
