Certificate:
    Data:
        Version: 3 (0x2)
        Serial Number: 8 (0x8)
    Signature Algorithm: sha256WithRSAEncryption
        Issuer: C=US, ST=California, L=Santa Clara, O=pkg5, CN=ch4_ta1/emailAddress=ch4_ta1
        Validity
            Not Before: Dec  6 03:06:42 2014 GMT
            Not After : Sep  1 03:06:42 2017 GMT
        Subject: C=US, ST=California, L=Santa Clara, O=pkg5, CN=ch5.1_ta1/emailAddress=ch5.1_ta1
        Subject Public Key Info:
            Public Key Algorithm: rsaEncryption
                Public-Key: (1024 bit)
                Modulus:
                    00:c6:9e:3a:a5:d4:f0:d5:29:18:c8:45:37:d3:4a:
                    69:a8:09:c0:62:ce:a1:44:5f:74:6b:6a:f1:a2:d4:
                    aa:1f:5c:d3:fe:77:b8:db:0c:02:3c:15:8f:c9:c7:
                    fc:d9:9a:b8:60:89:8e:4f:a0:d7:18:6b:12:f3:f9:
                    bb:43:de:f8:79:14:03:5f:4c:dd:81:89:52:b1:23:
                    66:50:cd:17:07:a6:e9:d6:d0:1c:fb:0c:64:69:58:
                    99:ad:04:b8:72:0e:53:6d:f2:64:60:3c:a1:12:33:
                    77:0b:79:2a:7a:30:ab:6b:7f:8d:33:cd:42:26:fd:
                    3b:25:29:5e:df:da:30:ad:17
                Exponent: 65537 (0x10001)
        X509v3 extensions:
            X509v3 Basic Constraints: critical
                CA:TRUE
            X509v3 Issuer Alternative Name: critical
                <EMPTY>

    Signature Algorithm: sha256WithRSAEncryption
         b9:db:b3:9c:5e:2b:42:a2:95:0b:85:bc:e5:92:5d:92:fa:b5:
         3c:20:02:b9:a3:9f:16:0a:07:d9:5d:d6:0c:8a:5f:b7:ef:e4:
         78:df:f8:0a:75:77:fa:3a:67:78:3d:4b:05:c6:75:8f:e7:51:
         69:02:69:ca:c8:4c:e4:ac:41:04:d2:a5:7b:98:ae:03:b0:18:
         6b:ca:f6:2f:c8:05:53:ab:11:bf:41:a8:15:76:19:61:a6:32:
         12:26:90:c5:3a:9f:85:7c:49:53:0a:9e:6b:a7:e3:78:eb:f3:
         a4:f4:fd:07:59:da:90:e9:27:b4:f3:b9:aa:7e:0e:17:50:63:
         92:46
-----BEGIN CERTIFICATE-----
MIICfTCCAeagAwIBAgIBCDANBgkqhkiG9w0BAQsFADBxMQswCQYDVQQGEwJVUzET
MBEGA1UECAwKQ2FsaWZvcm5pYTEUMBIGA1UEBwwLU2FudGEgQ2xhcmExDTALBgNV
BAoMBHBrZzUxEDAOBgNVBAMMB2NoNF90YTExFjAUBgkqhkiG9w0BCQEWB2NoNF90
YTEwHhcNMTQxMjA2MDMwNjQyWhcNMTcwOTAxMDMwNjQyWjB1MQswCQYDVQQGEwJV
UzETMBEGA1UECAwKQ2FsaWZvcm5pYTEUMBIGA1UEBwwLU2FudGEgQ2xhcmExDTAL
BgNVBAoMBHBrZzUxEjAQBgNVBAMMCWNoNS4xX3RhMTEYMBYGCSqGSIb3DQEJARYJ
Y2g1LjFfdGExMIGfMA0GCSqGSIb3DQEBAQUAA4GNADCBiQKBgQDGnjql1PDVKRjI
RTfTSmmoCcBizqFEX3RravGi1KofXNP+d7jbDAI8FY/Jx/zZmrhgiY5PoNcYaxLz
+btD3vh5FANfTN2BiVKxI2ZQzRcHpunW0Bz7DGRpWJmtBLhyDlNt8mRgPKESM3cL
eSp6MKtrf40zzUIm/TslKV7f2jCtFwIDAQABoyEwHzAPBgNVHRMBAf8EBTADAQH/
MAwGA1UdEgEB/wQCMAAwDQYJKoZIhvcNAQELBQADgYEAuduznF4rQqKVC4W85ZJd
kvq1PCACuaOfFgoH2V3WDIpft+/keN/4CnV3+jpneD1LBcZ1j+dRaQJpyshM5KxB
BNKle5iuA7AYa8r2L8gFU6sRv0GoFXYZYaYyEiaQxTqfhXxJUwqea6fjeOvzpPT9
B1nakOkntPO5qn4OF1BjkkY=
-----END CERTIFICATE-----
