Certificate:
    Data:
        Version: 3 (0x2)
        Serial Number: 10 (0xa)
    Signature Algorithm: sha256WithRSAEncryption
        Issuer: C=US, ST=California, L=Santa Clara, O=pkg5, CN=ch4_ta1/emailAddress=ch4_ta1
        Validity
            Not Before: Nov 28 22:50:55 2016 GMT
            Not After : Aug 25 22:50:55 2019 GMT
        Subject: C=US, ST=California, L=Santa Clara, O=pkg5, CN=ch5.2_ta1/emailAddress=ch5.2_ta1
        Subject Public Key Info:
            Public Key Algorithm: rsaEncryption
                Public-Key: (2048 bit)
                Modulus:
                    00:c0:ed:45:49:e1:49:a1:34:e4:07:81:cb:05:03:
                    e9:c8:26:45:fd:25:65:e5:3d:f1:0b:36:7e:fe:33:
                    d2:1d:29:27:99:23:05:82:f1:c5:c2:9f:f2:ec:c2:
                    16:b3:3e:38:0e:11:37:e3:37:80:52:b5:a4:b1:eb:
                    8f:2e:73:d8:7a:93:42:d4:40:0e:42:a5:59:0d:a6:
                    a1:48:03:1c:05:3f:48:2e:2c:c3:28:ae:b1:85:a2:
                    be:7e:4f:a4:82:3a:e4:33:3c:59:d7:8d:6c:48:a1:
                    3c:6e:2e:8d:22:86:68:2c:a2:7e:7a:0c:d1:c5:de:
                    fa:71:47:8c:fa:bf:5e:fb:aa:13:4b:6f:a6:77:4c:
                    ba:a9:93:98:d0:08:de:16:05:c8:ca:0a:48:ed:40:
                    ae:d3:18:79:8a:86:9e:e0:1f:54:16:78:90:a7:df:
                    b5:70:1a:27:91:09:b0:ff:16:fb:89:99:7a:f0:50:
                    1d:f3:56:e5:5a:b6:ae:c9:70:1b:57:ea:f5:96:dd:
                    76:38:2b:65:50:09:df:a2:6f:f0:58:02:78:76:6c:
                    09:72:7b:6a:95:90:19:4a:d9:33:1f:5c:77:f9:90:
                    29:73:8f:ad:bc:2c:a8:e8:1d:56:f0:4b:bd:08:ab:
                    c3:25:c6:18:79:1f:79:4a:cf:8f:ec:77:ce:d7:c8:
                    0c:85
                Exponent: 65537 (0x10001)
        X509v3 extensions:
            X509v3 Subject Key Identifier: 
                68:A9:EA:9E:50:7E:C5:C8:4E:C1:26:5D:44:30:52:A7:5C:F6:96:BE
            X509v3 Authority Key Identifier: 
                keyid:A7:85:EE:86:00:F2:4F:F8:1A:E9:FD:A9:7B:33:4E:24:30:2A:44:DB
                DirName:/C=US/ST=California/L=Santa Clara/O=pkg5/CN=ch3_ta1/emailAddress=ch3_ta1
                serial:04

            X509v3 Basic Constraints: critical
                CA:TRUE, pathlen:1
            X509v3 Key Usage: critical
                Certificate Sign, CRL Sign
    Signature Algorithm: sha256WithRSAEncryption
         56:fc:aa:10:da:f6:29:cc:f3:79:70:11:5f:56:f3:2c:73:54:
         06:c4:55:e2:c0:d2:75:05:f6:25:e7:b2:a6:e4:c9:fb:8a:d5:
         b5:e9:8a:4d:b5:0a:07:51:dc:9f:b1:f8:87:83:85:4f:c3:96:
         7d:47:23:67:52:83:e1:e3:2c:1c:51:9f:f5:a3:01:89:60:07:
         13:89:e2:1b:fb:1e:6c:cf:f7:cf:22:8f:76:91:0b:63:7b:09:
         22:35:c8:7a:8f:36:22:ca:1d:e0:cb:a4:b0:be:17:c0:8b:58:
         83:34:40:89:45:c9:02:f4:64:4b:d7:93:b8:c3:53:36:a6:41:
         81:f3:ea:90:28:c7:b2:9f:d0:7e:36:82:71:c1:20:b9:05:c1:
         07:38:6e:af:26:96:c6:bd:6a:1c:2c:e2:f3:9d:02:57:12:52:
         7b:0a:33:69:3c:d8:95:c2:3c:21:de:a5:25:5e:91:43:92:0d:
         78:78:fa:2b:1d:3e:6c:6b:88:eb:63:7f:eb:54:ed:9f:b3:ce:
         3c:bc:60:05:04:b2:7e:76:5b:07:b3:30:cc:90:ba:bd:fe:1d:
         8c:c0:7c:5c:01:01:2e:6b:51:1c:57:84:65:84:ab:cc:50:c5:
         8f:28:0c:ed:be:7e:53:d5:95:7d:a2:ce:ee:1e:d5:30:41:97:
         2c:5e:c2:73
-----BEGIN CERTIFICATE-----
MIIERjCCAy6gAwIBAgIBCjANBgkqhkiG9w0BAQsFADBxMQswCQYDVQQGEwJVUzET
MBEGA1UECAwKQ2FsaWZvcm5pYTEUMBIGA1UEBwwLU2FudGEgQ2xhcmExDTALBgNV
BAoMBHBrZzUxEDAOBgNVBAMMB2NoNF90YTExFjAUBgkqhkiG9w0BCQEWB2NoNF90
YTEwHhcNMTYxMTI4MjI1MDU1WhcNMTkwODI1MjI1MDU1WjB1MQswCQYDVQQGEwJV
UzETMBEGA1UECAwKQ2FsaWZvcm5pYTEUMBIGA1UEBwwLU2FudGEgQ2xhcmExDTAL
BgNVBAoMBHBrZzUxEjAQBgNVBAMMCWNoNS4yX3RhMTEYMBYGCSqGSIb3DQEJARYJ
Y2g1LjJfdGExMIIBIjANBgkqhkiG9w0BAQEFAAOCAQ8AMIIBCgKCAQEAwO1FSeFJ
oTTkB4HLBQPpyCZF/SVl5T3xCzZ+/jPSHSknmSMFgvHFwp/y7MIWsz44DhE34zeA
UrWkseuPLnPYepNC1EAOQqVZDaahSAMcBT9ILizDKK6xhaK+fk+kgjrkMzxZ141s
SKE8bi6NIoZoLKJ+egzRxd76cUeM+r9e+6oTS2+md0y6qZOY0AjeFgXIygpI7UCu
0xh5ioae4B9UFniQp9+1cBonkQmw/xb7iZl68FAd81blWrauyXAbV+r1lt12OCtl
UAnfom/wWAJ4dmwJcntqlZAZStkzH1x3+ZApc4+tvCyo6B1W8Eu9CKvDJcYYeR95
Ss+P7HfO18gMhQIDAQABo4HkMIHhMB0GA1UdDgQWBBRoqeqeUH7FyE7BJl1EMFKn
XPaWvjCBmwYDVR0jBIGTMIGQgBSnhe6GAPJP+Brp/al7M04kMCpE26F1pHMwcTEL
MAkGA1UEBhMCVVMxEzARBgNVBAgMCkNhbGlmb3JuaWExFDASBgNVBAcMC1NhbnRh
IENsYXJhMQ0wCwYDVQQKDARwa2c1MRAwDgYDVQQDDAdjaDNfdGExMRYwFAYJKoZI
hvcNAQkBFgdjaDNfdGExggEEMBIGA1UdEwEB/wQIMAYBAf8CAQEwDgYDVR0PAQH/
BAQDAgEGMA0GCSqGSIb3DQEBCwUAA4IBAQBW/KoQ2vYpzPN5cBFfVvMsc1QGxFXi
wNJ1BfYl57Km5Mn7itW16YpNtQoHUdyfsfiHg4VPw5Z9RyNnUoPh4ywcUZ/1owGJ
YAcTieIb+x5sz/fPIo92kQtjewkiNch6jzYiyh3gy6SwvhfAi1iDNECJRckC9GRL
15O4w1M2pkGB8+qQKMeyn9B+NoJxwSC5BcEHOG6vJpbGvWocLOLznQJXElJ7CjNp
PNiVwjwh3qUlXpFDkg14ePorHT5sa4jrY3/rVO2fs848vGAFBLJ+dlsHszDMkLq9
/h2MwHxcAQEua1EcV4RlhKvMUMWPKAztvn5T1ZV9os7uHtUwQZcsXsJz
-----END CERTIFICATE-----
