Certificate:
    Data:
        Version: 3 (0x2)
        Serial Number: 13 (0xd)
        Signature Algorithm: sha256WithRSAEncryption
        Issuer: C=US, ST=California, L=Santa Clara, O=pkg5, CN=ch4.3_ta1/emailAddress=ch4.3_ta1
        Validity
            Not Before: Dec 15 15:37:19 2022 GMT
            Not After : Sep 10 15:37:19 2025 GMT
        Subject: C=US, ST=California, L=Santa Clara, O=pkg5, CN=ch5.3_ta1/emailAddress=ch5.3_ta1
        Subject Public Key Info:
            Public Key Algorithm: rsaEncryption
                Public-Key: (2048 bit)
                Modulus:
                    00:bf:6f:0f:c8:48:25:24:7a:5c:be:20:bb:08:9e:
                    40:bb:50:df:d1:08:f1:80:29:4f:92:7c:64:63:c0:
                    3e:c1:7c:a0:e5:d0:6e:66:49:06:69:79:49:f4:84:
                    cf:c8:1f:76:73:7c:cc:b6:89:51:d1:6d:77:bb:cc:
                    f6:e4:0c:ed:47:ce:d9:69:81:1e:70:6b:37:96:0e:
                    8a:de:63:9d:9e:6a:68:41:e0:c2:3e:b7:70:28:3a:
                    b8:24:d5:71:d8:b4:03:1b:36:7d:f7:f4:4c:69:4f:
                    6d:2f:69:88:21:6c:fa:2f:e4:6c:e7:2a:05:91:fd:
                    2d:64:5c:82:db:e4:9f:52:ec:db:a9:30:91:cd:3d:
                    9c:89:88:f8:b5:05:81:d2:c9:f1:56:b6:20:e2:af:
                    fe:6a:aa:60:d6:ba:de:fa:d8:ec:cc:b7:9b:fe:d6:
                    84:fb:02:db:e0:f8:a1:74:65:6f:2e:6e:da:fc:86:
                    86:38:07:ac:c3:8b:79:20:bf:dd:5e:40:5f:3d:a1:
                    22:3b:20:07:9e:13:e2:c8:7e:a6:b1:00:e1:77:cf:
                    dd:23:8d:c7:67:77:00:ef:77:8f:a3:19:fb:24:8c:
                    97:bd:d2:ec:cd:eb:a0:6e:f2:48:97:64:28:0b:fd:
                    fa:45:65:19:de:b6:c0:48:0a:19:57:aa:5d:b0:e8:
                    ba:d1
                Exponent: 65537 (0x10001)
        X509v3 extensions:
            X509v3 Subject Key Identifier: 
                80:7F:8E:11:E5:73:9E:B2:0D:9F:B8:71:76:68:DE:CB:EB:72:40:5F
            X509v3 Authority Key Identifier: 
                keyid:49:65:6B:9B:D0:AA:DE:B6:58:E9:8D:59:D4:EF:B4:B8:89:5B:E1:E5
                DirName:/C=US/ST=California/L=Santa Clara/O=pkg5/CN=ch3_ta1/emailAddress=ch3_ta1
                serial:0C
            X509v3 Basic Constraints: critical
                CA:TRUE, pathlen:0
            X509v3 Key Usage: critical
                Certificate Sign, CRL Sign
    Signature Algorithm: sha256WithRSAEncryption
    Signature Value:
        b3:bf:78:85:13:33:df:e7:14:44:bd:46:b3:0c:db:ba:70:1f:
        91:62:9b:4e:af:26:cd:98:5f:33:dc:fd:f0:f4:08:f7:91:8e:
        7c:97:84:27:2d:e3:1c:09:9d:c3:81:24:4e:92:03:f6:be:a3:
        0f:17:68:3f:b9:41:cf:b4:3b:c1:f1:17:a9:7a:fd:5e:68:76:
        13:c1:bb:8d:ed:08:2b:cc:8a:a8:4c:96:52:28:c6:a8:ba:dd:
        be:f8:b0:f1:79:ee:f2:21:25:52:73:39:df:cb:fd:ac:ee:c8:
        9a:58:7c:cb:14:2e:0e:4c:68:fe:26:83:e0:70:b5:13:cb:bd:
        b4:6d:43:c8:63:ed:16:8a:4c:6d:29:ec:6d:1c:45:e4:31:05:
        f5:e4:fe:0e:c6:4d:ad:09:93:5f:2b:e8:17:92:38:2e:40:17:
        7f:6e:b9:54:08:c6:1f:5b:3f:be:51:58:5f:44:76:46:20:e2:
        50:b0:5a:82:d3:54:90:28:16:04:86:10:72:82:c2:c4:8a:3a:
        41:7e:12:8a:51:e8:08:d9:0d:1c:87:3e:46:df:17:7d:ad:4e:
        34:9e:36:33:92:b6:29:f3:38:dc:1d:70:47:1f:20:fb:4d:80:
        19:03:b8:c6:b7:c2:bb:0b:35:25:a5:94:aa:08:a4:41:33:43:
        07:0d:19:7b
-----BEGIN CERTIFICATE-----
MIIESjCCAzKgAwIBAgIBDTANBgkqhkiG9w0BAQsFADB1MQswCQYDVQQGEwJVUzET
MBEGA1UECAwKQ2FsaWZvcm5pYTEUMBIGA1UEBwwLU2FudGEgQ2xhcmExDTALBgNV
BAoMBHBrZzUxEjAQBgNVBAMMCWNoNC4zX3RhMTEYMBYGCSqGSIb3DQEJARYJY2g0
LjNfdGExMB4XDTIyMTIxNTE1MzcxOVoXDTI1MDkxMDE1MzcxOVowdTELMAkGA1UE
BhMCVVMxEzARBgNVBAgMCkNhbGlmb3JuaWExFDASBgNVBAcMC1NhbnRhIENsYXJh
MQ0wCwYDVQQKDARwa2c1MRIwEAYDVQQDDAljaDUuM190YTExGDAWBgkqhkiG9w0B
CQEWCWNoNS4zX3RhMTCCASIwDQYJKoZIhvcNAQEBBQADggEPADCCAQoCggEBAL9v
D8hIJSR6XL4guwieQLtQ39EI8YApT5J8ZGPAPsF8oOXQbmZJBml5SfSEz8gfdnN8
zLaJUdFtd7vM9uQM7UfO2WmBHnBrN5YOit5jnZ5qaEHgwj63cCg6uCTVcdi0Axs2
fff0TGlPbS9piCFs+i/kbOcqBZH9LWRcgtvkn1Ls26kwkc09nImI+LUFgdLJ8Va2
IOKv/mqqYNa63vrY7My3m/7WhPsC2+D4oXRlby5u2vyGhjgHrMOLeSC/3V5AXz2h
IjsgB54T4sh+prEA4XfP3SONx2d3AO93j6MZ+ySMl73S7M3roG7ySJdkKAv9+kVl
Gd62wEgKGVeqXbDoutECAwEAAaOB5DCB4TAdBgNVHQ4EFgQUgH+OEeVznrINn7hx
dmjey+tyQF8wgZsGA1UdIwSBkzCBkIAUSWVrm9Cq3rZY6Y1Z1O+0uIlb4eWhdaRz
MHExCzAJBgNVBAYTAlVTMRMwEQYDVQQIDApDYWxpZm9ybmlhMRQwEgYDVQQHDAtT
YW50YSBDbGFyYTENMAsGA1UECgwEcGtnNTEQMA4GA1UEAwwHY2gzX3RhMTEWMBQG
CSqGSIb3DQEJARYHY2gzX3RhMYIBDDASBgNVHRMBAf8ECDAGAQH/AgEAMA4GA1Ud
DwEB/wQEAwIBBjANBgkqhkiG9w0BAQsFAAOCAQEAs794hRMz3+cURL1GswzbunAf
kWKbTq8mzZhfM9z98PQI95GOfJeEJy3jHAmdw4EkTpID9r6jDxdoP7lBz7Q7wfEX
qXr9Xmh2E8G7je0IK8yKqEyWUijGqLrdvviw8Xnu8iElUnM538v9rO7Imlh8yxQu
Dkxo/iaD4HC1E8u9tG1DyGPtFopMbSnsbRxF5DEF9eT+DsZNrQmTXyvoF5I4LkAX
f265VAjGH1s/vlFYX0R2RiDiULBagtNUkCgWBIYQcoLCxIo6QX4SilHoCNkNHIc+
Rt8Xfa1ONJ42M5K2KfM43B1wRx8g+02AGQO4xrfCuws1JaWUqgikQTNDBw0Zew==
-----END CERTIFICATE-----
