Certificate:
    Data:
        Version: 3 (0x2)
        Serial Number: 13 (0xd)
        Signature Algorithm: sha256WithRSAEncryption
        Issuer: C=US, ST=California, L=Santa Clara, O=pkg5, CN=ch4.3_ta1/emailAddress=ch4.3_ta1
        Validity
            Not Before: Nov 14 14:26:53 2024 GMT
            Not After : Aug 11 14:26:53 2027 GMT
        Subject: C=US, ST=California, L=Santa Clara, O=pkg5, CN=ch5.3_ta1/emailAddress=ch5.3_ta1
        Subject Public Key Info:
            Public Key Algorithm: rsaEncryption
                Public-Key: (2048 bit)
                Modulus:
                    00:9e:03:d6:ed:99:c3:50:60:fe:04:c1:47:c8:7a:
                    d5:45:32:72:09:06:a4:14:0e:2c:e5:94:0c:fc:13:
                    9c:f6:3e:b2:39:37:ee:dc:bf:37:e8:03:0b:8c:c2:
                    4f:c4:87:28:c8:92:d4:5c:92:a0:dc:b3:4a:40:e9:
                    98:84:ba:8c:d5:60:53:8a:bd:81:2b:44:aa:87:e9:
                    ef:83:78:5d:35:ee:b5:d0:ae:e3:70:9c:bf:64:a6:
                    fb:1e:93:07:d5:fe:af:68:c3:62:ee:8e:a2:ae:13:
                    cb:d4:93:4a:7c:ad:c8:f0:2a:63:1c:ed:a5:a7:03:
                    ac:62:18:fc:17:cc:f2:d6:ae:e7:ab:f5:68:a9:51:
                    5a:05:b0:be:c4:b3:c6:04:72:40:be:82:d5:54:9e:
                    07:12:bf:b4:5b:3e:c3:cb:bf:b2:d7:77:f0:2f:71:
                    63:ac:1d:af:d9:63:67:17:41:b8:5c:07:50:0a:3c:
                    eb:30:c6:5a:1a:9a:4e:ba:8e:fd:7a:d8:ae:2b:dd:
                    31:b3:cf:a0:4d:34:e7:de:69:c1:a4:dc:0f:c4:43:
                    a8:e0:9a:65:91:36:1e:38:52:9e:71:05:1a:db:e5:
                    7d:27:b5:e7:eb:57:4b:25:ec:ff:08:9d:cb:b2:1d:
                    b9:87:9f:36:f0:4e:f5:63:46:08:14:79:01:93:ec:
                    b4:25
                Exponent: 65537 (0x10001)
        X509v3 extensions:
            X509v3 Subject Key Identifier: 
                70:82:0E:78:8C:1B:41:C5:51:57:F3:C3:A6:BF:46:18:D3:E6:3E:10
            X509v3 Authority Key Identifier: 
                keyid:4C:44:2B:C7:72:A7:20:E5:EF:60:54:51:4C:A2:AB:B5:69:B3:55:FA
                DirName:/C=US/ST=California/L=Santa Clara/O=pkg5/CN=ch3_ta1/emailAddress=ch3_ta1
                serial:0C
            X509v3 Basic Constraints: critical
                CA:TRUE, pathlen:0
            X509v3 Key Usage: critical
                Certificate Sign, CRL Sign
    Signature Algorithm: sha256WithRSAEncryption
    Signature Value:
        09:7c:ea:22:00:95:12:c6:2c:54:44:a4:e2:8d:97:47:81:db:
        9c:4c:57:37:b2:0c:0d:83:17:3d:2e:d2:aa:a5:bb:97:0a:d5:
        f7:52:e3:e1:2b:54:b4:51:2c:dc:e2:7c:2a:8f:89:da:a7:1d:
        25:fd:50:d4:d1:48:d8:86:dd:f3:15:f0:0e:c6:a0:d0:9d:2d:
        99:47:9d:bb:d6:f3:fe:48:f1:fd:0a:e8:af:fb:8f:e9:37:bf:
        0d:38:fb:40:e3:f5:86:00:8b:b9:47:75:b0:6e:6b:8f:b6:08:
        51:e7:79:67:b2:eb:f8:dd:11:cd:06:65:67:0a:92:2b:43:ac:
        a8:90:8f:6f:3c:5d:8c:d2:9a:0a:1e:4c:f0:bb:37:b8:11:54:
        10:37:c6:27:cb:34:2f:14:86:4c:57:59:70:1a:e3:0d:6c:5e:
        56:ed:1f:ca:1e:c7:30:16:07:09:ea:e6:2c:3c:28:be:79:7c:
        0d:c8:c6:ec:44:4a:9f:c6:43:9b:6a:61:c7:e3:d2:2c:a8:6e:
        4a:fe:ed:f3:79:ae:4e:0f:40:91:7d:1a:2e:a8:f2:e9:f5:cb:
        f0:19:54:f8:98:57:42:bc:f6:db:a9:02:b3:9c:2f:91:89:81:
        ac:ba:f9:93:6e:81:fc:63:a9:0f:2a:45:0e:ac:d3:fe:de:57:
        72:82:26:57
-----BEGIN CERTIFICATE-----
MIIESjCCAzKgAwIBAgIBDTANBgkqhkiG9w0BAQsFADB1MQswCQYDVQQGEwJVUzET
MBEGA1UECAwKQ2FsaWZvcm5pYTEUMBIGA1UEBwwLU2FudGEgQ2xhcmExDTALBgNV
BAoMBHBrZzUxEjAQBgNVBAMMCWNoNC4zX3RhMTEYMBYGCSqGSIb3DQEJARYJY2g0
LjNfdGExMB4XDTI0MTExNDE0MjY1M1oXDTI3MDgxMTE0MjY1M1owdTELMAkGA1UE
BhMCVVMxEzARBgNVBAgMCkNhbGlmb3JuaWExFDASBgNVBAcMC1NhbnRhIENsYXJh
MQ0wCwYDVQQKDARwa2c1MRIwEAYDVQQDDAljaDUuM190YTExGDAWBgkqhkiG9w0B
CQEWCWNoNS4zX3RhMTCCASIwDQYJKoZIhvcNAQEBBQADggEPADCCAQoCggEBAJ4D
1u2Zw1Bg/gTBR8h61UUycgkGpBQOLOWUDPwTnPY+sjk37ty/N+gDC4zCT8SHKMiS
1FySoNyzSkDpmIS6jNVgU4q9gStEqofp74N4XTXutdCu43Ccv2Sm+x6TB9X+r2jD
Yu6Ooq4Ty9STSnytyPAqYxztpacDrGIY/BfM8tau56v1aKlRWgWwvsSzxgRyQL6C
1VSeBxK/tFs+w8u/std38C9xY6wdr9ljZxdBuFwHUAo86zDGWhqaTrqO/XrYrivd
MbPPoE00595pwaTcD8RDqOCaZZE2HjhSnnEFGtvlfSe15+tXSyXs/widy7IduYef
NvBO9WNGCBR5AZPstCUCAwEAAaOB5DCB4TAdBgNVHQ4EFgQUcIIOeIwbQcVRV/PD
pr9GGNPmPhAwgZsGA1UdIwSBkzCBkIAUTEQrx3KnIOXvYFRRTKKrtWmzVfqhdaRz
MHExCzAJBgNVBAYTAlVTMRMwEQYDVQQIDApDYWxpZm9ybmlhMRQwEgYDVQQHDAtT
YW50YSBDbGFyYTENMAsGA1UECgwEcGtnNTEQMA4GA1UEAwwHY2gzX3RhMTEWMBQG
CSqGSIb3DQEJARYHY2gzX3RhMYIBDDASBgNVHRMBAf8ECDAGAQH/AgEAMA4GA1Ud
DwEB/wQEAwIBBjANBgkqhkiG9w0BAQsFAAOCAQEACXzqIgCVEsYsVESk4o2XR4Hb
nExXN7IMDYMXPS7SqqW7lwrV91Lj4StUtFEs3OJ8Ko+J2qcdJf1Q1NFI2Ibd8xXw
Dsag0J0tmUedu9bz/kjx/Qror/uP6Te/DTj7QOP1hgCLuUd1sG5rj7YIUed5Z7Lr
+N0RzQZlZwqSK0OsqJCPbzxdjNKaCh5M8Ls3uBFUEDfGJ8s0LxSGTFdZcBrjDWxe
Vu0fyh7HMBYHCermLDwovnl8DcjG7ERKn8ZDm2phx+PSLKhuSv7t83muTg9AkX0a
Lqjy6fXL8BlU+JhXQrz226kCs5wvkYmBrLr5k26B/GOpDypFDqzT/t5XcoImVw==
-----END CERTIFICATE-----
