Certificate:
    Data:
        Version: 3 (0x2)
        Serial Number: 13 (0xd)
    Signature Algorithm: sha256WithRSAEncryption
        Issuer: C=US, ST=California, L=Santa Clara, O=pkg5, CN=ch4.3_ta1/emailAddress=ch4.3_ta1
        Validity
            Not Before: Nov 28 22:50:55 2016 GMT
            Not After : Aug 25 22:50:55 2019 GMT
        Subject: C=US, ST=California, L=Santa Clara, O=pkg5, CN=ch5.3_ta1/emailAddress=ch5.3_ta1
        Subject Public Key Info:
            Public Key Algorithm: rsaEncryption
                Public-Key: (2048 bit)
                Modulus:
                    00:cd:ef:eb:e7:b9:43:a5:76:f7:8d:a2:1b:6a:2b:
                    2b:1a:65:18:c4:01:ae:27:76:73:82:6e:35:c1:09:
                    f3:c3:53:e3:e0:1d:bb:ab:10:c1:fd:15:89:b2:24:
                    27:12:7d:36:38:8d:30:b2:2e:2f:5f:56:1d:ce:44:
                    ed:da:82:8c:55:e6:8e:ac:92:ce:90:71:74:db:32:
                    62:2d:eb:ac:3e:92:ba:5c:88:82:52:97:49:fd:96:
                    2d:d2:44:e8:df:98:34:01:03:58:3b:63:d0:1b:d4:
                    fb:d2:e2:cd:81:d3:ab:99:5a:80:37:99:c5:09:3d:
                    7f:05:f4:fe:68:61:c3:ea:14:c3:72:3e:8a:59:40:
                    50:49:bc:b2:f4:3f:50:f6:b4:69:bb:c4:74:7c:02:
                    4b:3e:02:25:f0:fd:44:7b:52:3a:4c:dc:91:b1:da:
                    93:19:30:ae:4e:4c:ab:1b:3a:66:39:14:f2:c3:91:
                    f6:be:2a:f6:c9:7d:50:5a:69:37:86:e5:00:c6:a0:
                    da:a7:93:2b:5a:92:70:61:fc:01:ed:0b:5a:64:04:
                    92:f0:9a:cf:34:09:06:3e:b5:29:f9:88:69:1d:5f:
                    70:fe:fb:56:a5:71:d0:01:1a:31:75:55:a5:83:f7:
                    b2:bf:47:61:16:4f:9a:aa:21:89:98:f4:fb:af:08:
                    39:19
                Exponent: 65537 (0x10001)
        X509v3 extensions:
            X509v3 Subject Key Identifier: 
                9A:AE:C5:AB:C5:7D:80:B6:A5:DE:BA:12:84:98:B3:74:01:FA:5E:E5
            X509v3 Authority Key Identifier: 
                keyid:B9:04:EC:6E:4C:B6:F0:CE:0B:91:1D:49:E7:E8:CD:01:46:31:38:3D
                DirName:/C=US/ST=California/L=Santa Clara/O=pkg5/CN=ch3_ta1/emailAddress=ch3_ta1
                serial:0C

            X509v3 Basic Constraints: critical
                CA:TRUE, pathlen:0
            X509v3 Key Usage: critical
                Certificate Sign, CRL Sign
    Signature Algorithm: sha256WithRSAEncryption
         d4:26:8a:d5:6a:49:ba:13:e5:ce:31:ca:93:d0:5b:a7:23:9f:
         c6:da:06:91:59:39:d7:f5:57:7e:3b:8c:09:c7:86:ca:ff:15:
         b5:3a:64:a1:bc:78:49:fd:0a:13:b5:7d:17:b7:3c:0e:51:06:
         fd:b5:4c:cc:89:b1:3c:0e:aa:ac:e7:6a:b0:91:a3:d2:1c:10:
         c1:99:58:b0:60:54:43:0b:2c:1d:93:13:b2:53:af:ce:55:9b:
         70:71:35:f4:37:06:67:d4:ba:65:6e:02:eb:cf:9b:9e:e4:4f:
         78:1d:4a:3c:94:4d:be:e1:2f:41:36:41:04:ce:86:93:c2:c7:
         8b:cf:ab:2b:68:10:1a:33:a6:a0:47:93:d7:6b:ef:f6:f0:78:
         29:6f:b9:70:17:7a:f3:75:a8:c8:a1:50:55:f4:bc:2e:3a:ca:
         cd:46:52:24:68:b0:48:87:bd:00:24:10:69:b4:f2:5e:3d:4d:
         fd:3a:41:26:e6:23:cf:74:bb:60:56:58:c5:e0:8a:d1:b9:3d:
         06:75:e8:79:25:c7:ae:6a:f6:85:b1:20:c4:49:0c:9e:7a:a1:
         f7:04:59:ba:42:4c:a3:ce:16:96:5f:99:38:a7:cc:2c:c8:d8:
         ff:4d:98:7e:b4:ba:4b:bf:3e:db:c8:eb:cb:a9:e4:f9:8a:4c:
         db:db:03:ae
-----BEGIN CERTIFICATE-----
MIIESjCCAzKgAwIBAgIBDTANBgkqhkiG9w0BAQsFADB1MQswCQYDVQQGEwJVUzET
MBEGA1UECAwKQ2FsaWZvcm5pYTEUMBIGA1UEBwwLU2FudGEgQ2xhcmExDTALBgNV
BAoMBHBrZzUxEjAQBgNVBAMMCWNoNC4zX3RhMTEYMBYGCSqGSIb3DQEJARYJY2g0
LjNfdGExMB4XDTE2MTEyODIyNTA1NVoXDTE5MDgyNTIyNTA1NVowdTELMAkGA1UE
BhMCVVMxEzARBgNVBAgMCkNhbGlmb3JuaWExFDASBgNVBAcMC1NhbnRhIENsYXJh
MQ0wCwYDVQQKDARwa2c1MRIwEAYDVQQDDAljaDUuM190YTExGDAWBgkqhkiG9w0B
CQEWCWNoNS4zX3RhMTCCASIwDQYJKoZIhvcNAQEBBQADggEPADCCAQoCggEBAM3v
6+e5Q6V2942iG2orKxplGMQBrid2c4JuNcEJ88NT4+Adu6sQwf0VibIkJxJ9NjiN
MLIuL19WHc5E7dqCjFXmjqySzpBxdNsyYi3rrD6SulyIglKXSf2WLdJE6N+YNAED
WDtj0BvU+9LizYHTq5lagDeZxQk9fwX0/mhhw+oUw3I+illAUEm8svQ/UPa0abvE
dHwCSz4CJfD9RHtSOkzckbHakxkwrk5Mqxs6ZjkU8sOR9r4q9sl9UFppN4blAMag
2qeTK1qScGH8Ae0LWmQEkvCazzQJBj61KfmIaR1fcP77VqVx0AEaMXVVpYP3sr9H
YRZPmqohiZj0+68IORkCAwEAAaOB5DCB4TAdBgNVHQ4EFgQUmq7Fq8V9gLal3roS
hJizdAH6XuUwgZsGA1UdIwSBkzCBkIAUuQTsbky28M4LkR1J5+jNAUYxOD2hdaRz
MHExCzAJBgNVBAYTAlVTMRMwEQYDVQQIDApDYWxpZm9ybmlhMRQwEgYDVQQHDAtT
YW50YSBDbGFyYTENMAsGA1UECgwEcGtnNTEQMA4GA1UEAwwHY2gzX3RhMTEWMBQG
CSqGSIb3DQEJARYHY2gzX3RhMYIBDDASBgNVHRMBAf8ECDAGAQH/AgEAMA4GA1Ud
DwEB/wQEAwIBBjANBgkqhkiG9w0BAQsFAAOCAQEA1CaK1WpJuhPlzjHKk9BbpyOf
xtoGkVk51/VXfjuMCceGyv8VtTpkobx4Sf0KE7V9F7c8DlEG/bVMzImxPA6qrOdq
sJGj0hwQwZlYsGBUQwssHZMTslOvzlWbcHE19DcGZ9S6ZW4C68+bnuRPeB1KPJRN
vuEvQTZBBM6Gk8LHi8+rK2gQGjOmoEeT12vv9vB4KW+5cBd683WoyKFQVfS8LjrK
zUZSJGiwSIe9ACQQabTyXj1N/TpBJuYjz3S7YFZYxeCK0bk9BnXoeSXHrmr2hbEg
xEkMnnqh9wRZukJMo84Wll+ZOKfMLMjY/02YfrS6S78+28jry6nk+YpM29sDrg==
-----END CERTIFICATE-----
