Certificate:
    Data:
        Version: 3 (0x2)
        Serial Number: 10 (0xa)
        Signature Algorithm: sha256WithRSAEncryption
        Issuer: C=US, ST=California, L=Santa Clara, O=pkg5, CN=ch4_ta1/emailAddress=ch4_ta1
        Validity
            Not Before: Oct 24 21:43:02 2023 GMT
            Not After : Jul 20 21:43:02 2026 GMT
        Subject: C=US, ST=California, L=Santa Clara, O=pkg5, CN=ch5.2_ta1/emailAddress=ch5.2_ta1
        Subject Public Key Info:
            Public Key Algorithm: rsaEncryption
                Public-Key: (2048 bit)
                Modulus:
                    00:c6:77:73:2f:9c:49:0c:2b:41:09:bd:23:c7:a3:
                    51:b1:bd:b8:63:8f:a1:9a:1d:6f:fe:56:f1:2a:f9:
                    6f:2b:59:38:e5:4b:48:76:49:a9:f4:d7:e6:47:2d:
                    8c:59:93:6c:8c:aa:fd:e0:e5:69:ff:fd:cb:0b:07:
                    74:54:99:e2:01:8d:36:36:ff:13:48:b3:28:3d:c9:
                    22:68:f5:af:72:6e:ea:56:01:98:c2:30:eb:3c:97:
                    55:bf:4d:c7:63:da:16:c8:33:f2:b2:bd:58:78:21:
                    e1:b8:6d:1f:1c:a2:c0:c6:8c:21:8c:64:4f:74:32:
                    8f:05:fd:a7:43:0c:0a:59:f4:4a:2f:cc:56:e2:63:
                    3b:4c:79:e8:9d:3e:8a:d9:0d:4d:55:f6:a1:fa:b0:
                    eb:4e:2f:a8:4a:1f:2f:82:dd:90:32:fa:76:6b:e9:
                    54:76:ed:2a:f1:b5:6c:a7:95:06:55:3e:e8:fb:1c:
                    c3:26:61:a1:19:95:f2:2a:3c:d1:5b:eb:a0:ee:6b:
                    0d:45:af:7b:8e:00:e2:c2:e1:11:7d:f6:de:38:47:
                    1d:c6:8c:c9:3b:b8:77:19:c4:41:41:9b:f4:f4:78:
                    5c:aa:49:7e:57:26:6b:44:9b:5c:6c:a7:65:fd:e6:
                    71:bc:3d:63:ac:4e:44:d7:4b:fe:bc:77:63:bf:92:
                    73:9d
                Exponent: 65537 (0x10001)
        X509v3 extensions:
            X509v3 Subject Key Identifier: 
                DD:45:2E:28:EB:E3:26:2C:3E:1F:2B:61:E8:5E:0D:15:11:1D:23:05
            X509v3 Authority Key Identifier: 
                keyid:F0:C5:5C:7D:97:FB:05:C7:4A:9D:A4:6A:53:4D:B4:1F:3D:6D:AB:0F
                DirName:/C=US/ST=California/L=Santa Clara/O=pkg5/CN=ch3_ta1/emailAddress=ch3_ta1
                serial:04
            X509v3 Basic Constraints: critical
                CA:TRUE, pathlen:1
            X509v3 Key Usage: critical
                Certificate Sign, CRL Sign
    Signature Algorithm: sha256WithRSAEncryption
    Signature Value:
        4f:cf:c0:04:56:2d:25:12:44:40:c1:51:5a:fc:e8:f0:9f:65:
        ce:f5:a4:4c:6d:34:2d:02:85:2d:41:1b:8d:19:3f:96:fd:6b:
        b4:59:e7:d1:fa:f0:e6:f2:46:be:f9:c3:d0:e8:55:e8:6b:ef:
        75:0d:f8:5c:d4:17:09:7d:df:4a:66:b8:8b:25:a7:94:de:fa:
        c9:27:58:f2:bf:f7:f3:96:c5:e4:d0:f2:99:af:d0:ec:84:eb:
        22:6a:95:3d:98:26:49:4e:a3:88:96:2e:79:2c:fe:c8:9b:bc:
        e7:8f:9e:71:90:00:17:5b:ef:1a:3a:40:6f:90:e7:82:64:0c:
        0e:82:4c:46:48:f8:ec:24:d6:79:ff:5d:65:6c:86:85:15:23:
        db:55:c0:57:1b:b2:d4:9c:9d:a6:1f:e0:5a:ad:f7:2f:0c:fd:
        e3:75:ee:7d:00:12:79:fd:fa:70:99:a4:59:e1:8f:1c:c0:2b:
        d4:77:90:19:1e:ff:7b:39:cf:f9:b7:b5:f9:cc:e6:21:8b:7a:
        fa:7c:c7:f4:be:44:61:20:02:35:17:21:67:9e:ea:ed:ba:42:
        93:c6:6d:1f:79:50:4b:c8:bf:64:23:c0:66:93:bf:ad:4f:f4:
        48:29:86:0e:f2:fc:d3:6d:db:63:22:4e:33:84:67:3e:1c:d5:
        8d:8a:c1:df
-----BEGIN CERTIFICATE-----
MIIERjCCAy6gAwIBAgIBCjANBgkqhkiG9w0BAQsFADBxMQswCQYDVQQGEwJVUzET
MBEGA1UECAwKQ2FsaWZvcm5pYTEUMBIGA1UEBwwLU2FudGEgQ2xhcmExDTALBgNV
BAoMBHBrZzUxEDAOBgNVBAMMB2NoNF90YTExFjAUBgkqhkiG9w0BCQEWB2NoNF90
YTEwHhcNMjMxMDI0MjE0MzAyWhcNMjYwNzIwMjE0MzAyWjB1MQswCQYDVQQGEwJV
UzETMBEGA1UECAwKQ2FsaWZvcm5pYTEUMBIGA1UEBwwLU2FudGEgQ2xhcmExDTAL
BgNVBAoMBHBrZzUxEjAQBgNVBAMMCWNoNS4yX3RhMTEYMBYGCSqGSIb3DQEJARYJ
Y2g1LjJfdGExMIIBIjANBgkqhkiG9w0BAQEFAAOCAQ8AMIIBCgKCAQEAxndzL5xJ
DCtBCb0jx6NRsb24Y4+hmh1v/lbxKvlvK1k45UtIdkmp9NfmRy2MWZNsjKr94OVp
//3LCwd0VJniAY02Nv8TSLMoPckiaPWvcm7qVgGYwjDrPJdVv03HY9oWyDPysr1Y
eCHhuG0fHKLAxowhjGRPdDKPBf2nQwwKWfRKL8xW4mM7THnonT6K2Q1NVfah+rDr
Ti+oSh8vgt2QMvp2a+lUdu0q8bVsp5UGVT7o+xzDJmGhGZXyKjzRW+ug7msNRa97
jgDiwuERffbeOEcdxozJO7h3GcRBQZv09Hhcqkl+VyZrRJtcbKdl/eZxvD1jrE5E
10v+vHdjv5JznQIDAQABo4HkMIHhMB0GA1UdDgQWBBTdRS4o6+MmLD4fK2HoXg0V
ER0jBTCBmwYDVR0jBIGTMIGQgBTwxVx9l/sFx0qdpGpTTbQfPW2rD6F1pHMwcTEL
MAkGA1UEBhMCVVMxEzARBgNVBAgMCkNhbGlmb3JuaWExFDASBgNVBAcMC1NhbnRh
IENsYXJhMQ0wCwYDVQQKDARwa2c1MRAwDgYDVQQDDAdjaDNfdGExMRYwFAYJKoZI
hvcNAQkBFgdjaDNfdGExggEEMBIGA1UdEwEB/wQIMAYBAf8CAQEwDgYDVR0PAQH/
BAQDAgEGMA0GCSqGSIb3DQEBCwUAA4IBAQBPz8AEVi0lEkRAwVFa/Ojwn2XO9aRM
bTQtAoUtQRuNGT+W/Wu0WefR+vDm8ka++cPQ6FXoa+91Dfhc1BcJfd9KZriLJaeU
3vrJJ1jyv/fzlsXk0PKZr9DshOsiapU9mCZJTqOIli55LP7Im7znj55xkAAXW+8a
OkBvkOeCZAwOgkxGSPjsJNZ5/11lbIaFFSPbVcBXG7LUnJ2mH+BarfcvDP3jde59
ABJ5/fpwmaRZ4Y8cwCvUd5AZHv97Oc/5t7X5zOYhi3r6fMf0vkRhIAI1FyFnnurt
ukKTxm0feVBLyL9kI8Bmk7+tT/RIKYYO8vzTbdtjIk4zhGc+HNWNisHf
-----END CERTIFICATE-----
