Certificate:
    Data:
        Version: 3 (0x2)
        Serial Number: 10 (0xa)
        Signature Algorithm: sha256WithRSAEncryption
        Issuer: C=US, ST=California, L=Santa Clara, O=pkg5, CN=ch4_ta1/emailAddress=ch4_ta1
        Validity
            Not Before: Nov 17 23:01:28 2020 GMT
            Not After : Aug 14 23:01:28 2023 GMT
        Subject: C=US, ST=California, L=Santa Clara, O=pkg5, CN=ch5.2_ta1/emailAddress=ch5.2_ta1
        Subject Public Key Info:
            Public Key Algorithm: rsaEncryption
                RSA Public-Key: (2048 bit)
                Modulus:
                    00:f1:d1:b7:3a:43:a7:ca:c4:1d:07:bb:33:07:b0:
                    81:e4:14:c3:ce:7d:f1:30:9b:0c:45:66:04:5a:7e:
                    87:44:43:e1:77:39:0f:28:9e:c7:cf:f7:d9:a2:ca:
                    30:57:2d:1c:b1:95:83:b1:a5:69:7d:61:f1:79:de:
                    80:60:ed:ec:75:ce:9a:59:18:9d:ce:4a:82:ac:af:
                    36:ec:4b:f9:54:8c:b9:3b:42:06:07:62:27:0d:d2:
                    bd:55:a3:75:b5:5b:10:eb:6d:b2:cd:13:3e:2d:c0:
                    32:65:61:0e:3b:c8:17:a4:ce:53:21:e1:74:63:ab:
                    60:b9:e9:a9:39:41:4f:63:5a:8d:9b:01:e7:d0:13:
                    be:80:cf:32:96:88:eb:d7:14:0b:40:b4:2b:20:ff:
                    44:fb:14:a4:57:48:70:83:d1:a6:56:7a:ca:87:28:
                    a9:e0:b4:0c:7a:50:69:e3:c0:f2:2c:4f:a9:11:e0:
                    7a:60:51:25:5b:53:31:70:aa:c2:e5:72:16:98:2a:
                    87:57:92:9b:44:93:0f:9b:89:e1:ff:d0:37:de:b5:
                    1b:5a:d4:c4:4b:93:42:02:8d:44:55:2b:e3:9c:c2:
                    0c:e2:1b:83:50:30:4a:9e:e1:db:c5:b0:eb:ed:dc:
                    bb:e7:80:c1:eb:42:7b:dd:71:0e:8b:78:3c:fa:05:
                    45:d7
                Exponent: 65537 (0x10001)
        X509v3 extensions:
            X509v3 Subject Key Identifier: 
                63:D8:3D:81:D0:BC:1A:62:48:3E:AD:74:43:58:14:30:1C:CD:F7:99
            X509v3 Authority Key Identifier: 
                keyid:B6:F5:BE:AE:52:6B:18:6B:33:67:6D:06:29:24:AD:20:CC:84:60:E0
                DirName:/C=US/ST=California/L=Santa Clara/O=pkg5/CN=ch3_ta1/emailAddress=ch3_ta1
                serial:04

            X509v3 Basic Constraints: critical
                CA:TRUE, pathlen:1
            X509v3 Key Usage: critical
                Certificate Sign, CRL Sign
    Signature Algorithm: sha256WithRSAEncryption
         09:a2:87:12:b5:da:06:c6:fc:64:98:bd:be:79:2e:5b:e3:0a:
         a9:00:66:6f:0a:2e:86:0a:71:f2:a4:47:1c:0c:db:d0:38:5a:
         20:e2:c0:41:a1:fe:00:66:91:b9:77:eb:ff:f4:4e:e0:0d:b2:
         63:9f:3b:6d:ce:0f:2d:22:84:f1:2c:fe:12:54:86:97:63:7b:
         94:e4:41:a5:18:96:03:a2:8d:91:1b:f4:6a:e9:8b:a6:09:77:
         75:9b:1e:a2:af:64:5b:06:b4:ee:63:6a:4f:66:ce:a0:f4:b3:
         ef:88:ed:e1:c7:16:62:95:70:fd:41:eb:60:43:84:7a:7d:08:
         fb:a5:6a:d6:b8:80:35:88:3b:ed:8d:0c:8f:fe:cf:e8:c7:8b:
         60:bc:6e:83:32:1b:a1:7e:f0:64:9b:6a:a1:7e:dc:85:d2:76:
         8e:b6:cf:72:fb:14:39:da:e6:d4:6d:68:23:44:d1:14:93:2c:
         09:aa:1b:80:6b:44:68:a4:5b:31:57:0b:ba:3b:cc:6b:d4:c5:
         9c:75:9a:e0:db:c2:d9:15:e9:b0:fc:0b:09:4f:21:22:fa:a3:
         6f:b9:37:79:b0:17:3a:27:14:10:fa:20:a8:fe:ec:43:df:9b:
         ff:4d:9c:09:00:34:a5:40:31:13:5e:04:b9:f2:f7:83:2c:67:
         43:c3:ab:17
-----BEGIN CERTIFICATE-----
MIIERjCCAy6gAwIBAgIBCjANBgkqhkiG9w0BAQsFADBxMQswCQYDVQQGEwJVUzET
MBEGA1UECAwKQ2FsaWZvcm5pYTEUMBIGA1UEBwwLU2FudGEgQ2xhcmExDTALBgNV
BAoMBHBrZzUxEDAOBgNVBAMMB2NoNF90YTExFjAUBgkqhkiG9w0BCQEWB2NoNF90
YTEwHhcNMjAxMTE3MjMwMTI4WhcNMjMwODE0MjMwMTI4WjB1MQswCQYDVQQGEwJV
UzETMBEGA1UECAwKQ2FsaWZvcm5pYTEUMBIGA1UEBwwLU2FudGEgQ2xhcmExDTAL
BgNVBAoMBHBrZzUxEjAQBgNVBAMMCWNoNS4yX3RhMTEYMBYGCSqGSIb3DQEJARYJ
Y2g1LjJfdGExMIIBIjANBgkqhkiG9w0BAQEFAAOCAQ8AMIIBCgKCAQEA8dG3OkOn
ysQdB7szB7CB5BTDzn3xMJsMRWYEWn6HREPhdzkPKJ7Hz/fZosowVy0csZWDsaVp
fWHxed6AYO3sdc6aWRidzkqCrK827Ev5VIy5O0IGB2InDdK9VaN1tVsQ622yzRM+
LcAyZWEOO8gXpM5TIeF0Y6tguempOUFPY1qNmwHn0BO+gM8ylojr1xQLQLQrIP9E
+xSkV0hwg9GmVnrKhyip4LQMelBp48DyLE+pEeB6YFElW1MxcKrC5XIWmCqHV5Kb
RJMPm4nh/9A33rUbWtTES5NCAo1EVSvjnMIM4huDUDBKnuHbxbDr7dy754DB60J7
3XEOi3g8+gVF1wIDAQABo4HkMIHhMB0GA1UdDgQWBBRj2D2B0LwaYkg+rXRDWBQw
HM33mTCBmwYDVR0jBIGTMIGQgBS29b6uUmsYazNnbQYpJK0gzIRg4KF1pHMwcTEL
MAkGA1UEBhMCVVMxEzARBgNVBAgMCkNhbGlmb3JuaWExFDASBgNVBAcMC1NhbnRh
IENsYXJhMQ0wCwYDVQQKDARwa2c1MRAwDgYDVQQDDAdjaDNfdGExMRYwFAYJKoZI
hvcNAQkBFgdjaDNfdGExggEEMBIGA1UdEwEB/wQIMAYBAf8CAQEwDgYDVR0PAQH/
BAQDAgEGMA0GCSqGSIb3DQEBCwUAA4IBAQAJoocStdoGxvxkmL2+eS5b4wqpAGZv
Ci6GCnHypEccDNvQOFog4sBBof4AZpG5d+v/9E7gDbJjnzttzg8tIoTxLP4SVIaX
Y3uU5EGlGJYDoo2RG/Rq6YumCXd1mx6ir2RbBrTuY2pPZs6g9LPviO3hxxZilXD9
QetgQ4R6fQj7pWrWuIA1iDvtjQyP/s/ox4tgvG6DMhuhfvBkm2qhftyF0naOts9y
+xQ52ubUbWgjRNEUkywJqhuAa0RopFsxVwu6O8xr1MWcdZrg28LZFemw/AsJTyEi
+qNvuTd5sBc6JxQQ+iCo/uxD35v/TZwJADSlQDETXgS58veDLGdDw6sX
-----END CERTIFICATE-----
