Certificate:
    Data:
        Version: 3 (0x2)
        Serial Number: 8 (0x8)
        Signature Algorithm: sha256WithRSAEncryption
        Issuer: C=US, ST=California, L=Santa Clara, O=pkg5, CN=ch4_ta1/emailAddress=ch4_ta1
        Validity
            Not Before: Dec 15 15:37:17 2022 GMT
            Not After : Sep 10 15:37:17 2025 GMT
        Subject: C=US, ST=California, L=Santa Clara, O=pkg5, CN=ch5.1_ta1/emailAddress=ch5.1_ta1
        Subject Public Key Info:
            Public Key Algorithm: rsaEncryption
                Public-Key: (2048 bit)
                Modulus:
                    00:dc:de:40:ff:5f:54:15:cd:de:e3:6a:ec:96:92:
                    d8:59:20:90:c4:b4:8e:7d:04:63:a3:34:9c:3d:4e:
                    ae:b5:80:12:23:03:ea:e7:a0:97:92:50:52:ec:ea:
                    0a:f1:86:fb:1c:7c:77:54:ab:bc:3c:70:61:23:02:
                    a5:ce:4a:c7:e3:c0:c9:38:fb:91:1b:0e:68:3d:e7:
                    46:83:5d:7f:cd:12:9c:9c:c8:56:97:7a:96:86:9c:
                    f2:37:3b:0e:d1:ab:b9:ea:4c:de:7c:11:c4:a1:6a:
                    1a:7f:cd:46:a0:fa:a0:1e:9f:73:ce:10:f7:89:47:
                    36:b9:9a:e5:5f:eb:7b:bf:b5:a0:49:d9:c9:79:de:
                    24:a9:4d:a1:2b:f6:a0:9c:f8:09:bd:ab:6e:7c:0c:
                    9a:f6:21:d0:a8:c9:5e:01:2c:94:bd:70:75:e8:11:
                    18:85:b4:a2:67:38:53:bd:b2:48:4a:28:3a:7d:f2:
                    df:7f:0a:e5:88:31:d2:c1:d1:36:60:0e:67:d1:6e:
                    ad:b5:f8:c6:fc:09:9f:81:3c:7d:17:e1:f6:f6:4a:
                    0e:06:ed:b4:99:31:52:33:6d:c7:04:be:42:dd:44:
                    1c:02:c8:37:33:7e:28:05:e8:d4:cf:d3:90:55:dc:
                    75:16:fc:0e:fb:00:d8:0e:0f:3c:4b:8d:be:3f:a0:
                    77:97
                Exponent: 65537 (0x10001)
        X509v3 extensions:
            X509v3 Basic Constraints: critical
                CA:TRUE
            X509v3 Subject Alternative Name: 
                email:ch5.1_ta1
            X509v3 Issuer Alternative Name: critical
                email:ca
            X509v3 Subject Key Identifier: 
                0E:F9:88:97:FA:08:4B:C9:20:8B:FA:CC:C5:A8:6D:54:64:84:12:57
            X509v3 Authority Key Identifier: 
                AB:AA:B3:26:CE:41:5B:E6:B4:C7:60:66:EF:8E:7A:38:71:FF:78:6B
    Signature Algorithm: sha256WithRSAEncryption
    Signature Value:
        06:66:b7:ee:04:c7:0c:a7:86:93:f5:44:ff:2c:fc:a6:80:b1:
        ad:f3:80:b8:90:8d:00:6d:71:5b:55:a3:8e:d4:34:a8:48:69:
        32:28:be:fc:15:97:65:3d:18:99:5f:ab:5b:8d:a9:2f:5a:90:
        e8:84:49:15:a0:43:65:99:ca:ad:60:57:37:f0:36:63:5b:8c:
        18:7a:f3:c6:16:5a:9a:02:86:b7:5f:e0:30:94:26:5e:e6:f2:
        7d:3c:99:31:bc:25:cf:cf:8d:fd:ec:83:0e:11:1f:a3:69:9e:
        1b:a1:72:08:1b:db:2f:15:df:2a:14:3b:c2:9b:36:84:52:e2:
        64:93:a4:83:3e:6a:33:6e:66:83:c9:9d:a6:f5:e3:b8:00:c8:
        e2:8c:0d:ac:79:c7:0d:57:cf:18:b2:16:33:30:2f:77:80:46:
        2a:fb:5c:fb:a9:e0:2f:88:8e:04:bf:ea:b5:32:1c:1b:bf:51:
        69:be:12:da:c6:c4:01:01:31:9c:76:a0:df:12:fa:67:ff:86:
        ca:12:79:35:69:9b:66:b9:75:60:b3:28:c1:00:74:a9:24:da:
        71:03:77:47:b6:da:30:f7:0b:1c:15:e1:bd:d6:bd:00:91:ee:
        89:77:2f:21:a3:56:46:2e:c9:ec:b4:42:4a:e8:d4:dc:34:a3:
        4c:00:7a:60
-----BEGIN CERTIFICATE-----
MIID3DCCAsSgAwIBAgIBCDANBgkqhkiG9w0BAQsFADBxMQswCQYDVQQGEwJVUzET
MBEGA1UECAwKQ2FsaWZvcm5pYTEUMBIGA1UEBwwLU2FudGEgQ2xhcmExDTALBgNV
BAoMBHBrZzUxEDAOBgNVBAMMB2NoNF90YTExFjAUBgkqhkiG9w0BCQEWB2NoNF90
YTEwHhcNMjIxMjE1MTUzNzE3WhcNMjUwOTEwMTUzNzE3WjB1MQswCQYDVQQGEwJV
UzETMBEGA1UECAwKQ2FsaWZvcm5pYTEUMBIGA1UEBwwLU2FudGEgQ2xhcmExDTAL
BgNVBAoMBHBrZzUxEjAQBgNVBAMMCWNoNS4xX3RhMTEYMBYGCSqGSIb3DQEJARYJ
Y2g1LjFfdGExMIIBIjANBgkqhkiG9w0BAQEFAAOCAQ8AMIIBCgKCAQEA3N5A/19U
Fc3e42rslpLYWSCQxLSOfQRjozScPU6utYASIwPq56CXklBS7OoK8Yb7HHx3VKu8
PHBhIwKlzkrH48DJOPuRGw5oPedGg11/zRKcnMhWl3qWhpzyNzsO0au56kzefBHE
oWoaf81GoPqgHp9zzhD3iUc2uZrlX+t7v7WgSdnJed4kqU2hK/agnPgJvatufAya
9iHQqMleASyUvXB16BEYhbSiZzhTvbJISig6ffLffwrliDHSwdE2YA5n0W6ttfjG
/AmfgTx9F+H29koOBu20mTFSM23HBL5C3UQcAsg3M34oBejUz9OQVdx1FvwO+wDY
Dg88S42+P6B3lwIDAQABo3sweTAPBgNVHRMBAf8EBTADAQH/MBQGA1UdEQQNMAuB
CWNoNS4xX3RhMTAQBgNVHRIBAf8EBjAEgQJjYTAdBgNVHQ4EFgQUDvmIl/oIS8kg
i/rMxahtVGSEElcwHwYDVR0jBBgwFoAUq6qzJs5BW+a0x2Bm7456OHH/eGswDQYJ
KoZIhvcNAQELBQADggEBAAZmt+4ExwynhpP1RP8s/KaAsa3zgLiQjQBtcVtVo47U
NKhIaTIovvwVl2U9GJlfq1uNqS9akOiESRWgQ2WZyq1gVzfwNmNbjBh688YWWpoC
hrdf4DCUJl7m8n08mTG8Jc/Pjf3sgw4RH6Npnhuhcggb2y8V3yoUO8KbNoRS4mST
pIM+ajNuZoPJnab147gAyOKMDax5xw1XzxiyFjMwL3eARir7XPup4C+IjgS/6rUy
HBu/UWm+EtrGxAEBMZx2oN8S+mf/hsoSeTVpm2a5dWCzKMEAdKkk2nEDd0e22jD3
CxwV4b3WvQCR7ol3LyGjVkYuyey0Qkro1Nw0o0wAemA=
-----END CERTIFICATE-----
