Certificate:
    Data:
        Version: 3 (0x2)
        Serial Number: 10 (0xa)
    Signature Algorithm: sha256WithRSAEncryption
        Issuer: C=US, ST=California, L=Santa Clara, O=pkg5, CN=ch4_ta1/emailAddress=ch4_ta1
        Validity
            Not Before: Mar 20 10:20:53 2018 GMT
            Not After : Dec 14 10:20:53 2020 GMT
        Subject: C=US, ST=California, L=Santa Clara, O=pkg5, CN=ch5.2_ta1/emailAddress=ch5.2_ta1
        Subject Public Key Info:
            Public Key Algorithm: rsaEncryption
                Public-Key: (2048 bit)
                Modulus:
                    00:d7:9c:87:d3:a5:b1:a8:8c:76:4f:21:f4:0d:c1:
                    ac:f5:a2:b8:73:ce:2a:bc:32:da:f1:bc:f8:58:eb:
                    87:60:b0:5f:39:79:cc:e0:13:98:9b:9f:fb:2c:fe:
                    e5:02:c1:3c:9f:65:56:49:3b:d3:33:ce:fe:a6:21:
                    dd:26:0e:81:d2:39:62:5c:a0:d1:af:3a:f7:39:96:
                    a2:cb:a0:4f:3c:aa:47:5b:a9:d5:10:9d:5a:39:c0:
                    d5:38:54:fe:bf:d3:20:c1:a3:de:d8:4f:d6:c2:09:
                    f2:f0:3b:bd:bf:0b:a0:52:81:a3:1c:30:1a:e5:1f:
                    1c:9d:22:dd:8b:9f:fd:12:8e:8e:51:e4:58:b4:af:
                    4a:c0:07:73:9b:d4:47:19:a0:a5:ee:02:ef:92:ae:
                    5b:38:ec:d4:5e:03:3a:e8:74:33:49:32:86:99:da:
                    f5:e9:9e:2f:f9:f7:8f:1c:ec:94:2f:4b:01:cf:eb:
                    eb:0d:36:e6:23:5a:9c:0c:94:af:9e:8b:08:66:07:
                    89:b8:c3:b6:c8:c6:b1:73:89:46:7b:1c:85:2d:42:
                    6f:ab:e6:2d:e7:2a:e2:9b:9b:be:db:d1:e7:f7:b1:
                    03:e0:ef:84:ed:e3:26:b1:d6:f8:6a:d0:af:90:bb:
                    12:49:64:a3:cf:3a:f2:80:fd:d3:dc:ae:33:4b:09:
                    4a:25
                Exponent: 65537 (0x10001)
        X509v3 extensions:
            X509v3 Subject Key Identifier: 
                97:95:F9:C1:56:98:8D:FB:24:2F:36:C7:52:EB:2C:17:85:86:28:7E
            X509v3 Authority Key Identifier: 
                keyid:27:98:7F:68:04:5A:B7:1E:13:EC:A4:9B:44:90:F6:58:2F:11:03:AD
                DirName:/C=US/ST=California/L=Santa Clara/O=pkg5/CN=ch3_ta1/emailAddress=ch3_ta1
                serial:04

            X509v3 Basic Constraints: critical
                CA:TRUE, pathlen:1
            X509v3 Key Usage: critical
                Certificate Sign, CRL Sign
    Signature Algorithm: sha256WithRSAEncryption
         23:16:2d:37:8f:67:8e:51:2d:ff:b7:9c:12:a1:c9:25:75:a1:
         08:cf:23:a8:a2:bf:af:59:2e:c0:ca:b5:1a:6b:1f:ea:d7:5d:
         84:23:9c:1f:1e:f6:33:9a:ec:41:e9:2f:66:df:33:1c:27:7e:
         22:2e:42:97:e6:b9:04:be:10:1c:d2:2f:54:8b:cf:be:5c:85:
         a1:e3:8f:29:87:ec:36:17:62:41:9e:3b:e7:a4:4f:be:40:ad:
         74:13:93:72:85:14:f1:de:78:9d:7b:30:1b:43:a6:b5:72:78:
         bd:ed:9d:67:32:4b:d4:a7:cb:9b:18:0e:70:23:6c:ea:53:d7:
         5d:21:30:2e:ec:da:b8:ca:87:15:79:f4:5f:91:f2:ea:99:6b:
         c6:70:63:7b:34:3a:aa:04:be:95:a2:4e:7f:bc:4f:f4:b3:8b:
         1e:0b:b3:c5:38:6a:77:ca:25:e2:f4:59:86:b3:f2:77:22:44:
         ef:fe:c4:39:83:c3:36:63:e5:fe:4f:66:55:8d:a4:0c:cd:02:
         5d:a7:3b:3c:19:62:37:b7:c7:8a:43:21:d4:9a:e2:3f:b0:3c:
         b4:28:3f:80:15:37:91:56:83:4e:eb:cc:44:c1:1b:c9:38:9b:
         77:5c:fa:86:e5:2b:d2:04:86:a0:63:f2:3b:72:9e:e1:50:5a:
         44:48:c6:3a
-----BEGIN CERTIFICATE-----
MIIERjCCAy6gAwIBAgIBCjANBgkqhkiG9w0BAQsFADBxMQswCQYDVQQGEwJVUzET
MBEGA1UECAwKQ2FsaWZvcm5pYTEUMBIGA1UEBwwLU2FudGEgQ2xhcmExDTALBgNV
BAoMBHBrZzUxEDAOBgNVBAMMB2NoNF90YTExFjAUBgkqhkiG9w0BCQEWB2NoNF90
YTEwHhcNMTgwMzIwMTAyMDUzWhcNMjAxMjE0MTAyMDUzWjB1MQswCQYDVQQGEwJV
UzETMBEGA1UECAwKQ2FsaWZvcm5pYTEUMBIGA1UEBwwLU2FudGEgQ2xhcmExDTAL
BgNVBAoMBHBrZzUxEjAQBgNVBAMMCWNoNS4yX3RhMTEYMBYGCSqGSIb3DQEJARYJ
Y2g1LjJfdGExMIIBIjANBgkqhkiG9w0BAQEFAAOCAQ8AMIIBCgKCAQEA15yH06Wx
qIx2TyH0DcGs9aK4c84qvDLa8bz4WOuHYLBfOXnM4BOYm5/7LP7lAsE8n2VWSTvT
M87+piHdJg6B0jliXKDRrzr3OZaiy6BPPKpHW6nVEJ1aOcDVOFT+v9MgwaPe2E/W
wgny8Du9vwugUoGjHDAa5R8cnSLdi5/9Eo6OUeRYtK9KwAdzm9RHGaCl7gLvkq5b
OOzUXgM66HQzSTKGmdr16Z4v+fePHOyUL0sBz+vrDTbmI1qcDJSvnosIZgeJuMO2
yMaxc4lGexyFLUJvq+Yt5yrim5u+29Hn97ED4O+E7eMmsdb4atCvkLsSSWSjzzry
gP3T3K4zSwlKJQIDAQABo4HkMIHhMB0GA1UdDgQWBBSXlfnBVpiN+yQvNsdS6ywX
hYYofjCBmwYDVR0jBIGTMIGQgBQnmH9oBFq3HhPspJtEkPZYLxEDraF1pHMwcTEL
MAkGA1UEBhMCVVMxEzARBgNVBAgMCkNhbGlmb3JuaWExFDASBgNVBAcMC1NhbnRh
IENsYXJhMQ0wCwYDVQQKDARwa2c1MRAwDgYDVQQDDAdjaDNfdGExMRYwFAYJKoZI
hvcNAQkBFgdjaDNfdGExggEEMBIGA1UdEwEB/wQIMAYBAf8CAQEwDgYDVR0PAQH/
BAQDAgEGMA0GCSqGSIb3DQEBCwUAA4IBAQAjFi03j2eOUS3/t5wSockldaEIzyOo
or+vWS7AyrUaax/q112EI5wfHvYzmuxB6S9m3zMcJ34iLkKX5rkEvhAc0i9Ui8++
XIWh448ph+w2F2JBnjvnpE++QK10E5NyhRTx3nidezAbQ6a1cni97Z1nMkvUp8ub
GA5wI2zqU9ddITAu7Nq4yocVefRfkfLqmWvGcGN7NDqqBL6Vok5/vE/0s4seC7PF
OGp3yiXi9FmGs/J3IkTv/sQ5g8M2Y+X+T2ZVjaQMzQJdpzs8GWI3t8eKQyHUmuI/
sDy0KD+AFTeRVoNO68xEwRvJOJt3XPqG5SvSBIagY/I7cp7hUFpESMY6
-----END CERTIFICATE-----
