Certificate:
    Data:
        Version: 3 (0x2)
        Serial Number: 13 (0xd)
        Signature Algorithm: sha256WithRSAEncryption
        Issuer: C=US, ST=California, L=Santa Clara, O=pkg5, CN=ch4.3_ta1/emailAddress=ch4.3_ta1
        Validity
            Not Before: Oct 24 21:43:02 2023 GMT
            Not After : Jul 20 21:43:02 2026 GMT
        Subject: C=US, ST=California, L=Santa Clara, O=pkg5, CN=ch5.3_ta1/emailAddress=ch5.3_ta1
        Subject Public Key Info:
            Public Key Algorithm: rsaEncryption
                Public-Key: (2048 bit)
                Modulus:
                    00:86:d9:2f:21:3e:b2:6c:3b:0b:93:21:d5:c6:9b:
                    b8:1e:3a:1c:3a:37:a5:87:3f:fd:22:a3:da:47:b6:
                    d5:8b:41:bf:63:35:5a:69:2d:87:0e:46:25:9c:3c:
                    34:ae:03:d6:88:f1:42:5d:2e:c2:36:e0:8f:75:da:
                    4f:ab:7b:0a:fb:89:c2:15:40:63:fb:d7:3b:36:bc:
                    78:6e:ba:46:5b:b6:ee:fc:92:75:02:0f:cd:34:d8:
                    16:57:26:f1:5e:d1:cf:ba:d4:60:32:b3:1b:d5:7c:
                    1d:14:c4:af:50:94:b8:61:89:a0:d5:c3:3a:0f:2a:
                    ef:84:7e:be:8d:ed:bb:75:4e:b4:51:ae:51:ca:f9:
                    bb:7d:9b:c4:a3:d7:b3:4d:d2:8c:8c:4c:db:af:0b:
                    a4:45:01:41:88:dd:98:f7:d9:17:a7:9c:55:b3:6f:
                    e6:1f:c1:b4:30:5f:f9:e5:a4:1b:f1:f0:1e:e6:24:
                    d6:9e:ba:fe:04:41:88:5b:25:b4:56:c1:56:b0:0e:
                    b1:51:a5:8a:dc:cc:2a:b9:fe:02:19:fd:80:95:55:
                    ac:7c:66:b9:f2:53:e9:a3:cb:95:74:83:3d:0f:86:
                    68:f5:5f:c7:af:88:1b:31:8b:86:bb:62:60:99:aa:
                    6d:ce:1a:21:bb:6d:73:0a:ee:85:23:e1:30:8f:b5:
                    04:09
                Exponent: 65537 (0x10001)
        X509v3 extensions:
            X509v3 Subject Key Identifier: 
                6B:9E:5E:A6:8D:CD:EE:F9:0D:E2:91:44:47:DE:D2:F9:EE:E7:F2:8A
            X509v3 Authority Key Identifier: 
                keyid:F0:85:9D:02:4D:FD:F7:DE:28:7B:D9:A5:CC:78:6E:11:AF:DC:A9:EE
                DirName:/C=US/ST=California/L=Santa Clara/O=pkg5/CN=ch3_ta1/emailAddress=ch3_ta1
                serial:0C
            X509v3 Basic Constraints: critical
                CA:TRUE, pathlen:0
            X509v3 Key Usage: critical
                Certificate Sign, CRL Sign
    Signature Algorithm: sha256WithRSAEncryption
    Signature Value:
        8c:c5:dd:16:dc:9e:12:4f:25:19:68:fa:56:36:6e:fa:83:bb:
        4e:69:c7:e3:5b:36:75:fb:47:ab:0a:27:8d:29:59:75:28:f7:
        2a:0d:ae:4e:8b:0f:80:9c:05:ce:c1:60:f2:2e:bf:99:ec:2e:
        7f:55:3d:39:42:26:fb:82:11:ed:53:a5:75:5b:04:e9:e7:e7:
        73:28:36:a7:53:67:3e:4c:23:e3:0c:9b:b6:b0:09:64:0a:37:
        5f:99:1f:cf:41:bd:da:e8:73:8e:cf:b5:34:c9:1d:9f:9a:c4:
        ea:74:74:5e:e6:3b:21:60:d6:99:8f:6f:2d:0a:43:21:00:1a:
        64:c4:7d:8d:1e:56:71:a4:b0:75:f4:ea:ae:4c:27:75:80:6a:
        6c:3f:fd:25:58:9e:b9:fa:1c:a9:d6:17:e9:0a:f5:21:ea:c0:
        9e:9e:28:45:b1:43:9d:9c:92:13:07:ac:8c:15:4a:a0:3c:c3:
        e2:03:81:76:64:8e:89:eb:ba:c1:f7:f9:7d:c0:89:bc:98:4e:
        10:8e:96:9f:3c:f8:31:b8:69:04:4b:fa:e3:1b:b4:e0:bb:a0:
        59:7f:36:d6:38:23:87:d4:e5:08:03:83:09:64:ef:55:85:55:
        e8:fe:c5:50:01:b1:f7:8a:7d:fa:ff:c4:1e:0e:25:b0:ad:d9:
        fa:5f:18:ef
-----BEGIN CERTIFICATE-----
MIIESjCCAzKgAwIBAgIBDTANBgkqhkiG9w0BAQsFADB1MQswCQYDVQQGEwJVUzET
MBEGA1UECAwKQ2FsaWZvcm5pYTEUMBIGA1UEBwwLU2FudGEgQ2xhcmExDTALBgNV
BAoMBHBrZzUxEjAQBgNVBAMMCWNoNC4zX3RhMTEYMBYGCSqGSIb3DQEJARYJY2g0
LjNfdGExMB4XDTIzMTAyNDIxNDMwMloXDTI2MDcyMDIxNDMwMlowdTELMAkGA1UE
BhMCVVMxEzARBgNVBAgMCkNhbGlmb3JuaWExFDASBgNVBAcMC1NhbnRhIENsYXJh
MQ0wCwYDVQQKDARwa2c1MRIwEAYDVQQDDAljaDUuM190YTExGDAWBgkqhkiG9w0B
CQEWCWNoNS4zX3RhMTCCASIwDQYJKoZIhvcNAQEBBQADggEPADCCAQoCggEBAIbZ
LyE+smw7C5Mh1cabuB46HDo3pYc//SKj2ke21YtBv2M1Wmkthw5GJZw8NK4D1ojx
Ql0uwjbgj3XaT6t7CvuJwhVAY/vXOza8eG66Rlu27vySdQIPzTTYFlcm8V7Rz7rU
YDKzG9V8HRTEr1CUuGGJoNXDOg8q74R+vo3tu3VOtFGuUcr5u32bxKPXs03SjIxM
268LpEUBQYjdmPfZF6ecVbNv5h/BtDBf+eWkG/HwHuYk1p66/gRBiFsltFbBVrAO
sVGlitzMKrn+Ahn9gJVVrHxmufJT6aPLlXSDPQ+GaPVfx6+IGzGLhrtiYJmqbc4a
IbttcwruhSPhMI+1BAkCAwEAAaOB5DCB4TAdBgNVHQ4EFgQUa55epo3N7vkN4pFE
R97S+e7n8oowgZsGA1UdIwSBkzCBkIAU8IWdAk39994oe9mlzHhuEa/cqe6hdaRz
MHExCzAJBgNVBAYTAlVTMRMwEQYDVQQIDApDYWxpZm9ybmlhMRQwEgYDVQQHDAtT
YW50YSBDbGFyYTENMAsGA1UECgwEcGtnNTEQMA4GA1UEAwwHY2gzX3RhMTEWMBQG
CSqGSIb3DQEJARYHY2gzX3RhMYIBDDASBgNVHRMBAf8ECDAGAQH/AgEAMA4GA1Ud
DwEB/wQEAwIBBjANBgkqhkiG9w0BAQsFAAOCAQEAjMXdFtyeEk8lGWj6VjZu+oO7
TmnH41s2dftHqwonjSlZdSj3Kg2uTosPgJwFzsFg8i6/mewuf1U9OUIm+4IR7VOl
dVsE6efncyg2p1NnPkwj4wybtrAJZAo3X5kfz0G92uhzjs+1NMkdn5rE6nR0XuY7
IWDWmY9vLQpDIQAaZMR9jR5WcaSwdfTqrkwndYBqbD/9JVieufocqdYX6Qr1IerA
np4oRbFDnZySEwesjBVKoDzD4gOBdmSOieu6wff5fcCJvJhOEI6Wnzz4MbhpBEv6
4xu04LugWX821jgjh9TlCAODCWTvVYVV6P7FUAGx94p9+v/EHg4lsK3Z+l8Y7w==
-----END CERTIFICATE-----
