Certificate:
    Data:
        Version: 3 (0x2)
        Serial Number: 5 (0x5)
        Signature Algorithm: sha256WithRSAEncryption
        Issuer: C=US, ST=California, L=Santa Clara, O=pkg5, CN=ch4_ta1/emailAddress=ch4_ta1
        Validity
            Not Before: Oct 24 21:43:00 2023 GMT
            Not After : Jul 20 21:43:00 2026 GMT
        Subject: C=US, ST=California, L=Santa Clara, O=pkg5, CN=ch5_ta1/emailAddress=ch5_ta1
        Subject Public Key Info:
            Public Key Algorithm: rsaEncryption
                Public-Key: (2048 bit)
                Modulus:
                    00:e1:b9:d1:98:fa:aa:c2:3f:fc:ae:54:4f:5a:da:
                    fb:d3:05:d3:3f:04:34:8f:90:47:db:17:e5:78:3d:
                    e0:2d:fb:ad:a3:52:cd:3b:a2:fe:0b:32:00:aa:7a:
                    ef:f6:c9:b2:a2:ec:cd:a7:ef:f2:f8:a0:fa:a9:39:
                    8a:92:7e:d6:c6:63:58:86:0d:f6:70:6e:de:c4:7c:
                    4a:3a:de:67:a3:4a:df:a5:bd:f6:50:a2:65:79:9f:
                    97:f4:f3:0e:6c:95:20:aa:13:81:97:1f:c7:8e:c7:
                    c1:ef:04:37:2a:6b:df:b3:60:df:5c:44:f8:f9:f1:
                    d5:ba:21:1c:c3:a5:2f:fd:62:c0:43:9d:57:4f:81:
                    6a:d2:1b:47:77:68:0d:00:e2:bb:12:ba:07:e9:26:
                    83:ef:f6:8b:f8:f5:ae:c1:aa:93:05:f3:9e:e0:5b:
                    5a:6a:f4:66:bd:a7:ef:7f:1b:fa:99:a2:3e:79:24:
                    5a:58:0e:c4:89:92:75:8f:82:a0:59:23:c0:c2:7d:
                    c7:b7:31:4a:66:d7:61:1d:64:af:3c:ed:ab:5f:c8:
                    14:4d:54:fc:88:37:82:1a:af:ec:43:89:d2:fb:f6:
                    d8:64:06:ad:e6:30:99:ee:03:ac:0c:d7:62:f1:22:
                    bd:09:51:55:0e:7b:a7:b3:62:51:b1:d1:07:7c:27:
                    b2:5d
                Exponent: 65537 (0x10001)
        X509v3 extensions:
            X509v3 Subject Key Identifier: 
                45:27:9F:DE:4D:50:48:45:6D:EF:42:7A:12:3D:AC:95:FA:F8:9B:D6
            X509v3 Authority Key Identifier: 
                keyid:F0:C5:5C:7D:97:FB:05:C7:4A:9D:A4:6A:53:4D:B4:1F:3D:6D:AB:0F
                DirName:/C=US/ST=California/L=Santa Clara/O=pkg5/CN=ch3_ta1/emailAddress=ch3_ta1
                serial:04
            X509v3 Basic Constraints: critical
                CA:TRUE, pathlen:0
            X509v3 Key Usage: critical
                Certificate Sign, CRL Sign
    Signature Algorithm: sha256WithRSAEncryption
    Signature Value:
        39:aa:48:08:59:4e:0a:d0:00:9d:ff:85:e2:26:f8:d1:bb:0b:
        cc:85:80:52:dc:fb:8c:82:bf:82:a1:11:48:e7:39:e8:5f:2e:
        26:e1:03:2d:3a:4e:04:64:fb:a2:46:fb:9c:e7:d7:af:db:64:
        ee:28:0e:45:b0:aa:8d:b3:8f:93:34:44:e5:05:5d:b1:49:e7:
        f7:05:6d:52:aa:21:18:76:da:ea:69:3d:46:f3:fe:f9:2f:79:
        40:58:a6:37:cd:c0:48:47:a7:8e:22:0e:5b:36:ff:4e:6b:95:
        5b:73:32:13:ab:bc:ba:18:61:88:2c:f9:58:6c:1b:c7:c5:6b:
        d9:9b:6d:e8:57:3d:fb:09:49:6c:7e:50:47:e2:5d:1d:dd:27:
        b7:73:0a:e9:f5:6d:7e:fa:ce:31:c9:a4:08:d1:18:0f:46:2b:
        c0:b8:26:d8:2a:c7:9a:9c:2b:b0:ae:36:5d:58:3e:44:3d:81:
        e0:31:44:fb:67:1d:cb:d1:8b:9d:c6:d3:a5:92:0f:5a:9c:22:
        d8:a6:be:22:3c:a2:c4:e7:a6:2b:9d:3b:b4:4f:3c:21:0f:b8:
        c9:32:f8:6b:19:8b:f6:c1:5b:d8:bd:b8:b0:5b:ef:0f:c8:0a:
        05:61:f5:d0:8e:fa:b3:91:08:85:39:90:ca:3f:50:cb:2f:ff:
        39:47:87:83
-----BEGIN CERTIFICATE-----
MIIEQjCCAyqgAwIBAgIBBTANBgkqhkiG9w0BAQsFADBxMQswCQYDVQQGEwJVUzET
MBEGA1UECAwKQ2FsaWZvcm5pYTEUMBIGA1UEBwwLU2FudGEgQ2xhcmExDTALBgNV
BAoMBHBrZzUxEDAOBgNVBAMMB2NoNF90YTExFjAUBgkqhkiG9w0BCQEWB2NoNF90
YTEwHhcNMjMxMDI0MjE0MzAwWhcNMjYwNzIwMjE0MzAwWjBxMQswCQYDVQQGEwJV
UzETMBEGA1UECAwKQ2FsaWZvcm5pYTEUMBIGA1UEBwwLU2FudGEgQ2xhcmExDTAL
BgNVBAoMBHBrZzUxEDAOBgNVBAMMB2NoNV90YTExFjAUBgkqhkiG9w0BCQEWB2No
NV90YTEwggEiMA0GCSqGSIb3DQEBAQUAA4IBDwAwggEKAoIBAQDhudGY+qrCP/yu
VE9a2vvTBdM/BDSPkEfbF+V4PeAt+62jUs07ov4LMgCqeu/2ybKi7M2n7/L4oPqp
OYqSftbGY1iGDfZwbt7EfEo63mejSt+lvfZQomV5n5f08w5slSCqE4GXH8eOx8Hv
BDcqa9+zYN9cRPj58dW6IRzDpS/9YsBDnVdPgWrSG0d3aA0A4rsSugfpJoPv9ov4
9a7BqpMF857gW1pq9Ga9p+9/G/qZoj55JFpYDsSJknWPgqBZI8DCfce3MUpm12Ed
ZK887atfyBRNVPyIN4Iar+xDidL79thkBq3mMJnuA6wM12LxIr0JUVUOe6ezYlGx
0Qd8J7JdAgMBAAGjgeQwgeEwHQYDVR0OBBYEFEUnn95NUEhFbe9CehI9rJX6+JvW
MIGbBgNVHSMEgZMwgZCAFPDFXH2X+wXHSp2kalNNtB89basPoXWkczBxMQswCQYD
VQQGEwJVUzETMBEGA1UECAwKQ2FsaWZvcm5pYTEUMBIGA1UEBwwLU2FudGEgQ2xh
cmExDTALBgNVBAoMBHBrZzUxEDAOBgNVBAMMB2NoM190YTExFjAUBgkqhkiG9w0B
CQEWB2NoM190YTGCAQQwEgYDVR0TAQH/BAgwBgEB/wIBADAOBgNVHQ8BAf8EBAMC
AQYwDQYJKoZIhvcNAQELBQADggEBADmqSAhZTgrQAJ3/heIm+NG7C8yFgFLc+4yC
v4KhEUjnOehfLibhAy06TgRk+6JG+5zn16/bZO4oDkWwqo2zj5M0ROUFXbFJ5/cF
bVKqIRh22uppPUbz/vkveUBYpjfNwEhHp44iDls2/05rlVtzMhOrvLoYYYgs+Vhs
G8fFa9mbbehXPfsJSWx+UEfiXR3dJ7dzCun1bX76zjHJpAjRGA9GK8C4Jtgqx5qc
K7CuNl1YPkQ9geAxRPtnHcvRi53G06WSD1qcItimviI8osTnpiudO7RPPCEPuMky
+GsZi/bBW9i9uLBb7w/ICgVh9dCO+rORCIU5kMo/UMsv/zlHh4M=
-----END CERTIFICATE-----
