Certificate:
    Data:
        Version: 3 (0x2)
        Serial Number: 5 (0x5)
        Signature Algorithm: sha256WithRSAEncryption
        Issuer: C=US, ST=California, L=Santa Clara, O=pkg5, CN=ch4_ta1/emailAddress=ch4_ta1
        Validity
            Not Before: Oct 22 10:15:06 2021 GMT
            Not After : Jul 18 10:15:06 2024 GMT
        Subject: C=US, ST=California, L=Santa Clara, O=pkg5, CN=ch5_ta1/emailAddress=ch5_ta1
        Subject Public Key Info:
            Public Key Algorithm: rsaEncryption
                Public-Key: (2048 bit)
                Modulus:
                    00:c3:5e:97:07:9c:1c:a1:e7:ab:5d:9c:2b:37:4e:
                    8c:9c:d1:27:3a:42:d8:f9:66:a0:d4:e3:30:b2:0d:
                    f9:5f:47:88:95:9d:95:8b:d0:4f:09:14:75:02:32:
                    85:3b:7c:25:1c:a5:b3:7c:bd:b8:f2:16:c3:eb:33:
                    eb:d1:77:e9:e5:28:98:52:2f:c5:3b:da:94:af:ef:
                    11:b1:49:9e:41:0f:4d:a6:76:4f:e5:bd:50:9f:cb:
                    55:bc:96:f1:2d:a2:9d:3e:b7:7d:d8:48:56:d8:d1:
                    6f:95:15:d8:36:8c:84:7f:c9:09:dd:94:6a:93:ac:
                    c0:e6:f4:dc:eb:16:a5:35:a7:05:e6:f9:97:78:cf:
                    00:73:be:35:8e:3d:a1:c5:cb:5d:21:3d:a3:2f:5d:
                    2c:62:d5:1d:5b:6c:98:4e:e4:8e:75:05:15:2a:35:
                    a6:74:ee:be:6d:4d:e8:de:36:07:67:42:16:b7:fd:
                    03:a9:bb:5a:23:f5:7d:00:a1:17:a6:3e:43:ff:8a:
                    8e:50:4c:f4:5f:58:47:e1:9a:0c:82:f6:fd:41:c0:
                    ce:71:15:b8:6f:98:8a:ba:92:02:14:da:34:2d:5e:
                    12:59:88:d2:39:44:ab:01:f7:e8:3f:7a:60:de:9e:
                    f4:74:fd:14:8b:28:61:ab:ce:ec:24:7d:a9:c2:64:
                    d0:e9
                Exponent: 65537 (0x10001)
        X509v3 extensions:
            X509v3 Subject Key Identifier: 
                25:8E:1A:B1:48:1B:60:70:E3:30:8F:09:7A:37:5A:D1:4E:24:CD:79
            X509v3 Authority Key Identifier: 
                keyid:D6:51:0D:B0:DE:78:F7:44:30:3C:C2:1D:A6:03:F7:67:39:80:57:29
                DirName:/C=US/ST=California/L=Santa Clara/O=pkg5/CN=ch3_ta1/emailAddress=ch3_ta1
                serial:04
            X509v3 Basic Constraints: critical
                CA:TRUE, pathlen:0
            X509v3 Key Usage: critical
                Certificate Sign, CRL Sign
    Signature Algorithm: sha256WithRSAEncryption
    Signature Value:
        4c:e6:f4:8e:0c:b3:80:9c:8b:3f:8f:4d:e4:ff:35:72:4c:83:
        83:ef:9b:5d:8f:20:af:48:5b:80:79:fa:93:3b:4d:b8:94:59:
        2d:70:32:d5:60:b9:d8:74:d4:34:fa:45:4b:14:5a:b4:27:47:
        33:35:0c:aa:b7:fd:9e:7f:80:8b:0c:f5:f5:4f:0e:5e:cf:37:
        b6:45:1e:be:b6:8b:4c:c3:9a:30:db:a1:db:7a:01:99:ed:9f:
        ba:ba:a2:8d:9d:36:01:62:4e:61:6f:41:90:7c:cd:ee:66:5c:
        2f:2b:08:15:1e:d3:65:c6:52:f4:0c:9c:24:f4:b4:00:21:31:
        14:f5:98:07:2a:74:73:2a:8b:c7:1d:50:b2:1c:8b:d8:db:8e:
        50:5f:dd:18:ed:3e:f1:d9:05:33:c6:4e:34:73:f0:55:c6:25:
        16:af:27:d3:be:6e:22:9b:7f:c8:6e:4c:ae:e7:36:90:f8:82:
        a5:c1:e7:ac:be:d7:84:fd:98:88:67:3a:0d:7c:e5:17:9a:75:
        95:25:06:73:99:fe:00:ad:0e:12:75:dc:ac:af:31:23:b7:fd:
        40:b8:0b:9a:4f:07:88:d7:75:69:b9:5a:50:af:68:65:9a:da:
        69:66:2a:18:7e:e2:a8:0a:06:06:30:dc:1d:e9:14:56:75:ed:
        8e:71:6e:ec
-----BEGIN CERTIFICATE-----
MIIEQjCCAyqgAwIBAgIBBTANBgkqhkiG9w0BAQsFADBxMQswCQYDVQQGEwJVUzET
MBEGA1UECAwKQ2FsaWZvcm5pYTEUMBIGA1UEBwwLU2FudGEgQ2xhcmExDTALBgNV
BAoMBHBrZzUxEDAOBgNVBAMMB2NoNF90YTExFjAUBgkqhkiG9w0BCQEWB2NoNF90
YTEwHhcNMjExMDIyMTAxNTA2WhcNMjQwNzE4MTAxNTA2WjBxMQswCQYDVQQGEwJV
UzETMBEGA1UECAwKQ2FsaWZvcm5pYTEUMBIGA1UEBwwLU2FudGEgQ2xhcmExDTAL
BgNVBAoMBHBrZzUxEDAOBgNVBAMMB2NoNV90YTExFjAUBgkqhkiG9w0BCQEWB2No
NV90YTEwggEiMA0GCSqGSIb3DQEBAQUAA4IBDwAwggEKAoIBAQDDXpcHnByh56td
nCs3Toyc0Sc6Qtj5ZqDU4zCyDflfR4iVnZWL0E8JFHUCMoU7fCUcpbN8vbjyFsPr
M+vRd+nlKJhSL8U72pSv7xGxSZ5BD02mdk/lvVCfy1W8lvEtop0+t33YSFbY0W+V
Fdg2jIR/yQndlGqTrMDm9NzrFqU1pwXm+Zd4zwBzvjWOPaHFy10hPaMvXSxi1R1b
bJhO5I51BRUqNaZ07r5tTejeNgdnQha3/QOpu1oj9X0AoRemPkP/io5QTPRfWEfh
mgyC9v1BwM5xFbhvmIq6kgIU2jQtXhJZiNI5RKsB9+g/emDenvR0/RSLKGGrzuwk
fanCZNDpAgMBAAGjgeQwgeEwHQYDVR0OBBYEFCWOGrFIG2Bw4zCPCXo3WtFOJM15
MIGbBgNVHSMEgZMwgZCAFNZRDbDeePdEMDzCHaYD92c5gFcpoXWkczBxMQswCQYD
VQQGEwJVUzETMBEGA1UECAwKQ2FsaWZvcm5pYTEUMBIGA1UEBwwLU2FudGEgQ2xh
cmExDTALBgNVBAoMBHBrZzUxEDAOBgNVBAMMB2NoM190YTExFjAUBgkqhkiG9w0B
CQEWB2NoM190YTGCAQQwEgYDVR0TAQH/BAgwBgEB/wIBADAOBgNVHQ8BAf8EBAMC
AQYwDQYJKoZIhvcNAQELBQADggEBAEzm9I4Ms4Cciz+PTeT/NXJMg4Pvm12PIK9I
W4B5+pM7TbiUWS1wMtVgudh01DT6RUsUWrQnRzM1DKq3/Z5/gIsM9fVPDl7PN7ZF
Hr62i0zDmjDbodt6AZntn7q6oo2dNgFiTmFvQZB8ze5mXC8rCBUe02XGUvQMnCT0
tAAhMRT1mAcqdHMqi8cdULIci9jbjlBf3RjtPvHZBTPGTjRz8FXGJRavJ9O+biKb
f8huTK7nNpD4gqXB56y+14T9mIhnOg185ReadZUlBnOZ/gCtDhJ13KyvMSO3/UC4
C5pPB4jXdWm5WlCvaGWa2mlmKhh+4qgKBgYw3B3pFFZ17Y5xbuw=
-----END CERTIFICATE-----
