Certificate:
    Data:
        Version: 3 (0x2)
        Serial Number: 5 (0x5)
    Signature Algorithm: sha256WithRSAEncryption
        Issuer: C=US, ST=California, L=Santa Clara, O=pkg5, CN=ch4_ta1/emailAddress=ch4_ta1
        Validity
            Not Before: Mar 20 10:20:52 2018 GMT
            Not After : Dec 14 10:20:52 2020 GMT
        Subject: C=US, ST=California, L=Santa Clara, O=pkg5, CN=ch5_ta1/emailAddress=ch5_ta1
        Subject Public Key Info:
            Public Key Algorithm: rsaEncryption
                Public-Key: (2048 bit)
                Modulus:
                    00:e3:27:03:61:6d:7f:34:26:15:97:7c:74:fb:e8:
                    63:ff:92:b1:13:6b:75:95:65:4b:cc:6f:93:db:cc:
                    52:de:d7:01:0d:ce:eb:92:76:ce:b2:09:5b:8b:3e:
                    9c:c0:3e:02:38:4a:c9:f1:b4:41:a5:0f:28:17:de:
                    07:14:4f:a3:c3:d8:93:3b:af:6d:7a:76:5f:ac:f4:
                    b6:b9:69:5c:ee:97:7f:bc:39:5c:2b:a2:5e:59:88:
                    34:b1:36:0a:fe:74:e5:3c:cc:21:e2:ef:18:5e:a5:
                    af:24:9b:a3:a2:62:24:d3:a6:58:bb:21:42:d0:00:
                    ad:dd:59:97:a9:9a:2e:74:07:0d:0e:d5:7d:9f:5b:
                    3c:6f:3a:75:f3:a2:2e:ae:3a:4c:de:04:1d:d8:50:
                    38:5b:45:88:91:c3:46:26:83:2a:b7:2e:be:a7:b7:
                    03:83:d8:c7:23:22:3b:9a:9c:47:a2:3f:ac:35:18:
                    8c:27:87:fc:17:c4:e3:b2:1e:17:15:1b:6c:cf:7f:
                    ab:6a:2f:bd:d4:9d:93:9d:5f:9b:a4:a0:ba:85:00:
                    68:fb:ee:fb:25:4e:a0:02:08:e7:44:c9:56:c4:05:
                    fb:b8:ac:1b:cd:fe:a8:cd:30:62:af:9b:85:f6:d1:
                    b3:36:87:85:c7:c0:d9:bf:28:54:06:74:17:16:ad:
                    e2:9d
                Exponent: 65537 (0x10001)
        X509v3 extensions:
            X509v3 Subject Key Identifier: 
                9D:98:2C:93:2E:10:72:CE:BB:EB:AF:5B:A7:24:10:CE:C7:56:8C:F4
            X509v3 Authority Key Identifier: 
                keyid:27:98:7F:68:04:5A:B7:1E:13:EC:A4:9B:44:90:F6:58:2F:11:03:AD
                DirName:/C=US/ST=California/L=Santa Clara/O=pkg5/CN=ch3_ta1/emailAddress=ch3_ta1
                serial:04

            X509v3 Basic Constraints: critical
                CA:TRUE, pathlen:0
            X509v3 Key Usage: critical
                Certificate Sign, CRL Sign
    Signature Algorithm: sha256WithRSAEncryption
         b9:a0:4b:b5:a5:0b:b9:4f:80:ba:c6:53:73:ff:27:f7:52:80:
         88:49:59:4b:66:26:ab:74:5e:a0:a6:ed:e6:6c:d5:8b:4e:f7:
         cc:2d:eb:75:e7:c4:86:f1:c1:0f:28:43:01:cb:6e:14:a7:8f:
         a2:bc:9c:db:66:b4:a9:6c:cf:ab:be:0c:69:4b:3f:bd:a3:e3:
         ff:db:34:e7:91:25:a7:67:ee:6b:c6:81:fa:1e:26:d1:5e:c5:
         66:eb:28:4f:68:50:e0:9d:ce:d0:58:10:ef:91:75:81:91:ad:
         c9:8a:b6:7a:55:4d:6c:31:cb:ad:99:fd:50:ff:b1:2b:06:fb:
         61:00:0d:a3:10:d5:36:d9:0d:59:d3:e9:f0:17:79:08:ad:6e:
         6b:1a:69:93:93:b8:61:bb:45:4c:d9:7e:e4:c2:be:c1:77:65:
         f8:34:da:b7:61:3d:d1:3d:f1:7d:ac:07:7c:60:b3:1e:27:ab:
         d0:03:b6:f3:9e:8a:e5:b8:cd:c8:94:b8:88:a0:6f:c7:e5:62:
         0a:ee:ff:be:a7:af:32:c8:72:87:17:ab:16:dc:44:8a:df:e0:
         a6:b0:42:1e:3b:9c:e4:3c:89:bb:ca:87:a7:3a:7e:18:70:9d:
         f0:a2:f6:93:05:37:1a:c3:75:79:96:93:2c:8b:b7:09:bb:1b:
         8f:32:2e:6a
-----BEGIN CERTIFICATE-----
MIIEQjCCAyqgAwIBAgIBBTANBgkqhkiG9w0BAQsFADBxMQswCQYDVQQGEwJVUzET
MBEGA1UECAwKQ2FsaWZvcm5pYTEUMBIGA1UEBwwLU2FudGEgQ2xhcmExDTALBgNV
BAoMBHBrZzUxEDAOBgNVBAMMB2NoNF90YTExFjAUBgkqhkiG9w0BCQEWB2NoNF90
YTEwHhcNMTgwMzIwMTAyMDUyWhcNMjAxMjE0MTAyMDUyWjBxMQswCQYDVQQGEwJV
UzETMBEGA1UECAwKQ2FsaWZvcm5pYTEUMBIGA1UEBwwLU2FudGEgQ2xhcmExDTAL
BgNVBAoMBHBrZzUxEDAOBgNVBAMMB2NoNV90YTExFjAUBgkqhkiG9w0BCQEWB2No
NV90YTEwggEiMA0GCSqGSIb3DQEBAQUAA4IBDwAwggEKAoIBAQDjJwNhbX80JhWX
fHT76GP/krETa3WVZUvMb5PbzFLe1wENzuuSds6yCVuLPpzAPgI4SsnxtEGlDygX
3gcUT6PD2JM7r216dl+s9La5aVzul3+8OVwrol5ZiDSxNgr+dOU8zCHi7xhepa8k
m6OiYiTTpli7IULQAK3dWZepmi50Bw0O1X2fWzxvOnXzoi6uOkzeBB3YUDhbRYiR
w0Ymgyq3Lr6ntwOD2McjIjuanEeiP6w1GIwnh/wXxOOyHhcVG2zPf6tqL73UnZOd
X5ukoLqFAGj77vslTqACCOdEyVbEBfu4rBvN/qjNMGKvm4X20bM2h4XHwNm/KFQG
dBcWreKdAgMBAAGjgeQwgeEwHQYDVR0OBBYEFJ2YLJMuEHLOu+uvW6ckEM7HVoz0
MIGbBgNVHSMEgZMwgZCAFCeYf2gEWrceE+ykm0SQ9lgvEQOtoXWkczBxMQswCQYD
VQQGEwJVUzETMBEGA1UECAwKQ2FsaWZvcm5pYTEUMBIGA1UEBwwLU2FudGEgQ2xh
cmExDTALBgNVBAoMBHBrZzUxEDAOBgNVBAMMB2NoM190YTExFjAUBgkqhkiG9w0B
CQEWB2NoM190YTGCAQQwEgYDVR0TAQH/BAgwBgEB/wIBADAOBgNVHQ8BAf8EBAMC
AQYwDQYJKoZIhvcNAQELBQADggEBALmgS7WlC7lPgLrGU3P/J/dSgIhJWUtmJqt0
XqCm7eZs1YtO98wt63XnxIbxwQ8oQwHLbhSnj6K8nNtmtKlsz6u+DGlLP72j4//b
NOeRJadn7mvGgfoeJtFexWbrKE9oUOCdztBYEO+RdYGRrcmKtnpVTWwxy62Z/VD/
sSsG+2EADaMQ1TbZDVnT6fAXeQitbmsaaZOTuGG7RUzZfuTCvsF3Zfg02rdhPdE9
8X2sB3xgsx4nq9ADtvOeiuW4zciUuIigb8flYgru/76nrzLIcocXqxbcRIrf4Kaw
Qh47nOQ8ibvKh6c6fhhwnfCi9pMFNxrDdXmWkyyLtwm7G48yLmo=
-----END CERTIFICATE-----
