Certificate:
    Data:
        Version: 3 (0x2)
        Serial Number: 5 (0x5)
        Signature Algorithm: sha256WithRSAEncryption
        Issuer: C=US, ST=California, L=Santa Clara, O=pkg5, CN=ch4_ta1/emailAddress=ch4_ta1
        Validity
            Not Before: Nov 14 14:26:51 2024 GMT
            Not After : Aug 11 14:26:51 2027 GMT
        Subject: C=US, ST=California, L=Santa Clara, O=pkg5, CN=ch5_ta1/emailAddress=ch5_ta1
        Subject Public Key Info:
            Public Key Algorithm: rsaEncryption
                Public-Key: (2048 bit)
                Modulus:
                    00:b5:1f:7c:2c:9e:ca:ca:f3:c1:e5:ac:b7:6a:01:
                    57:39:a0:e2:b0:c4:41:5c:16:8c:64:6f:c8:c6:84:
                    2f:64:61:db:69:aa:b1:12:b0:0b:70:4b:4d:b3:69:
                    70:6f:18:d6:b6:55:ce:f8:3e:86:2c:ac:d8:0c:98:
                    ff:8c:bd:67:cf:8d:aa:b1:d8:1f:06:00:21:cb:bd:
                    2b:8f:96:9c:1b:1d:e8:08:21:91:5c:9a:35:8d:58:
                    e3:19:a3:b3:1a:24:ac:dd:8f:a5:bd:ed:2b:a6:7b:
                    60:04:93:a2:fc:a4:22:09:91:6e:29:15:7d:62:08:
                    eb:4e:e5:a4:71:4a:3c:db:23:5c:59:e1:10:81:83:
                    5e:2e:32:68:5f:50:46:43:fc:b7:9b:31:1c:79:1a:
                    55:cd:60:4e:60:9c:21:a0:85:af:86:a7:fd:55:04:
                    fb:44:ca:5f:bd:8f:50:5c:88:3a:9c:04:ed:3a:2d:
                    97:d8:f5:ef:da:62:f2:a9:94:a2:ac:d9:b6:e4:39:
                    44:d0:c0:d1:50:66:9c:60:c3:4d:14:bd:61:55:cf:
                    99:ed:3d:98:a9:18:ca:dd:38:7b:8a:ac:c9:38:dc:
                    22:0c:e1:c6:d2:27:06:92:45:8f:17:ee:b9:92:16:
                    87:74:52:34:a7:26:23:4f:ce:76:d5:43:3f:bd:4f:
                    8f:f5
                Exponent: 65537 (0x10001)
        X509v3 extensions:
            X509v3 Subject Key Identifier: 
                D6:AC:B5:CE:15:A5:A5:63:ED:CD:0D:D2:64:2C:B3:B0:31:C4:86:C8
            X509v3 Authority Key Identifier: 
                keyid:16:B2:AA:05:84:89:41:E5:7C:FA:3D:A3:F4:20:3A:23:36:A9:95:08
                DirName:/C=US/ST=California/L=Santa Clara/O=pkg5/CN=ch3_ta1/emailAddress=ch3_ta1
                serial:04
            X509v3 Basic Constraints: critical
                CA:TRUE, pathlen:0
            X509v3 Key Usage: critical
                Certificate Sign, CRL Sign
    Signature Algorithm: sha256WithRSAEncryption
    Signature Value:
        92:39:14:ce:74:44:41:17:09:8f:3e:18:28:71:c7:d0:45:40:
        4f:98:58:fb:87:bc:b6:83:f8:c1:ce:89:b4:c1:bb:08:42:b3:
        37:dc:be:e1:25:77:49:45:1a:2b:7a:36:60:7f:a6:11:22:a3:
        8d:71:c5:3d:54:f2:71:49:0c:56:98:6e:5b:67:ad:82:28:ac:
        6c:cb:44:4d:fe:6b:b5:bf:30:87:a9:bb:ce:20:bd:21:37:52:
        a1:e1:6b:fd:5a:08:15:20:8f:a1:ee:73:0d:1d:c7:48:d7:e8:
        da:59:77:bc:e6:89:b0:55:76:fd:fa:bf:ca:c7:17:b7:95:c0:
        a1:60:be:67:4d:2b:68:45:1b:4e:e6:91:7f:39:4d:9f:1e:07:
        83:a4:0e:38:8b:9b:d0:13:e5:8e:5b:0e:30:2d:99:f1:9e:98:
        60:90:08:f0:1f:04:ba:07:c2:4e:c1:24:7a:65:87:c8:6c:34:
        17:a5:60:0a:85:b8:8e:48:18:fc:ce:2c:b3:e0:d9:06:38:08:
        01:63:38:a1:e8:96:24:91:e9:ed:4b:2d:62:6c:85:f5:7a:30:
        83:38:83:92:9d:1c:1c:4b:b3:87:67:06:a0:ac:0d:18:36:7b:
        eb:8d:43:0e:ad:14:33:db:15:02:79:35:3c:b5:e8:ca:78:22:
        69:9c:db:22
-----BEGIN CERTIFICATE-----
MIIEQjCCAyqgAwIBAgIBBTANBgkqhkiG9w0BAQsFADBxMQswCQYDVQQGEwJVUzET
MBEGA1UECAwKQ2FsaWZvcm5pYTEUMBIGA1UEBwwLU2FudGEgQ2xhcmExDTALBgNV
BAoMBHBrZzUxEDAOBgNVBAMMB2NoNF90YTExFjAUBgkqhkiG9w0BCQEWB2NoNF90
YTEwHhcNMjQxMTE0MTQyNjUxWhcNMjcwODExMTQyNjUxWjBxMQswCQYDVQQGEwJV
UzETMBEGA1UECAwKQ2FsaWZvcm5pYTEUMBIGA1UEBwwLU2FudGEgQ2xhcmExDTAL
BgNVBAoMBHBrZzUxEDAOBgNVBAMMB2NoNV90YTExFjAUBgkqhkiG9w0BCQEWB2No
NV90YTEwggEiMA0GCSqGSIb3DQEBAQUAA4IBDwAwggEKAoIBAQC1H3wsnsrK88Hl
rLdqAVc5oOKwxEFcFoxkb8jGhC9kYdtpqrESsAtwS02zaXBvGNa2Vc74PoYsrNgM
mP+MvWfPjaqx2B8GACHLvSuPlpwbHegIIZFcmjWNWOMZo7MaJKzdj6W97Sume2AE
k6L8pCIJkW4pFX1iCOtO5aRxSjzbI1xZ4RCBg14uMmhfUEZD/LebMRx5GlXNYE5g
nCGgha+Gp/1VBPtEyl+9j1BciDqcBO06LZfY9e/aYvKplKKs2bbkOUTQwNFQZpxg
w00UvWFVz5ntPZipGMrdOHuKrMk43CIM4cbSJwaSRY8X7rmSFod0UjSnJiNPznbV
Qz+9T4/1AgMBAAGjgeQwgeEwHQYDVR0OBBYEFNastc4VpaVj7c0N0mQss7AxxIbI
MIGbBgNVHSMEgZMwgZCAFBayqgWEiUHlfPo9o/QgOiM2qZUIoXWkczBxMQswCQYD
VQQGEwJVUzETMBEGA1UECAwKQ2FsaWZvcm5pYTEUMBIGA1UEBwwLU2FudGEgQ2xh
cmExDTALBgNVBAoMBHBrZzUxEDAOBgNVBAMMB2NoM190YTExFjAUBgkqhkiG9w0B
CQEWB2NoM190YTGCAQQwEgYDVR0TAQH/BAgwBgEB/wIBADAOBgNVHQ8BAf8EBAMC
AQYwDQYJKoZIhvcNAQELBQADggEBAJI5FM50REEXCY8+GChxx9BFQE+YWPuHvLaD
+MHOibTBuwhCszfcvuEld0lFGit6NmB/phEio41xxT1U8nFJDFaYbltnrYIorGzL
RE3+a7W/MIepu84gvSE3UqHha/1aCBUgj6Hucw0dx0jX6NpZd7zmibBVdv36v8rH
F7eVwKFgvmdNK2hFG07mkX85TZ8eB4OkDjiLm9AT5Y5bDjAtmfGemGCQCPAfBLoH
wk7BJHplh8hsNBelYAqFuI5IGPzOLLPg2QY4CAFjOKHoliSR6e1LLWJshfV6MIM4
g5KdHBxLs4dnBqCsDRg2e+uNQw6tFDPbFQJ5NTy16Mp4Immc2yI=
-----END CERTIFICATE-----
