Certificate:
    Data:
        Version: 3 (0x2)
        Serial Number: 5 (0x5)
    Signature Algorithm: sha256WithRSAEncryption
        Issuer: C=US, ST=California, L=Santa Clara, O=pkg5, CN=ch4_ta1/emailAddress=ch4_ta1
        Validity
            Not Before: Nov 28 22:50:55 2016 GMT
            Not After : Aug 25 22:50:55 2019 GMT
        Subject: C=US, ST=California, L=Santa Clara, O=pkg5, CN=ch5_ta1/emailAddress=ch5_ta1
        Subject Public Key Info:
            Public Key Algorithm: rsaEncryption
                Public-Key: (2048 bit)
                Modulus:
                    00:a3:94:6e:ab:88:8c:ac:81:ac:ac:0b:b7:71:11:
                    c1:59:4c:1d:28:3e:90:ed:91:83:c2:50:fd:28:fe:
                    ae:15:38:b0:df:b4:85:6f:88:13:eb:ab:88:f1:a5:
                    cc:37:0e:8e:33:b3:0b:99:ec:1c:77:fa:5f:57:40:
                    1f:c4:71:95:bb:02:2f:9d:cc:5f:32:e4:b6:06:07:
                    0d:0e:63:4e:7f:5d:0e:9c:75:5c:44:d2:1b:72:f6:
                    fe:c0:d7:17:66:62:42:b0:89:96:74:0a:ca:a9:e4:
                    87:b2:b3:b3:f7:5f:dc:63:aa:e0:56:5f:1c:95:49:
                    66:8f:d8:20:8e:d6:60:62:b6:b7:47:29:74:f1:63:
                    7c:d4:65:36:5a:8a:ed:eb:91:95:b2:75:11:eb:5b:
                    3b:58:69:61:61:5d:3a:ba:f7:c4:8f:09:fa:23:14:
                    8b:31:d4:d0:8f:60:45:3e:05:a6:d6:7f:1e:1e:d2:
                    23:68:be:70:e0:c8:b0:77:ca:06:3b:47:ce:45:ee:
                    3d:a5:51:e0:91:46:19:0d:00:c7:9e:c4:7e:70:b0:
                    bf:a2:7f:5e:46:f7:35:62:2a:e8:c8:46:d7:19:e2:
                    fe:36:97:6c:a6:3f:bf:6c:da:88:f5:4e:8d:9f:c0:
                    6b:e2:b1:b2:6f:34:4c:09:31:2c:80:14:e1:3b:7f:
                    2d:c5
                Exponent: 65537 (0x10001)
        X509v3 extensions:
            X509v3 Subject Key Identifier: 
                CE:1D:C4:CF:09:64:1E:A4:F1:44:88:8D:94:A0:85:CC:CA:23:EA:0A
            X509v3 Authority Key Identifier: 
                keyid:A7:85:EE:86:00:F2:4F:F8:1A:E9:FD:A9:7B:33:4E:24:30:2A:44:DB
                DirName:/C=US/ST=California/L=Santa Clara/O=pkg5/CN=ch3_ta1/emailAddress=ch3_ta1
                serial:04

            X509v3 Basic Constraints: critical
                CA:TRUE, pathlen:0
            X509v3 Key Usage: critical
                Certificate Sign, CRL Sign
    Signature Algorithm: sha256WithRSAEncryption
         53:93:2e:df:03:1b:f1:66:0d:f6:01:c0:61:66:16:d0:be:d0:
         a2:4c:7e:1b:f3:e4:f1:f5:d2:1b:6f:5c:19:ea:0f:87:20:7b:
         78:2d:49:01:8c:c6:37:3c:c5:33:40:4b:7e:58:21:78:9b:40:
         c5:18:7e:41:ff:d3:12:c2:d8:5d:ba:f1:19:eb:77:a2:2c:96:
         70:2f:11:36:3e:b9:c0:36:74:22:c9:69:3e:36:b7:7c:4d:08:
         7b:7f:7e:09:46:fb:5b:46:5e:a7:26:48:88:81:bf:9c:8f:e3:
         b8:eb:2f:87:b9:b1:c5:13:e4:4b:15:e2:8f:ab:ef:95:9b:88:
         c1:47:a4:c9:fd:e7:f4:a3:ba:3f:36:9a:05:1e:95:91:a1:4d:
         2e:d0:e9:b9:9e:ad:2e:d7:04:f4:a5:61:51:2c:86:77:07:4c:
         4f:50:c4:9a:a1:50:fc:ce:42:5e:d1:01:9b:e6:4d:24:f6:c0:
         d1:3f:4f:7b:2e:05:8a:c1:6b:c3:0a:53:ef:7d:df:b5:d5:16:
         ce:14:92:e3:98:0b:62:8f:c5:26:22:b4:65:9a:c6:9d:d1:65:
         89:dc:96:84:00:b2:a4:48:9a:ca:82:1a:e7:f3:63:fd:9e:c5:
         45:a6:89:47:d2:08:34:8d:2b:68:3d:4d:b5:55:b9:13:9b:4d:
         21:b3:07:92
-----BEGIN CERTIFICATE-----
MIIEQjCCAyqgAwIBAgIBBTANBgkqhkiG9w0BAQsFADBxMQswCQYDVQQGEwJVUzET
MBEGA1UECAwKQ2FsaWZvcm5pYTEUMBIGA1UEBwwLU2FudGEgQ2xhcmExDTALBgNV
BAoMBHBrZzUxEDAOBgNVBAMMB2NoNF90YTExFjAUBgkqhkiG9w0BCQEWB2NoNF90
YTEwHhcNMTYxMTI4MjI1MDU1WhcNMTkwODI1MjI1MDU1WjBxMQswCQYDVQQGEwJV
UzETMBEGA1UECAwKQ2FsaWZvcm5pYTEUMBIGA1UEBwwLU2FudGEgQ2xhcmExDTAL
BgNVBAoMBHBrZzUxEDAOBgNVBAMMB2NoNV90YTExFjAUBgkqhkiG9w0BCQEWB2No
NV90YTEwggEiMA0GCSqGSIb3DQEBAQUAA4IBDwAwggEKAoIBAQCjlG6riIysgays
C7dxEcFZTB0oPpDtkYPCUP0o/q4VOLDftIVviBPrq4jxpcw3Do4zswuZ7Bx3+l9X
QB/EcZW7Ai+dzF8y5LYGBw0OY05/XQ6cdVxE0hty9v7A1xdmYkKwiZZ0Csqp5Iey
s7P3X9xjquBWXxyVSWaP2CCO1mBitrdHKXTxY3zUZTZaiu3rkZWydRHrWztYaWFh
XTq698SPCfojFIsx1NCPYEU+BabWfx4e0iNovnDgyLB3ygY7R85F7j2lUeCRRhkN
AMeexH5wsL+if15G9zViKujIRtcZ4v42l2ymP79s2oj1To2fwGvisbJvNEwJMSyA
FOE7fy3FAgMBAAGjgeQwgeEwHQYDVR0OBBYEFM4dxM8JZB6k8USIjZSghczKI+oK
MIGbBgNVHSMEgZMwgZCAFKeF7oYA8k/4Gun9qXszTiQwKkTboXWkczBxMQswCQYD
VQQGEwJVUzETMBEGA1UECAwKQ2FsaWZvcm5pYTEUMBIGA1UEBwwLU2FudGEgQ2xh
cmExDTALBgNVBAoMBHBrZzUxEDAOBgNVBAMMB2NoM190YTExFjAUBgkqhkiG9w0B
CQEWB2NoM190YTGCAQQwEgYDVR0TAQH/BAgwBgEB/wIBADAOBgNVHQ8BAf8EBAMC
AQYwDQYJKoZIhvcNAQELBQADggEBAFOTLt8DG/FmDfYBwGFmFtC+0KJMfhvz5PH1
0htvXBnqD4cge3gtSQGMxjc8xTNAS35YIXibQMUYfkH/0xLC2F268Rnrd6IslnAv
ETY+ucA2dCLJaT42t3xNCHt/fglG+1tGXqcmSIiBv5yP47jrL4e5scUT5EsV4o+r
75WbiMFHpMn95/Sjuj82mgUelZGhTS7Q6bmerS7XBPSlYVEshncHTE9QxJqhUPzO
Ql7RAZvmTST2wNE/T3suBYrBa8MKU+9937XVFs4UkuOYC2KPxSYitGWaxp3RZYnc
loQAsqRImsqCGufzY/2exUWmiUfSCDSNK2g9TbVVuRObTSGzB5I=
-----END CERTIFICATE-----
