Certificate Revocation List (CRL):
        Version 1 (0x0)
        Signature Algorithm: sha256WithRSAEncryption
        Issuer: C = US, ST = California, L = Santa Clara, O = pkg5, CN = ch1.1_ta4, emailAddress = ch1.1_ta4
        Last Update: Oct 22 10:15:20 2021 GMT
        Next Update: Jul 18 10:15:20 2024 GMT
Revoked Certificates:
    Serial Number: 07
        Revocation Date: Oct 22 10:15:06 2021 GMT
    Serial Number: 24
        Revocation Date: Oct 22 10:15:18 2021 GMT
    Serial Number: 28
        Revocation Date: Oct 22 10:15:20 2021 GMT
    Signature Algorithm: sha256WithRSAEncryption
    Signature Value:
        63:a0:13:af:db:27:7a:13:35:68:c9:01:c7:bc:fc:23:0a:54:
        b6:47:92:4e:0a:03:a0:f2:f2:e4:1d:b1:5d:54:69:0b:90:92:
        4c:75:9d:74:b8:f8:6f:09:64:80:d9:27:82:d0:b4:05:3d:d7:
        35:5d:b3:e6:06:b8:dd:2f:54:b0:cb:40:45:07:3c:a9:ba:6d:
        84:ae:b6:69:45:f0:9c:67:0a:b0:91:f1:5a:80:89:34:da:5d:
        39:67:e3:14:75:ca:f6:df:c6:e4:47:19:66:f0:a5:6d:d4:41:
        b5:24:a7:1c:16:92:32:5d:85:2e:c2:d6:15:8c:42:ae:f2:c6:
        80:8e:a7:0c:c9:b7:51:14:6d:2c:f7:66:14:ed:1e:d9:94:da:
        ad:c7:3d:86:6c:b1:06:34:2d:fd:e2:e8:46:7d:78:c3:40:4d:
        e8:83:fb:fc:8b:96:f7:cc:cc:b2:7f:3c:d2:dc:7b:ce:17:c3:
        93:af:ff:7e:0b:4f:bc:dc:57:1c:53:aa:9f:4f:a1:a5:dd:cc:
        05:cb:df:31:49:08:71:8d:ec:cd:ce:43:55:9f:fa:19:4b:09:
        b6:b9:aa:2e:3d:42:55:ba:06:01:89:21:e3:9e:1b:eb:5a:dd:
        3d:b2:7b:14:08:41:87:b1:b1:e6:ed:8d:ab:30:75:fe:51:13:
        37:8a:b0:3f
-----BEGIN X509 CRL-----
MIIB+TCB4jANBgkqhkiG9w0BAQsFADB1MQswCQYDVQQGEwJVUzETMBEGA1UECAwK
Q2FsaWZvcm5pYTEUMBIGA1UEBwwLU2FudGEgQ2xhcmExDTALBgNVBAoMBHBrZzUx
EjAQBgNVBAMMCWNoMS4xX3RhNDEYMBYGCSqGSIb3DQEJARYJY2gxLjFfdGE0Fw0y
MTEwMjIxMDE1MjBaFw0yNDA3MTgxMDE1MjBaMDwwEgIBBxcNMjExMDIyMTAxNTA2
WjASAgEkFw0yMTEwMjIxMDE1MThaMBICASgXDTIxMTAyMjEwMTUyMFowDQYJKoZI
hvcNAQELBQADggEBAGOgE6/bJ3oTNWjJAce8/CMKVLZHkk4KA6Dy8uQdsV1UaQuQ
kkx1nXS4+G8JZIDZJ4LQtAU91zVds+YGuN0vVLDLQEUHPKm6bYSutmlF8JxnCrCR
8VqAiTTaXTln4xR1yvbfxuRHGWbwpW3UQbUkpxwWkjJdhS7C1hWMQq7yxoCOpwzJ
t1EUbSz3ZhTtHtmU2q3HPYZssQY0Lf3i6EZ9eMNATeiD+/yLlvfMzLJ/PNLce84X
w5Ov/34LT7zcVxxTqp9PoaXdzAXL3zFJCHGN7M3OQ1Wf+hlLCba5qi49QlW6BgGJ
IeOeG+ta3T2yexQIQYexsebtjaswdf5REzeKsD8=
-----END X509 CRL-----
