Certificate Revocation List (CRL):
        Version 1 (0x0)
        Signature Algorithm: sha256WithRSAEncryption
        Issuer: C = US, ST = California, L = Santa Clara, O = pkg5, CN = ch1.1_ta4, emailAddress = ch1.1_ta4
        Last Update: May 23 15:47:21 2024 GMT
        Next Update: Feb 17 15:47:21 2027 GMT
Revoked Certificates:
    Serial Number: 07
        Revocation Date: May 23 15:47:15 2024 GMT
    Serial Number: 24
        Revocation Date: May 23 15:47:21 2024 GMT
    Serial Number: 28
        Revocation Date: May 23 15:47:21 2024 GMT
    Signature Algorithm: sha256WithRSAEncryption
    Signature Value:
        67:6a:60:09:d6:ee:4d:d9:fe:ab:e8:b3:7e:54:76:6b:ce:87:
        e6:e2:7e:55:fb:f5:3c:eb:9f:c8:ec:c1:37:1e:1a:52:13:21:
        ae:11:6e:c1:a2:91:ae:02:45:6a:c9:e1:fc:3d:b7:77:56:e6:
        f1:e4:14:e3:03:2f:1c:e7:6b:44:11:5e:2e:2f:50:bf:a0:0c:
        88:4f:13:d9:48:13:f8:dd:0d:77:14:6b:c7:35:9a:91:fc:a5:
        2a:ef:ea:a5:d2:d7:2f:5f:0a:02:5a:75:6b:6a:df:0d:c5:03:
        57:51:6d:01:39:9d:dd:b4:4e:a3:43:bd:e2:6f:f2:d5:a4:27:
        96:32:ea:1d:d4:2f:29:0f:b6:db:a4:20:82:73:1c:e7:fc:43:
        8e:8c:c8:2e:7a:29:ac:96:b5:aa:3d:ce:c0:d4:13:5d:4f:e5:
        da:2a:34:45:2a:4d:61:63:d0:06:82:c6:ff:1a:19:9e:f0:93:
        7a:fd:23:bb:59:21:53:df:74:8e:5f:c3:f4:33:81:fe:48:55:
        f1:c5:8a:dc:a7:5f:46:c5:ab:d4:b6:c6:17:6d:00:9f:da:1c:
        e2:93:a0:2e:da:d5:71:e7:80:48:8a:88:4a:cf:18:b6:b6:a7:
        42:c4:35:60:64:84:e2:e5:fb:32:52:38:74:4d:f9:3f:7d:64:
        ef:34:24:c7
-----BEGIN X509 CRL-----
MIIB+TCB4jANBgkqhkiG9w0BAQsFADB1MQswCQYDVQQGEwJVUzETMBEGA1UECAwK
Q2FsaWZvcm5pYTEUMBIGA1UEBwwLU2FudGEgQ2xhcmExDTALBgNVBAoMBHBrZzUx
EjAQBgNVBAMMCWNoMS4xX3RhNDEYMBYGCSqGSIb3DQEJARYJY2gxLjFfdGE0Fw0y
NDA1MjMxNTQ3MjFaFw0yNzAyMTcxNTQ3MjFaMDwwEgIBBxcNMjQwNTIzMTU0NzE1
WjASAgEkFw0yNDA1MjMxNTQ3MjFaMBICASgXDTI0MDUyMzE1NDcyMVowDQYJKoZI
hvcNAQELBQADggEBAGdqYAnW7k3Z/qvos35UdmvOh+biflX79Tzrn8jswTceGlIT
Ia4RbsGika4CRWrJ4fw9t3dW5vHkFOMDLxzna0QRXi4vUL+gDIhPE9lIE/jdDXcU
a8c1mpH8pSrv6qXS1y9fCgJadWtq3w3FA1dRbQE5nd20TqNDveJv8tWkJ5Yy6h3U
LykPttukIIJzHOf8Q46MyC56KayWtao9zsDUE11P5doqNEUqTWFj0AaCxv8aGZ7w
k3r9I7tZIVPfdI5fw/Qzgf5IVfHFitynX0bFq9S2xhdtAJ/aHOKToC7a1XHngEiK
iErPGLa2p0LENWBkhOLl+zJSOHRN+T99ZO80JMc=
-----END X509 CRL-----
