Certificate Revocation List (CRL):
        Version 1 (0x0)
    Signature Algorithm: sha256WithRSAEncryption
        Issuer: /C=US/ST=California/L=Santa Clara/O=pkg5/CN=ch1.1_ta4/emailAddress=ch1.1_ta4
        Last Update: Nov 28 22:50:58 2016 GMT
        Next Update: Aug 25 22:50:58 2019 GMT
Revoked Certificates:
    Serial Number: 07
        Revocation Date: Nov 28 22:50:55 2016 GMT
    Serial Number: 23
        Revocation Date: Nov 28 22:50:57 2016 GMT
    Serial Number: 27
        Revocation Date: Nov 28 22:50:58 2016 GMT
    Signature Algorithm: sha256WithRSAEncryption
         67:04:a8:19:f9:f0:54:f1:7e:40:62:33:5c:ed:73:77:1a:79:
         61:4a:3a:31:f5:ab:01:8f:58:dd:f5:e4:8d:06:c7:6a:13:bd:
         6a:4d:f4:01:a4:fa:01:ab:28:34:84:45:f2:f3:79:4a:8c:78:
         3b:78:e2:e8:e7:01:21:7d:00:3a:7c:17:3e:33:5a:ca:6c:ac:
         9d:81:f9:08:07:75:91:90:e9:28:4d:e6:f0:9e:3d:25:6a:df:
         a2:b3:40:28:99:7a:ed:bf:ae:55:1d:7a:43:bd:bd:77:bf:f1:
         9c:61:27:14:79:78:af:44:4f:fa:63:c7:15:fe:55:89:d0:5a:
         a4:cc:df:60:88:0e:c4:a5:c5:13:0d:d0:9d:76:a5:e3:d6:e4:
         2f:c1:66:37:ff:b5:c3:64:df:a5:28:59:6d:9d:1d:46:26:ec:
         74:f6:7c:82:16:19:75:dc:0e:8b:10:05:1e:2a:a5:55:b9:d0:
         1a:75:a1:92:36:98:b9:84:2b:f5:c5:f6:47:fd:0f:92:34:9e:
         28:5f:29:7b:75:89:d4:28:3c:d3:e6:21:e2:61:b4:28:af:4e:
         3b:be:d7:77:57:8b:e6:72:d9:fb:83:25:ac:8d:0d:b7:c2:77:
         5e:22:0e:51:af:41:3c:af:d3:01:9e:b1:d2:1f:7a:50:8c:7e:
         ca:cc:90:c2
-----BEGIN X509 CRL-----
MIIB+TCB4jANBgkqhkiG9w0BAQsFADB1MQswCQYDVQQGEwJVUzETMBEGA1UECAwK
Q2FsaWZvcm5pYTEUMBIGA1UEBwwLU2FudGEgQ2xhcmExDTALBgNVBAoMBHBrZzUx
EjAQBgNVBAMMCWNoMS4xX3RhNDEYMBYGCSqGSIb3DQEJARYJY2gxLjFfdGE0Fw0x
NjExMjgyMjUwNThaFw0xOTA4MjUyMjUwNThaMDwwEgIBBxcNMTYxMTI4MjI1MDU1
WjASAgEjFw0xNjExMjgyMjUwNTdaMBICAScXDTE2MTEyODIyNTA1OFowDQYJKoZI
hvcNAQELBQADggEBAGcEqBn58FTxfkBiM1ztc3caeWFKOjH1qwGPWN315I0Gx2oT
vWpN9AGk+gGrKDSERfLzeUqMeDt44ujnASF9ADp8Fz4zWspsrJ2B+QgHdZGQ6ShN
5vCePSVq36KzQCiZeu2/rlUdekO9vXe/8ZxhJxR5eK9ET/pjxxX+VYnQWqTM32CI
DsSlxRMN0J12pePW5C/BZjf/tcNk36UoWW2dHUYm7HT2fIIWGXXcDosQBR4qpVW5
0Bp1oZI2mLmEK/XF9kf9D5I0nihfKXt1idQoPNPmIeJhtCivTju+13dXi+Zy2fuD
JayNDbfCd14iDlGvQTyv0wGesdIfelCMfsrMkMI=
-----END X509 CRL-----
