Certificate Revocation List (CRL):
        Version 1 (0x0)
        Signature Algorithm: sha256WithRSAEncryption
        Issuer: C = US, ST = California, L = Santa Clara, O = pkg5, CN = ch1.1_ta4, emailAddress = ch1.1_ta4
        Last Update: Dec 15 15:37:30 2022 GMT
        Next Update: Sep 10 15:37:30 2025 GMT
Revoked Certificates:
    Serial Number: 07
        Revocation Date: Dec 15 15:37:17 2022 GMT
    Serial Number: 24
        Revocation Date: Dec 15 15:37:28 2022 GMT
    Serial Number: 28
        Revocation Date: Dec 15 15:37:30 2022 GMT
    Signature Algorithm: sha256WithRSAEncryption
    Signature Value:
        17:40:0d:5a:71:57:51:0b:47:75:6b:89:a2:4c:2d:19:4d:0f:
        fe:6a:e9:17:f5:68:7d:b2:fb:ed:8b:43:13:a4:e4:f2:af:e5:
        dd:6c:07:8b:54:3a:78:53:d3:07:5c:6a:ea:7e:42:8f:cb:ff:
        57:52:11:f2:9b:7d:fe:a7:d0:46:b8:27:c6:4d:b3:a5:c6:14:
        d2:d7:b1:52:4e:dd:82:4d:72:92:d8:42:ed:6c:70:28:07:6d:
        33:e3:d0:40:1e:a5:54:f8:23:e0:e8:f9:ee:55:52:53:d4:6d:
        37:1c:ff:f5:27:22:a4:ac:04:56:1a:ca:d8:8b:05:96:6f:3a:
        34:f8:47:45:ee:f1:61:de:a5:f4:70:f5:85:2b:ec:99:68:8a:
        63:08:73:b6:2c:90:9c:56:3c:0b:60:c7:19:11:08:2a:8b:5c:
        e8:0b:9f:65:96:18:9a:77:7a:59:19:ac:e3:9e:f8:e2:df:03:
        2d:43:2b:db:19:f9:57:99:e5:a8:8e:a9:9a:ac:dc:5e:3e:25:
        27:b8:a2:f2:04:f1:4d:2d:48:99:22:fd:0d:75:f6:6c:54:ec:
        67:0b:82:3f:50:04:d5:5d:0f:db:96:9b:01:71:ed:46:70:65:
        07:d6:15:77:93:a4:00:44:21:e6:08:e6:f3:ba:7c:bf:14:36:
        38:ca:04:f9
-----BEGIN X509 CRL-----
MIIB+TCB4jANBgkqhkiG9w0BAQsFADB1MQswCQYDVQQGEwJVUzETMBEGA1UECAwK
Q2FsaWZvcm5pYTEUMBIGA1UEBwwLU2FudGEgQ2xhcmExDTALBgNVBAoMBHBrZzUx
EjAQBgNVBAMMCWNoMS4xX3RhNDEYMBYGCSqGSIb3DQEJARYJY2gxLjFfdGE0Fw0y
MjEyMTUxNTM3MzBaFw0yNTA5MTAxNTM3MzBaMDwwEgIBBxcNMjIxMjE1MTUzNzE3
WjASAgEkFw0yMjEyMTUxNTM3MjhaMBICASgXDTIyMTIxNTE1MzczMFowDQYJKoZI
hvcNAQELBQADggEBABdADVpxV1ELR3VriaJMLRlND/5q6Rf1aH2y++2LQxOk5PKv
5d1sB4tUOnhT0wdcaup+Qo/L/1dSEfKbff6n0Ea4J8ZNs6XGFNLXsVJO3YJNcpLY
Qu1scCgHbTPj0EAepVT4I+Do+e5VUlPUbTcc//UnIqSsBFYaytiLBZZvOjT4R0Xu
8WHepfRw9YUr7JloimMIc7YskJxWPAtgxxkRCCqLXOgLn2WWGJp3elkZrOOe+OLf
Ay1DK9sZ+VeZ5aiOqZqs3F4+JSe4ovIE8U0tSJki/Q119mxU7GcLgj9QBNVdD9uW
mwFx7UZwZQfWFXeTpABEIeYI5vO6fL8UNjjKBPk=
-----END X509 CRL-----
