Certificate Revocation List (CRL):
        Version 1 (0x0)
    Signature Algorithm: sha256WithRSAEncryption
        Issuer: /C=US/ST=California/L=Santa Clara/O=pkg5/CN=ch1.1_ta4/emailAddress=ch1.1_ta4
        Last Update: Mar 20 10:20:55 2018 GMT
        Next Update: Dec 14 10:20:55 2020 GMT
Revoked Certificates:
    Serial Number: 07
        Revocation Date: Mar 20 10:20:52 2018 GMT
    Serial Number: 24
        Revocation Date: Mar 20 10:20:55 2018 GMT
    Serial Number: 28
        Revocation Date: Mar 20 10:20:55 2018 GMT
    Signature Algorithm: sha256WithRSAEncryption
         60:75:0b:d2:7e:2b:25:b8:1c:87:be:44:7c:ce:23:6b:d4:ec:
         5c:be:42:b0:31:23:7b:e6:39:86:6e:a5:f7:58:ce:ff:ba:a5:
         26:08:3c:27:54:3b:9d:c8:06:d7:2b:f3:02:05:ae:86:ce:59:
         80:04:38:6f:81:92:86:52:c9:90:d5:77:3e:48:20:08:f6:96:
         78:52:6d:11:6e:8d:74:17:44:01:f3:4b:db:ab:4a:52:1b:0e:
         67:39:ab:e3:bf:25:1a:69:a4:21:58:07:ad:d3:68:27:13:01:
         49:e4:cb:dd:cb:18:6e:1b:e0:4c:b6:b6:38:82:2c:cd:99:20:
         83:48:52:17:12:11:7a:f8:bd:a5:41:c4:0a:92:85:ca:e1:ec:
         e7:0e:53:83:ed:2f:57:3d:54:ad:91:67:c1:82:3a:04:e5:9a:
         e6:4e:52:1e:14:b2:3f:3b:02:da:b8:f9:b3:a5:25:d7:e9:06:
         77:56:7a:f1:70:73:a0:38:48:1f:48:f8:66:57:ef:a9:07:9c:
         5c:f8:66:fd:94:5e:7e:75:dd:30:08:2d:25:35:90:77:40:6d:
         6f:9a:ea:c1:34:6b:ff:91:11:23:c4:73:0b:48:64:3b:28:28:
         19:7b:e1:b7:68:59:79:a1:19:45:d1:6d:6d:bf:23:e7:bc:bb:
         64:6b:67:58
-----BEGIN X509 CRL-----
MIIB+TCB4jANBgkqhkiG9w0BAQsFADB1MQswCQYDVQQGEwJVUzETMBEGA1UECAwK
Q2FsaWZvcm5pYTEUMBIGA1UEBwwLU2FudGEgQ2xhcmExDTALBgNVBAoMBHBrZzUx
EjAQBgNVBAMMCWNoMS4xX3RhNDEYMBYGCSqGSIb3DQEJARYJY2gxLjFfdGE0Fw0x
ODAzMjAxMDIwNTVaFw0yMDEyMTQxMDIwNTVaMDwwEgIBBxcNMTgwMzIwMTAyMDUy
WjASAgEkFw0xODAzMjAxMDIwNTVaMBICASgXDTE4MDMyMDEwMjA1NVowDQYJKoZI
hvcNAQELBQADggEBAGB1C9J+KyW4HIe+RHzOI2vU7Fy+QrAxI3vmOYZupfdYzv+6
pSYIPCdUO53IBtcr8wIFrobOWYAEOG+BkoZSyZDVdz5IIAj2lnhSbRFujXQXRAHz
S9urSlIbDmc5q+O/JRpppCFYB63TaCcTAUnky93LGG4b4Ey2tjiCLM2ZIINIUhcS
EXr4vaVBxAqShcrh7OcOU4PtL1c9VK2RZ8GCOgTlmuZOUh4Usj87Atq4+bOlJdfp
BndWevFwc6A4SB9I+GZX76kHnFz4Zv2UXn513TAILSU1kHdAbW+a6sE0a/+RESPE
cwtIZDsoKBl74bdoWXmhGUXRbW2/I+e8u2RrZ1g=
-----END X509 CRL-----
