Certificate Revocation List (CRL):
        Version 1 (0x0)
    Signature Algorithm: sha256WithRSAEncryption
        Issuer: /C=US/ST=California/L=Santa Clara/O=pkg5/CN=ch1.1_ta4/emailAddress=ch1.1_ta4
        Last Update: Dec  6 03:06:43 2014 GMT
        Next Update: Sep  1 03:06:43 2017 GMT
Revoked Certificates:
    Serial Number: 07
        Revocation Date: Dec  6 03:06:42 2014 GMT
    Serial Number: 23
        Revocation Date: Dec  6 03:06:43 2014 GMT
    Serial Number: 27
        Revocation Date: Dec  6 03:06:43 2014 GMT
    Signature Algorithm: sha256WithRSAEncryption
         89:75:23:b1:89:52:83:5a:a0:64:91:73:d2:7b:d6:0d:ee:eb:
         0b:08:27:ed:0d:4a:58:74:6b:2d:8b:54:2e:a0:bc:1b:22:e5:
         ab:3b:36:67:8d:80:a3:23:ce:eb:50:95:4b:cb:a3:d0:63:e4:
         a1:d4:15:c7:ed:be:de:46:de:24:12:18:69:d6:49:52:1c:1d:
         4a:47:7a:0e:a4:b3:f3:4f:ef:a6:15:e0:87:db:8b:50:b7:09:
         e8:08:28:79:7e:4f:6e:ab:6f:64:68:d3:cc:6e:d9:47:e6:ae:
         bf:72:41:4c:6c:b2:ef:d3:2a:1e:c9:c4:e4:21:6d:8c:47:d2:
         a4:d4
-----BEGIN X509 CRL-----
MIIBeDCB4jANBgkqhkiG9w0BAQsFADB1MQswCQYDVQQGEwJVUzETMBEGA1UECAwK
Q2FsaWZvcm5pYTEUMBIGA1UEBwwLU2FudGEgQ2xhcmExDTALBgNVBAoMBHBrZzUx
EjAQBgNVBAMMCWNoMS4xX3RhNDEYMBYGCSqGSIb3DQEJARYJY2gxLjFfdGE0Fw0x
NDEyMDYwMzA2NDNaFw0xNzA5MDEwMzA2NDNaMDwwEgIBBxcNMTQxMjA2MDMwNjQy
WjASAgEjFw0xNDEyMDYwMzA2NDNaMBICAScXDTE0MTIwNjAzMDY0M1owDQYJKoZI
hvcNAQELBQADgYEAiXUjsYlSg1qgZJFz0nvWDe7rCwgn7Q1KWHRrLYtULqC8GyLl
qzs2Z42AoyPO61CVS8uj0GPkodQVx+2+3kbeJBIYadZJUhwdSkd6DqSz80/vphXg
h9uLULcJ6AgoeX5PbqtvZGjTzG7ZR+auv3JBTGyy79MqHsnE5CFtjEfSpNQ=
-----END X509 CRL-----
