Certificate Revocation List (CRL):
        Version 1 (0x0)
        Signature Algorithm: sha256WithRSAEncryption
        Issuer: C=US, ST=California, L=Santa Clara, O=pkg5, CN=ch1.1_ta4, emailAddress=ch1.1_ta4
        Last Update: Nov 14 14:26:57 2024 GMT
        Next Update: Aug 11 14:26:57 2027 GMT
Revoked Certificates:
    Serial Number: 07
        Revocation Date: Nov 14 14:26:52 2024 GMT
    Serial Number: 24
        Revocation Date: Nov 14 14:26:57 2024 GMT
    Serial Number: 28
        Revocation Date: Nov 14 14:26:57 2024 GMT
    Signature Algorithm: sha256WithRSAEncryption
    Signature Value:
        92:47:6c:94:1d:de:3f:29:03:a6:52:dd:4f:4f:a6:30:d6:e8:
        3a:60:c8:79:6e:c8:6c:e6:60:16:4a:b4:0c:a7:d5:1a:dd:64:
        8b:cc:0e:05:69:95:6e:d1:49:f8:4c:b5:fe:36:f3:27:bc:e7:
        ed:8d:a5:2b:e7:e2:36:82:7a:a3:c8:dc:80:03:83:47:16:53:
        85:5c:18:f5:3b:b9:04:a4:db:e7:95:25:0c:11:88:5d:fb:70:
        8c:3c:e4:03:bf:db:fe:39:b1:07:9d:d6:03:ee:37:13:db:db:
        ee:fd:33:54:2a:e1:82:70:a7:ca:45:a2:cb:51:af:ba:07:db:
        78:ee:81:f7:5f:5f:14:7f:b9:2e:b2:3d:22:5b:e0:e1:e4:e4:
        c0:c3:e5:ff:99:7f:c5:d9:87:da:3c:c3:99:5e:73:8b:e1:b0:
        05:b8:4b:e5:d7:96:cd:f6:f6:37:7c:09:36:3d:f6:9f:56:ce:
        79:3d:57:c3:3a:7f:66:eb:3f:ff:d2:66:3a:e6:a0:02:bb:11:
        32:f7:5b:06:e5:84:18:bf:ab:0f:06:15:07:65:85:00:dc:83:
        60:de:94:6e:7e:1d:3a:01:88:51:89:ce:88:77:cf:b0:54:6b:
        71:e4:b9:c8:56:77:e9:c4:d3:82:11:a7:7d:7c:34:fa:d0:b3:
        9d:79:a8:4b
-----BEGIN X509 CRL-----
MIIB+TCB4jANBgkqhkiG9w0BAQsFADB1MQswCQYDVQQGEwJVUzETMBEGA1UECAwK
Q2FsaWZvcm5pYTEUMBIGA1UEBwwLU2FudGEgQ2xhcmExDTALBgNVBAoMBHBrZzUx
EjAQBgNVBAMMCWNoMS4xX3RhNDEYMBYGCSqGSIb3DQEJARYJY2gxLjFfdGE0Fw0y
NDExMTQxNDI2NTdaFw0yNzA4MTExNDI2NTdaMDwwEgIBBxcNMjQxMTE0MTQyNjUy
WjASAgEkFw0yNDExMTQxNDI2NTdaMBICASgXDTI0MTExNDE0MjY1N1owDQYJKoZI
hvcNAQELBQADggEBAJJHbJQd3j8pA6ZS3U9PpjDW6DpgyHluyGzmYBZKtAyn1Rrd
ZIvMDgVplW7RSfhMtf428ye85+2NpSvn4jaCeqPI3IADg0cWU4VcGPU7uQSk2+eV
JQwRiF37cIw85AO/2/45sQed1gPuNxPb2+79M1Qq4YJwp8pFostRr7oH23jugfdf
XxR/uS6yPSJb4OHk5MDD5f+Zf8XZh9o8w5lec4vhsAW4S+XXls329jd8CTY99p9W
znk9V8M6f2brP//SZjrmoAK7ETL3WwblhBi/qw8GFQdlhQDcg2DelG5+HToBiFGJ
zoh3z7BUa3HkuchWd+nE04IRp318NPrQs515qEs=
-----END X509 CRL-----
