Certificate Revocation List (CRL):
        Version 1 (0x0)
        Signature Algorithm: sha256WithRSAEncryption
        Issuer: C = US, ST = California, L = Santa Clara, O = pkg5, CN = ch1.1_ta4, emailAddress = ch1.1_ta4
        Last Update: Nov 17 23:01:33 2020 GMT
        Next Update: Aug 14 23:01:33 2023 GMT
Revoked Certificates:
    Serial Number: 07
        Revocation Date: Nov 17 23:01:28 2020 GMT
    Serial Number: 24
        Revocation Date: Nov 17 23:01:32 2020 GMT
    Serial Number: 28
        Revocation Date: Nov 17 23:01:33 2020 GMT
    Signature Algorithm: sha256WithRSAEncryption
         3a:45:ca:53:08:b8:fc:66:30:48:e1:30:90:08:43:0f:93:7b:
         86:b2:1a:79:18:4d:1f:fb:61:c9:ee:c0:2f:36:7c:23:9f:f2:
         34:b4:3b:bf:5f:f4:3c:2a:d1:f9:39:bc:78:e5:1f:43:cd:a6:
         d2:c0:9c:df:46:26:c8:1a:39:00:34:70:5c:aa:30:e9:12:57:
         b7:42:04:78:cf:28:f0:81:96:68:87:c0:7b:cf:e2:7e:37:3b:
         9f:66:51:18:95:48:f3:dc:6e:b9:cf:15:9d:4f:c0:11:b1:ca:
         e9:b1:f5:cd:b8:d8:70:ed:d9:0d:34:35:cc:6d:5a:43:5f:9f:
         60:43:80:4c:45:39:61:67:a4:ab:ac:83:35:57:85:db:96:9d:
         5f:94:b3:40:85:1f:50:33:31:5e:78:b7:f1:ac:27:03:5e:7b:
         b0:5f:d0:2b:5f:61:13:89:76:8d:cf:f2:59:85:e0:03:b4:97:
         ac:58:06:21:5a:86:16:12:5d:75:df:49:37:82:93:0c:ff:74:
         0a:99:92:1b:cf:6f:0b:95:dc:04:36:76:4a:32:3f:bf:06:65:
         fe:33:3a:99:bc:e3:11:e4:de:17:01:82:58:32:91:57:11:c8:
         6b:05:e9:4e:42:5d:59:aa:bd:f4:b3:35:64:fa:0e:3d:af:0c:
         cd:64:b6:94
-----BEGIN X509 CRL-----
MIIB+TCB4jANBgkqhkiG9w0BAQsFADB1MQswCQYDVQQGEwJVUzETMBEGA1UECAwK
Q2FsaWZvcm5pYTEUMBIGA1UEBwwLU2FudGEgQ2xhcmExDTALBgNVBAoMBHBrZzUx
EjAQBgNVBAMMCWNoMS4xX3RhNDEYMBYGCSqGSIb3DQEJARYJY2gxLjFfdGE0Fw0y
MDExMTcyMzAxMzNaFw0yMzA4MTQyMzAxMzNaMDwwEgIBBxcNMjAxMTE3MjMwMTI4
WjASAgEkFw0yMDExMTcyMzAxMzJaMBICASgXDTIwMTExNzIzMDEzM1owDQYJKoZI
hvcNAQELBQADggEBADpFylMIuPxmMEjhMJAIQw+Te4ayGnkYTR/7YcnuwC82fCOf
8jS0O79f9Dwq0fk5vHjlH0PNptLAnN9GJsgaOQA0cFyqMOkSV7dCBHjPKPCBlmiH
wHvP4n43O59mURiVSPPcbrnPFZ1PwBGxyumx9c242HDt2Q00NcxtWkNfn2BDgExF
OWFnpKusgzVXhduWnV+Us0CFH1AzMV54t/GsJwNee7Bf0CtfYROJdo3P8lmF4AO0
l6xYBiFahhYSXXXfSTeCkwz/dAqZkhvPbwuV3AQ2dkoyP78GZf4zOpm84xHk3hcB
glgykVcRyGsF6U5CXVmqvfSzNWT6Dj2vDM1ktpQ=
-----END X509 CRL-----
