Certificate Revocation List (CRL):
        Version 1 (0x0)
    Signature Algorithm: sha256WithRSAEncryption
        Issuer: /C=US/ST=California/L=Santa Clara/O=pkg5/CN=ch1.1_ta4/emailAddress=ch1.1_ta4
        Last Update: Nov 16 10:58:50 2017 GMT
        Next Update: Aug 12 10:58:50 2020 GMT
Revoked Certificates:
    Serial Number: 07
        Revocation Date: Nov 16 10:58:47 2017 GMT
    Serial Number: 24
        Revocation Date: Nov 16 10:58:50 2017 GMT
    Serial Number: 28
        Revocation Date: Nov 16 10:58:50 2017 GMT
    Signature Algorithm: sha256WithRSAEncryption
         8d:53:88:f0:4f:f0:a9:60:85:da:32:1c:e8:df:01:8e:b7:71:
         c0:46:da:76:f9:2d:2b:1c:51:02:28:b9:b0:07:83:a6:df:4f:
         de:7b:54:bb:63:a0:f9:cd:e3:40:7c:4d:d0:e7:f2:4b:5b:13:
         2b:6e:1a:28:aa:e2:9f:07:b0:c1:11:0d:bd:86:33:08:fc:9e:
         eb:15:17:85:d2:86:70:5a:3a:cb:0e:3e:ef:a3:e1:25:c2:82:
         80:06:e8:98:62:30:be:64:83:f8:85:10:18:be:42:4a:d2:66:
         22:f0:f3:d7:9c:ea:29:77:b1:ed:3e:a1:7d:27:27:f3:73:67:
         f8:76:37:78:87:c6:09:20:db:4f:16:ef:f6:78:55:7a:ed:31:
         df:75:52:fe:3c:f8:70:e6:c0:d3:27:3c:69:fd:54:3b:3c:98:
         99:1c:9b:56:76:c6:c9:3e:4a:81:f3:a4:1b:f1:9c:8c:48:b2:
         41:04:df:e3:b3:34:71:f9:9f:12:7c:1a:93:1f:b5:58:d8:c2:
         dd:ef:76:f3:91:d8:ca:0a:89:55:a1:0f:e4:05:34:0d:dc:b1:
         ff:b1:60:dd:d9:ca:88:c1:42:e6:ed:8d:ed:94:4f:ce:6e:79:
         3f:d1:af:2c:df:4e:2d:ea:13:3e:6d:ea:fe:8b:4e:7a:a6:cd:
         15:1a:11:59
-----BEGIN X509 CRL-----
MIIB+TCB4jANBgkqhkiG9w0BAQsFADB1MQswCQYDVQQGEwJVUzETMBEGA1UECAwK
Q2FsaWZvcm5pYTEUMBIGA1UEBwwLU2FudGEgQ2xhcmExDTALBgNVBAoMBHBrZzUx
EjAQBgNVBAMMCWNoMS4xX3RhNDEYMBYGCSqGSIb3DQEJARYJY2gxLjFfdGE0Fw0x
NzExMTYxMDU4NTBaFw0yMDA4MTIxMDU4NTBaMDwwEgIBBxcNMTcxMTE2MTA1ODQ3
WjASAgEkFw0xNzExMTYxMDU4NTBaMBICASgXDTE3MTExNjEwNTg1MFowDQYJKoZI
hvcNAQELBQADggEBAI1TiPBP8KlghdoyHOjfAY63ccBG2nb5LSscUQIoubAHg6bf
T957VLtjoPnN40B8TdDn8ktbEytuGiiq4p8HsMERDb2GMwj8nusVF4XShnBaOssO
Pu+j4SXCgoAG6JhiML5kg/iFEBi+QkrSZiLw89ec6il3se0+oX0nJ/NzZ/h2N3iH
xgkg208W7/Z4VXrtMd91Uv48+HDmwNMnPGn9VDs8mJkcm1Z2xsk+SoHzpBvxnIxI
skEE3+OzNHH5nxJ8GpMftVjYwt3vdvOR2MoKiVWhD+QFNA3csf+xYN3ZyojBQubt
je2UT85ueT/RryzfTi3qEz5t6v6LTnqmzRUaEVk=
-----END X509 CRL-----
