Certificate Revocation List (CRL):
        Version 1 (0x0)
        Signature Algorithm: sha256WithRSAEncryption
        Issuer: C = US, ST = California, L = Santa Clara, O = pkg5, CN = ch1.1_ta4, emailAddress = ch1.1_ta4
        Last Update: Oct 24 21:43:13 2023 GMT
        Next Update: Jul 20 21:43:13 2026 GMT
Revoked Certificates:
    Serial Number: 07
        Revocation Date: Oct 24 21:43:00 2023 GMT
    Serial Number: 24
        Revocation Date: Oct 24 21:43:11 2023 GMT
    Serial Number: 28
        Revocation Date: Oct 24 21:43:13 2023 GMT
    Signature Algorithm: sha256WithRSAEncryption
    Signature Value:
        75:8c:39:13:3c:25:75:b6:63:9c:ab:bf:eb:0b:68:31:51:e2:
        f8:44:a5:74:89:a4:ac:8d:c8:3f:ca:0b:a7:82:f5:5a:38:29:
        47:2e:0c:49:af:d0:40:26:b5:7d:49:96:4b:01:c7:57:b8:3a:
        69:97:21:a4:31:d0:d0:79:13:5e:61:f0:25:95:16:01:65:84:
        7f:2e:5b:ff:86:5d:27:fa:c2:47:ca:0e:62:d0:11:4a:0a:43:
        17:55:a5:29:09:99:1b:73:62:c1:a8:21:8c:7c:0c:28:ac:ba:
        c7:81:62:bf:22:2a:e5:da:b0:cd:cd:24:57:9f:bb:cd:e6:26:
        d1:e2:1a:83:26:a3:89:c7:74:3a:81:40:df:bc:3a:59:26:c0:
        c6:a4:dc:8f:20:61:0d:53:13:8b:24:72:c1:4c:f7:9b:36:70:
        30:cc:39:57:da:6d:ab:dc:a3:e5:58:24:66:b6:89:70:97:98:
        7c:2e:d2:3b:14:2a:b8:94:cf:9e:e1:4b:f7:a7:8a:97:cb:69:
        8d:5c:63:1c:09:90:c3:89:09:60:4f:85:d6:8e:e9:75:68:1d:
        42:88:8c:2a:70:60:18:f6:b8:d7:c1:00:df:d4:ca:fd:0e:34:
        af:75:3c:b7:db:83:91:ef:b1:70:f2:d2:0f:b1:40:e4:f5:e4:
        6d:91:c7:9a
-----BEGIN X509 CRL-----
MIIB+TCB4jANBgkqhkiG9w0BAQsFADB1MQswCQYDVQQGEwJVUzETMBEGA1UECAwK
Q2FsaWZvcm5pYTEUMBIGA1UEBwwLU2FudGEgQ2xhcmExDTALBgNVBAoMBHBrZzUx
EjAQBgNVBAMMCWNoMS4xX3RhNDEYMBYGCSqGSIb3DQEJARYJY2gxLjFfdGE0Fw0y
MzEwMjQyMTQzMTNaFw0yNjA3MjAyMTQzMTNaMDwwEgIBBxcNMjMxMDI0MjE0MzAw
WjASAgEkFw0yMzEwMjQyMTQzMTFaMBICASgXDTIzMTAyNDIxNDMxM1owDQYJKoZI
hvcNAQELBQADggEBAHWMORM8JXW2Y5yrv+sLaDFR4vhEpXSJpKyNyD/KC6eC9Vo4
KUcuDEmv0EAmtX1JlksBx1e4OmmXIaQx0NB5E15h8CWVFgFlhH8uW/+GXSf6wkfK
DmLQEUoKQxdVpSkJmRtzYsGoIYx8DCisuseBYr8iKuXasM3NJFefu83mJtHiGoMm
o4nHdDqBQN+8OlkmwMak3I8gYQ1TE4skcsFM95s2cDDMOVfabavco+VYJGa2iXCX
mHwu0jsUKriUz57hS/enipfLaY1cYxwJkMOJCWBPhdaO6XVoHUKIjCpwYBj2uNfB
AN/Uyv0ONK91PLfbg5HvsXDy0g+xQOT15G2Rx5o=
-----END X509 CRL-----
