Certificate Revocation List (CRL):
        Version 1 (0x0)
        Signature Algorithm: sha256WithRSAEncryption
        Issuer: C = US, ST = California, L = Santa Clara, O = pkg5, CN = ch1_ta4, emailAddress = ch1_ta4
        Last Update: Nov 17 23:01:32 2020 GMT
        Next Update: Aug 14 23:01:32 2023 GMT
Revoked Certificates:
    Serial Number: 07
        Revocation Date: Nov 17 23:01:28 2020 GMT
    Serial Number: 24
        Revocation Date: Nov 17 23:01:32 2020 GMT
    Signature Algorithm: sha256WithRSAEncryption
         c1:aa:ec:38:4c:5a:16:5e:6d:12:7d:ca:ae:02:cd:be:56:e3:
         f5:5a:39:37:6b:74:22:c4:18:53:4d:03:2f:91:94:d8:93:a0:
         1a:ac:f5:e5:8f:09:5e:92:e7:e8:ca:bd:a6:d6:c3:e8:56:be:
         fe:a5:66:c2:f9:d7:fe:08:29:61:f3:7e:d5:a1:4c:c1:b9:58:
         b0:e5:49:1a:c8:bc:43:7d:6e:3d:11:ad:23:1c:8c:67:61:36:
         79:bf:3a:eb:80:ce:9a:63:93:8f:07:c7:10:f8:d2:c1:bc:b2:
         27:6d:2d:0d:66:60:ca:31:79:d8:b0:72:f8:52:a0:68:37:dc:
         fd:3f:86:f4:9a:d6:95:68:75:90:51:33:85:bf:87:a1:0b:d5:
         df:e9:f3:67:84:07:ce:11:af:09:22:f8:e1:fd:11:14:de:41:
         c1:d4:2f:dc:9b:8c:4a:c7:48:54:d1:eb:80:e2:7a:15:d7:65:
         d6:e0:93:ba:3a:5a:35:ab:72:68:3c:6b:7e:eb:f0:0e:21:5a:
         34:13:e1:88:6b:cb:ad:66:90:44:7a:4b:c4:a8:f7:a8:25:d5:
         54:94:ff:97:1a:39:37:05:7d:bf:72:32:50:24:60:61:83:3c:
         4f:e8:b5:9c:49:fc:54:3a:f0:1f:57:51:9e:bf:81:a4:18:bb:
         8f:fb:18:d8
-----BEGIN X509 CRL-----
MIIB4TCByjANBgkqhkiG9w0BAQsFADBxMQswCQYDVQQGEwJVUzETMBEGA1UECAwK
Q2FsaWZvcm5pYTEUMBIGA1UEBwwLU2FudGEgQ2xhcmExDTALBgNVBAoMBHBrZzUx
EDAOBgNVBAMMB2NoMV90YTQxFjAUBgkqhkiG9w0BCQEWB2NoMV90YTQXDTIwMTEx
NzIzMDEzMloXDTIzMDgxNDIzMDEzMlowKDASAgEHFw0yMDExMTcyMzAxMjhaMBIC
ASQXDTIwMTExNzIzMDEzMlowDQYJKoZIhvcNAQELBQADggEBAMGq7DhMWhZebRJ9
yq4Czb5W4/VaOTdrdCLEGFNNAy+RlNiToBqs9eWPCV6S5+jKvabWw+hWvv6lZsL5
1/4IKWHzftWhTMG5WLDlSRrIvEN9bj0RrSMcjGdhNnm/OuuAzppjk48HxxD40sG8
sidtLQ1mYMoxediwcvhSoGg33P0/hvSa1pVodZBRM4W/h6EL1d/p82eEB84Rrwki
+OH9ERTeQcHUL9ybjErHSFTR64DiehXXZdbgk7o6WjWrcmg8a37r8A4hWjQT4Yhr
y61mkER6S8So96gl1VSU/5caOTcFfb9yMlAkYGGDPE/otZxJ/FQ68B9XUZ6/gaQY
u4/7GNg=
-----END X509 CRL-----
