Certificate Revocation List (CRL):
        Version 1 (0x0)
        Signature Algorithm: sha256WithRSAEncryption
        Issuer: C = US, ST = California, L = Santa Clara, O = pkg5, CN = ch1_ta4, emailAddress = ch1_ta4
        Last Update: May 23 15:47:21 2024 GMT
        Next Update: Feb 17 15:47:21 2027 GMT
Revoked Certificates:
    Serial Number: 07
        Revocation Date: May 23 15:47:15 2024 GMT
    Serial Number: 24
        Revocation Date: May 23 15:47:21 2024 GMT
    Signature Algorithm: sha256WithRSAEncryption
    Signature Value:
        0c:20:e5:0c:b8:ee:9e:6a:27:f3:d3:e7:9f:9b:40:ac:b0:c4:
        4e:ec:d1:0b:92:c9:88:5b:85:45:52:aa:b6:fd:7c:f4:f8:31:
        15:7a:d3:0f:9e:b6:91:be:11:6e:79:b7:f8:9d:08:cf:82:53:
        79:3b:72:8f:b2:95:6f:85:f4:43:0d:24:07:7f:b4:3e:8b:23:
        16:60:fe:02:84:f4:76:4f:f4:8b:6f:06:a8:2d:15:83:ef:71:
        47:08:96:b0:25:aa:47:0c:38:3f:0b:5f:96:38:db:cd:67:b5:
        1a:43:3e:35:53:85:1a:f8:94:bd:45:e8:5a:68:23:73:d9:f0:
        73:3e:22:f7:78:1d:02:18:78:90:9c:58:71:f9:ef:34:62:cd:
        30:d6:61:38:73:c6:06:67:53:a7:aa:f7:ba:2a:33:82:79:3d:
        18:35:59:d6:85:e3:1c:1b:36:61:4b:7a:8c:60:cb:bc:47:a0:
        63:07:ff:3b:e8:9a:ab:71:06:2c:64:3d:d8:df:9c:2c:61:0b:
        06:d7:58:4d:b9:95:e2:a9:a5:cc:f0:6f:91:0e:62:1e:76:a7:
        98:16:33:fa:da:2d:e9:af:aa:88:f5:d9:89:5f:94:4f:89:2d:
        de:3b:eb:f2:8d:a2:22:08:67:07:33:4d:53:f3:20:21:80:38:
        c6:96:fd:e5
-----BEGIN X509 CRL-----
MIIB4TCByjANBgkqhkiG9w0BAQsFADBxMQswCQYDVQQGEwJVUzETMBEGA1UECAwK
Q2FsaWZvcm5pYTEUMBIGA1UEBwwLU2FudGEgQ2xhcmExDTALBgNVBAoMBHBrZzUx
EDAOBgNVBAMMB2NoMV90YTQxFjAUBgkqhkiG9w0BCQEWB2NoMV90YTQXDTI0MDUy
MzE1NDcyMVoXDTI3MDIxNzE1NDcyMVowKDASAgEHFw0yNDA1MjMxNTQ3MTVaMBIC
ASQXDTI0MDUyMzE1NDcyMVowDQYJKoZIhvcNAQELBQADggEBAAwg5Qy47p5qJ/PT
55+bQKywxE7s0QuSyYhbhUVSqrb9fPT4MRV60w+etpG+EW55t/idCM+CU3k7co+y
lW+F9EMNJAd/tD6LIxZg/gKE9HZP9ItvBqgtFYPvcUcIlrAlqkcMOD8LX5Y4281n
tRpDPjVThRr4lL1F6FpoI3PZ8HM+Ivd4HQIYeJCcWHH57zRizTDWYThzxgZnU6eq
97oqM4J5PRg1WdaF4xwbNmFLeoxgy7xHoGMH/zvomqtxBixkPdjfnCxhCwbXWE25
leKppczwb5EOYh52p5gWM/raLemvqoj12YlflE+JLd476/KNoiIIZwczTVPzICGA
OMaW/eU=
-----END X509 CRL-----
