Certificate Revocation List (CRL):
        Version 1 (0x0)
        Signature Algorithm: sha256WithRSAEncryption
        Issuer: C = US, ST = California, L = Santa Clara, O = pkg5, CN = ch1_ta4, emailAddress = ch1_ta4
        Last Update: Oct 22 10:15:18 2021 GMT
        Next Update: Jul 18 10:15:18 2024 GMT
Revoked Certificates:
    Serial Number: 07
        Revocation Date: Oct 22 10:15:06 2021 GMT
    Serial Number: 24
        Revocation Date: Oct 22 10:15:18 2021 GMT
    Signature Algorithm: sha256WithRSAEncryption
    Signature Value:
        70:03:ee:61:6c:12:4b:ad:de:af:53:be:77:05:23:0b:63:8c:
        ce:28:b3:be:8b:6f:a8:46:cf:11:f3:0c:07:97:8b:67:75:6c:
        c9:ea:cf:e1:00:3e:32:61:56:aa:5e:2c:22:ff:3d:02:76:88:
        5a:fd:9c:0b:e2:7c:e7:b5:8c:75:b8:73:e4:39:2b:04:6b:16:
        69:c9:bd:a7:d9:8e:40:0a:39:ce:ef:16:52:6d:80:e6:db:d3:
        f5:51:72:b8:c2:05:d4:23:e9:95:0b:60:24:3a:3f:73:1e:cb:
        ec:9c:22:f7:20:91:74:8b:44:9a:be:bf:b8:dd:f1:36:6b:bf:
        b0:5a:3d:0f:57:e2:be:4d:18:35:32:69:a0:fc:70:54:03:37:
        7e:81:e5:41:32:64:50:a8:34:1a:34:28:01:26:0f:cc:c0:c7:
        86:22:a0:1f:e6:4f:75:d5:86:1f:76:0d:ea:73:e3:6d:9a:ab:
        7c:6c:9e:66:a5:37:18:4a:1b:3f:5d:18:85:fb:c4:0b:cc:60:
        74:64:b8:02:17:47:83:71:b0:67:70:54:2d:d4:7e:dc:c9:c3:
        d4:2d:06:5d:22:3b:d9:c1:90:98:59:56:07:f8:83:bb:9a:73:
        44:71:1c:23:ab:3b:d1:2e:e3:8f:81:0b:c9:80:96:e4:2f:8d:
        4d:64:f9:8d
-----BEGIN X509 CRL-----
MIIB4TCByjANBgkqhkiG9w0BAQsFADBxMQswCQYDVQQGEwJVUzETMBEGA1UECAwK
Q2FsaWZvcm5pYTEUMBIGA1UEBwwLU2FudGEgQ2xhcmExDTALBgNVBAoMBHBrZzUx
EDAOBgNVBAMMB2NoMV90YTQxFjAUBgkqhkiG9w0BCQEWB2NoMV90YTQXDTIxMTAy
MjEwMTUxOFoXDTI0MDcxODEwMTUxOFowKDASAgEHFw0yMTEwMjIxMDE1MDZaMBIC
ASQXDTIxMTAyMjEwMTUxOFowDQYJKoZIhvcNAQELBQADggEBAHAD7mFsEkut3q9T
vncFIwtjjM4os76Lb6hGzxHzDAeXi2d1bMnqz+EAPjJhVqpeLCL/PQJ2iFr9nAvi
fOe1jHW4c+Q5KwRrFmnJvafZjkAKOc7vFlJtgObb0/VRcrjCBdQj6ZULYCQ6P3Me
y+ycIvcgkXSLRJq+v7jd8TZrv7BaPQ9X4r5NGDUyaaD8cFQDN36B5UEyZFCoNBo0
KAEmD8zAx4YioB/mT3XVhh92Depz422aq3xsnmalNxhKGz9dGIX7xAvMYHRkuAIX
R4NxsGdwVC3UftzJw9QtBl0iO9nBkJhZVgf4g7uac0RxHCOrO9Eu44+BC8mAluQv
jU1k+Y0=
-----END X509 CRL-----
