Certificate Revocation List (CRL):
        Version 1 (0x0)
    Signature Algorithm: sha256WithRSAEncryption
        Issuer: /C=US/ST=California/L=Santa Clara/O=pkg5/CN=ch1_ta4/emailAddress=ch1_ta4
        Last Update: Nov 16 10:58:50 2017 GMT
        Next Update: Aug 12 10:58:50 2020 GMT
Revoked Certificates:
    Serial Number: 07
        Revocation Date: Nov 16 10:58:47 2017 GMT
    Serial Number: 24
        Revocation Date: Nov 16 10:58:50 2017 GMT
    Signature Algorithm: sha256WithRSAEncryption
         91:68:06:46:14:37:17:a9:20:61:43:5a:06:92:c9:9b:8a:38:
         9c:da:51:cc:47:41:df:97:c7:d2:74:df:e3:23:25:3d:73:79:
         51:e9:04:d3:ce:39:37:c0:25:c5:95:38:69:b4:81:fd:4b:87:
         a7:84:c4:02:b4:3a:4a:ec:22:d3:a8:93:bf:60:58:e8:67:21:
         f9:61:58:dc:2c:ed:c5:fb:20:1f:d9:7a:e0:33:d3:86:d3:85:
         66:06:c4:16:a9:78:43:97:2d:be:27:57:e0:ac:78:aa:21:29:
         b8:5f:b4:65:38:de:96:d0:3a:7b:52:72:d0:45:15:ec:6a:59:
         f1:d6:e9:0c:13:be:50:cf:f9:2a:06:e5:eb:b6:d8:26:84:92:
         45:22:a3:86:e7:14:25:f2:11:6f:9d:03:b7:9e:22:74:ea:c7:
         6f:a0:fe:81:e4:86:3a:8e:8a:1b:9f:a1:2b:26:9c:78:71:64:
         fe:3d:2c:26:6c:98:f0:bf:a2:d6:c1:6a:09:ef:53:ac:4f:ec:
         db:ae:c5:6e:b9:40:5d:d7:c2:98:2b:ad:8e:d3:19:a3:10:f6:
         f7:1d:85:14:54:92:fd:00:21:27:45:f8:09:a4:a2:ec:af:ba:
         7f:df:24:0c:e4:a1:db:da:32:55:ac:c3:e9:16:82:4b:ae:e4:
         36:e6:cf:36
-----BEGIN X509 CRL-----
MIIB4TCByjANBgkqhkiG9w0BAQsFADBxMQswCQYDVQQGEwJVUzETMBEGA1UECAwK
Q2FsaWZvcm5pYTEUMBIGA1UEBwwLU2FudGEgQ2xhcmExDTALBgNVBAoMBHBrZzUx
EDAOBgNVBAMMB2NoMV90YTQxFjAUBgkqhkiG9w0BCQEWB2NoMV90YTQXDTE3MTEx
NjEwNTg1MFoXDTIwMDgxMjEwNTg1MFowKDASAgEHFw0xNzExMTYxMDU4NDdaMBIC
ASQXDTE3MTExNjEwNTg1MFowDQYJKoZIhvcNAQELBQADggEBAJFoBkYUNxepIGFD
WgaSyZuKOJzaUcxHQd+Xx9J03+MjJT1zeVHpBNPOOTfAJcWVOGm0gf1Lh6eExAK0
OkrsItOok79gWOhnIflhWNws7cX7IB/ZeuAz04bThWYGxBapeEOXLb4nV+CseKoh
KbhftGU43pbQOntSctBFFexqWfHW6QwTvlDP+SoG5eu22CaEkkUio4bnFCXyEW+d
A7eeInTqx2+g/oHkhjqOihufoSsmnHhxZP49LCZsmPC/otbBagnvU6xP7NuuxW65
QF3XwpgrrY7TGaMQ9vcdhRRUkv0AISdF+Amkouyvun/fJAzkodvaMlWsw+kWgkuu
5DbmzzY=
-----END X509 CRL-----
