Certificate Revocation List (CRL):
        Version 1 (0x0)
    Signature Algorithm: sha256WithRSAEncryption
        Issuer: /C=US/ST=California/L=Santa Clara/O=pkg5/CN=ch1_ta4/emailAddress=ch1_ta4
        Last Update: Mar 20 10:20:55 2018 GMT
        Next Update: Dec 14 10:20:55 2020 GMT
Revoked Certificates:
    Serial Number: 07
        Revocation Date: Mar 20 10:20:52 2018 GMT
    Serial Number: 24
        Revocation Date: Mar 20 10:20:55 2018 GMT
    Signature Algorithm: sha256WithRSAEncryption
         9f:16:4b:76:12:74:0d:06:74:fe:76:8f:07:ec:b0:56:51:20:
         f5:da:4a:d0:31:cf:4b:9d:2e:1b:f1:9f:c0:a8:64:f2:50:47:
         3e:91:b9:25:8a:3b:3f:d5:89:d0:f1:c3:35:48:14:d3:74:43:
         c7:47:19:e4:dc:ce:6a:4e:72:04:0a:1b:4c:9c:88:67:25:82:
         0b:e0:89:6e:c7:1c:c2:76:40:65:8a:a9:14:83:58:11:51:32:
         48:95:33:0d:07:d7:52:30:a4:7f:6e:ee:48:d2:c3:1d:c7:aa:
         e9:d1:d7:fc:7c:34:c1:b1:f7:93:5e:b8:89:54:24:75:33:3f:
         37:c8:be:f5:ac:e4:c2:75:5b:82:fd:4d:bf:de:38:db:25:ff:
         81:7d:16:f8:31:2d:d6:e9:eb:a7:f6:6c:6e:23:27:00:16:07:
         2e:82:ff:dc:0c:83:27:20:04:c2:9d:d9:f3:4d:3b:eb:25:9f:
         97:84:57:c8:b6:6f:7b:de:e8:88:36:25:7a:d9:bb:b2:d2:ad:
         75:0c:2f:b0:5f:1f:83:0d:d3:37:99:8d:56:b6:88:c0:ba:89:
         14:34:82:0b:51:fa:83:b0:28:f1:27:15:fe:a8:e6:ae:89:00:
         5f:99:6b:b2:3a:46:d7:19:7a:78:96:d1:b9:a7:55:ad:fd:13:
         6f:71:94:75
-----BEGIN X509 CRL-----
MIIB4TCByjANBgkqhkiG9w0BAQsFADBxMQswCQYDVQQGEwJVUzETMBEGA1UECAwK
Q2FsaWZvcm5pYTEUMBIGA1UEBwwLU2FudGEgQ2xhcmExDTALBgNVBAoMBHBrZzUx
EDAOBgNVBAMMB2NoMV90YTQxFjAUBgkqhkiG9w0BCQEWB2NoMV90YTQXDTE4MDMy
MDEwMjA1NVoXDTIwMTIxNDEwMjA1NVowKDASAgEHFw0xODAzMjAxMDIwNTJaMBIC
ASQXDTE4MDMyMDEwMjA1NVowDQYJKoZIhvcNAQELBQADggEBAJ8WS3YSdA0GdP52
jwfssFZRIPXaStAxz0udLhvxn8CoZPJQRz6RuSWKOz/VidDxwzVIFNN0Q8dHGeTc
zmpOcgQKG0yciGclggvgiW7HHMJ2QGWKqRSDWBFRMkiVMw0H11IwpH9u7kjSwx3H
qunR1/x8NMGx95NeuIlUJHUzPzfIvvWs5MJ1W4L9Tb/eONsl/4F9FvgxLdbp66f2
bG4jJwAWBy6C/9wMgycgBMKd2fNNO+sln5eEV8i2b3ve6Ig2JXrZu7LSrXUML7Bf
H4MN0zeZjVa2iMC6iRQ0ggtR+oOwKPEnFf6o5q6JAF+Za7I6RtcZeniW0bmnVa39
E29xlHU=
-----END X509 CRL-----
