Certificate Revocation List (CRL):
        Version 1 (0x0)
    Signature Algorithm: sha256WithRSAEncryption
        Issuer: /C=US/ST=California/L=Santa Clara/O=pkg5/CN=ch1_ta4/emailAddress=ch1_ta4
        Last Update: Nov 28 22:50:57 2016 GMT
        Next Update: Aug 25 22:50:57 2019 GMT
Revoked Certificates:
    Serial Number: 07
        Revocation Date: Nov 28 22:50:55 2016 GMT
    Serial Number: 23
        Revocation Date: Nov 28 22:50:57 2016 GMT
    Signature Algorithm: sha256WithRSAEncryption
         8a:7a:c2:20:ba:2c:2c:4c:6f:ff:1f:3a:e8:c1:b9:cf:56:8f:
         48:2b:f2:f4:57:b1:38:6b:14:18:bf:c7:c0:e6:71:4e:97:30:
         1f:5f:65:ef:b3:35:e3:ae:34:dd:90:07:00:b0:b4:fd:b2:ec:
         dc:68:ed:a3:6d:76:15:7d:49:ed:aa:3b:a5:ab:a9:82:73:13:
         c6:90:8a:65:2c:5c:69:54:a4:4f:92:4a:8c:76:91:65:63:5e:
         e7:60:e3:f8:89:a4:7e:ca:ec:3b:e3:2b:53:2a:7d:7b:2c:27:
         97:1a:6c:e9:8a:92:95:28:e6:69:c6:39:58:db:22:8e:0f:6a:
         1e:91:db:65:e4:8b:bf:14:f1:e0:83:03:ad:05:51:91:ba:ac:
         4e:c5:60:85:71:3d:10:80:85:8f:a4:e0:bb:4c:57:c3:f9:2e:
         99:d2:ce:31:24:80:0d:c0:29:c5:71:f4:12:d5:9b:6c:6f:a6:
         fb:8e:be:ad:91:85:5f:dc:82:25:2c:3b:59:47:41:50:93:37:
         2e:8f:f5:c4:a0:89:90:4e:98:4b:22:67:9d:aa:39:e0:46:d3:
         2f:88:8b:f1:c4:ad:26:9e:14:dd:63:89:8c:5d:8b:23:df:05:
         15:96:86:3b:a0:01:bf:41:72:92:6c:5f:6b:e6:d6:d7:e4:97:
         45:38:ed:18
-----BEGIN X509 CRL-----
MIIB4TCByjANBgkqhkiG9w0BAQsFADBxMQswCQYDVQQGEwJVUzETMBEGA1UECAwK
Q2FsaWZvcm5pYTEUMBIGA1UEBwwLU2FudGEgQ2xhcmExDTALBgNVBAoMBHBrZzUx
EDAOBgNVBAMMB2NoMV90YTQxFjAUBgkqhkiG9w0BCQEWB2NoMV90YTQXDTE2MTEy
ODIyNTA1N1oXDTE5MDgyNTIyNTA1N1owKDASAgEHFw0xNjExMjgyMjUwNTVaMBIC
ASMXDTE2MTEyODIyNTA1N1owDQYJKoZIhvcNAQELBQADggEBAIp6wiC6LCxMb/8f
OujBuc9Wj0gr8vRXsThrFBi/x8DmcU6XMB9fZe+zNeOuNN2QBwCwtP2y7Nxo7aNt
dhV9Se2qO6WrqYJzE8aQimUsXGlUpE+SSox2kWVjXudg4/iJpH7K7DvjK1MqfXss
J5cabOmKkpUo5mnGOVjbIo4Pah6R22Xki78U8eCDA60FUZG6rE7FYIVxPRCAhY+k
4LtMV8P5LpnSzjEkgA3AKcVx9BLVm2xvpvuOvq2RhV/cgiUsO1lHQVCTNy6P9cSg
iZBOmEsiZ52qOeBG0y+Ii/HErSaeFN1jiYxdiyPfBRWWhjugAb9BcpJsX2vm1tfk
l0U47Rg=
-----END X509 CRL-----
