Certificate Revocation List (CRL):
        Version 1 (0x0)
        Signature Algorithm: sha256WithRSAEncryption
        Issuer: C = US, ST = California, L = Santa Clara, O = pkg5, CN = ch1_ta4, emailAddress = ch1_ta4
        Last Update: Dec 15 15:37:29 2022 GMT
        Next Update: Sep 10 15:37:29 2025 GMT
Revoked Certificates:
    Serial Number: 07
        Revocation Date: Dec 15 15:37:17 2022 GMT
    Serial Number: 24
        Revocation Date: Dec 15 15:37:28 2022 GMT
    Signature Algorithm: sha256WithRSAEncryption
    Signature Value:
        79:d6:fc:77:e9:ac:69:de:79:1f:1c:9a:17:f6:f4:1e:1e:de:
        27:7f:cd:a2:21:c5:1b:e0:43:9d:0f:9a:88:46:11:b5:52:3f:
        1a:dc:12:bb:0e:1f:ae:18:01:43:f6:f3:f8:91:9a:14:3c:9f:
        ce:a6:62:84:16:3b:7f:53:f0:4b:8c:74:d6:a2:49:fa:65:28:
        44:12:b6:46:bf:8e:b8:a4:ad:79:d2:9d:52:5a:2a:5b:7e:3a:
        6a:ac:63:e9:d6:a9:a4:c9:4d:0c:c4:01:e6:d7:30:52:9f:ca:
        a4:f7:22:c3:3a:a9:cc:54:61:38:2a:01:e7:7e:dc:4d:fd:c3:
        8d:46:18:06:96:e6:a3:34:ce:2c:9a:df:ab:f8:f4:0e:70:cb:
        ff:1b:67:d9:3a:9b:b3:12:13:60:a9:8e:1a:49:e9:04:d5:b1:
        ac:77:fe:86:00:f4:40:a4:87:b1:c8:8c:d3:b0:f1:b4:e9:81:
        1d:a2:f6:ea:17:2e:09:9c:2e:44:42:16:b8:c0:91:9d:30:e4:
        17:14:bf:84:ac:09:62:f4:59:ac:fd:e2:b7:c9:99:a1:18:81:
        99:9a:87:0a:5f:db:2c:a0:33:36:59:6a:8b:0c:25:23:40:5c:
        64:ec:d7:6f:c6:b5:9b:d8:74:fa:5e:6c:6a:c3:17:81:72:c4:
        4f:0d:9c:3d
-----BEGIN X509 CRL-----
MIIB4TCByjANBgkqhkiG9w0BAQsFADBxMQswCQYDVQQGEwJVUzETMBEGA1UECAwK
Q2FsaWZvcm5pYTEUMBIGA1UEBwwLU2FudGEgQ2xhcmExDTALBgNVBAoMBHBrZzUx
EDAOBgNVBAMMB2NoMV90YTQxFjAUBgkqhkiG9w0BCQEWB2NoMV90YTQXDTIyMTIx
NTE1MzcyOVoXDTI1MDkxMDE1MzcyOVowKDASAgEHFw0yMjEyMTUxNTM3MTdaMBIC
ASQXDTIyMTIxNTE1MzcyOFowDQYJKoZIhvcNAQELBQADggEBAHnW/HfprGneeR8c
mhf29B4e3id/zaIhxRvgQ50PmohGEbVSPxrcErsOH64YAUP28/iRmhQ8n86mYoQW
O39T8EuMdNaiSfplKEQStka/jrikrXnSnVJaKlt+OmqsY+nWqaTJTQzEAebXMFKf
yqT3IsM6qcxUYTgqAed+3E39w41GGAaW5qM0ziya36v49A5wy/8bZ9k6m7MSE2Cp
jhpJ6QTVsax3/oYA9ECkh7HIjNOw8bTpgR2i9uoXLgmcLkRCFrjAkZ0w5BcUv4Ss
CWL0Waz94rfJmaEYgZmahwpf2yygMzZZaosMJSNAXGTs12/GtZvYdPpebGrDF4Fy
xE8NnD0=
-----END X509 CRL-----
