Certificate Revocation List (CRL):
        Version 1 (0x0)
        Signature Algorithm: sha256WithRSAEncryption
        Issuer: C=US, ST=California, L=Santa Clara, O=pkg5, CN=ch1_ta4, emailAddress=ch1_ta4
        Last Update: Nov 14 14:26:57 2024 GMT
        Next Update: Aug 11 14:26:57 2027 GMT
Revoked Certificates:
    Serial Number: 07
        Revocation Date: Nov 14 14:26:52 2024 GMT
    Serial Number: 24
        Revocation Date: Nov 14 14:26:57 2024 GMT
    Signature Algorithm: sha256WithRSAEncryption
    Signature Value:
        31:d5:91:1d:3f:2a:1c:4d:c6:e6:62:34:5c:86:27:2f:45:0b:
        30:58:cc:a6:f0:88:75:e5:d6:a5:6b:b9:c0:f6:49:65:dd:77:
        17:10:2c:ec:ab:cf:cc:2b:7c:ab:4f:55:25:6d:d3:db:b2:1a:
        ea:e8:ce:5b:e9:b5:80:1f:52:51:c8:37:98:1b:6f:f1:6a:fb:
        74:0d:19:fb:ae:29:89:16:c7:8d:4d:de:a9:85:6d:88:dc:fc:
        b4:89:29:46:60:5d:a2:06:35:a1:18:4e:51:c4:ef:8b:e5:71:
        78:cb:a0:b7:a0:f1:ff:70:66:c9:22:6e:f4:4e:e7:b3:da:4c:
        e6:73:bc:74:07:b5:62:0e:8e:57:df:dc:03:c4:e8:c3:c9:28:
        45:f1:cf:40:a2:97:d2:7a:53:ce:62:e9:25:8b:1a:a8:87:ac:
        f8:18:5e:5f:3f:a9:16:d9:1e:6e:c0:f2:90:1a:18:9b:28:57:
        55:2d:8d:a2:7a:8a:b6:af:dd:c5:61:c8:18:fc:6d:42:e7:b8:
        29:7d:40:b5:1f:af:9f:4a:a9:a1:79:c1:5b:86:67:fc:0a:cb:
        28:2a:6c:a9:4b:8c:6b:d0:c2:12:8d:11:a9:ed:1b:5d:75:e7:
        d4:e9:b7:db:f1:84:86:b1:ab:ba:0e:7d:85:6f:8b:23:46:ef:
        ea:c2:ce:f2
-----BEGIN X509 CRL-----
MIIB4TCByjANBgkqhkiG9w0BAQsFADBxMQswCQYDVQQGEwJVUzETMBEGA1UECAwK
Q2FsaWZvcm5pYTEUMBIGA1UEBwwLU2FudGEgQ2xhcmExDTALBgNVBAoMBHBrZzUx
EDAOBgNVBAMMB2NoMV90YTQxFjAUBgkqhkiG9w0BCQEWB2NoMV90YTQXDTI0MTEx
NDE0MjY1N1oXDTI3MDgxMTE0MjY1N1owKDASAgEHFw0yNDExMTQxNDI2NTJaMBIC
ASQXDTI0MTExNDE0MjY1N1owDQYJKoZIhvcNAQELBQADggEBADHVkR0/KhxNxuZi
NFyGJy9FCzBYzKbwiHXl1qVrucD2SWXddxcQLOyrz8wrfKtPVSVt09uyGurozlvp
tYAfUlHIN5gbb/Fq+3QNGfuuKYkWx41N3qmFbYjc/LSJKUZgXaIGNaEYTlHE74vl
cXjLoLeg8f9wZskibvRO57PaTOZzvHQHtWIOjlff3APE6MPJKEXxz0Cil9J6U85i
6SWLGqiHrPgYXl8/qRbZHm7A8pAaGJsoV1UtjaJ6irav3cVhyBj8bULnuCl9QLUf
r59KqaF5wVuGZ/wKyygqbKlLjGvQwhKNEantG11159Tpt9vxhIaxq7oOfYVviyNG
7+rCzvI=
-----END X509 CRL-----
