Certificate Revocation List (CRL):
        Version 1 (0x0)
        Signature Algorithm: sha256WithRSAEncryption
        Issuer: C = US, ST = California, L = Santa Clara, O = pkg5, CN = ch1_ta4, emailAddress = ch1_ta4
        Last Update: Oct 24 21:43:12 2023 GMT
        Next Update: Jul 20 21:43:12 2026 GMT
Revoked Certificates:
    Serial Number: 07
        Revocation Date: Oct 24 21:43:00 2023 GMT
    Serial Number: 24
        Revocation Date: Oct 24 21:43:11 2023 GMT
    Signature Algorithm: sha256WithRSAEncryption
    Signature Value:
        e6:48:f2:47:b0:b5:74:88:e1:54:6a:09:58:3b:20:50:66:ac:
        b7:50:92:8c:70:01:0f:e5:94:f6:c1:91:8a:38:0c:e0:0a:1f:
        90:37:8f:08:02:d6:13:13:7f:60:e6:39:d5:21:e4:cf:35:76:
        f2:b6:bb:9c:b8:08:a5:5e:e4:7d:f1:9b:38:91:81:77:dd:87:
        28:5b:05:33:6c:8e:d5:ec:5c:af:cd:51:c6:9a:68:92:ca:52:
        09:52:08:bf:16:6b:94:bb:50:b9:66:d8:27:85:35:44:50:3a:
        48:d5:01:32:ba:21:b5:14:0c:98:ee:ed:77:f0:ed:a8:be:ff:
        a2:7f:83:4d:90:47:a7:ba:15:c7:07:be:77:a7:88:4a:4d:2a:
        8b:31:b9:e3:b5:5f:60:b6:7f:34:05:13:fd:9b:6d:43:af:61:
        1c:71:23:28:48:39:89:bc:6f:ec:00:41:d3:9b:c8:3f:29:ad:
        52:c7:d5:12:da:63:4d:37:0e:84:1c:7f:87:77:7f:ea:d7:5e:
        f2:4a:5e:39:23:4f:97:fd:ae:ac:b4:37:65:a9:89:fd:43:a7:
        1d:86:3f:dc:85:0b:2f:5f:3f:6d:5e:a6:46:94:18:f0:a2:f9:
        5b:90:92:18:2a:3a:7d:c3:6b:35:10:eb:00:19:75:e5:fd:3c:
        06:80:b9:ab
-----BEGIN X509 CRL-----
MIIB4TCByjANBgkqhkiG9w0BAQsFADBxMQswCQYDVQQGEwJVUzETMBEGA1UECAwK
Q2FsaWZvcm5pYTEUMBIGA1UEBwwLU2FudGEgQ2xhcmExDTALBgNVBAoMBHBrZzUx
EDAOBgNVBAMMB2NoMV90YTQxFjAUBgkqhkiG9w0BCQEWB2NoMV90YTQXDTIzMTAy
NDIxNDMxMloXDTI2MDcyMDIxNDMxMlowKDASAgEHFw0yMzEwMjQyMTQzMDBaMBIC
ASQXDTIzMTAyNDIxNDMxMVowDQYJKoZIhvcNAQELBQADggEBAOZI8kewtXSI4VRq
CVg7IFBmrLdQkoxwAQ/llPbBkYo4DOAKH5A3jwgC1hMTf2DmOdUh5M81dvK2u5y4
CKVe5H3xmziRgXfdhyhbBTNsjtXsXK/NUcaaaJLKUglSCL8Wa5S7ULlm2CeFNURQ
OkjVATK6IbUUDJju7Xfw7ai+/6J/g02QR6e6FccHvneniEpNKosxueO1X2C2fzQF
E/2bbUOvYRxxIyhIOYm8b+wAQdObyD8prVLH1RLaY003DoQcf4d3f+rXXvJKXjkj
T5f9rqy0N2Wpif1Dpx2GP9yFCy9fP21epkaUGPCi+VuQkhgqOn3DazUQ6wAZdeX9
PAaAuas=
-----END X509 CRL-----
