Certificate Revocation List (CRL):
        Version 1 (0x0)
    Signature Algorithm: sha256WithRSAEncryption
        Issuer: /C=US/ST=California/L=Santa Clara/O=pkg5/CN=ch5_ta1/emailAddress=ch5_ta1
        Last Update: Mar 20 10:20:52 2018 GMT
        Next Update: Dec 14 10:20:52 2020 GMT
Revoked Certificates:
    Serial Number: 07
        Revocation Date: Mar 20 10:20:52 2018 GMT
    Signature Algorithm: sha256WithRSAEncryption
         77:4f:ea:53:5b:cc:8d:91:f1:01:87:7c:de:8a:3a:03:ba:47:
         0f:43:c8:f7:ef:70:7c:68:8d:98:1d:66:a0:58:a5:4f:4f:5d:
         39:d2:ac:62:37:20:e4:96:b8:a1:f3:ba:82:4a:96:86:a8:2b:
         d3:e5:5c:5c:f3:51:8f:68:c3:fe:56:54:4d:e6:28:06:1e:70:
         fc:39:98:dc:03:11:b7:4e:97:c7:a4:89:1e:59:60:7b:89:74:
         be:75:4c:fa:7d:ca:6b:b9:a6:12:4e:51:ac:c7:07:af:96:cd:
         d4:72:6a:99:ad:32:33:db:ac:01:65:32:ec:61:38:f6:e7:c0:
         1b:02:fd:5c:d4:a0:10:fb:3e:b5:6e:b9:b7:53:88:4d:09:2e:
         83:e6:d3:3b:7e:38:a8:78:9c:04:ff:bd:20:01:24:af:e3:1f:
         43:ca:ab:d7:47:c3:d3:1f:d2:af:9b:7b:89:8e:e1:11:99:28:
         12:f2:d9:4c:8a:d9:2e:28:92:15:21:c0:7d:cb:ac:de:93:f2:
         e6:ca:1c:c3:e9:3e:64:ec:44:58:dd:52:1d:5f:c8:44:12:46:
         52:1a:7f:54:5c:8f:3a:6a:cb:0b:93:f1:cd:17:8f:33:42:62:
         c2:7f:f2:8c:91:24:34:25:91:b0:5b:fe:96:8e:a0:4e:46:ce:
         96:be:89:c7
-----BEGIN X509 CRL-----
MIIBzTCBtjANBgkqhkiG9w0BAQsFADBxMQswCQYDVQQGEwJVUzETMBEGA1UECAwK
Q2FsaWZvcm5pYTEUMBIGA1UEBwwLU2FudGEgQ2xhcmExDTALBgNVBAoMBHBrZzUx
EDAOBgNVBAMMB2NoNV90YTExFjAUBgkqhkiG9w0BCQEWB2NoNV90YTEXDTE4MDMy
MDEwMjA1MloXDTIwMTIxNDEwMjA1MlowFDASAgEHFw0xODAzMjAxMDIwNTJaMA0G
CSqGSIb3DQEBCwUAA4IBAQB3T+pTW8yNkfEBh3zeijoDukcPQ8j373B8aI2YHWag
WKVPT1050qxiNyDklrih87qCSpaGqCvT5Vxc81GPaMP+VlRN5igGHnD8OZjcAxG3
TpfHpIkeWWB7iXS+dUz6fcpruaYSTlGsxwevls3UcmqZrTIz26wBZTLsYTj258Ab
Av1c1KAQ+z61brm3U4hNCS6D5tM7fjioeJwE/70gASSv4x9DyqvXR8PTH9Kvm3uJ
juERmSgS8tlMitkuKJIVIcB9y6zek/LmyhzD6T5k7ERY3VIdX8hEEkZSGn9UXI86
assLk/HNF48zQmLCf/KMkSQ0JZGwW/6WjqBORs6WvonH
-----END X509 CRL-----
