Certificate Revocation List (CRL):
        Version 1 (0x0)
    Signature Algorithm: sha256WithRSAEncryption
        Issuer: /C=US/ST=California/L=Santa Clara/O=pkg5/CN=ch5_ta1/emailAddress=ch5_ta1
        Last Update: Nov 16 10:58:47 2017 GMT
        Next Update: Aug 12 10:58:47 2020 GMT
Revoked Certificates:
    Serial Number: 07
        Revocation Date: Nov 16 10:58:47 2017 GMT
    Signature Algorithm: sha256WithRSAEncryption
         d6:88:da:1e:36:2e:80:a5:ce:bc:ae:5b:07:b4:84:5c:72:f6:
         87:fc:7d:94:b8:75:21:b5:db:c3:05:42:30:68:9f:f9:57:0b:
         dc:1b:55:e9:73:04:5c:c0:82:0c:80:08:7b:44:19:39:dd:1e:
         a5:1e:31:98:90:54:f6:76:bd:8b:eb:c5:bb:a6:58:b6:c3:ec:
         5b:b3:08:d1:73:65:43:d3:58:ec:99:9e:03:75:4d:b3:11:b7:
         fc:2f:bd:67:cf:41:67:32:bb:c6:2f:7a:a0:43:a5:35:a1:23:
         4d:ed:c4:fd:35:ce:75:93:ec:5d:6f:64:2b:56:85:bc:e5:c4:
         65:1f:e1:c3:35:58:c7:b3:57:99:ce:a3:09:38:f5:10:92:85:
         84:d1:5b:86:63:ed:69:d4:42:c4:4a:0a:7c:e0:4f:24:bf:db:
         60:da:0b:84:6a:6d:58:33:ed:51:ae:63:8f:e4:17:c9:79:21:
         79:81:34:d6:f7:c8:99:0a:1b:14:38:c7:94:c5:75:65:46:e6:
         03:b8:55:81:bd:02:fe:4b:74:e4:96:4d:89:9b:59:d8:f8:6f:
         77:eb:61:d3:7a:eb:d9:c2:7f:8c:a5:50:0f:d3:32:2f:da:df:
         91:00:08:7d:82:e4:6b:c8:2d:41:57:bf:dd:87:06:24:d5:ae:
         e4:bd:11:bf
-----BEGIN X509 CRL-----
MIIBzTCBtjANBgkqhkiG9w0BAQsFADBxMQswCQYDVQQGEwJVUzETMBEGA1UECAwK
Q2FsaWZvcm5pYTEUMBIGA1UEBwwLU2FudGEgQ2xhcmExDTALBgNVBAoMBHBrZzUx
EDAOBgNVBAMMB2NoNV90YTExFjAUBgkqhkiG9w0BCQEWB2NoNV90YTEXDTE3MTEx
NjEwNTg0N1oXDTIwMDgxMjEwNTg0N1owFDASAgEHFw0xNzExMTYxMDU4NDdaMA0G
CSqGSIb3DQEBCwUAA4IBAQDWiNoeNi6Apc68rlsHtIRccvaH/H2UuHUhtdvDBUIw
aJ/5VwvcG1XpcwRcwIIMgAh7RBk53R6lHjGYkFT2dr2L68W7pli2w+xbswjRc2VD
01jsmZ4DdU2zEbf8L71nz0FnMrvGL3qgQ6U1oSNN7cT9Nc51k+xdb2QrVoW85cRl
H+HDNVjHs1eZzqMJOPUQkoWE0VuGY+1p1ELESgp84E8kv9tg2guEam1YM+1RrmOP
5BfJeSF5gTTW98iZChsUOMeUxXVlRuYDuFWBvQL+S3Tklk2Jm1nY+G9362HTeuvZ
wn+MpVAP0zIv2t+RAAh9guRryC1BV7/dhwYk1a7kvRG/
-----END X509 CRL-----
