Certificate Revocation List (CRL):
        Version 1 (0x0)
        Signature Algorithm: sha256WithRSAEncryption
        Issuer: C = US, ST = California, L = Santa Clara, O = pkg5, CN = ch5_ta1, emailAddress = ch5_ta1
        Last Update: Oct 22 10:15:06 2021 GMT
        Next Update: Jul 18 10:15:06 2024 GMT
Revoked Certificates:
    Serial Number: 07
        Revocation Date: Oct 22 10:15:06 2021 GMT
    Signature Algorithm: sha256WithRSAEncryption
    Signature Value:
        92:12:a7:41:e0:8a:d6:6e:b0:11:83:9d:a8:6d:b0:a8:54:56:
        c6:73:b5:3b:12:d6:e2:bc:36:16:dc:59:f0:6e:dd:94:f2:84:
        81:2a:ff:b0:5f:20:6d:df:88:80:f2:0a:d3:d0:a7:f0:42:52:
        a8:fb:d4:ad:a9:f1:62:36:8b:8e:85:df:bf:77:20:73:36:fd:
        2d:50:e7:ec:5e:53:3f:ef:15:30:3d:c4:05:b6:9d:4c:5f:08:
        e7:53:87:8c:e0:3d:de:1b:ee:36:64:a6:85:fc:c7:74:0c:2d:
        d3:6a:56:87:9b:e0:31:4f:18:99:8c:f7:f3:56:48:38:b3:bf:
        90:74:10:aa:65:67:b0:7e:34:4a:e5:5c:45:ff:d2:53:bc:39:
        06:c4:42:27:6f:bf:5e:18:1b:7f:4b:4f:92:16:7c:51:eb:d4:
        4e:7a:ac:18:89:15:fd:54:cc:37:8b:f5:b7:0b:a8:5e:a4:5d:
        28:ac:f9:fe:38:fa:ba:dd:af:b7:91:35:ae:d8:54:10:45:18:
        30:d5:63:71:99:89:35:b4:9a:24:61:65:be:a2:a3:91:71:d3:
        df:c9:2b:db:0b:63:04:1a:81:a9:97:99:d1:7c:ec:e4:db:c1:
        02:56:7d:5a:2b:79:7b:47:82:5f:03:4b:ee:11:8a:a2:ef:c0:
        16:41:90:ae
-----BEGIN X509 CRL-----
MIIBzTCBtjANBgkqhkiG9w0BAQsFADBxMQswCQYDVQQGEwJVUzETMBEGA1UECAwK
Q2FsaWZvcm5pYTEUMBIGA1UEBwwLU2FudGEgQ2xhcmExDTALBgNVBAoMBHBrZzUx
EDAOBgNVBAMMB2NoNV90YTExFjAUBgkqhkiG9w0BCQEWB2NoNV90YTEXDTIxMTAy
MjEwMTUwNloXDTI0MDcxODEwMTUwNlowFDASAgEHFw0yMTEwMjIxMDE1MDZaMA0G
CSqGSIb3DQEBCwUAA4IBAQCSEqdB4IrWbrARg52obbCoVFbGc7U7EtbivDYW3Fnw
bt2U8oSBKv+wXyBt34iA8grT0KfwQlKo+9StqfFiNouOhd+/dyBzNv0tUOfsXlM/
7xUwPcQFtp1MXwjnU4eM4D3eG+42ZKaF/Md0DC3TalaHm+AxTxiZjPfzVkg4s7+Q
dBCqZWewfjRK5VxF/9JTvDkGxEInb79eGBt/S0+SFnxR69ROeqwYiRX9VMw3i/W3
C6hepF0orPn+OPq63a+3kTWu2FQQRRgw1WNxmYk1tJokYWW+oqORcdPfySvbC2ME
GoGpl5nRfOzk28ECVn1aK3l7R4JfA0vuEYqi78AWQZCu
-----END X509 CRL-----
