Certificate Revocation List (CRL):
        Version 1 (0x0)
        Signature Algorithm: sha256WithRSAEncryption
        Issuer: C = US, ST = California, L = Santa Clara, O = pkg5, CN = ch5_ta1, emailAddress = ch5_ta1
        Last Update: Nov 17 23:01:28 2020 GMT
        Next Update: Aug 14 23:01:28 2023 GMT
Revoked Certificates:
    Serial Number: 07
        Revocation Date: Nov 17 23:01:28 2020 GMT
    Signature Algorithm: sha256WithRSAEncryption
         53:72:eb:12:50:1c:b4:92:8f:0a:00:a5:ab:7d:91:c3:97:65:
         ab:50:aa:d5:e8:aa:5f:d1:cd:38:ed:24:fc:98:38:f7:1e:b3:
         26:49:34:72:8a:4c:75:d4:56:f7:d4:55:d1:f9:c6:96:2e:09:
         f6:45:19:b9:e5:62:6e:b6:de:fa:1e:92:c5:df:f8:5d:2b:e6:
         48:13:15:13:da:e9:6b:17:7f:a5:97:94:25:67:62:4a:46:53:
         bb:be:b9:bd:7b:f8:db:15:43:df:f1:7c:7d:0c:49:84:2d:1c:
         14:bc:e5:60:6d:84:7c:0b:62:c8:03:67:4e:f5:40:c3:41:3b:
         16:46:2c:45:03:df:fe:8c:94:b0:74:1f:b8:e3:cf:43:ed:b2:
         88:a9:9d:a1:fa:82:0e:8d:ef:de:35:24:12:92:c6:75:6a:00:
         25:59:99:e5:0f:23:3a:7d:67:61:c8:1f:40:f3:d2:ef:bc:5c:
         8a:bf:ca:f4:21:8a:5e:44:ae:00:a2:d1:f7:82:79:57:28:6a:
         ed:a6:34:2c:dd:64:40:a3:4d:eb:2a:6b:84:a4:5e:e5:af:fc:
         fe:1a:67:26:48:6e:51:b3:a6:56:6f:4a:0a:7c:36:73:70:07:
         c1:e9:be:35:56:ab:3b:a5:41:b9:ad:62:b8:d6:db:23:93:01:
         1c:ed:4c:95
-----BEGIN X509 CRL-----
MIIBzTCBtjANBgkqhkiG9w0BAQsFADBxMQswCQYDVQQGEwJVUzETMBEGA1UECAwK
Q2FsaWZvcm5pYTEUMBIGA1UEBwwLU2FudGEgQ2xhcmExDTALBgNVBAoMBHBrZzUx
EDAOBgNVBAMMB2NoNV90YTExFjAUBgkqhkiG9w0BCQEWB2NoNV90YTEXDTIwMTEx
NzIzMDEyOFoXDTIzMDgxNDIzMDEyOFowFDASAgEHFw0yMDExMTcyMzAxMjhaMA0G
CSqGSIb3DQEBCwUAA4IBAQBTcusSUBy0ko8KAKWrfZHDl2WrUKrV6Kpf0c047ST8
mDj3HrMmSTRyikx11Fb31FXR+caWLgn2RRm55WJutt76HpLF3/hdK+ZIExUT2ulr
F3+ll5QlZ2JKRlO7vrm9e/jbFUPf8Xx9DEmELRwUvOVgbYR8C2LIA2dO9UDDQTsW
RixFA9/+jJSwdB+4489D7bKIqZ2h+oIOje/eNSQSksZ1agAlWZnlDyM6fWdhyB9A
89LvvFyKv8r0IYpeRK4AotH3gnlXKGrtpjQs3WRAo03rKmuEpF7lr/z+GmcmSG5R
s6ZWb0oKfDZzcAfB6b41Vqs7pUG5rWK41tsjkwEc7UyV
-----END X509 CRL-----
