Certificate Revocation List (CRL):
        Version 1 (0x0)
    Signature Algorithm: sha256WithRSAEncryption
        Issuer: /C=US/ST=California/L=Santa Clara/O=pkg5/CN=ch5_ta1/emailAddress=ch5_ta1
        Last Update: Nov 28 22:50:55 2016 GMT
        Next Update: Aug 25 22:50:55 2019 GMT
Revoked Certificates:
    Serial Number: 07
        Revocation Date: Nov 28 22:50:55 2016 GMT
    Signature Algorithm: sha256WithRSAEncryption
         6d:10:99:0d:9d:c0:6d:d8:7c:fb:2f:8c:8c:74:0c:5d:7e:60:
         7a:df:62:c5:67:98:d3:0a:ce:62:59:2a:81:19:7e:ad:4d:24:
         c0:58:ac:78:0c:ae:55:08:b3:f1:74:f0:af:b9:67:d5:c7:05:
         05:82:2b:c4:01:f8:57:67:4d:4b:f1:bc:3a:03:2d:81:85:f8:
         94:16:7d:6f:50:8a:47:e2:c1:f5:07:ab:b4:54:14:c9:81:32:
         65:ef:61:4f:98:ab:2d:12:da:7e:9b:d3:37:ef:e1:73:22:0a:
         59:ca:a8:c2:9b:67:62:e7:2e:2e:9d:84:e9:16:10:af:e9:21:
         4b:a8:ea:e7:b8:1e:e4:dd:71:e1:e6:8a:92:ba:de:5e:a9:c2:
         d5:76:d5:e4:d4:19:48:83:a4:e1:06:6a:2b:69:98:8d:3b:e0:
         2c:23:b7:cd:cc:e3:d4:91:f8:09:0b:65:b5:ed:19:ca:74:53:
         b0:09:aa:ce:be:b4:c9:00:a3:8e:89:50:b4:8d:4f:1f:5b:2c:
         70:98:09:bf:37:8a:69:21:bb:89:63:84:0a:1e:29:d6:19:89:
         3a:1e:2f:c0:7b:7b:05:26:cb:53:f2:6a:b9:33:30:fd:90:56:
         2c:75:02:f0:44:a4:f3:81:e1:25:4b:06:61:38:ce:de:df:e2:
         73:f5:64:4a
-----BEGIN X509 CRL-----
MIIBzTCBtjANBgkqhkiG9w0BAQsFADBxMQswCQYDVQQGEwJVUzETMBEGA1UECAwK
Q2FsaWZvcm5pYTEUMBIGA1UEBwwLU2FudGEgQ2xhcmExDTALBgNVBAoMBHBrZzUx
EDAOBgNVBAMMB2NoNV90YTExFjAUBgkqhkiG9w0BCQEWB2NoNV90YTEXDTE2MTEy
ODIyNTA1NVoXDTE5MDgyNTIyNTA1NVowFDASAgEHFw0xNjExMjgyMjUwNTVaMA0G
CSqGSIb3DQEBCwUAA4IBAQBtEJkNncBt2Hz7L4yMdAxdfmB632LFZ5jTCs5iWSqB
GX6tTSTAWKx4DK5VCLPxdPCvuWfVxwUFgivEAfhXZ01L8bw6Ay2BhfiUFn1vUIpH
4sH1B6u0VBTJgTJl72FPmKstEtp+m9M37+FzIgpZyqjCm2di5y4unYTpFhCv6SFL
qOrnuB7k3XHh5oqSut5eqcLVdtXk1BlIg6ThBmoraZiNO+AsI7fNzOPUkfgJC2W1
7RnKdFOwCarOvrTJAKOOiVC0jU8fWyxwmAm/N4ppIbuJY4QKHinWGYk6Hi/Ae3sF
JstT8mq5MzD9kFYsdQLwRKTzgeElSwZhOM7e3+Jz9WRK
-----END X509 CRL-----
