Certificate Revocation List (CRL):
        Version 1 (0x0)
        Signature Algorithm: sha256WithRSAEncryption
        Issuer: C = US, ST = California, L = Santa Clara, O = pkg5, CN = ch5_ta1, emailAddress = ch5_ta1
        Last Update: Dec 15 15:37:17 2022 GMT
        Next Update: Sep 10 15:37:17 2025 GMT
Revoked Certificates:
    Serial Number: 07
        Revocation Date: Dec 15 15:37:17 2022 GMT
    Signature Algorithm: sha256WithRSAEncryption
    Signature Value:
        6c:3c:7f:e9:6a:a7:8b:c0:e2:13:17:ab:19:71:bb:17:25:fe:
        12:b0:b9:d7:09:85:ab:d0:43:be:b9:11:47:cd:bf:9f:85:4b:
        4e:cb:01:0f:20:01:1f:94:d1:a8:cd:e0:ab:00:64:1b:20:5d:
        8d:ed:2b:8e:a2:58:d2:a9:35:6f:8b:08:7c:77:83:b6:d2:1f:
        74:e7:31:54:db:72:31:9f:b2:80:b4:21:3c:be:01:be:27:f6:
        ca:c2:38:60:fb:6b:bb:60:44:6b:75:a9:05:6b:f4:ef:74:93:
        04:c6:8a:6e:06:a1:ad:44:b3:33:fd:a5:8e:cc:e2:1e:d6:2e:
        36:90:73:b8:fe:69:e1:f6:65:cc:2d:21:b4:2a:f2:9a:2b:55:
        6e:86:d2:ee:fa:46:9c:49:bf:9c:60:0c:87:41:cc:cb:b5:b0:
        af:81:32:6c:0a:e0:78:e6:17:4a:f9:e8:07:cc:c6:fc:4b:8b:
        2a:02:56:22:f2:be:9a:47:7a:96:48:d0:c7:d2:f4:ce:db:96:
        f0:00:88:74:46:00:7f:ab:3c:50:99:f0:02:0d:a3:ea:75:34:
        47:ea:ed:89:e7:87:bb:35:e1:f1:16:c3:45:d8:02:cc:80:c4:
        0d:43:f7:0b:41:90:83:aa:9f:a4:ab:18:4a:12:58:ca:01:1d:
        95:8b:c4:15
-----BEGIN X509 CRL-----
MIIBzTCBtjANBgkqhkiG9w0BAQsFADBxMQswCQYDVQQGEwJVUzETMBEGA1UECAwK
Q2FsaWZvcm5pYTEUMBIGA1UEBwwLU2FudGEgQ2xhcmExDTALBgNVBAoMBHBrZzUx
EDAOBgNVBAMMB2NoNV90YTExFjAUBgkqhkiG9w0BCQEWB2NoNV90YTEXDTIyMTIx
NTE1MzcxN1oXDTI1MDkxMDE1MzcxN1owFDASAgEHFw0yMjEyMTUxNTM3MTdaMA0G
CSqGSIb3DQEBCwUAA4IBAQBsPH/paqeLwOITF6sZcbsXJf4SsLnXCYWr0EO+uRFH
zb+fhUtOywEPIAEflNGozeCrAGQbIF2N7SuOoljSqTVviwh8d4O20h905zFU23Ix
n7KAtCE8vgG+J/bKwjhg+2u7YERrdakFa/TvdJMExopuBqGtRLMz/aWOzOIe1i42
kHO4/mnh9mXMLSG0KvKaK1VuhtLu+kacSb+cYAyHQczLtbCvgTJsCuB45hdK+egH
zMb8S4sqAlYi8r6aR3qWSNDH0vTO25bwAIh0RgB/qzxQmfACDaPqdTRH6u2J54e7
NeHxFsNF2ALMgMQNQ/cLQZCDqp+kqxhKEljKAR2Vi8QV
-----END X509 CRL-----
