Certificate Revocation List (CRL):
        Version 1 (0x0)
        Signature Algorithm: sha256WithRSAEncryption
        Issuer: C=US, ST=California, L=Santa Clara, O=pkg5, CN=ch5_ta1, emailAddress=ch5_ta1
        Last Update: Nov 14 14:26:52 2024 GMT
        Next Update: Aug 11 14:26:52 2027 GMT
Revoked Certificates:
    Serial Number: 07
        Revocation Date: Nov 14 14:26:52 2024 GMT
    Signature Algorithm: sha256WithRSAEncryption
    Signature Value:
        79:ac:aa:c7:9d:0a:7f:e6:e5:ab:7d:46:de:52:eb:40:85:af:
        2c:c9:41:17:90:ce:6d:41:eb:a0:3d:cd:b5:80:95:84:ff:27:
        a5:29:b1:85:fa:6b:64:e1:c1:dc:c9:90:06:fa:87:cb:9b:cd:
        9d:67:47:0d:9f:36:41:08:69:38:c4:fa:d3:04:95:5f:99:6b:
        0a:90:e2:2b:7b:eb:91:7b:0b:57:ef:4d:e7:48:51:bc:77:d1:
        a9:3c:3f:ea:d0:d1:0d:23:43:61:ac:22:09:89:1a:10:38:40:
        6c:af:30:a8:0a:b6:35:58:b6:0e:a3:e6:ff:86:01:47:82:61:
        ce:a3:05:64:dc:91:d8:1d:9d:8d:2e:4f:ca:c8:f1:69:6b:c4:
        a8:d5:a6:18:c0:0b:58:b2:86:4f:42:88:ec:4e:d5:ec:1f:61:
        78:5a:a4:64:41:4e:6e:32:05:c2:ce:9b:35:86:3e:6a:8d:96:
        44:96:e1:bd:c0:c9:51:80:47:ef:67:26:c3:32:4c:f8:4e:ac:
        3e:d6:a8:ae:ea:17:1c:22:f5:cc:16:53:ab:e1:b9:26:f3:1c:
        5b:4f:dc:c6:14:21:92:4d:3d:b2:2d:c9:9b:6f:7d:71:7d:03:
        3f:e7:f2:79:13:61:12:df:23:d7:a9:fd:de:a4:d8:a3:e9:55:
        2a:97:c1:be
-----BEGIN X509 CRL-----
MIIBzTCBtjANBgkqhkiG9w0BAQsFADBxMQswCQYDVQQGEwJVUzETMBEGA1UECAwK
Q2FsaWZvcm5pYTEUMBIGA1UEBwwLU2FudGEgQ2xhcmExDTALBgNVBAoMBHBrZzUx
EDAOBgNVBAMMB2NoNV90YTExFjAUBgkqhkiG9w0BCQEWB2NoNV90YTEXDTI0MTEx
NDE0MjY1MloXDTI3MDgxMTE0MjY1MlowFDASAgEHFw0yNDExMTQxNDI2NTJaMA0G
CSqGSIb3DQEBCwUAA4IBAQB5rKrHnQp/5uWrfUbeUutAha8syUEXkM5tQeugPc21
gJWE/yelKbGF+mtk4cHcyZAG+ofLm82dZ0cNnzZBCGk4xPrTBJVfmWsKkOIre+uR
ewtX703nSFG8d9GpPD/q0NENI0NhrCIJiRoQOEBsrzCoCrY1WLYOo+b/hgFHgmHO
owVk3JHYHZ2NLk/KyPFpa8So1aYYwAtYsoZPQojsTtXsH2F4WqRkQU5uMgXCzps1
hj5qjZZEluG9wMlRgEfvZybDMkz4Tqw+1qiu6hccIvXMFlOr4bkm8xxbT9zGFCGS
TT2yLcmbb31xfQM/5/J5E2ES3yPXqf3epNij6VUql8G+
-----END X509 CRL-----
