Certificate Revocation List (CRL):
        Version 1 (0x0)
        Signature Algorithm: sha256WithRSAEncryption
        Issuer: C = US, ST = California, L = Santa Clara, O = pkg5, CN = ch5_ta1, emailAddress = ch5_ta1
        Last Update: Oct 24 21:43:01 2023 GMT
        Next Update: Jul 20 21:43:01 2026 GMT
Revoked Certificates:
    Serial Number: 07
        Revocation Date: Oct 24 21:43:00 2023 GMT
    Signature Algorithm: sha256WithRSAEncryption
    Signature Value:
        d5:02:a2:b8:51:6d:74:5b:dd:21:22:19:1c:7f:16:c7:20:6a:
        d0:5b:d2:2e:24:cd:3f:fb:44:ee:a0:f3:35:06:97:b1:eb:6c:
        2f:70:c4:f2:cd:c0:cd:10:02:2e:63:eb:32:a0:8b:ab:a3:5d:
        b1:d9:bc:fa:55:19:22:3e:9f:ca:2f:5b:0c:82:b5:3f:cf:e6:
        9a:2f:1b:e7:5a:80:82:7f:b8:07:f8:b8:64:32:0f:8f:08:6f:
        4e:e0:0e:aa:10:2d:06:e0:64:fb:8c:97:c6:a2:30:11:2f:35:
        1b:d5:69:34:e8:97:72:fb:0d:77:35:5a:ae:3b:99:d1:d2:ff:
        b5:40:c5:44:12:ba:9d:be:78:c0:a7:30:03:65:43:b1:9f:03:
        98:d6:da:5b:d4:17:b3:ca:34:99:8e:fb:27:1a:b1:ad:f6:78:
        91:ee:06:ca:31:34:21:3e:3d:c9:db:1f:09:1e:57:2c:18:9e:
        61:45:03:72:a4:0a:f4:b2:e5:c8:cd:00:a1:2f:0b:00:5f:35:
        eb:95:cd:61:58:cf:76:78:75:6c:c5:9e:34:33:48:4a:b9:78:
        a1:b4:ac:cd:84:f0:0c:11:7a:49:46:b1:0e:2f:dc:7d:19:1a:
        9b:d4:a9:e6:9c:62:29:31:d4:84:bb:3a:19:1d:5f:25:dc:6c:
        3a:5b:bf:3a
-----BEGIN X509 CRL-----
MIIBzTCBtjANBgkqhkiG9w0BAQsFADBxMQswCQYDVQQGEwJVUzETMBEGA1UECAwK
Q2FsaWZvcm5pYTEUMBIGA1UEBwwLU2FudGEgQ2xhcmExDTALBgNVBAoMBHBrZzUx
EDAOBgNVBAMMB2NoNV90YTExFjAUBgkqhkiG9w0BCQEWB2NoNV90YTEXDTIzMTAy
NDIxNDMwMVoXDTI2MDcyMDIxNDMwMVowFDASAgEHFw0yMzEwMjQyMTQzMDBaMA0G
CSqGSIb3DQEBCwUAA4IBAQDVAqK4UW10W90hIhkcfxbHIGrQW9IuJM0/+0TuoPM1
Bpex62wvcMTyzcDNEAIuY+syoIuro12x2bz6VRkiPp/KL1sMgrU/z+aaLxvnWoCC
f7gH+LhkMg+PCG9O4A6qEC0G4GT7jJfGojARLzUb1Wk06Jdy+w13NVquO5nR0v+1
QMVEErqdvnjApzADZUOxnwOY1tpb1BezyjSZjvsnGrGt9niR7gbKMTQhPj3J2x8J
HlcsGJ5hRQNypAr0suXIzQChLwsAXzXrlc1hWM92eHVsxZ40M0hKuXihtKzNhPAM
EXpJRrEOL9x9GRqb1KnmnGIpMdSEuzoZHV8l3Gw6W786
-----END X509 CRL-----
