Certificate Revocation List (CRL):
        Version 1 (0x0)
        Signature Algorithm: sha256WithRSAEncryption
        Issuer: C = US, ST = California, L = Santa Clara, O = pkg5, CN = ch5_ta1, emailAddress = ch5_ta1
        Last Update: May 23 15:47:15 2024 GMT
        Next Update: Feb 17 15:47:15 2027 GMT
Revoked Certificates:
    Serial Number: 07
        Revocation Date: May 23 15:47:15 2024 GMT
    Signature Algorithm: sha256WithRSAEncryption
    Signature Value:
        70:eb:6b:88:5d:7d:0a:2f:eb:94:52:89:3d:ba:a1:3e:cf:17:
        43:41:4a:5b:79:b7:a4:6c:26:a6:15:38:66:c8:55:53:1b:49:
        3e:d1:22:5e:91:42:f1:be:42:ac:9c:de:6e:ad:83:61:13:30:
        f2:41:b8:fa:2c:ee:18:4b:b3:e9:6c:ec:43:f5:fb:25:91:60:
        fa:de:56:f4:21:20:b6:59:ee:1b:0b:7d:be:ac:4d:4b:70:a6:
        fd:a3:7b:31:0e:cb:77:92:3c:2b:67:d6:8c:a8:d3:d0:64:a2:
        df:d2:59:12:1c:44:85:86:39:e7:30:6c:37:e8:27:3e:bf:c6:
        3a:2d:b3:6c:7e:49:43:72:3f:36:00:a3:c8:c8:9e:7c:ca:9f:
        16:b2:9a:f6:da:f0:d1:16:14:73:6f:3b:0a:ea:61:50:09:bb:
        33:17:dc:26:44:7b:27:72:63:76:7b:6c:da:06:be:78:f4:b7:
        8c:24:8f:0f:6a:8a:9d:6a:7f:a2:32:13:3b:67:f3:29:64:ad:
        cf:a0:1f:3d:54:64:a5:1e:83:b9:1c:3b:4d:2e:39:84:5a:d8:
        de:96:55:cb:7d:54:14:2d:60:b0:62:db:34:b6:f3:24:9c:62:
        e3:b8:32:6a:6c:0e:75:85:cc:8c:98:5c:a1:50:91:aa:ce:2f:
        e0:98:d3:39
-----BEGIN X509 CRL-----
MIIBzTCBtjANBgkqhkiG9w0BAQsFADBxMQswCQYDVQQGEwJVUzETMBEGA1UECAwK
Q2FsaWZvcm5pYTEUMBIGA1UEBwwLU2FudGEgQ2xhcmExDTALBgNVBAoMBHBrZzUx
EDAOBgNVBAMMB2NoNV90YTExFjAUBgkqhkiG9w0BCQEWB2NoNV90YTEXDTI0MDUy
MzE1NDcxNVoXDTI3MDIxNzE1NDcxNVowFDASAgEHFw0yNDA1MjMxNTQ3MTVaMA0G
CSqGSIb3DQEBCwUAA4IBAQBw62uIXX0KL+uUUok9uqE+zxdDQUpbebekbCamFThm
yFVTG0k+0SJekULxvkKsnN5urYNhEzDyQbj6LO4YS7PpbOxD9fslkWD63lb0ISC2
We4bC32+rE1LcKb9o3sxDst3kjwrZ9aMqNPQZKLf0lkSHESFhjnnMGw36Cc+v8Y6
LbNsfklDcj82AKPIyJ58yp8Wspr22vDRFhRzbzsK6mFQCbszF9wmRHsncmN2e2za
Br549LeMJI8Paoqdan+iMhM7Z/MpZK3PoB89VGSlHoO5HDtNLjmEWtjellXLfVQU
LWCwYts0tvMknGLjuDJqbA51hcyMmFyhUJGqzi/gmNM5
-----END X509 CRL-----
