Certificate Revocation List (CRL):
        Version 1 (0x0)
        Signature Algorithm: sha256WithRSAEncryption
        Issuer: C = US, ST = California, L = Santa Clara, O = pkg5, CN = ta5, emailAddress = ta5
        Last Update: Dec 15 15:37:31 2022 GMT
        Next Update: Sep 10 15:37:31 2025 GMT
Revoked Certificates:
    Serial Number: 07
        Revocation Date: Dec 15 15:37:17 2022 GMT
    Serial Number: 24
        Revocation Date: Dec 15 15:37:28 2022 GMT
    Serial Number: 28
        Revocation Date: Dec 15 15:37:30 2022 GMT
    Serial Number: 29
        Revocation Date: Dec 15 15:37:31 2022 GMT
    Signature Algorithm: sha256WithRSAEncryption
    Signature Value:
        8a:20:e4:d2:05:5c:5b:ef:37:ec:32:27:7a:36:07:7a:ff:1c:
        8c:1c:d7:56:84:1d:94:b3:e6:09:e7:34:64:6e:ec:8e:bb:8b:
        bf:89:28:34:d2:98:8f:62:df:06:96:1d:1b:55:b0:30:09:f5:
        ba:6f:85:ec:32:28:7f:04:58:63:4d:09:80:ab:bd:3f:78:ee:
        32:48:d9:89:01:aa:95:dc:e9:de:f7:32:57:a1:ed:23:63:b2:
        4f:75:71:72:07:6d:51:30:55:98:dd:c3:03:7e:dc:a7:62:1b:
        be:37:e8:49:ae:89:c8:d4:fc:13:1a:ab:a1:07:ca:5c:76:2d:
        bc:bc:f6:58:cb:57:12:4c:e8:d5:92:20:d8:25:c6:06:6d:a6:
        c4:19:b6:cd:51:28:af:a9:3a:93:ce:78:41:86:23:80:60:a9:
        8a:0b:3a:d3:27:f6:65:11:ca:e8:5c:3a:2e:11:9f:78:5b:90:
        b8:29:7c:6b:e3:58:5b:fc:47:33:3b:a1:d3:10:af:9c:28:72:
        2b:e7:ad:5f:d3:d2:ec:99:e2:81:08:73:80:67:4c:74:7a:4b:
        1c:96:e1:27:ba:ab:45:d1:94:e7:db:bf:85:34:49:3f:24:73:
        43:89:c3:49:02:89:f1:37:3d:6a:9b:9c:4f:1c:ca:90:5f:6e:
        89:d5:6a:bd
-----BEGIN X509 CRL-----
MIICATCB6jANBgkqhkiG9w0BAQsFADBpMQswCQYDVQQGEwJVUzETMBEGA1UECAwK
Q2FsaWZvcm5pYTEUMBIGA1UEBwwLU2FudGEgQ2xhcmExDTALBgNVBAoMBHBrZzUx
DDAKBgNVBAMMA3RhNTESMBAGCSqGSIb3DQEJARYDdGE1Fw0yMjEyMTUxNTM3MzFa
Fw0yNTA5MTAxNTM3MzFaMFAwEgIBBxcNMjIxMjE1MTUzNzE3WjASAgEkFw0yMjEy
MTUxNTM3MjhaMBICASgXDTIyMTIxNTE1MzczMFowEgIBKRcNMjIxMjE1MTUzNzMx
WjANBgkqhkiG9w0BAQsFAAOCAQEAiiDk0gVcW+837DInejYHev8cjBzXVoQdlLPm
Cec0ZG7sjruLv4koNNKYj2LfBpYdG1WwMAn1um+F7DIofwRYY00JgKu9P3juMkjZ
iQGqldzp3vcyV6HtI2OyT3VxcgdtUTBVmN3DA37cp2IbvjfoSa6JyNT8ExqroQfK
XHYtvLz2WMtXEkzo1ZIg2CXGBm2mxBm2zVEor6k6k854QYYjgGCpigs60yf2ZRHK
6Fw6LhGfeFuQuCl8a+NYW/xHMzuh0xCvnChyK+etX9PS7JnigQhzgGdMdHpLHJbh
J7qrRdGU59u/hTRJPyRzQ4nDSQKJ8Tc9apucTxzKkF9uidVqvQ==
-----END X509 CRL-----
