Certificate Revocation List (CRL):
        Version 1 (0x0)
    Signature Algorithm: sha256WithRSAEncryption
        Issuer: /C=US/ST=California/L=Santa Clara/O=pkg5/CN=ta5/emailAddress=ta5
        Last Update: Nov 28 22:50:58 2016 GMT
        Next Update: Aug 25 22:50:58 2019 GMT
Revoked Certificates:
    Serial Number: 07
        Revocation Date: Nov 28 22:50:55 2016 GMT
    Serial Number: 23
        Revocation Date: Nov 28 22:50:57 2016 GMT
    Serial Number: 27
        Revocation Date: Nov 28 22:50:58 2016 GMT
    Serial Number: 28
        Revocation Date: Nov 28 22:50:58 2016 GMT
    Signature Algorithm: sha256WithRSAEncryption
         b0:4c:cd:ab:55:58:b5:4b:26:74:e9:35:32:2c:84:99:30:e4:
         c2:34:8c:5e:26:4d:4e:c4:0b:7d:87:12:41:d1:db:a4:d6:12:
         b7:4e:7f:9f:70:fe:a6:bd:9c:c9:b4:55:31:c4:1c:f6:c7:f2:
         aa:37:99:42:f0:84:e7:02:3f:33:44:6c:54:bc:98:1d:7e:08:
         9c:c1:66:59:9e:51:31:b7:34:4c:ab:3b:98:c2:78:22:67:91:
         62:7f:3c:c5:b4:4f:a6:c0:e1:b8:af:a2:1b:ca:1d:e8:24:f4:
         31:d5:60:4b:ce:3f:68:4d:98:4c:4f:34:d0:3d:d9:de:74:c2:
         d7:0d:c3:81:cc:dc:d0:d1:ca:e6:f9:0b:e0:92:fc:3f:4c:25:
         ac:ef:b0:14:af:5c:89:80:99:57:98:90:5b:af:f8:34:7d:f9:
         2b:b5:02:6c:5c:d7:c7:49:42:2d:37:cf:40:9f:58:11:6f:ef:
         a3:4c:7a:65:d2:bd:a6:c5:70:8f:bb:8e:28:8a:65:51:45:ed:
         b2:8a:32:ae:4a:4b:fa:92:09:31:4c:87:6d:78:da:e6:cf:9c:
         a5:a5:36:72:94:59:40:39:4d:39:c6:c0:8d:1d:15:8f:ed:1d:
         90:97:61:45:e2:0e:5e:85:32:e2:04:1d:59:ea:30:ee:58:34:
         bb:5f:0d:48
-----BEGIN X509 CRL-----
MIICATCB6jANBgkqhkiG9w0BAQsFADBpMQswCQYDVQQGEwJVUzETMBEGA1UECAwK
Q2FsaWZvcm5pYTEUMBIGA1UEBwwLU2FudGEgQ2xhcmExDTALBgNVBAoMBHBrZzUx
DDAKBgNVBAMMA3RhNTESMBAGCSqGSIb3DQEJARYDdGE1Fw0xNjExMjgyMjUwNTha
Fw0xOTA4MjUyMjUwNThaMFAwEgIBBxcNMTYxMTI4MjI1MDU1WjASAgEjFw0xNjEx
MjgyMjUwNTdaMBICAScXDTE2MTEyODIyNTA1OFowEgIBKBcNMTYxMTI4MjI1MDU4
WjANBgkqhkiG9w0BAQsFAAOCAQEAsEzNq1VYtUsmdOk1MiyEmTDkwjSMXiZNTsQL
fYcSQdHbpNYSt05/n3D+pr2cybRVMcQc9sfyqjeZQvCE5wI/M0RsVLyYHX4InMFm
WZ5RMbc0TKs7mMJ4ImeRYn88xbRPpsDhuK+iG8od6CT0MdVgS84/aE2YTE800D3Z
3nTC1w3Dgczc0NHK5vkL4JL8P0wlrO+wFK9ciYCZV5iQW6/4NH35K7UCbFzXx0lC
LTfPQJ9YEW/vo0x6ZdK9psVwj7uOKIplUUXtsooyrkpL+pIJMUyHbXja5s+cpaU2
cpRZQDlNOcbAjR0Vj+0dkJdhReIOXoUy4gQdWeow7lg0u18NSA==
-----END X509 CRL-----
