Certificate Revocation List (CRL):
        Version 1 (0x0)
        Signature Algorithm: sha256WithRSAEncryption
        Issuer: C=US, ST=California, L=Santa Clara, O=pkg5, CN=ta5, emailAddress=ta5
        Last Update: Nov 14 14:26:57 2024 GMT
        Next Update: Aug 11 14:26:57 2027 GMT
Revoked Certificates:
    Serial Number: 07
        Revocation Date: Nov 14 14:26:52 2024 GMT
    Serial Number: 24
        Revocation Date: Nov 14 14:26:57 2024 GMT
    Serial Number: 28
        Revocation Date: Nov 14 14:26:57 2024 GMT
    Serial Number: 29
        Revocation Date: Nov 14 14:26:57 2024 GMT
    Signature Algorithm: sha256WithRSAEncryption
    Signature Value:
        58:49:cf:03:87:27:0b:02:9c:82:13:59:43:72:ad:95:57:45:
        f5:5b:bb:aa:f9:cc:9b:48:2a:20:e6:e7:d3:80:a8:2f:af:33:
        a8:8a:ba:ea:bb:94:ea:8a:a3:37:75:3e:79:b1:00:0b:85:31:
        23:b0:3c:31:e6:80:98:fd:ce:d9:95:da:aa:f6:77:b6:94:fb:
        ae:3b:f4:1d:96:e2:eb:e3:00:89:21:ef:b2:0a:0a:00:89:52:
        47:59:3a:cc:e7:9d:0b:7f:42:3e:98:ab:64:9b:dd:68:94:0e:
        d3:0f:e3:3e:1f:c7:e8:81:fd:7d:a2:8b:72:42:24:fb:5f:e1:
        b2:bf:75:66:b8:69:f4:3d:d6:5e:54:1c:5d:d7:81:14:1e:be:
        86:56:da:05:02:63:71:60:90:4e:79:6c:47:e4:81:ac:a8:5b:
        6a:17:e9:bf:da:fe:5c:77:c5:c9:33:4e:f2:cd:f1:dc:45:83:
        f2:2a:7f:bb:30:ff:06:64:fd:3f:ad:b3:66:55:cf:26:3a:ba:
        d0:46:a2:b2:28:0b:a5:e4:69:c6:c4:43:13:0b:cb:bf:15:67:
        8a:82:64:7d:9b:b1:06:ca:5c:a0:5e:76:00:d5:39:b4:46:67:
        17:78:47:5f:fd:51:e0:34:9f:ca:14:b6:21:fc:c1:43:2e:89:
        10:15:f3:ec
-----BEGIN X509 CRL-----
MIICATCB6jANBgkqhkiG9w0BAQsFADBpMQswCQYDVQQGEwJVUzETMBEGA1UECAwK
Q2FsaWZvcm5pYTEUMBIGA1UEBwwLU2FudGEgQ2xhcmExDTALBgNVBAoMBHBrZzUx
DDAKBgNVBAMMA3RhNTESMBAGCSqGSIb3DQEJARYDdGE1Fw0yNDExMTQxNDI2NTda
Fw0yNzA4MTExNDI2NTdaMFAwEgIBBxcNMjQxMTE0MTQyNjUyWjASAgEkFw0yNDEx
MTQxNDI2NTdaMBICASgXDTI0MTExNDE0MjY1N1owEgIBKRcNMjQxMTE0MTQyNjU3
WjANBgkqhkiG9w0BAQsFAAOCAQEAWEnPA4cnCwKcghNZQ3KtlVdF9Vu7qvnMm0gq
IObn04CoL68zqIq66ruU6oqjN3U+ebEAC4UxI7A8MeaAmP3O2ZXaqvZ3tpT7rjv0
HZbi6+MAiSHvsgoKAIlSR1k6zOedC39CPpirZJvdaJQO0w/jPh/H6IH9faKLckIk
+1/hsr91Zrhp9D3WXlQcXdeBFB6+hlbaBQJjcWCQTnlsR+SBrKhbahfpv9r+XHfF
yTNO8s3x3EWD8ip/uzD/BmT9P62zZlXPJjq60EaisigLpeRpxsRDEwvLvxVnioJk
fZuxBspcoF52ANU5tEZnF3hHX/1R4DSfyhS2IfzBQy6JEBXz7A==
-----END X509 CRL-----
