Certificate Revocation List (CRL):
        Version 1 (0x0)
        Signature Algorithm: sha256WithRSAEncryption
        Issuer: C = US, ST = California, L = Santa Clara, O = pkg5, CN = ta5, emailAddress = ta5
        Last Update: Nov 17 23:01:33 2020 GMT
        Next Update: Aug 14 23:01:33 2023 GMT
Revoked Certificates:
    Serial Number: 07
        Revocation Date: Nov 17 23:01:28 2020 GMT
    Serial Number: 24
        Revocation Date: Nov 17 23:01:32 2020 GMT
    Serial Number: 28
        Revocation Date: Nov 17 23:01:33 2020 GMT
    Serial Number: 29
        Revocation Date: Nov 17 23:01:33 2020 GMT
    Signature Algorithm: sha256WithRSAEncryption
         c1:70:5d:a0:63:40:d7:e3:4e:17:68:62:51:d5:58:25:b0:53:
         9e:c0:47:89:ff:36:b0:e5:71:90:e8:0c:0e:39:75:6e:b5:61:
         a9:19:bc:82:9e:71:15:38:0a:6c:ec:fe:72:fa:3d:33:d6:67:
         d4:c6:de:56:ca:ac:81:4d:17:4b:49:c8:14:6a:3e:17:22:44:
         ac:23:9f:3b:05:85:8b:e9:3b:ed:3c:96:e8:33:60:78:f5:e1:
         c2:d9:8b:05:1d:45:8f:e7:82:6b:46:56:5b:ea:ce:fa:a7:55:
         5c:69:27:4e:26:59:47:e6:ad:c2:4a:2b:c2:04:cc:95:b2:c2:
         13:e9:bf:5d:00:11:18:d6:35:11:bc:90:c3:c8:76:d1:e3:27:
         c6:75:ce:5a:7a:4e:ca:f3:8b:5e:61:59:48:d8:61:ca:5b:e5:
         36:78:9f:58:50:09:dc:01:97:7c:f3:0f:82:a9:8c:5d:fb:50:
         4b:e8:5f:67:25:47:e6:6c:5e:a9:9c:82:14:f1:cc:c6:b3:f1:
         63:8c:c8:42:27:a7:c7:9f:95:a5:a1:1f:cd:9c:e7:7a:a6:b9:
         fe:86:e9:8c:cf:43:f2:2a:b2:e6:39:2f:fe:27:1a:cd:af:33:
         6e:f7:ea:f2:22:68:21:a9:9f:fd:92:15:e2:9c:7e:33:bc:f6:
         f2:ea:6e:0f
-----BEGIN X509 CRL-----
MIICATCB6jANBgkqhkiG9w0BAQsFADBpMQswCQYDVQQGEwJVUzETMBEGA1UECAwK
Q2FsaWZvcm5pYTEUMBIGA1UEBwwLU2FudGEgQ2xhcmExDTALBgNVBAoMBHBrZzUx
DDAKBgNVBAMMA3RhNTESMBAGCSqGSIb3DQEJARYDdGE1Fw0yMDExMTcyMzAxMzNa
Fw0yMzA4MTQyMzAxMzNaMFAwEgIBBxcNMjAxMTE3MjMwMTI4WjASAgEkFw0yMDEx
MTcyMzAxMzJaMBICASgXDTIwMTExNzIzMDEzM1owEgIBKRcNMjAxMTE3MjMwMTMz
WjANBgkqhkiG9w0BAQsFAAOCAQEAwXBdoGNA1+NOF2hiUdVYJbBTnsBHif82sOVx
kOgMDjl1brVhqRm8gp5xFTgKbOz+cvo9M9Zn1MbeVsqsgU0XS0nIFGo+FyJErCOf
OwWFi+k77TyW6DNgePXhwtmLBR1Fj+eCa0ZWW+rO+qdVXGknTiZZR+atwkorwgTM
lbLCE+m/XQARGNY1EbyQw8h20eMnxnXOWnpOyvOLXmFZSNhhylvlNnifWFAJ3AGX
fPMPgqmMXftQS+hfZyVH5mxeqZyCFPHMxrPxY4zIQienx5+VpaEfzZzneqa5/obp
jM9D8iqy5jkv/icaza8zbvfq8iJoIamf/ZIV4px+M7z28upuDw==
-----END X509 CRL-----
