Certificate Revocation List (CRL):
        Version 1 (0x0)
        Signature Algorithm: sha256WithRSAEncryption
        Issuer: C = US, ST = California, L = Santa Clara, O = pkg5, CN = ta5, emailAddress = ta5
        Last Update: Oct 22 10:15:21 2021 GMT
        Next Update: Jul 18 10:15:21 2024 GMT
Revoked Certificates:
    Serial Number: 07
        Revocation Date: Oct 22 10:15:06 2021 GMT
    Serial Number: 24
        Revocation Date: Oct 22 10:15:18 2021 GMT
    Serial Number: 28
        Revocation Date: Oct 22 10:15:20 2021 GMT
    Serial Number: 29
        Revocation Date: Oct 22 10:15:21 2021 GMT
    Signature Algorithm: sha256WithRSAEncryption
    Signature Value:
        3e:c6:15:4f:f3:97:d3:bc:a5:c4:1a:e9:05:fa:bb:ca:f1:14:
        ca:b2:6c:a1:c3:b2:bb:34:2c:85:65:1e:e1:8b:4f:b8:9a:6b:
        15:5a:46:f2:b3:40:03:1b:29:2f:89:0a:d1:ab:c9:15:47:f1:
        91:01:a3:c1:33:11:50:3f:80:f8:1b:90:cc:32:a4:63:bf:f5:
        96:bf:52:ef:cc:bc:0d:02:ba:3c:3e:07:f2:05:f2:31:84:0d:
        63:dc:32:71:1a:54:24:15:69:e5:d5:8f:78:73:f8:68:e9:d2:
        dc:7e:0b:f7:c7:5c:2f:3a:43:04:53:5c:86:11:d3:4f:61:1e:
        e6:ec:fd:90:7e:fe:b2:6f:9b:ea:a1:84:3b:b6:fb:3e:53:6b:
        ec:39:ed:53:4e:b8:7a:72:86:f8:07:30:eb:7d:56:a3:00:34:
        2a:ec:3f:86:be:4a:37:de:de:89:2f:c3:50:d6:9e:b9:42:6e:
        15:6c:b4:6a:22:f9:eb:11:47:f9:b3:10:6e:06:20:8f:bf:4d:
        98:e9:bd:b5:72:dc:ee:ab:f8:45:b5:ac:b1:63:55:98:dc:24:
        41:54:37:c5:84:3a:d6:cf:f4:eb:7b:19:80:56:73:a8:25:84:
        04:f3:ec:42:c2:bf:9e:86:f7:e7:e2:10:9d:b5:e4:39:ba:b8:
        ce:a8:88:8a
-----BEGIN X509 CRL-----
MIICATCB6jANBgkqhkiG9w0BAQsFADBpMQswCQYDVQQGEwJVUzETMBEGA1UECAwK
Q2FsaWZvcm5pYTEUMBIGA1UEBwwLU2FudGEgQ2xhcmExDTALBgNVBAoMBHBrZzUx
DDAKBgNVBAMMA3RhNTESMBAGCSqGSIb3DQEJARYDdGE1Fw0yMTEwMjIxMDE1MjFa
Fw0yNDA3MTgxMDE1MjFaMFAwEgIBBxcNMjExMDIyMTAxNTA2WjASAgEkFw0yMTEw
MjIxMDE1MThaMBICASgXDTIxMTAyMjEwMTUyMFowEgIBKRcNMjExMDIyMTAxNTIx
WjANBgkqhkiG9w0BAQsFAAOCAQEAPsYVT/OX07ylxBrpBfq7yvEUyrJsocOyuzQs
hWUe4YtPuJprFVpG8rNAAxspL4kK0avJFUfxkQGjwTMRUD+A+BuQzDKkY7/1lr9S
78y8DQK6PD4H8gXyMYQNY9wycRpUJBVp5dWPeHP4aOnS3H4L98dcLzpDBFNchhHT
T2Ee5uz9kH7+sm+b6qGEO7b7PlNr7DntU064enKG+Acw631WowA0Kuw/hr5KN97e
iS/DUNaeuUJuFWy0aiL56xFH+bMQbgYgj79NmOm9tXLc7qv4RbWssWNVmNwkQVQ3
xYQ61s/063sZgFZzqCWEBPPsQsK/nob35+IQnbXkObq4zqiIig==
-----END X509 CRL-----
