Certificate Revocation List (CRL):
        Version 1 (0x0)
        Signature Algorithm: sha256WithRSAEncryption
        Issuer: C = US, ST = California, L = Santa Clara, O = pkg5, CN = ta5, emailAddress = ta5
        Last Update: Oct 24 21:43:14 2023 GMT
        Next Update: Jul 20 21:43:14 2026 GMT
Revoked Certificates:
    Serial Number: 07
        Revocation Date: Oct 24 21:43:00 2023 GMT
    Serial Number: 24
        Revocation Date: Oct 24 21:43:11 2023 GMT
    Serial Number: 28
        Revocation Date: Oct 24 21:43:13 2023 GMT
    Serial Number: 29
        Revocation Date: Oct 24 21:43:14 2023 GMT
    Signature Algorithm: sha256WithRSAEncryption
    Signature Value:
        5e:59:80:b0:75:f3:42:10:64:c2:e1:6f:21:75:10:7b:25:46:
        18:5a:a2:a3:2e:68:73:f9:2d:46:c8:2e:57:f5:ef:97:8a:80:
        52:8f:da:bb:ce:02:65:e9:2e:77:0a:4b:16:f3:c4:b1:99:ca:
        ea:00:d3:06:26:10:1a:84:a2:71:b4:29:2e:32:b0:cf:d6:7d:
        5f:e1:b8:7e:aa:50:2a:30:c7:ee:39:28:5c:42:f8:6c:cb:0b:
        26:46:2f:f5:2f:87:8f:d4:0f:b8:74:3d:d2:ff:80:38:45:d2:
        16:3b:0f:eb:f5:fd:0f:08:d9:21:4c:d4:e5:d4:92:e2:e0:ac:
        61:0e:2a:9e:0a:6a:38:85:f1:09:54:61:35:1e:01:dd:f5:53:
        59:0c:ae:25:03:e6:65:87:68:01:3e:4c:fd:08:90:94:8e:44:
        ee:4a:f6:3b:a2:0d:a0:8d:b7:84:18:47:03:dc:ed:f8:a9:3e:
        47:68:0c:02:ba:4e:08:55:f7:7e:5a:c8:96:49:2b:51:a8:66:
        ce:e0:a1:79:f3:79:33:32:e7:c9:dd:b7:88:85:4c:78:e3:dc:
        74:50:e9:97:9b:85:58:36:5b:46:27:10:93:ed:dd:8c:c5:c2:
        2a:c6:11:87:e9:39:42:27:32:0a:c5:07:a5:fb:ae:8f:60:dd:
        6e:aa:8f:d7
-----BEGIN X509 CRL-----
MIICATCB6jANBgkqhkiG9w0BAQsFADBpMQswCQYDVQQGEwJVUzETMBEGA1UECAwK
Q2FsaWZvcm5pYTEUMBIGA1UEBwwLU2FudGEgQ2xhcmExDTALBgNVBAoMBHBrZzUx
DDAKBgNVBAMMA3RhNTESMBAGCSqGSIb3DQEJARYDdGE1Fw0yMzEwMjQyMTQzMTRa
Fw0yNjA3MjAyMTQzMTRaMFAwEgIBBxcNMjMxMDI0MjE0MzAwWjASAgEkFw0yMzEw
MjQyMTQzMTFaMBICASgXDTIzMTAyNDIxNDMxM1owEgIBKRcNMjMxMDI0MjE0MzE0
WjANBgkqhkiG9w0BAQsFAAOCAQEAXlmAsHXzQhBkwuFvIXUQeyVGGFqioy5oc/kt
RsguV/Xvl4qAUo/au84CZekudwpLFvPEsZnK6gDTBiYQGoSicbQpLjKwz9Z9X+G4
fqpQKjDH7jkoXEL4bMsLJkYv9S+Hj9QPuHQ90v+AOEXSFjsP6/X9DwjZIUzU5dSS
4uCsYQ4qngpqOIXxCVRhNR4B3fVTWQyuJQPmZYdoAT5M/QiQlI5E7kr2O6INoI23
hBhHA9zt+Kk+R2gMArpOCFX3flrIlkkrUahmzuChefN5MzLnyd23iIVMeOPcdFDp
l5uFWDZbRicQk+3djMXCKsYRh+k5QicyCsUHpfuuj2DdbqqP1w==
-----END X509 CRL-----
