Certificate Revocation List (CRL):
        Version 1 (0x0)
    Signature Algorithm: sha256WithRSAEncryption
        Issuer: /C=US/ST=California/L=Santa Clara/O=pkg5/CN=ta5/emailAddress=ta5
        Last Update: Nov 16 10:58:51 2017 GMT
        Next Update: Aug 12 10:58:51 2020 GMT
Revoked Certificates:
    Serial Number: 07
        Revocation Date: Nov 16 10:58:47 2017 GMT
    Serial Number: 24
        Revocation Date: Nov 16 10:58:50 2017 GMT
    Serial Number: 28
        Revocation Date: Nov 16 10:58:50 2017 GMT
    Serial Number: 29
        Revocation Date: Nov 16 10:58:51 2017 GMT
    Signature Algorithm: sha256WithRSAEncryption
         7a:bc:e3:fc:8f:a0:e5:c0:6b:9e:4f:ee:7e:99:1d:22:8c:05:
         51:0e:5a:97:6d:53:44:e0:62:e8:01:8a:af:92:ce:64:36:aa:
         f5:1d:a0:39:69:52:8e:42:ca:12:3f:35:29:9f:da:5e:fa:51:
         c3:6f:5e:e3:2a:99:d5:2b:17:37:22:5c:f1:88:44:16:29:2a:
         13:17:ec:bd:59:d1:fe:8b:42:62:c7:c3:65:4e:92:06:3c:33:
         37:4c:89:d1:1f:cf:91:e3:1f:c6:b8:d5:53:9d:7f:00:1f:02:
         06:d5:1a:37:70:38:72:3a:4d:6b:ab:23:74:fd:3b:46:b0:4f:
         88:40:14:c3:1b:07:57:cb:15:c6:22:bf:f4:3c:b2:f6:9c:8f:
         17:57:2d:aa:b4:72:02:77:ce:55:b6:23:aa:44:e8:d2:85:e6:
         5d:fd:e6:89:40:a3:10:df:dd:f8:37:0f:38:3e:ef:0f:93:41:
         e0:8f:a0:4a:55:51:38:b3:db:3d:ca:2a:69:2c:a6:0e:54:88:
         cc:ef:f8:40:61:7c:53:25:72:f5:2d:23:8b:a2:0e:68:72:20:
         df:2b:ac:ff:d4:35:dc:a1:1a:bc:a1:1f:95:39:38:ae:ae:52:
         78:1b:ef:25:2a:fe:e2:ef:3a:74:9a:ce:63:0d:d0:9f:5a:e4:
         b8:01:f7:1f
-----BEGIN X509 CRL-----
MIICATCB6jANBgkqhkiG9w0BAQsFADBpMQswCQYDVQQGEwJVUzETMBEGA1UECAwK
Q2FsaWZvcm5pYTEUMBIGA1UEBwwLU2FudGEgQ2xhcmExDTALBgNVBAoMBHBrZzUx
DDAKBgNVBAMMA3RhNTESMBAGCSqGSIb3DQEJARYDdGE1Fw0xNzExMTYxMDU4NTFa
Fw0yMDA4MTIxMDU4NTFaMFAwEgIBBxcNMTcxMTE2MTA1ODQ3WjASAgEkFw0xNzEx
MTYxMDU4NTBaMBICASgXDTE3MTExNjEwNTg1MFowEgIBKRcNMTcxMTE2MTA1ODUx
WjANBgkqhkiG9w0BAQsFAAOCAQEAerzj/I+g5cBrnk/ufpkdIowFUQ5al21TROBi
6AGKr5LOZDaq9R2gOWlSjkLKEj81KZ/aXvpRw29e4yqZ1SsXNyJc8YhEFikqExfs
vVnR/otCYsfDZU6SBjwzN0yJ0R/PkeMfxrjVU51/AB8CBtUaN3A4cjpNa6sjdP07
RrBPiEAUwxsHV8sVxiK/9Dyy9pyPF1ctqrRyAnfOVbYjqkTo0oXmXf3miUCjEN/d
+DcPOD7vD5NB4I+gSlVROLPbPcoqaSymDlSIzO/4QGF8UyVy9S0ji6IOaHIg3yus
/9Q13KEavKEflTk4rq5SeBvvJSr+4u86dJrOYw3Qn1rkuAH3Hw==
-----END X509 CRL-----
