Certificate Revocation List (CRL):
        Version 1 (0x0)
    Signature Algorithm: sha256WithRSAEncryption
        Issuer: /C=US/ST=California/L=Santa Clara/O=pkg5/CN=ta5/emailAddress=ta5
        Last Update: Dec  6 03:06:43 2014 GMT
        Next Update: Sep  1 03:06:43 2017 GMT
Revoked Certificates:
    Serial Number: 07
        Revocation Date: Dec  6 03:06:42 2014 GMT
    Serial Number: 23
        Revocation Date: Dec  6 03:06:43 2014 GMT
    Serial Number: 27
        Revocation Date: Dec  6 03:06:43 2014 GMT
    Serial Number: 28
        Revocation Date: Dec  6 03:06:43 2014 GMT
    Signature Algorithm: sha256WithRSAEncryption
         92:aa:0c:86:71:d6:41:3a:1d:e8:06:9e:63:54:94:78:2d:f4:
         45:24:4a:86:2d:88:90:1c:54:db:48:b8:76:e0:09:f0:31:5b:
         b6:8c:be:c7:90:21:71:14:4e:2e:e1:0f:86:cc:0e:e3:71:79:
         30:62:86:b1:9d:57:a3:21:c0:28:64:4c:eb:d6:a2:60:39:05:
         55:5b:5c:b6:8f:1a:8f:cd:c2:df:98:73:ae:3a:c4:e0:3e:e2:
         e3:e6:a4:97:56:ae:7e:6f:65:22:e5:82:c3:e3:ac:54:4d:d5:
         50:b5:50:ef:ba:28:3e:33:cf:ef:47:43:df:21:3b:f1:79:74:
         97:d1
-----BEGIN X509 CRL-----
MIIBgDCB6jANBgkqhkiG9w0BAQsFADBpMQswCQYDVQQGEwJVUzETMBEGA1UECAwK
Q2FsaWZvcm5pYTEUMBIGA1UEBwwLU2FudGEgQ2xhcmExDTALBgNVBAoMBHBrZzUx
DDAKBgNVBAMMA3RhNTESMBAGCSqGSIb3DQEJARYDdGE1Fw0xNDEyMDYwMzA2NDNa
Fw0xNzA5MDEwMzA2NDNaMFAwEgIBBxcNMTQxMjA2MDMwNjQyWjASAgEjFw0xNDEy
MDYwMzA2NDNaMBICAScXDTE0MTIwNjAzMDY0M1owEgIBKBcNMTQxMjA2MDMwNjQz
WjANBgkqhkiG9w0BAQsFAAOBgQCSqgyGcdZBOh3oBp5jVJR4LfRFJEqGLYiQHFTb
SLh24AnwMVu2jL7HkCFxFE4u4Q+GzA7jcXkwYoaxnVejIcAoZEzr1qJgOQVVW1y2
jxqPzcLfmHOuOsTgPuLj5qSXVq5+b2Ui5YLD46xUTdVQtVDvuig+M8/vR0PfITvx
eXSX0Q==
-----END X509 CRL-----
