Certificate Revocation List (CRL):
        Version 1 (0x0)
        Signature Algorithm: sha256WithRSAEncryption
        Issuer: C = US, ST = California, L = Santa Clara, O = pkg5, CN = ta5, emailAddress = ta5
        Last Update: May 23 15:47:22 2024 GMT
        Next Update: Feb 17 15:47:22 2027 GMT
Revoked Certificates:
    Serial Number: 07
        Revocation Date: May 23 15:47:15 2024 GMT
    Serial Number: 24
        Revocation Date: May 23 15:47:21 2024 GMT
    Serial Number: 28
        Revocation Date: May 23 15:47:21 2024 GMT
    Serial Number: 29
        Revocation Date: May 23 15:47:22 2024 GMT
    Signature Algorithm: sha256WithRSAEncryption
    Signature Value:
        87:18:2f:45:1a:5b:4a:7c:1d:90:9a:ed:0f:77:65:82:0d:0b:
        24:79:ab:76:1f:a8:71:2e:bf:b7:66:da:f4:44:af:a6:34:af:
        78:98:f5:ab:a4:fb:d1:70:93:32:c7:16:98:68:20:a5:20:38:
        8c:91:50:36:c8:ff:57:47:57:dc:00:b4:75:1b:60:71:bc:8c:
        dd:c8:d2:c1:38:93:55:61:15:b1:a4:72:e2:43:17:ee:15:0a:
        c0:97:f9:14:e6:69:1c:35:42:cc:5d:83:88:4c:05:7c:94:36:
        f8:f8:1c:33:fc:c7:4a:0f:31:bf:68:c3:e2:9b:c6:59:8b:f9:
        c4:bd:d6:e9:5b:df:6b:e7:61:c7:f1:94:e0:3b:e9:0b:03:6d:
        eb:bc:25:4e:4a:2b:e2:95:a0:c1:b4:29:71:4e:ea:8e:0a:6e:
        aa:86:92:41:d8:7f:7a:e0:f8:5c:9f:fb:30:73:2b:6f:e4:a2:
        a3:f0:79:79:08:9e:c2:56:dc:8a:80:c0:86:00:21:25:5d:bc:
        7c:0d:df:21:11:ef:99:33:3d:f0:fc:4d:3a:a5:80:98:83:2b:
        32:e6:10:c5:7c:36:de:f4:f4:48:2f:b5:48:9b:27:9d:e3:d1:
        42:35:2d:d3:21:66:a8:1a:59:50:62:5f:4d:c5:a6:a1:18:9d:
        82:02:fe:d6
-----BEGIN X509 CRL-----
MIICATCB6jANBgkqhkiG9w0BAQsFADBpMQswCQYDVQQGEwJVUzETMBEGA1UECAwK
Q2FsaWZvcm5pYTEUMBIGA1UEBwwLU2FudGEgQ2xhcmExDTALBgNVBAoMBHBrZzUx
DDAKBgNVBAMMA3RhNTESMBAGCSqGSIb3DQEJARYDdGE1Fw0yNDA1MjMxNTQ3MjJa
Fw0yNzAyMTcxNTQ3MjJaMFAwEgIBBxcNMjQwNTIzMTU0NzE1WjASAgEkFw0yNDA1
MjMxNTQ3MjFaMBICASgXDTI0MDUyMzE1NDcyMVowEgIBKRcNMjQwNTIzMTU0NzIy
WjANBgkqhkiG9w0BAQsFAAOCAQEAhxgvRRpbSnwdkJrtD3dlgg0LJHmrdh+ocS6/
t2ba9ESvpjSveJj1q6T70XCTMscWmGggpSA4jJFQNsj/V0dX3AC0dRtgcbyM3cjS
wTiTVWEVsaRy4kMX7hUKwJf5FOZpHDVCzF2DiEwFfJQ2+PgcM/zHSg8xv2jD4pvG
WYv5xL3W6Vvfa+dhx/GU4DvpCwNt67wlTkor4pWgwbQpcU7qjgpuqoaSQdh/euD4
XJ/7MHMrb+Sio/B5eQiewlbcioDAhgAhJV28fA3fIRHvmTM98PxNOqWAmIMrMuYQ
xXw23vT0SC+1SJsnnePRQjUt0yFmqBpZUGJfTcWmoRidggL+1g==
-----END X509 CRL-----
