Certificate Revocation List (CRL):
        Version 1 (0x0)
    Signature Algorithm: sha256WithRSAEncryption
        Issuer: /C=US/ST=California/L=Santa Clara/O=pkg5/CN=ta5/emailAddress=ta5
        Last Update: Mar 20 10:20:56 2018 GMT
        Next Update: Dec 14 10:20:56 2020 GMT
Revoked Certificates:
    Serial Number: 07
        Revocation Date: Mar 20 10:20:52 2018 GMT
    Serial Number: 24
        Revocation Date: Mar 20 10:20:55 2018 GMT
    Serial Number: 28
        Revocation Date: Mar 20 10:20:55 2018 GMT
    Serial Number: 29
        Revocation Date: Mar 20 10:20:56 2018 GMT
    Signature Algorithm: sha256WithRSAEncryption
         2c:4a:e0:26:dc:3b:85:d4:3a:df:92:c2:e0:86:5c:ce:6a:ca:
         e0:89:e4:c9:97:ca:6b:79:75:a2:77:eb:3f:ab:99:51:29:e4:
         41:8c:0e:f8:f4:5c:27:ff:24:15:aa:1c:f2:4d:37:d0:c4:e0:
         8b:33:ab:7c:5c:d7:d1:11:7b:28:e7:7d:b4:1e:0f:48:47:18:
         47:05:15:d7:c7:c1:69:de:aa:d8:b7:03:d8:b1:19:85:6e:e8:
         36:05:38:17:b9:0a:72:59:96:81:88:f8:a2:80:eb:58:56:3b:
         8f:f1:3f:50:d9:64:8c:5e:c6:a0:f4:70:9f:03:27:c3:3e:dd:
         90:50:97:15:61:81:01:21:6e:9e:38:54:83:63:f9:59:b4:34:
         0e:d6:57:e4:e5:26:07:66:57:cd:c9:2e:bd:5c:2d:7a:fc:15:
         27:2d:45:4c:e1:37:08:7b:90:4c:4d:82:a5:9b:86:26:f1:43:
         57:d1:d2:78:6a:c6:1f:65:41:09:fb:41:c4:74:a7:e0:05:86:
         5c:91:0e:e0:ac:6e:99:a7:c6:f6:27:3a:e6:9e:4e:72:e0:89:
         95:40:09:53:9b:fb:0c:cf:5a:0e:e1:cd:7c:fc:11:b5:23:f0:
         4e:58:3d:58:3e:ae:86:ce:02:68:cc:f0:2a:db:eb:94:92:83:
         e3:6b:7c:ec
-----BEGIN X509 CRL-----
MIICATCB6jANBgkqhkiG9w0BAQsFADBpMQswCQYDVQQGEwJVUzETMBEGA1UECAwK
Q2FsaWZvcm5pYTEUMBIGA1UEBwwLU2FudGEgQ2xhcmExDTALBgNVBAoMBHBrZzUx
DDAKBgNVBAMMA3RhNTESMBAGCSqGSIb3DQEJARYDdGE1Fw0xODAzMjAxMDIwNTZa
Fw0yMDEyMTQxMDIwNTZaMFAwEgIBBxcNMTgwMzIwMTAyMDUyWjASAgEkFw0xODAz
MjAxMDIwNTVaMBICASgXDTE4MDMyMDEwMjA1NVowEgIBKRcNMTgwMzIwMTAyMDU2
WjANBgkqhkiG9w0BAQsFAAOCAQEALErgJtw7hdQ635LC4IZczmrK4InkyZfKa3l1
onfrP6uZUSnkQYwO+PRcJ/8kFaoc8k030MTgizOrfFzX0RF7KOd9tB4PSEcYRwUV
18fBad6q2LcD2LEZhW7oNgU4F7kKclmWgYj4ooDrWFY7j/E/UNlkjF7GoPRwnwMn
wz7dkFCXFWGBASFunjhUg2P5WbQ0DtZX5OUmB2ZXzckuvVwtevwVJy1FTOE3CHuQ
TE2CpZuGJvFDV9HSeGrGH2VBCftBxHSn4AWGXJEO4KxumafG9ic65p5OcuCJlUAJ
U5v7DM9aDuHNfPwRtSPwTlg9WD6uhs4CaMzwKtvrlJKD42t87A==
-----END X509 CRL-----
