Certificate:
    Data:
        Version: 3 (0x2)
        Serial Number:
            67:24:4b:8d:a6:63:4b:01:0d:6c:dc:60:c0:93:c2:be:f7:9a:bd:2f
        Signature Algorithm: sha256WithRSAEncryption
        Issuer: C = US, ST = California, L = Santa Clara, O = pkg5, CN = ta3, emailAddress = ta3
        Validity
            Not Before: Oct 22 10:15:10 2021 GMT
            Not After : Jul 18 10:15:10 2024 GMT
        Subject: C = US, ST = California, L = Santa Clara, O = pkg5, CN = ta3, emailAddress = ta3
        Subject Public Key Info:
            Public Key Algorithm: rsaEncryption
                Public-Key: (2048 bit)
                Modulus:
                    00:d2:b6:a2:b5:59:8d:30:23:93:fb:4c:36:ef:42:
                    3e:57:24:28:92:19:89:81:43:e3:0a:8c:d0:73:d3:
                    69:5e:6c:89:da:dd:b4:7a:f4:bf:0b:5d:de:92:fe:
                    bf:66:72:21:d2:17:b8:4a:04:7c:7a:7b:96:c4:13:
                    9b:d2:a0:34:29:f0:24:f0:70:e2:83:ea:75:20:3a:
                    c3:e4:f5:4e:19:ce:92:2a:20:ed:94:b8:2e:81:10:
                    95:a8:47:1a:9f:d0:db:15:76:7f:9c:39:ef:cd:ab:
                    fc:e1:1f:ce:14:a1:1a:db:5f:56:ac:5b:8f:fd:05:
                    50:f9:ab:98:06:03:33:0d:bf:5a:8c:4b:c5:14:38:
                    ec:c8:19:3c:20:2c:9b:7b:1c:b6:49:3f:b2:3d:33:
                    11:0e:e1:10:82:74:83:5b:42:b1:27:f5:a8:90:b8:
                    f4:70:ea:25:f0:fe:9c:0e:b3:e2:61:97:7d:d6:9f:
                    50:23:9f:6d:cc:8e:d5:a0:bd:c2:fd:2b:f4:b3:79:
                    82:df:67:fe:d3:be:ea:4f:2f:de:ac:ee:26:05:11:
                    4b:9f:b2:5f:77:bb:1d:9f:7d:67:29:34:d8:ce:c8:
                    8d:45:8f:af:9b:11:c8:4b:1e:de:ae:1a:16:21:c0:
                    0e:f6:0b:a2:63:52:1a:34:e5:3d:4e:2d:6a:b2:fb:
                    bd:c3
                Exponent: 65537 (0x10001)
        X509v3 extensions:
            X509v3 Subject Key Identifier: 
                31:E7:12:49:AC:32:CC:03:A0:C3:60:99:F6:3E:5D:1C:A3:84:D8:3B
            X509v3 Authority Key Identifier: 
                31:E7:12:49:AC:32:CC:03:A0:C3:60:99:F6:3E:5D:1C:A3:84:D8:3B
            X509v3 Basic Constraints: critical
                CA:TRUE
    Signature Algorithm: sha256WithRSAEncryption
    Signature Value:
        52:73:89:7c:0b:42:cf:41:ae:6a:68:e7:3a:83:f9:52:7d:a1:
        0b:a7:8a:d4:ff:46:0c:5a:39:d5:cd:47:13:2b:4c:f3:db:5b:
        4a:84:6d:3d:c9:7c:4b:d5:c3:30:bb:ca:7b:0c:83:c6:8d:a7:
        a0:fe:6d:35:c4:53:bd:56:4b:33:8d:67:62:8a:36:df:66:79:
        ac:4f:f1:b5:e0:58:3a:2f:54:22:52:71:38:42:43:b1:ce:e7:
        21:bc:84:9d:21:2e:82:61:8f:8d:18:9d:6c:65:ea:f9:1e:8a:
        83:bd:7b:c7:40:1e:8d:f4:dd:fe:f8:eb:22:52:1b:3b:e1:4b:
        17:92:be:f5:8d:a4:10:7d:92:61:84:69:73:cd:bb:56:7e:cd:
        b5:e5:3d:28:77:d4:cd:31:b0:32:fc:af:78:43:c9:ec:c8:60:
        a0:60:e9:5d:dc:fe:de:70:ac:65:56:ab:2f:80:d4:f4:5b:9e:
        e0:dc:d7:0e:d6:f1:d6:47:c5:89:59:71:f4:4b:70:6d:70:42:
        22:b4:fa:c0:51:a7:4a:74:65:fc:3a:fa:d6:43:76:5b:d8:3e:
        c1:d4:8b:8b:34:d8:7c:60:fe:f1:99:04:aa:ba:6f:5a:9a:ed:
        5f:c3:a6:0a:f1:ff:7e:6b:65:d3:c9:a8:2d:1c:d4:05:dc:87:
        a6:d3:46:3a
-----BEGIN CERTIFICATE-----
MIIDszCCApugAwIBAgIUZyRLjaZjSwENbNxgwJPCvveavS8wDQYJKoZIhvcNAQEL
BQAwaTELMAkGA1UEBhMCVVMxEzARBgNVBAgMCkNhbGlmb3JuaWExFDASBgNVBAcM
C1NhbnRhIENsYXJhMQ0wCwYDVQQKDARwa2c1MQwwCgYDVQQDDAN0YTMxEjAQBgkq
hkiG9w0BCQEWA3RhMzAeFw0yMTEwMjIxMDE1MTBaFw0yNDA3MTgxMDE1MTBaMGkx
CzAJBgNVBAYTAlVTMRMwEQYDVQQIDApDYWxpZm9ybmlhMRQwEgYDVQQHDAtTYW50
YSBDbGFyYTENMAsGA1UECgwEcGtnNTEMMAoGA1UEAwwDdGEzMRIwEAYJKoZIhvcN
AQkBFgN0YTMwggEiMA0GCSqGSIb3DQEBAQUAA4IBDwAwggEKAoIBAQDStqK1WY0w
I5P7TDbvQj5XJCiSGYmBQ+MKjNBz02lebIna3bR69L8LXd6S/r9mciHSF7hKBHx6
e5bEE5vSoDQp8CTwcOKD6nUgOsPk9U4ZzpIqIO2UuC6BEJWoRxqf0NsVdn+cOe/N
q/zhH84UoRrbX1asW4/9BVD5q5gGAzMNv1qMS8UUOOzIGTwgLJt7HLZJP7I9MxEO
4RCCdINbQrEn9aiQuPRw6iXw/pwOs+Jhl33Wn1Ajn23MjtWgvcL9K/SzeYLfZ/7T
vupPL96s7iYFEUufsl93ux2ffWcpNNjOyI1Fj6+bEchLHt6uGhYhwA72C6JjUho0
5T1OLWqy+73DAgMBAAGjUzBRMB0GA1UdDgQWBBQx5xJJrDLMA6DDYJn2Pl0co4TY
OzAfBgNVHSMEGDAWgBQx5xJJrDLMA6DDYJn2Pl0co4TYOzAPBgNVHRMBAf8EBTAD
AQH/MA0GCSqGSIb3DQEBCwUAA4IBAQBSc4l8C0LPQa5qaOc6g/lSfaELp4rU/0YM
WjnVzUcTK0zz21tKhG09yXxL1cMwu8p7DIPGjaeg/m01xFO9VkszjWdiijbfZnms
T/G14Fg6L1QiUnE4QkOxzuchvISdIS6CYY+NGJ1sZer5HoqDvXvHQB6N9N3++Osi
Uhs74UsXkr71jaQQfZJhhGlzzbtWfs215T0od9TNMbAy/K94Q8nsyGCgYOld3P7e
cKxlVqsvgNT0W57g3NcO1vHWR8WJWXH0S3BtcEIitPrAUadKdGX8OvrWQ3Zb2D7B
1IuLNNh8YP7xmQSqum9amu1fw6YK8f9+a2XTyagtHNQF3Iem00Y6
-----END CERTIFICATE-----
