Certificate:
    Data:
        Version: 3 (0x2)
        Serial Number:
            03:03:b7:3d:13:47:f5:0c:71:63:49:3a:98:be:46:c0:ae:25:93:49
        Signature Algorithm: sha256WithRSAEncryption
        Issuer: C = US, ST = California, L = Santa Clara, O = pkg5, CN = ta3, emailAddress = ta3
        Validity
            Not Before: Dec 15 15:37:20 2022 GMT
            Not After : Sep 10 15:37:20 2025 GMT
        Subject: C = US, ST = California, L = Santa Clara, O = pkg5, CN = ta3, emailAddress = ta3
        Subject Public Key Info:
            Public Key Algorithm: rsaEncryption
                Public-Key: (2048 bit)
                Modulus:
                    00:bd:8b:1c:ef:73:f1:f8:7d:dd:55:3c:65:3f:39:
                    df:3f:da:63:02:ee:27:c3:89:1d:a0:00:1b:49:6c:
                    db:2e:29:73:91:62:98:0e:41:16:0c:41:06:80:0e:
                    ef:3a:df:97:7f:39:67:7f:2f:f0:f5:bc:f2:46:36:
                    b9:6c:6e:03:ce:f8:9a:7c:53:3b:ad:bc:9b:00:f1:
                    4d:3f:bc:17:15:fc:2a:eb:0a:df:fd:1b:33:ce:fb:
                    c5:69:fa:ea:5d:10:e2:db:d2:15:3f:f4:e1:25:99:
                    af:fd:b9:62:5e:52:81:01:1a:6c:a2:dc:54:77:41:
                    46:c6:17:cf:95:34:7c:7c:ae:63:2d:27:e8:80:21:
                    03:24:69:c0:56:03:67:4c:9a:ec:cb:13:a2:52:ea:
                    17:d1:41:8e:f7:3f:28:cd:9e:a5:42:6f:d3:88:d4:
                    77:5b:5a:76:3e:c0:c3:c9:20:69:b7:74:b1:c6:e2:
                    06:76:1b:22:2a:14:0c:06:9b:4f:cc:a6:c0:df:a5:
                    f7:b8:3a:41:be:36:5f:d1:19:7c:fd:f0:79:37:c4:
                    1d:aa:ea:6a:40:0e:06:70:86:bf:c0:f8:7c:ef:2e:
                    7b:b5:c0:fc:4a:b4:ad:79:5f:25:22:44:ca:2a:73:
                    74:48:9e:f2:0c:9e:9d:b0:fb:23:84:df:e6:8f:40:
                    2e:b1
                Exponent: 65537 (0x10001)
        X509v3 extensions:
            X509v3 Subject Key Identifier: 
                EF:5A:9F:1D:45:27:6D:44:D8:59:31:21:A6:13:90:C9:6A:06:8C:1C
            X509v3 Authority Key Identifier: 
                EF:5A:9F:1D:45:27:6D:44:D8:59:31:21:A6:13:90:C9:6A:06:8C:1C
            X509v3 Basic Constraints: critical
                CA:TRUE
    Signature Algorithm: sha256WithRSAEncryption
    Signature Value:
        5e:55:05:6f:95:4f:7a:b4:89:3f:ce:bb:af:63:8d:23:dd:dd:
        af:24:8f:f0:30:d7:8d:65:7d:b3:f5:1b:0e:6f:41:18:a3:15:
        3b:05:54:79:55:a1:44:0f:9d:9a:b0:6a:07:76:20:cb:18:6d:
        98:0e:75:c5:46:32:db:2d:9e:76:9a:ea:aa:aa:0c:ba:38:2a:
        97:ed:e3:0b:ee:68:3c:00:0b:af:49:fd:01:99:29:18:ed:52:
        88:21:29:d1:6b:50:0d:5e:8f:a4:f7:12:e0:ce:ab:19:49:c9:
        33:f1:79:e0:0d:fe:b4:be:4e:7e:dd:fb:59:07:38:b1:e5:7b:
        fb:6e:08:d4:f0:7d:b4:9b:c9:1b:31:b3:70:f7:0a:06:d8:72:
        51:59:6f:9e:d5:5a:68:9d:49:3c:df:54:13:14:67:1f:73:e8:
        61:46:be:0a:03:ac:7a:79:c4:a0:39:a6:5b:57:ac:ab:46:29:
        e9:79:cc:1d:05:69:5f:f0:1b:3c:2b:a2:37:ff:20:1e:87:82:
        cb:20:46:86:72:fe:e8:43:9e:e5:29:e4:70:67:df:e8:a3:3c:
        29:2f:df:f4:0a:62:20:c2:41:97:97:47:e6:15:c4:a6:a3:b7:
        b0:e4:dc:74:60:d0:0b:71:8e:d8:58:7c:2b:c9:dd:3f:af:8c:
        13:96:3a:6f
-----BEGIN CERTIFICATE-----
MIIDszCCApugAwIBAgIUAwO3PRNH9QxxY0k6mL5GwK4lk0kwDQYJKoZIhvcNAQEL
BQAwaTELMAkGA1UEBhMCVVMxEzARBgNVBAgMCkNhbGlmb3JuaWExFDASBgNVBAcM
C1NhbnRhIENsYXJhMQ0wCwYDVQQKDARwa2c1MQwwCgYDVQQDDAN0YTMxEjAQBgkq
hkiG9w0BCQEWA3RhMzAeFw0yMjEyMTUxNTM3MjBaFw0yNTA5MTAxNTM3MjBaMGkx
CzAJBgNVBAYTAlVTMRMwEQYDVQQIDApDYWxpZm9ybmlhMRQwEgYDVQQHDAtTYW50
YSBDbGFyYTENMAsGA1UECgwEcGtnNTEMMAoGA1UEAwwDdGEzMRIwEAYJKoZIhvcN
AQkBFgN0YTMwggEiMA0GCSqGSIb3DQEBAQUAA4IBDwAwggEKAoIBAQC9ixzvc/H4
fd1VPGU/Od8/2mMC7ifDiR2gABtJbNsuKXORYpgOQRYMQQaADu8635d/OWd/L/D1
vPJGNrlsbgPO+Jp8UzutvJsA8U0/vBcV/CrrCt/9GzPO+8Vp+updEOLb0hU/9OEl
ma/9uWJeUoEBGmyi3FR3QUbGF8+VNHx8rmMtJ+iAIQMkacBWA2dMmuzLE6JS6hfR
QY73PyjNnqVCb9OI1HdbWnY+wMPJIGm3dLHG4gZ2GyIqFAwGm0/MpsDfpfe4OkG+
Nl/RGXz98Hk3xB2q6mpADgZwhr/A+HzvLnu1wPxKtK15XyUiRMoqc3RInvIMnp2w
+yOE3+aPQC6xAgMBAAGjUzBRMB0GA1UdDgQWBBTvWp8dRSdtRNhZMSGmE5DJagaM
HDAfBgNVHSMEGDAWgBTvWp8dRSdtRNhZMSGmE5DJagaMHDAPBgNVHRMBAf8EBTAD
AQH/MA0GCSqGSIb3DQEBCwUAA4IBAQBeVQVvlU96tIk/zruvY40j3d2vJI/wMNeN
ZX2z9RsOb0EYoxU7BVR5VaFED52asGoHdiDLGG2YDnXFRjLbLZ52muqqqgy6OCqX
7eML7mg8AAuvSf0BmSkY7VKIISnRa1ANXo+k9xLgzqsZSckz8XngDf60vk5+3ftZ
Bzix5Xv7bgjU8H20m8kbMbNw9woG2HJRWW+e1VponUk831QTFGcfc+hhRr4KA6x6
ecSgOaZbV6yrRinpecwdBWlf8Bs8K6I3/yAeh4LLIEaGcv7oQ57lKeRwZ9/oozwp
L9/0CmIgwkGXl0fmFcSmo7ew5Nx0YNALcY7YWHwryd0/r4wTljpv
-----END CERTIFICATE-----
