Certificate:
    Data:
        Version: 3 (0x2)
        Serial Number:
            54:04:4f:d7:5e:93:da:45:dc:6f:3a:6e:37:ae:d3:81:91:be:7e:72
        Signature Algorithm: sha256WithRSAEncryption
        Issuer: C = US, ST = California, L = Santa Clara, O = pkg5, CN = ta3, emailAddress = ta3
        Validity
            Not Before: Oct 24 21:43:04 2023 GMT
            Not After : Jul 20 21:43:04 2026 GMT
        Subject: C = US, ST = California, L = Santa Clara, O = pkg5, CN = ta3, emailAddress = ta3
        Subject Public Key Info:
            Public Key Algorithm: rsaEncryption
                Public-Key: (2048 bit)
                Modulus:
                    00:bd:c6:35:c3:44:da:d0:9f:ac:d5:ab:1d:3b:4d:
                    f9:17:e6:8b:35:2d:ba:18:a2:f6:2a:01:e5:e4:18:
                    9e:9a:fd:3c:12:d1:5e:f6:5d:62:6c:d4:57:4d:ec:
                    2b:a1:3c:4b:74:61:77:fc:ae:1e:8a:60:92:15:18:
                    cd:40:d0:51:6c:01:d9:91:22:e4:d3:1b:e4:bf:22:
                    aa:55:83:b7:55:02:d0:6e:99:f7:11:25:4e:28:e0:
                    6f:d3:c9:a2:a7:a8:8a:cb:e9:c7:07:bb:8d:aa:20:
                    7a:7e:33:2e:96:c6:0e:02:1e:07:89:3b:a5:d6:7b:
                    1d:d5:f1:80:e7:b1:34:cb:3c:f4:c4:1f:c9:f5:84:
                    39:18:04:05:33:37:87:a0:94:6b:c5:76:88:a6:c2:
                    d3:fc:75:32:1e:5c:63:bf:70:1b:c2:a3:58:82:d3:
                    1f:2f:86:7b:25:c0:8a:7a:dd:53:8c:4a:3e:9f:1a:
                    02:d8:3a:73:3a:ae:f3:4c:40:d2:63:b8:a5:f6:1b:
                    98:31:ae:fc:95:d3:f8:fa:1d:61:83:57:6b:a4:8d:
                    a5:bf:22:46:e5:b8:29:d3:0b:c3:6d:b0:b9:e7:2f:
                    43:12:82:12:65:2c:08:44:2e:47:b7:13:29:93:16:
                    f7:de:e3:fb:8e:c9:e6:c6:6f:59:19:df:43:fd:0e:
                    82:33
                Exponent: 65537 (0x10001)
        X509v3 extensions:
            X509v3 Subject Key Identifier: 
                DC:83:FD:15:4A:D3:A8:E9:0B:C4:90:16:2F:FE:AA:F4:AB:B7:EC:E3
            X509v3 Authority Key Identifier: 
                DC:83:FD:15:4A:D3:A8:E9:0B:C4:90:16:2F:FE:AA:F4:AB:B7:EC:E3
            X509v3 Basic Constraints: critical
                CA:TRUE
    Signature Algorithm: sha256WithRSAEncryption
    Signature Value:
        97:e5:5d:c0:1f:fc:6b:a4:c1:f5:8c:0d:cf:c1:90:01:bf:e4:
        ec:c8:e4:6e:d7:9e:67:d5:09:05:d1:af:d0:81:78:7f:43:17:
        2e:cc:b1:3c:e3:e1:04:d1:35:b9:45:e8:c5:38:e0:bd:f1:bf:
        34:a1:72:71:cf:81:5d:14:19:5d:05:80:c0:bc:81:e3:5a:f0:
        c5:d9:79:20:20:1e:1b:c4:52:8a:97:36:2a:06:0c:58:65:50:
        3a:50:55:c7:78:ec:6c:28:41:98:a9:bf:9d:f8:f1:de:62:25:
        03:8c:15:47:2a:be:87:66:93:1c:74:1c:dc:8b:c0:9a:58:6f:
        6d:de:2d:0f:d5:99:65:fb:a8:f5:4e:77:cf:10:86:3a:1b:b2:
        aa:05:1e:8b:18:30:ce:68:05:6c:98:71:73:64:f0:d9:22:6f:
        44:5a:92:b6:27:b3:f3:0f:9a:d8:e2:be:69:73:2c:9f:62:9b:
        0b:68:2a:52:57:5f:fa:a7:87:02:39:93:23:23:3b:b1:5c:13:
        6f:b9:64:82:50:a0:5d:a4:9f:d7:db:ca:4f:99:e0:9a:6b:8c:
        4a:14:37:19:08:f6:91:2d:8c:56:e1:2c:5b:a5:e8:03:1c:ce:
        af:9b:a7:53:c7:39:c3:51:c6:09:82:cd:42:90:a2:b8:4c:e8:
        c7:3e:d4:68
-----BEGIN CERTIFICATE-----
MIIDszCCApugAwIBAgIUVARP116T2kXcbzpuN67TgZG+fnIwDQYJKoZIhvcNAQEL
BQAwaTELMAkGA1UEBhMCVVMxEzARBgNVBAgMCkNhbGlmb3JuaWExFDASBgNVBAcM
C1NhbnRhIENsYXJhMQ0wCwYDVQQKDARwa2c1MQwwCgYDVQQDDAN0YTMxEjAQBgkq
hkiG9w0BCQEWA3RhMzAeFw0yMzEwMjQyMTQzMDRaFw0yNjA3MjAyMTQzMDRaMGkx
CzAJBgNVBAYTAlVTMRMwEQYDVQQIDApDYWxpZm9ybmlhMRQwEgYDVQQHDAtTYW50
YSBDbGFyYTENMAsGA1UECgwEcGtnNTEMMAoGA1UEAwwDdGEzMRIwEAYJKoZIhvcN
AQkBFgN0YTMwggEiMA0GCSqGSIb3DQEBAQUAA4IBDwAwggEKAoIBAQC9xjXDRNrQ
n6zVqx07TfkX5os1LboYovYqAeXkGJ6a/TwS0V72XWJs1FdN7CuhPEt0YXf8rh6K
YJIVGM1A0FFsAdmRIuTTG+S/IqpVg7dVAtBumfcRJU4o4G/TyaKnqIrL6ccHu42q
IHp+My6Wxg4CHgeJO6XWex3V8YDnsTTLPPTEH8n1hDkYBAUzN4eglGvFdoimwtP8
dTIeXGO/cBvCo1iC0x8vhnslwIp63VOMSj6fGgLYOnM6rvNMQNJjuKX2G5gxrvyV
0/j6HWGDV2ukjaW/IkbluCnTC8NtsLnnL0MSghJlLAhELke3EymTFvfe4/uOyebG
b1kZ30P9DoIzAgMBAAGjUzBRMB0GA1UdDgQWBBTcg/0VStOo6QvEkBYv/qr0q7fs
4zAfBgNVHSMEGDAWgBTcg/0VStOo6QvEkBYv/qr0q7fs4zAPBgNVHRMBAf8EBTAD
AQH/MA0GCSqGSIb3DQEBCwUAA4IBAQCX5V3AH/xrpMH1jA3PwZABv+TsyORu155n
1QkF0a/QgXh/QxcuzLE84+EE0TW5RejFOOC98b80oXJxz4FdFBldBYDAvIHjWvDF
2XkgIB4bxFKKlzYqBgxYZVA6UFXHeOxsKEGYqb+d+PHeYiUDjBVHKr6HZpMcdBzc
i8CaWG9t3i0P1Zll+6j1TnfPEIY6G7KqBR6LGDDOaAVsmHFzZPDZIm9EWpK2J7Pz
D5rY4r5pcyyfYpsLaCpSV1/6p4cCOZMjIzuxXBNvuWSCUKBdpJ/X28pPmeCaa4xK
FDcZCPaRLYxW4SxbpegDHM6vm6dTxznDUcYJgs1CkKK4TOjHPtRo
-----END CERTIFICATE-----
