Certificate:
    Data:
        Version: 3 (0x2)
        Serial Number:
            aa:19:69:50:f6:91:c5:bd
    Signature Algorithm: sha256WithRSAEncryption
        Issuer: C=US, ST=California, L=Santa Clara, O=pkg5, CN=ta3/emailAddress=ta3
        Validity
            Not Before: Nov 28 22:50:56 2016 GMT
            Not After : Aug 25 22:50:56 2019 GMT
        Subject: C=US, ST=California, L=Santa Clara, O=pkg5, CN=ta3/emailAddress=ta3
        Subject Public Key Info:
            Public Key Algorithm: rsaEncryption
                Public-Key: (2048 bit)
                Modulus:
                    00:da:99:02:dc:5f:76:ab:92:4b:a4:e7:56:c6:88:
                    b1:92:09:bf:cb:1e:19:c5:74:a0:2d:3e:32:64:b2:
                    ee:a2:1c:fa:73:c8:f3:78:fa:66:bc:a9:2f:4a:3a:
                    a5:47:0d:43:9a:78:1a:7c:d9:8a:d5:98:7b:8a:db:
                    c1:ad:20:ab:59:f0:34:36:37:9e:2f:d7:43:b9:40:
                    81:8f:c2:8a:eb:cc:0a:20:40:22:af:90:61:43:a3:
                    5c:0c:e3:dd:91:0b:bd:05:df:5e:57:45:6f:7a:99:
                    da:fe:59:97:c2:80:e1:e6:4f:48:75:ea:c5:ab:cb:
                    d9:f2:6c:de:b6:8e:4e:9e:64:cf:3b:97:cb:47:0c:
                    6c:c9:77:60:02:85:69:2a:52:da:d8:17:ab:40:eb:
                    c1:f7:10:c5:97:dc:18:b2:8b:46:18:cf:52:18:8b:
                    b7:5e:d1:da:3f:8f:7a:2c:e2:67:18:ff:ae:f1:fb:
                    cb:0b:8f:35:f7:38:02:c6:33:31:8d:91:6f:9f:87:
                    a6:ab:ff:73:73:d0:68:f3:78:27:66:df:e1:3f:0d:
                    25:92:b7:7e:94:ae:8b:a2:86:53:01:f8:a4:f0:76:
                    66:d6:87:2b:7a:ce:10:00:3a:a6:96:83:11:2d:03:
                    47:d2:8d:07:5d:d2:28:85:16:bd:7b:6e:d4:46:d0:
                    96:09
                Exponent: 65537 (0x10001)
        X509v3 extensions:
            X509v3 Subject Key Identifier: 
                2D:C5:9A:44:A1:9A:A4:7F:DA:BE:34:36:07:5C:E8:FC:60:3E:91:6E
            X509v3 Authority Key Identifier: 
                keyid:2D:C5:9A:44:A1:9A:A4:7F:DA:BE:34:36:07:5C:E8:FC:60:3E:91:6E

            X509v3 Basic Constraints: 
                CA:TRUE
    Signature Algorithm: sha256WithRSAEncryption
         43:80:d1:8d:f3:89:1b:72:58:b5:5f:b4:a2:74:67:f8:1c:ed:
         d8:12:e1:70:67:b4:59:3d:13:6b:f4:ac:fc:6a:5f:7d:2e:78:
         76:1e:39:15:f7:e9:66:cb:78:ea:2c:91:b8:6d:92:04:9b:02:
         16:3c:21:a2:86:43:c1:5b:ec:8c:e8:24:64:3c:bf:5a:47:c8:
         dc:76:34:a5:52:4e:af:4c:b8:79:9c:f1:c9:22:f2:89:b9:f4:
         39:97:d4:10:6a:7c:c0:e1:42:77:9c:a9:f6:0f:82:c5:7f:c1:
         99:69:ea:e9:4a:1f:ad:6a:ac:48:89:d9:6b:84:ae:78:f2:f4:
         fe:7f:34:8a:f4:3e:1f:7c:10:b2:73:e2:30:36:56:44:84:51:
         99:5d:e6:7c:5f:48:54:e2:3b:8c:ad:53:c2:51:55:19:8a:e5:
         e0:8a:f2:d8:5c:81:61:58:d3:3b:69:da:bd:a6:95:6c:9a:f3:
         18:da:2b:98:7a:82:19:d2:31:ae:fb:4c:94:1d:1c:84:38:f6:
         73:b8:a9:4f:21:6a:6e:fd:c3:91:84:a8:f6:f9:4d:65:1e:25:
         c4:19:50:73:30:6b:a4:0e:17:f3:e5:bc:9c:f5:b4:b4:9c:b2:
         20:da:c8:9a:c3:bd:f3:dd:e9:16:c0:cb:d3:fd:d0:84:c5:d9:
         5c:03:f7:c0
-----BEGIN CERTIFICATE-----
MIIDpTCCAo2gAwIBAgIJAKoZaVD2kcW9MA0GCSqGSIb3DQEBCwUAMGkxCzAJBgNV
BAYTAlVTMRMwEQYDVQQIDApDYWxpZm9ybmlhMRQwEgYDVQQHDAtTYW50YSBDbGFy
YTENMAsGA1UECgwEcGtnNTEMMAoGA1UEAwwDdGEzMRIwEAYJKoZIhvcNAQkBFgN0
YTMwHhcNMTYxMTI4MjI1MDU2WhcNMTkwODI1MjI1MDU2WjBpMQswCQYDVQQGEwJV
UzETMBEGA1UECAwKQ2FsaWZvcm5pYTEUMBIGA1UEBwwLU2FudGEgQ2xhcmExDTAL
BgNVBAoMBHBrZzUxDDAKBgNVBAMMA3RhMzESMBAGCSqGSIb3DQEJARYDdGEzMIIB
IjANBgkqhkiG9w0BAQEFAAOCAQ8AMIIBCgKCAQEA2pkC3F92q5JLpOdWxoixkgm/
yx4ZxXSgLT4yZLLuohz6c8jzePpmvKkvSjqlRw1DmngafNmK1Zh7itvBrSCrWfA0
NjeeL9dDuUCBj8KK68wKIEAir5BhQ6NcDOPdkQu9Bd9eV0Vvepna/lmXwoDh5k9I
derFq8vZ8mzeto5OnmTPO5fLRwxsyXdgAoVpKlLa2BerQOvB9xDFl9wYsotGGM9S
GIu3XtHaP496LOJnGP+u8fvLC4819zgCxjMxjZFvn4emq/9zc9Bo83gnZt/hPw0l
krd+lK6LooZTAfik8HZm1ocres4QADqmloMRLQNH0o0HXdIohRa9e27URtCWCQID
AQABo1AwTjAdBgNVHQ4EFgQULcWaRKGapH/avjQ2B1zo/GA+kW4wHwYDVR0jBBgw
FoAULcWaRKGapH/avjQ2B1zo/GA+kW4wDAYDVR0TBAUwAwEB/zANBgkqhkiG9w0B
AQsFAAOCAQEAQ4DRjfOJG3JYtV+0onRn+Bzt2BLhcGe0WT0Ta/Ss/GpffS54dh45
FffpZst46iyRuG2SBJsCFjwhooZDwVvsjOgkZDy/WkfI3HY0pVJOr0y4eZzxySLy
ibn0OZfUEGp8wOFCd5yp9g+CxX/BmWnq6UofrWqsSInZa4SuePL0/n80ivQ+H3wQ
snPiMDZWRIRRmV3mfF9IVOI7jK1TwlFVGYrl4Iry2FyBYVjTO2navaaVbJrzGNor
mHqCGdIxrvtMlB0chDj2c7ipTyFqbv3DkYSo9vlNZR4lxBlQczBrpA4X8+W8nPW0
tJyyINrImsO9893pFsDL0/3QhMXZXAP3wA==
-----END CERTIFICATE-----
