Certificate:
    Data:
        Version: 3 (0x2)
        Serial Number:
            1b:62:5c:bc:2d:8d:5f:a5:80:a5:b4:97:a6:97:f7:c0:e8:74:b0:39
        Signature Algorithm: sha256WithRSAEncryption
        Issuer: C=US, ST=California, L=Santa Clara, O=pkg5, CN=ta3, emailAddress=ta3
        Validity
            Not Before: Nov 14 14:26:53 2024 GMT
            Not After : Aug 11 14:26:53 2027 GMT
        Subject: C=US, ST=California, L=Santa Clara, O=pkg5, CN=ta3, emailAddress=ta3
        Subject Public Key Info:
            Public Key Algorithm: rsaEncryption
                Public-Key: (2048 bit)
                Modulus:
                    00:ea:8d:72:24:e0:2f:0d:e0:49:d8:97:0d:96:a1:
                    f5:fe:c8:37:bd:ca:33:71:01:78:91:5d:ab:d6:90:
                    68:10:86:5d:12:a9:43:cd:3d:a8:e0:45:5e:89:ab:
                    5f:86:1f:10:31:2e:3d:06:83:fa:c5:89:b6:85:d2:
                    92:0a:6f:c9:e7:a7:99:cb:d3:50:e9:4d:5b:2f:cf:
                    d6:ac:4d:b7:2b:12:d6:a1:fe:d3:48:3d:46:f2:94:
                    8d:96:0c:10:ea:71:e9:0c:be:eb:f6:fe:ff:b1:6e:
                    6b:7e:99:fb:4f:b6:12:c9:dc:1c:f1:e8:96:01:cd:
                    ae:44:0c:37:bb:c7:0c:80:09:4d:00:c9:8d:0b:d3:
                    b4:ab:b4:9f:3b:ec:0a:ef:05:48:17:36:bb:e6:d6:
                    cd:88:9f:d9:fd:38:c8:2e:c1:12:5d:18:1f:af:da:
                    eb:ee:39:42:d2:46:30:d0:4a:51:8b:fe:78:3b:b2:
                    7a:ae:af:19:b3:d5:79:63:f5:69:c3:b5:68:31:11:
                    93:7f:66:80:20:99:10:72:41:cb:4a:ed:0a:2b:92:
                    4f:ca:a3:10:8c:d4:7c:39:53:b7:5a:30:39:24:d4:
                    c7:76:e5:b7:91:56:41:62:7e:98:54:a2:7b:e2:04:
                    21:bf:ec:19:8e:19:5c:1c:08:2f:f5:d9:eb:10:13:
                    6f:b3
                Exponent: 65537 (0x10001)
        X509v3 extensions:
            X509v3 Subject Key Identifier: 
                C0:41:94:DE:CD:5D:DB:27:3B:CD:AB:4A:D5:3A:6F:DA:A7:7F:17:36
            X509v3 Authority Key Identifier: 
                C0:41:94:DE:CD:5D:DB:27:3B:CD:AB:4A:D5:3A:6F:DA:A7:7F:17:36
            X509v3 Basic Constraints: critical
                CA:TRUE
    Signature Algorithm: sha256WithRSAEncryption
    Signature Value:
        4b:87:93:d4:04:fc:9e:87:4a:19:a6:b8:bc:c3:91:08:9e:61:
        26:e9:92:56:95:dd:72:a7:59:7f:80:65:54:0e:cd:0a:8f:ef:
        2f:78:1f:de:f6:8a:4b:b0:b2:7c:2d:72:1b:94:53:fe:fb:5c:
        ba:57:0b:d0:44:f8:54:32:57:f4:23:a8:18:f5:7e:e5:d7:bd:
        b1:bb:54:26:1b:33:04:6c:0b:bf:11:78:cd:e5:b8:29:16:0b:
        38:2b:c1:ac:79:2a:ea:95:25:f6:2e:c7:e6:60:74:e0:ca:cd:
        a8:a1:04:6b:ad:82:44:99:f7:58:33:0e:3d:38:0c:7c:1c:03:
        9b:b4:e6:74:2a:8f:3a:ed:57:2b:02:13:3a:09:ac:b9:3e:e2:
        14:f4:e0:bc:88:b4:48:b8:4c:98:29:94:4a:db:0e:30:bf:31:
        86:41:09:d1:d1:a5:0a:69:79:42:f8:bc:71:95:37:39:65:ca:
        2d:38:8a:25:af:3a:04:29:91:bf:7f:da:d0:7f:ce:e8:5d:76:
        1d:67:13:03:5c:c6:bb:82:c4:4a:b2:93:4f:e8:aa:12:18:64:
        39:b0:6e:1f:a6:42:20:34:7b:07:76:1f:4d:13:f3:de:27:dc:
        01:62:54:73:81:6e:04:b6:bf:66:ea:87:e9:59:11:6b:43:6c:
        21:70:7a:31
-----BEGIN CERTIFICATE-----
MIIDszCCApugAwIBAgIUG2JcvC2NX6WApbSXppf3wOh0sDkwDQYJKoZIhvcNAQEL
BQAwaTELMAkGA1UEBhMCVVMxEzARBgNVBAgMCkNhbGlmb3JuaWExFDASBgNVBAcM
C1NhbnRhIENsYXJhMQ0wCwYDVQQKDARwa2c1MQwwCgYDVQQDDAN0YTMxEjAQBgkq
hkiG9w0BCQEWA3RhMzAeFw0yNDExMTQxNDI2NTNaFw0yNzA4MTExNDI2NTNaMGkx
CzAJBgNVBAYTAlVTMRMwEQYDVQQIDApDYWxpZm9ybmlhMRQwEgYDVQQHDAtTYW50
YSBDbGFyYTENMAsGA1UECgwEcGtnNTEMMAoGA1UEAwwDdGEzMRIwEAYJKoZIhvcN
AQkBFgN0YTMwggEiMA0GCSqGSIb3DQEBAQUAA4IBDwAwggEKAoIBAQDqjXIk4C8N
4EnYlw2WofX+yDe9yjNxAXiRXavWkGgQhl0SqUPNPajgRV6Jq1+GHxAxLj0Gg/rF
ibaF0pIKb8nnp5nL01DpTVsvz9asTbcrEtah/tNIPUbylI2WDBDqcekMvuv2/v+x
bmt+mftPthLJ3Bzx6JYBza5EDDe7xwyACU0AyY0L07SrtJ877ArvBUgXNrvm1s2I
n9n9OMguwRJdGB+v2uvuOULSRjDQSlGL/ng7snqurxmz1Xlj9WnDtWgxEZN/ZoAg
mRByQctK7Qorkk/KoxCM1Hw5U7daMDkk1Md25beRVkFifphUonviBCG/7BmOGVwc
CC/12esQE2+zAgMBAAGjUzBRMB0GA1UdDgQWBBTAQZTezV3bJzvNq0rVOm/ap38X
NjAfBgNVHSMEGDAWgBTAQZTezV3bJzvNq0rVOm/ap38XNjAPBgNVHRMBAf8EBTAD
AQH/MA0GCSqGSIb3DQEBCwUAA4IBAQBLh5PUBPyeh0oZpri8w5EInmEm6ZJWld1y
p1l/gGVUDs0Kj+8veB/e9opLsLJ8LXIblFP++1y6VwvQRPhUMlf0I6gY9X7l172x
u1QmGzMEbAu/EXjN5bgpFgs4K8GseSrqlSX2LsfmYHTgys2ooQRrrYJEmfdYMw49
OAx8HAObtOZ0Ko867VcrAhM6Cay5PuIU9OC8iLRIuEyYKZRK2w4wvzGGQQnR0aUK
aXlC+LxxlTc5ZcotOIolrzoEKZG/f9rQf87oXXYdZxMDXMa7gsRKspNP6KoSGGQ5
sG4fpkIgNHsHdh9NE/PeJ9wBYlRzgW4Etr9m6ofpWRFrQ2whcHox
-----END CERTIFICATE-----
