Certificate:
    Data:
        Version: 3 (0x2)
        Serial Number:
            3d:ab:7c:d1:27:67:54:57:2b:f8:a5:2c:43:8d:d7:be:d9:a5:57:64
        Signature Algorithm: sha256WithRSAEncryption
        Issuer: C = US, ST = California, L = Santa Clara, O = pkg5, CN = ta3, emailAddress = ta3
        Validity
            Not Before: May 23 15:47:16 2024 GMT
            Not After : Feb 17 15:47:16 2027 GMT
        Subject: C = US, ST = California, L = Santa Clara, O = pkg5, CN = ta3, emailAddress = ta3
        Subject Public Key Info:
            Public Key Algorithm: rsaEncryption
                Public-Key: (2048 bit)
                Modulus:
                    00:b1:9d:9c:7f:64:f4:22:c0:57:bc:c8:df:e3:57:
                    09:92:d9:2f:0d:aa:07:1f:1a:82:56:80:43:47:56:
                    15:0e:3e:f3:7e:f1:68:b1:0b:ee:72:38:ae:61:27:
                    94:20:e0:a9:cb:54:62:b5:a3:76:1b:d3:47:2e:58:
                    b6:90:4d:0c:c0:36:49:0a:fe:a4:11:40:21:48:a4:
                    f0:27:1e:9b:60:31:1d:27:fe:10:2f:1d:3d:5b:69:
                    94:2a:74:47:f6:b6:1d:da:db:ce:ee:fb:8d:20:9e:
                    07:25:ff:40:e2:29:7f:a6:ed:e7:32:37:41:68:ba:
                    ec:1e:c8:26:aa:9d:b6:8c:2e:7b:ba:e4:13:3c:98:
                    ea:a1:58:05:f3:3b:f2:5c:10:59:b4:de:52:1b:0b:
                    4a:06:21:ca:1c:81:19:7f:da:7c:d5:94:73:9b:80:
                    19:c8:f9:b6:22:f8:cf:67:42:5f:15:b8:4d:c8:1a:
                    38:39:23:1e:f0:15:9a:3f:af:ff:d8:17:15:c0:0c:
                    56:41:9e:b8:72:2f:3d:9d:1e:03:11:d2:72:03:11:
                    73:ef:45:68:c4:6a:b0:82:e2:33:3c:18:b7:2a:ad:
                    e2:f1:14:59:dc:fa:c6:e9:e1:55:df:72:b5:8e:bd:
                    af:6f:4c:61:01:5b:d9:b1:0a:b3:c0:6a:92:60:80:
                    a1:01
                Exponent: 65537 (0x10001)
        X509v3 extensions:
            X509v3 Subject Key Identifier: 
                A0:1E:8E:B9:8B:09:76:33:B8:CE:59:F1:BA:1B:5F:EC:D9:38:76:58
            X509v3 Authority Key Identifier: 
                A0:1E:8E:B9:8B:09:76:33:B8:CE:59:F1:BA:1B:5F:EC:D9:38:76:58
            X509v3 Basic Constraints: critical
                CA:TRUE
    Signature Algorithm: sha256WithRSAEncryption
    Signature Value:
        84:ea:b9:ea:90:18:8d:a7:49:ff:0d:df:f9:82:6a:d0:0b:e4:
        44:54:b7:9c:91:48:b5:ed:3c:ff:a4:ad:56:de:f6:b9:07:64:
        6b:3b:49:a9:68:c4:af:b5:a8:6b:2c:de:a5:8b:5b:34:23:d8:
        e3:af:8d:b3:d7:8f:fd:64:d6:cf:8d:83:14:a7:f8:c5:8d:e0:
        27:50:d9:fa:80:5d:b8:55:f5:1a:3d:5c:e8:6c:f7:36:14:16:
        70:11:0d:59:a7:8f:fb:88:da:2f:e8:f2:08:54:23:bc:35:fa:
        48:ef:d1:92:78:99:b5:81:6b:4c:92:1b:b1:2d:cd:85:1e:8f:
        f7:e3:0f:26:0e:f0:56:f0:b6:16:25:0f:b4:b6:d0:e0:dc:7f:
        b2:85:7c:71:e5:9f:53:55:8c:5b:31:68:6d:57:d3:b7:6f:09:
        c7:f1:cb:85:d8:02:4b:97:15:92:c7:09:e3:b2:0e:a1:03:fb:
        f9:52:1f:98:53:14:fa:d6:f9:72:8c:37:8e:51:52:a6:bc:18:
        b3:8e:9a:c8:b6:d1:73:91:b9:e6:51:c5:e5:9b:2f:b5:4d:8f:
        17:ef:79:7f:59:8d:69:62:f3:6b:49:cc:e1:9a:d7:62:30:a3:
        85:c4:d8:09:63:02:40:6b:c5:cb:97:2e:28:14:a5:70:c2:31:
        e3:36:2c:23
-----BEGIN CERTIFICATE-----
MIIDszCCApugAwIBAgIUPat80SdnVFcr+KUsQ43XvtmlV2QwDQYJKoZIhvcNAQEL
BQAwaTELMAkGA1UEBhMCVVMxEzARBgNVBAgMCkNhbGlmb3JuaWExFDASBgNVBAcM
C1NhbnRhIENsYXJhMQ0wCwYDVQQKDARwa2c1MQwwCgYDVQQDDAN0YTMxEjAQBgkq
hkiG9w0BCQEWA3RhMzAeFw0yNDA1MjMxNTQ3MTZaFw0yNzAyMTcxNTQ3MTZaMGkx
CzAJBgNVBAYTAlVTMRMwEQYDVQQIDApDYWxpZm9ybmlhMRQwEgYDVQQHDAtTYW50
YSBDbGFyYTENMAsGA1UECgwEcGtnNTEMMAoGA1UEAwwDdGEzMRIwEAYJKoZIhvcN
AQkBFgN0YTMwggEiMA0GCSqGSIb3DQEBAQUAA4IBDwAwggEKAoIBAQCxnZx/ZPQi
wFe8yN/jVwmS2S8NqgcfGoJWgENHVhUOPvN+8WixC+5yOK5hJ5Qg4KnLVGK1o3Yb
00cuWLaQTQzANkkK/qQRQCFIpPAnHptgMR0n/hAvHT1baZQqdEf2th3a287u+40g
ngcl/0DiKX+m7ecyN0FouuweyCaqnbaMLnu65BM8mOqhWAXzO/JcEFm03lIbC0oG
IcocgRl/2nzVlHObgBnI+bYi+M9nQl8VuE3IGjg5Ix7wFZo/r//YFxXADFZBnrhy
Lz2dHgMR0nIDEXPvRWjEarCC4jM8GLcqreLxFFnc+sbp4VXfcrWOva9vTGEBW9mx
CrPAapJggKEBAgMBAAGjUzBRMB0GA1UdDgQWBBSgHo65iwl2M7jOWfG6G1/s2Th2
WDAfBgNVHSMEGDAWgBSgHo65iwl2M7jOWfG6G1/s2Th2WDAPBgNVHRMBAf8EBTAD
AQH/MA0GCSqGSIb3DQEBCwUAA4IBAQCE6rnqkBiNp0n/Dd/5gmrQC+REVLeckUi1
7Tz/pK1W3va5B2RrO0mpaMSvtahrLN6li1s0I9jjr42z14/9ZNbPjYMUp/jFjeAn
UNn6gF24VfUaPVzobPc2FBZwEQ1Zp4/7iNov6PIIVCO8NfpI79GSeJm1gWtMkhux
Lc2FHo/34w8mDvBW8LYWJQ+0ttDg3H+yhXxx5Z9TVYxbMWhtV9O3bwnH8cuF2AJL
lxWSxwnjsg6hA/v5Uh+YUxT61vlyjDeOUVKmvBizjprIttFzkbnmUcXlmy+1TY8X
73l/WY1pYvNrSczhmtdiMKOFxNgJYwJAa8XLly4oFKVwwjHjNiwj
-----END CERTIFICATE-----
