Certificate:
    Data:
        Version: 3 (0x2)
        Serial Number:
            83:65:05:ef:bc:0c:05:9c
    Signature Algorithm: sha256WithRSAEncryption
        Issuer: C=US, ST=California, L=Santa Clara, O=pkg5, CN=ta3/emailAddress=ta3
        Validity
            Not Before: Nov 16 10:58:48 2017 GMT
            Not After : Aug 12 10:58:48 2020 GMT
        Subject: C=US, ST=California, L=Santa Clara, O=pkg5, CN=ta3/emailAddress=ta3
        Subject Public Key Info:
            Public Key Algorithm: rsaEncryption
                Public-Key: (2048 bit)
                Modulus:
                    00:ef:c9:07:47:30:de:87:0f:22:8a:75:c8:4c:94:
                    a7:f5:16:4a:e1:fa:35:d9:b7:6b:0a:c9:8a:48:db:
                    21:55:3e:98:b8:cb:03:c6:0d:c0:d8:2d:62:9d:c0:
                    13:64:43:eb:61:ff:2a:9c:09:3b:7b:33:dc:3a:6a:
                    79:21:75:c4:2e:df:60:cd:40:c1:81:b6:31:a5:78:
                    94:f2:9f:55:a7:e5:db:c1:d8:e3:e6:78:ac:fe:99:
                    51:52:df:1d:62:3c:df:45:54:08:7c:cf:36:aa:f2:
                    3d:ad:5f:61:18:6d:f4:7d:57:f9:f7:b8:c2:33:f3:
                    52:bf:bd:46:8b:f9:4e:b9:0a:a7:85:41:d8:c9:6f:
                    7d:be:5b:c0:18:6b:e6:12:0a:c9:1d:c9:2c:45:24:
                    bc:3e:c2:63:d9:5d:04:30:22:94:1b:15:ec:e4:3b:
                    d9:0c:46:4d:e1:94:69:49:d2:3e:f3:15:8f:eb:f8:
                    65:b8:d7:3b:3d:c4:91:55:95:9a:70:b2:cd:b7:c2:
                    0c:d8:33:5d:79:dd:c7:e2:37:24:de:d4:51:a9:31:
                    5f:b0:bc:c2:78:47:b9:09:44:a6:3a:d2:5a:fe:56:
                    1c:e6:f8:8a:19:34:47:61:87:ac:87:6e:bb:5a:f0:
                    fa:52:10:b2:83:c3:8c:06:d1:d1:e7:39:1a:81:92:
                    6f:01
                Exponent: 65537 (0x10001)
        X509v3 extensions:
            X509v3 Subject Key Identifier: 
                5E:5D:52:C3:66:EC:B1:35:4E:FC:06:50:E5:E6:20:81:D1:38:16:61
            X509v3 Authority Key Identifier: 
                keyid:5E:5D:52:C3:66:EC:B1:35:4E:FC:06:50:E5:E6:20:81:D1:38:16:61

            X509v3 Basic Constraints: 
                CA:TRUE
    Signature Algorithm: sha256WithRSAEncryption
         7d:6f:8d:e4:ad:d9:0b:ce:fe:63:3e:f0:27:a4:3e:e0:67:ac:
         79:7f:1d:28:a3:b2:8b:07:dd:d2:83:59:6e:4d:76:f3:3d:9a:
         2a:b4:5a:7c:c8:e1:4f:02:7b:91:9e:af:d0:36:c2:12:c6:04:
         d2:4b:ce:fd:c8:89:67:08:5a:19:72:40:51:1a:80:bb:3c:d0:
         55:af:8c:bf:21:7d:01:60:09:10:09:16:27:1d:8a:df:0f:38:
         8a:08:a1:84:65:71:a4:36:0d:c0:63:fd:e9:07:46:7b:91:ae:
         11:a2:c0:07:77:87:c0:c1:7f:fa:69:2f:7c:cf:17:ee:f0:b6:
         3a:a9:45:1d:a3:78:5b:7e:0f:3a:c8:9e:87:d9:3f:d5:07:d4:
         04:46:0d:08:c2:13:fb:d8:48:70:8b:86:1f:85:b2:8c:60:f3:
         67:8d:ac:a3:c9:2e:00:30:f9:9e:38:bb:58:b7:35:93:06:6c:
         aa:8d:ba:0b:d7:94:65:59:e3:45:40:98:d0:b6:33:96:ec:3e:
         0c:02:d8:7f:d5:7d:ec:53:db:71:3c:3a:87:ce:26:5a:6e:5b:
         d8:99:38:82:4f:9c:61:ec:71:9a:80:8b:cf:15:82:02:80:7f:
         fe:98:fe:3c:25:71:22:8f:72:42:05:0a:82:93:29:55:f3:ee:
         b9:5d:e5:0f
-----BEGIN CERTIFICATE-----
MIIDpTCCAo2gAwIBAgIJAINlBe+8DAWcMA0GCSqGSIb3DQEBCwUAMGkxCzAJBgNV
BAYTAlVTMRMwEQYDVQQIDApDYWxpZm9ybmlhMRQwEgYDVQQHDAtTYW50YSBDbGFy
YTENMAsGA1UECgwEcGtnNTEMMAoGA1UEAwwDdGEzMRIwEAYJKoZIhvcNAQkBFgN0
YTMwHhcNMTcxMTE2MTA1ODQ4WhcNMjAwODEyMTA1ODQ4WjBpMQswCQYDVQQGEwJV
UzETMBEGA1UECAwKQ2FsaWZvcm5pYTEUMBIGA1UEBwwLU2FudGEgQ2xhcmExDTAL
BgNVBAoMBHBrZzUxDDAKBgNVBAMMA3RhMzESMBAGCSqGSIb3DQEJARYDdGEzMIIB
IjANBgkqhkiG9w0BAQEFAAOCAQ8AMIIBCgKCAQEA78kHRzDehw8iinXITJSn9RZK
4fo12bdrCsmKSNshVT6YuMsDxg3A2C1incATZEPrYf8qnAk7ezPcOmp5IXXELt9g
zUDBgbYxpXiU8p9Vp+Xbwdjj5nis/plRUt8dYjzfRVQIfM82qvI9rV9hGG30fVf5
97jCM/NSv71Gi/lOuQqnhUHYyW99vlvAGGvmEgrJHcksRSS8PsJj2V0EMCKUGxXs
5DvZDEZN4ZRpSdI+8xWP6/hluNc7PcSRVZWacLLNt8IM2DNded3H4jck3tRRqTFf
sLzCeEe5CUSmOtJa/lYc5viKGTRHYYesh267WvD6UhCyg8OMBtHR5zkagZJvAQID
AQABo1AwTjAdBgNVHQ4EFgQUXl1Sw2bssTVO/AZQ5eYggdE4FmEwHwYDVR0jBBgw
FoAUXl1Sw2bssTVO/AZQ5eYggdE4FmEwDAYDVR0TBAUwAwEB/zANBgkqhkiG9w0B
AQsFAAOCAQEAfW+N5K3ZC87+Yz7wJ6Q+4GeseX8dKKOyiwfd0oNZbk128z2aKrRa
fMjhTwJ7kZ6v0DbCEsYE0kvO/ciJZwhaGXJAURqAuzzQVa+MvyF9AWAJEAkWJx2K
3w84igihhGVxpDYNwGP96QdGe5GuEaLAB3eHwMF/+mkvfM8X7vC2OqlFHaN4W34P
Osieh9k/1QfUBEYNCMIT+9hIcIuGH4WyjGDzZ42so8kuADD5nji7WLc1kwZsqo26
C9eUZVnjRUCY0LYzluw+DALYf9V97FPbcTw6h84mWm5b2Jk4gk+cYexxmoCLzxWC
AoB//pj+PCVxIo9yQgUKgpMpVfPuuV3lDw==
-----END CERTIFICATE-----
