Certificate:
    Data:
        Version: 3 (0x2)
        Serial Number:
            74:45:d3:d5:3a:84:b9:06:57:8f:b0:e1:16:54:ed:0c:d1:24:59:9e
        Signature Algorithm: sha256WithRSAEncryption
        Issuer: C = US, ST = California, L = Santa Clara, O = pkg5, CN = ta3, emailAddress = ta3
        Validity
            Not Before: Nov 17 23:01:29 2020 GMT
            Not After : Aug 14 23:01:29 2023 GMT
        Subject: C = US, ST = California, L = Santa Clara, O = pkg5, CN = ta3, emailAddress = ta3
        Subject Public Key Info:
            Public Key Algorithm: rsaEncryption
                RSA Public-Key: (2048 bit)
                Modulus:
                    00:c4:72:8f:8d:a0:74:af:0f:d0:2a:ce:e3:da:ee:
                    4e:33:aa:bc:0b:c1:cb:6d:7b:90:0b:79:fe:31:b2:
                    74:97:ad:82:77:f2:f3:37:7a:43:50:2b:d1:69:c8:
                    18:70:b0:38:94:2b:0c:eb:e3:53:29:ef:2e:d8:a9:
                    62:8f:e3:e3:4a:2b:33:f6:7d:4b:4e:ee:90:be:9c:
                    d6:67:48:b2:8f:0a:9c:88:37:41:e0:6f:69:d9:f8:
                    92:a6:20:0d:7e:d5:52:7d:a3:5e:0b:67:43:b5:bb:
                    70:12:53:ee:fc:dc:5a:53:48:f5:d5:8f:dd:ab:86:
                    a6:bf:63:05:30:cf:5d:f8:89:74:ed:f6:53:b5:d9:
                    5a:be:e3:0b:46:0f:1c:e8:fd:b5:45:bf:5f:2a:a2:
                    9a:0a:4b:ed:d1:a7:6b:be:35:b2:7e:20:d1:cb:26:
                    c0:8c:ae:21:95:b2:5c:28:00:f4:05:e9:55:dc:84:
                    c0:be:69:3e:7d:1b:b7:a6:fc:bc:d3:e2:53:6d:22:
                    93:0d:3e:43:8d:f5:5e:39:17:8a:83:97:36:94:65:
                    35:da:2a:82:c3:de:06:91:09:e1:7a:0f:48:b6:20:
                    cb:5a:45:84:2b:79:d7:8f:05:b3:60:7a:3f:fb:2e:
                    81:36:4b:09:ad:29:bb:a2:0a:eb:e5:83:32:af:f5:
                    2e:af
                Exponent: 65537 (0x10001)
        X509v3 extensions:
            X509v3 Subject Key Identifier: 
                A2:40:C4:DE:F2:7E:C6:C5:85:D5:CC:0E:28:07:4F:C6:FC:7E:A1:27
            X509v3 Authority Key Identifier: 
                keyid:A2:40:C4:DE:F2:7E:C6:C5:85:D5:CC:0E:28:07:4F:C6:FC:7E:A1:27

            X509v3 Basic Constraints: critical
                CA:TRUE
    Signature Algorithm: sha256WithRSAEncryption
         14:6c:df:a1:ff:c9:3c:d2:ff:47:cf:1e:af:13:f5:05:9e:ab:
         4e:82:96:61:ad:e6:2c:4f:b1:cd:4e:ce:3a:8b:37:53:eb:d1:
         0e:2f:65:5f:0f:28:cd:1a:b0:70:86:ef:84:79:57:1d:3f:dc:
         37:fd:38:89:50:93:8b:f7:68:8b:55:cf:f7:7f:ac:7d:ef:a3:
         e6:48:98:9f:55:12:b9:cb:06:5c:87:5e:e9:03:81:65:58:05:
         05:95:53:6d:c8:4f:23:f8:1c:0e:15:3a:3b:76:01:2e:59:4c:
         b7:d8:3e:53:2b:a2:8c:8e:87:1f:ab:89:33:53:61:51:57:87:
         a6:c5:e8:64:f2:61:da:f1:a4:51:49:c4:7b:6a:a2:66:d3:2b:
         db:f3:80:5c:be:79:9e:e0:79:7c:2a:de:3f:4d:7e:04:05:e2:
         45:50:de:54:84:f0:ff:18:92:bb:bf:64:a3:10:15:08:63:af:
         a1:c3:6c:be:aa:4d:a3:84:9c:fb:e3:c6:4b:cd:97:07:21:3f:
         4f:e3:73:aa:8f:aa:3a:63:34:41:76:ca:e4:8f:15:cf:a8:4c:
         8d:f8:73:97:e0:1c:85:47:59:98:ac:4c:bb:74:03:42:49:d7:
         1e:64:4d:44:93:a4:9e:61:e5:3f:bd:7a:8e:e5:c6:dc:c6:fc:
         7e:c9:7e:b5
-----BEGIN CERTIFICATE-----
MIIDszCCApugAwIBAgIUdEXT1TqEuQZXj7DhFlTtDNEkWZ4wDQYJKoZIhvcNAQEL
BQAwaTELMAkGA1UEBhMCVVMxEzARBgNVBAgMCkNhbGlmb3JuaWExFDASBgNVBAcM
C1NhbnRhIENsYXJhMQ0wCwYDVQQKDARwa2c1MQwwCgYDVQQDDAN0YTMxEjAQBgkq
hkiG9w0BCQEWA3RhMzAeFw0yMDExMTcyMzAxMjlaFw0yMzA4MTQyMzAxMjlaMGkx
CzAJBgNVBAYTAlVTMRMwEQYDVQQIDApDYWxpZm9ybmlhMRQwEgYDVQQHDAtTYW50
YSBDbGFyYTENMAsGA1UECgwEcGtnNTEMMAoGA1UEAwwDdGEzMRIwEAYJKoZIhvcN
AQkBFgN0YTMwggEiMA0GCSqGSIb3DQEBAQUAA4IBDwAwggEKAoIBAQDEco+NoHSv
D9AqzuPa7k4zqrwLwctte5ALef4xsnSXrYJ38vM3ekNQK9FpyBhwsDiUKwzr41Mp
7y7YqWKP4+NKKzP2fUtO7pC+nNZnSLKPCpyIN0Hgb2nZ+JKmIA1+1VJ9o14LZ0O1
u3ASU+783FpTSPXVj92rhqa/YwUwz134iXTt9lO12Vq+4wtGDxzo/bVFv18qopoK
S+3Rp2u+NbJ+INHLJsCMriGVslwoAPQF6VXchMC+aT59G7em/LzT4lNtIpMNPkON
9V45F4qDlzaUZTXaKoLD3gaRCeF6D0i2IMtaRYQredePBbNgej/7LoE2SwmtKbui
CuvlgzKv9S6vAgMBAAGjUzBRMB0GA1UdDgQWBBSiQMTe8n7GxYXVzA4oB0/G/H6h
JzAfBgNVHSMEGDAWgBSiQMTe8n7GxYXVzA4oB0/G/H6hJzAPBgNVHRMBAf8EBTAD
AQH/MA0GCSqGSIb3DQEBCwUAA4IBAQAUbN+h/8k80v9Hzx6vE/UFnqtOgpZhreYs
T7HNTs46izdT69EOL2VfDyjNGrBwhu+EeVcdP9w3/TiJUJOL92iLVc/3f6x976Pm
SJifVRK5ywZch17pA4FlWAUFlVNtyE8j+BwOFTo7dgEuWUy32D5TK6KMjocfq4kz
U2FRV4emxehk8mHa8aRRScR7aqJm0yvb84Bcvnme4Hl8Kt4/TX4EBeJFUN5UhPD/
GJK7v2SjEBUIY6+hw2y+qk2jhJz748ZLzZcHIT9P43Oqj6o6YzRBdsrkjxXPqEyN
+HOX4ByFR1mYrEy7dANCSdceZE1Ek6SeYeU/vXqO5cbcxvx+yX61
-----END CERTIFICATE-----
