Certificate:
    Data:
        Version: 3 (0x2)
        Serial Number:
            ca:fc:34:24:a4:24:1f:39
    Signature Algorithm: sha256WithRSAEncryption
        Issuer: C=US, ST=California, L=Santa Clara, O=pkg5, CN=ta3/emailAddress=ta3
        Validity
            Not Before: Mar 20 10:20:53 2018 GMT
            Not After : Dec 14 10:20:53 2020 GMT
        Subject: C=US, ST=California, L=Santa Clara, O=pkg5, CN=ta3/emailAddress=ta3
        Subject Public Key Info:
            Public Key Algorithm: rsaEncryption
                Public-Key: (2048 bit)
                Modulus:
                    00:aa:5f:8c:53:15:38:3d:cf:6a:1e:7d:8e:d1:98:
                    ab:3b:71:15:7c:82:56:62:21:6a:16:90:43:ad:1b:
                    b8:dc:bc:4e:44:60:77:9a:7f:56:5d:15:1b:81:0d:
                    e9:de:63:fb:bf:93:94:ae:df:ba:f3:5d:38:38:43:
                    5b:d8:98:18:97:27:65:bc:a2:e1:49:0c:ae:72:cf:
                    92:db:54:27:69:50:f1:86:c0:55:cf:f3:eb:d8:2f:
                    53:de:0d:b0:74:c7:db:e4:c2:17:be:d2:16:e7:3c:
                    d4:c6:c2:81:e2:72:bf:e8:8d:b8:0a:eb:9e:95:3e:
                    5f:0d:00:2b:89:50:bb:bf:40:e9:2b:f6:17:1e:9f:
                    5d:5b:a8:93:6c:de:6e:36:84:01:96:8b:8c:e3:d3:
                    a7:1a:47:17:97:06:ce:9c:a4:60:f5:b2:99:3e:a7:
                    95:0c:04:09:43:ce:7f:a7:87:4f:08:13:9e:77:fb:
                    60:b8:d1:34:2e:96:1f:26:da:6b:30:3f:76:1c:5e:
                    5f:66:01:8c:06:10:8a:49:59:f5:33:c0:67:c5:a3:
                    b6:23:d8:80:88:1e:8b:a2:d1:89:ea:04:0d:62:ab:
                    53:47:52:7a:cc:a1:19:fe:70:ad:3c:e8:10:37:4d:
                    ac:0c:8a:df:ea:00:e2:0c:98:72:0c:0a:40:47:f4:
                    d2:93
                Exponent: 65537 (0x10001)
        X509v3 extensions:
            X509v3 Subject Key Identifier: 
                05:4A:64:CF:6C:39:57:EB:DD:04:B1:24:67:93:9A:D7:7F:AE:3D:3F
            X509v3 Authority Key Identifier: 
                keyid:05:4A:64:CF:6C:39:57:EB:DD:04:B1:24:67:93:9A:D7:7F:AE:3D:3F

            X509v3 Basic Constraints: 
                CA:TRUE
    Signature Algorithm: sha256WithRSAEncryption
         9a:45:58:43:3e:00:09:9d:d4:dc:43:07:8f:8c:ae:de:b3:41:
         7c:f5:f6:1b:4c:57:4e:7e:f5:73:67:09:89:6f:78:4a:8d:12:
         f7:69:ee:40:3a:6e:ec:0a:67:81:34:ae:32:65:71:14:0d:19:
         a0:c7:c0:8a:55:01:8d:1c:77:9b:f3:72:ea:28:46:c9:f5:4b:
         f1:03:31:ef:f3:34:94:4c:40:b9:41:8d:18:d7:3b:9c:3d:e9:
         0e:1a:20:1d:3c:d7:73:5a:69:76:a0:6f:2b:b0:53:e8:2b:91:
         e6:b6:ab:1c:9a:36:a8:75:0f:bb:2c:50:91:13:95:33:9c:d3:
         da:cf:17:f3:25:5a:e8:19:28:39:22:b6:d7:39:67:6b:2e:b5:
         aa:e5:64:94:bd:2d:a9:a0:ed:1b:21:1a:88:25:71:86:01:b1:
         df:da:e7:c9:0b:fa:04:2f:fe:d2:89:ae:37:99:48:00:88:85:
         e3:ec:9f:a7:ef:1f:db:05:19:fd:84:9b:9f:c6:98:a2:e1:8e:
         6d:ac:81:e1:ad:61:f0:36:19:91:b2:2a:56:17:a6:06:b0:43:
         a1:1b:cc:c3:39:cb:52:85:c9:6c:6c:98:1f:8e:ea:b3:94:39:
         de:db:92:46:56:12:38:f1:0a:f2:f3:37:9f:e7:67:b1:53:b1:
         cd:b0:f7:f0
-----BEGIN CERTIFICATE-----
MIIDpTCCAo2gAwIBAgIJAMr8NCSkJB85MA0GCSqGSIb3DQEBCwUAMGkxCzAJBgNV
BAYTAlVTMRMwEQYDVQQIDApDYWxpZm9ybmlhMRQwEgYDVQQHDAtTYW50YSBDbGFy
YTENMAsGA1UECgwEcGtnNTEMMAoGA1UEAwwDdGEzMRIwEAYJKoZIhvcNAQkBFgN0
YTMwHhcNMTgwMzIwMTAyMDUzWhcNMjAxMjE0MTAyMDUzWjBpMQswCQYDVQQGEwJV
UzETMBEGA1UECAwKQ2FsaWZvcm5pYTEUMBIGA1UEBwwLU2FudGEgQ2xhcmExDTAL
BgNVBAoMBHBrZzUxDDAKBgNVBAMMA3RhMzESMBAGCSqGSIb3DQEJARYDdGEzMIIB
IjANBgkqhkiG9w0BAQEFAAOCAQ8AMIIBCgKCAQEAql+MUxU4Pc9qHn2O0ZirO3EV
fIJWYiFqFpBDrRu43LxORGB3mn9WXRUbgQ3p3mP7v5OUrt+68104OENb2JgYlydl
vKLhSQyucs+S21QnaVDxhsBVz/Pr2C9T3g2wdMfb5MIXvtIW5zzUxsKB4nK/6I24
CuuelT5fDQAriVC7v0DpK/YXHp9dW6iTbN5uNoQBlouM49OnGkcXlwbOnKRg9bKZ
PqeVDAQJQ85/p4dPCBOed/tguNE0LpYfJtprMD92HF5fZgGMBhCKSVn1M8BnxaO2
I9iAiB6LotGJ6gQNYqtTR1J6zKEZ/nCtPOgQN02sDIrf6gDiDJhyDApAR/TSkwID
AQABo1AwTjAdBgNVHQ4EFgQUBUpkz2w5V+vdBLEkZ5Oa13+uPT8wHwYDVR0jBBgw
FoAUBUpkz2w5V+vdBLEkZ5Oa13+uPT8wDAYDVR0TBAUwAwEB/zANBgkqhkiG9w0B
AQsFAAOCAQEAmkVYQz4ACZ3U3EMHj4yu3rNBfPX2G0xXTn71c2cJiW94So0S92nu
QDpu7ApngTSuMmVxFA0ZoMfAilUBjRx3m/Ny6ihGyfVL8QMx7/M0lExAuUGNGNc7
nD3pDhogHTzXc1ppdqBvK7BT6CuR5rarHJo2qHUPuyxQkROVM5zT2s8X8yVa6Bko
OSK21zlnay61quVklL0tqaDtGyEaiCVxhgGx39rnyQv6BC/+0omuN5lIAIiF4+yf
p+8f2wUZ/YSbn8aYouGObayB4a1h8DYZkbIqVhemBrBDoRvMwznLUoXJbGyYH47q
s5Q53tuSRlYSOPEK8vM3n+dnsVOxzbD38A==
-----END CERTIFICATE-----
