Certificate:
    Data:
        Version: 3 (0x2)
        Serial Number:
            a9:2a:0c:d4:48:d7:44:dc
    Signature Algorithm: sha256WithRSAEncryption
        Issuer: C=US, ST=California, L=Santa Clara, O=pkg5, OU=ta9, CN=localhost/emailAddress=ta9
        Validity
            Not Before: Mar 20 10:20:56 2018 GMT
            Not After : Dec 14 10:20:56 2020 GMT
        Subject: C=US, ST=California, L=Santa Clara, O=pkg5, OU=ta9, CN=localhost/emailAddress=ta9
        Subject Public Key Info:
            Public Key Algorithm: rsaEncryption
                Public-Key: (2048 bit)
                Modulus:
                    00:b0:c2:e2:d0:f7:ac:52:d5:b5:ab:be:9a:02:78:
                    ba:5c:4e:8e:7c:b6:0f:9a:5b:1e:62:61:db:0c:b9:
                    19:aa:8a:5f:d5:87:99:bc:de:a2:fb:5b:73:3a:4c:
                    15:b7:bf:df:f4:96:93:a8:2d:f8:e5:12:04:80:91:
                    51:de:58:c0:cb:9b:a2:8b:2f:69:e1:4e:d3:86:92:
                    53:a2:5d:79:40:0a:ca:f4:50:85:97:fe:1d:c6:16:
                    c5:01:fb:d8:d6:54:57:30:64:91:e6:11:af:25:5c:
                    4b:75:62:ba:3d:4d:e2:25:ce:02:19:12:8f:a8:5f:
                    ea:46:6c:bb:9e:79:a1:80:f4:8e:27:c1:d7:52:56:
                    63:15:28:d2:bc:d1:ef:09:a5:d1:ba:d7:08:08:b5:
                    3a:22:96:a0:1f:1a:e7:85:9e:84:f7:4d:2f:ad:02:
                    f6:80:6f:3f:a6:f5:9a:91:aa:f4:b6:7f:d1:58:72:
                    84:25:11:d3:96:3a:b9:66:77:e8:62:6f:59:65:39:
                    36:08:e2:67:62:19:f0:15:c1:93:b1:6a:d5:5e:68:
                    86:2b:b5:ca:8b:b1:47:ce:b4:96:9c:73:09:5b:e7:
                    8e:b9:8b:6f:1e:28:44:4f:9e:87:8b:42:d6:fe:af:
                    9b:6e:1a:6f:09:7b:87:0f:d1:8b:d5:19:11:f7:4a:
                    33:31
                Exponent: 65537 (0x10001)
        X509v3 extensions:
            X509v3 Subject Key Identifier: 
                7F:AB:2F:A8:29:65:37:81:16:24:AE:6C:BC:9C:AA:5F:7D:30:EB:23
            X509v3 Authority Key Identifier: 
                keyid:7F:AB:2F:A8:29:65:37:81:16:24:AE:6C:BC:9C:AA:5F:7D:30:EB:23

            X509v3 Basic Constraints: 
                CA:TRUE
    Signature Algorithm: sha256WithRSAEncryption
         9f:f0:b2:42:f9:c1:53:81:c6:ab:dc:6e:5c:bb:6a:b9:d3:fe:
         69:49:68:14:71:5a:bf:49:15:ca:4b:1c:d4:6d:e0:3b:0f:f9:
         18:85:26:8f:02:05:2a:0f:2d:a8:27:36:a2:28:1f:de:61:0f:
         d0:50:2e:3b:d3:de:c6:f7:88:bb:58:07:74:67:28:ed:d2:45:
         46:7e:92:98:79:aa:95:15:64:98:10:2a:d8:ab:24:37:37:04:
         45:4e:87:cd:75:48:06:77:bb:7f:22:4c:4f:e3:8e:c9:df:f4:
         7a:3c:fc:c9:1f:3f:d4:eb:e5:b1:9b:e5:4b:89:a6:5c:cb:93:
         60:3f:a1:5f:4f:4b:73:94:e3:4d:f1:6b:6f:0f:c8:73:dc:f3:
         d8:95:5d:8b:78:b6:51:a0:6b:2d:2b:4e:6a:f0:c1:0b:af:ab:
         2f:8a:33:fb:f7:de:de:1f:3e:75:2e:47:c2:34:d3:53:24:d6:
         93:fb:df:9b:5a:e7:2d:4f:62:e6:df:d6:0b:34:da:f4:40:a6:
         41:20:77:ea:17:9c:dc:93:a2:d5:7a:42:45:9d:82:81:0e:6a:
         a2:f3:ab:dc:b9:9c:de:e7:52:82:e2:e9:25:63:95:eb:02:01:
         98:25:ab:e9:d2:05:ab:cf:bb:87:c6:07:d9:7d:7b:80:8f:c4:
         03:89:03:90
-----BEGIN CERTIFICATE-----
MIIDzTCCArWgAwIBAgIJAKkqDNRI10TcMA0GCSqGSIb3DQEBCwUAMH0xCzAJBgNV
BAYTAlVTMRMwEQYDVQQIDApDYWxpZm9ybmlhMRQwEgYDVQQHDAtTYW50YSBDbGFy
YTENMAsGA1UECgwEcGtnNTEMMAoGA1UECwwDdGE5MRIwEAYDVQQDDAlsb2NhbGhv
c3QxEjAQBgkqhkiG9w0BCQEWA3RhOTAeFw0xODAzMjAxMDIwNTZaFw0yMDEyMTQx
MDIwNTZaMH0xCzAJBgNVBAYTAlVTMRMwEQYDVQQIDApDYWxpZm9ybmlhMRQwEgYD
VQQHDAtTYW50YSBDbGFyYTENMAsGA1UECgwEcGtnNTEMMAoGA1UECwwDdGE5MRIw
EAYDVQQDDAlsb2NhbGhvc3QxEjAQBgkqhkiG9w0BCQEWA3RhOTCCASIwDQYJKoZI
hvcNAQEBBQADggEPADCCAQoCggEBALDC4tD3rFLVtau+mgJ4ulxOjny2D5pbHmJh
2wy5GaqKX9WHmbzeovtbczpMFbe/3/SWk6gt+OUSBICRUd5YwMuboosvaeFO04aS
U6JdeUAKyvRQhZf+HcYWxQH72NZUVzBkkeYRryVcS3Viuj1N4iXOAhkSj6hf6kZs
u555oYD0jifB11JWYxUo0rzR7wml0brXCAi1OiKWoB8a54WehPdNL60C9oBvP6b1
mpGq9LZ/0VhyhCUR05Y6uWZ36GJvWWU5NgjiZ2IZ8BXBk7Fq1V5ohiu1youxR860
lpxzCVvnjrmLbx4oRE+eh4tC1v6vm24abwl7hw/Ri9UZEfdKMzECAwEAAaNQME4w
HQYDVR0OBBYEFH+rL6gpZTeBFiSubLycql99MOsjMB8GA1UdIwQYMBaAFH+rL6gp
ZTeBFiSubLycql99MOsjMAwGA1UdEwQFMAMBAf8wDQYJKoZIhvcNAQELBQADggEB
AJ/wskL5wVOBxqvcbly7arnT/mlJaBRxWr9JFcpLHNRt4DsP+RiFJo8CBSoPLagn
NqIoH95hD9BQLjvT3sb3iLtYB3RnKO3SRUZ+kph5qpUVZJgQKtirJDc3BEVOh811
SAZ3u38iTE/jjsnf9Ho8/MkfP9Tr5bGb5UuJplzLk2A/oV9PS3OU403xa28PyHPc
89iVXYt4tlGgay0rTmrwwQuvqy+KM/v33t4fPnUuR8I001Mk1pP735ta5y1PYubf
1gs02vRApkEgd+oXnNyTotV6QkWdgoEOaqLzq9y5nN7nUoLi6SVjlesCAZglq+nS
BavPu4fGB9l9e4CPxAOJA5A=
-----END CERTIFICATE-----
