Certificate:
    Data:
        Version: 3 (0x2)
        Serial Number:
            52:ec:3e:e0:22:8d:00:f6:ac:06:3b:fd:ba:f2:72:28:39:ae:34:e5
        Signature Algorithm: sha256WithRSAEncryption
        Issuer: C = US, ST = California, L = Santa Clara, O = pkg5, OU = ta9, CN = localhost, emailAddress = ta9
        Validity
            Not Before: Dec 15 15:37:33 2022 GMT
            Not After : Sep 10 15:37:33 2025 GMT
        Subject: C = US, ST = California, L = Santa Clara, O = pkg5, OU = ta9, CN = localhost, emailAddress = ta9
        Subject Public Key Info:
            Public Key Algorithm: rsaEncryption
                Public-Key: (2048 bit)
                Modulus:
                    00:d0:6a:1d:91:03:ca:b9:9e:bf:ef:ed:99:c0:4d:
                    6f:4d:86:c4:b4:07:bc:20:dc:ec:7b:4e:53:12:d6:
                    fc:23:c2:0e:00:80:f8:4f:eb:ec:81:ff:03:0f:e9:
                    d4:41:78:86:fb:33:b2:a9:38:e2:1e:8a:98:81:25:
                    f6:0d:79:e9:34:65:80:1a:5d:0e:2a:55:1c:df:4f:
                    68:a8:45:06:b1:d6:46:4e:c6:f3:6f:b5:67:57:72:
                    f2:8d:a7:ef:f2:30:98:7d:00:d2:e6:86:3a:d1:ab:
                    30:b0:2b:7c:4b:ee:00:9d:30:1e:c9:d1:6c:87:be:
                    71:e8:90:18:83:74:3f:63:a0:8e:0b:a5:34:47:bc:
                    54:26:57:db:d0:ae:07:1d:01:28:c6:11:7a:4c:92:
                    9d:10:92:5c:73:e7:b0:be:cc:ec:01:61:20:31:96:
                    87:e1:de:1e:31:89:9f:5f:94:17:60:5f:cc:41:30:
                    bd:41:79:e2:4d:7b:9a:6b:4d:9c:4f:19:3f:c9:13:
                    cc:98:ab:6c:6b:d4:b4:3b:58:65:ff:f9:8e:01:53:
                    7c:df:c3:98:4e:8d:1d:66:85:b3:68:1f:d7:c6:ba:
                    15:70:26:e1:aa:88:c5:3c:c2:23:0d:dc:fa:b6:04:
                    fe:45:4d:ee:0f:4e:47:26:f9:87:55:c6:40:8d:62:
                    7c:7b
                Exponent: 65537 (0x10001)
        X509v3 extensions:
            X509v3 Subject Key Identifier: 
                20:FB:3D:23:6B:EF:2B:08:AE:10:90:3B:A0:EF:B6:66:66:EE:F9:C4
            X509v3 Authority Key Identifier: 
                20:FB:3D:23:6B:EF:2B:08:AE:10:90:3B:A0:EF:B6:66:66:EE:F9:C4
            X509v3 Basic Constraints: critical
                CA:TRUE
    Signature Algorithm: sha256WithRSAEncryption
    Signature Value:
        98:76:e9:7c:2b:77:45:77:b3:86:49:39:a6:78:9e:f1:27:62:
        f1:60:95:d7:d8:4c:21:7d:51:66:4e:d2:c8:a9:73:ce:a6:9f:
        61:bf:8b:86:bf:25:cb:7b:c9:af:83:59:30:2a:02:20:aa:3a:
        63:3b:42:ab:08:1d:dd:c9:31:51:ea:54:dd:ed:ce:9a:a9:19:
        24:4f:72:64:c5:84:ff:f2:f6:fe:e9:98:67:c9:f2:f8:94:ba:
        32:dc:e4:d7:f7:af:5f:a4:3a:0d:9a:a9:59:5e:74:84:b4:89:
        8e:a2:4f:bb:79:3f:c0:35:8e:13:0c:29:a9:c4:9a:16:96:9a:
        89:04:60:81:47:bd:3c:83:5b:3d:81:d6:e8:5e:c2:aa:f9:6c:
        ef:5b:6e:07:30:d2:23:95:f1:7d:ef:05:13:b9:5a:65:9e:5b:
        4e:a2:c3:01:16:97:36:47:67:fc:44:fb:bc:86:8f:fc:2a:f8:
        45:df:3f:dc:d9:a6:28:ea:68:bc:de:f9:f4:08:0b:5c:10:c9:
        74:31:d2:c5:b5:2b:02:a5:21:83:db:66:b7:2e:7b:d3:69:1b:
        65:65:49:d9:82:57:29:87:f6:6d:c2:f8:2d:cd:21:1a:6e:59:
        f2:9d:13:0e:95:82:d8:29:7c:4e:f1:27:1d:40:09:ae:bb:4f:
        fd:82:d5:86
-----BEGIN CERTIFICATE-----
MIID2zCCAsOgAwIBAgIUUuw+4CKNAPasBjv9uvJyKDmuNOUwDQYJKoZIhvcNAQEL
BQAwfTELMAkGA1UEBhMCVVMxEzARBgNVBAgMCkNhbGlmb3JuaWExFDASBgNVBAcM
C1NhbnRhIENsYXJhMQ0wCwYDVQQKDARwa2c1MQwwCgYDVQQLDAN0YTkxEjAQBgNV
BAMMCWxvY2FsaG9zdDESMBAGCSqGSIb3DQEJARYDdGE5MB4XDTIyMTIxNTE1Mzcz
M1oXDTI1MDkxMDE1MzczM1owfTELMAkGA1UEBhMCVVMxEzARBgNVBAgMCkNhbGlm
b3JuaWExFDASBgNVBAcMC1NhbnRhIENsYXJhMQ0wCwYDVQQKDARwa2c1MQwwCgYD
VQQLDAN0YTkxEjAQBgNVBAMMCWxvY2FsaG9zdDESMBAGCSqGSIb3DQEJARYDdGE5
MIIBIjANBgkqhkiG9w0BAQEFAAOCAQ8AMIIBCgKCAQEA0GodkQPKuZ6/7+2ZwE1v
TYbEtAe8INzse05TEtb8I8IOAID4T+vsgf8DD+nUQXiG+zOyqTjiHoqYgSX2DXnp
NGWAGl0OKlUc309oqEUGsdZGTsbzb7VnV3Lyjafv8jCYfQDS5oY60aswsCt8S+4A
nTAeydFsh75x6JAYg3Q/Y6COC6U0R7xUJlfb0K4HHQEoxhF6TJKdEJJcc+ewvszs
AWEgMZaH4d4eMYmfX5QXYF/MQTC9QXniTXuaa02cTxk/yRPMmKtsa9S0O1hl//mO
AVN838OYTo0dZoWzaB/XxroVcCbhqojFPMIjDdz6tgT+RU3uD05HJvmHVcZAjWJ8
ewIDAQABo1MwUTAdBgNVHQ4EFgQUIPs9I2vvKwiuEJA7oO+2Zmbu+cQwHwYDVR0j
BBgwFoAUIPs9I2vvKwiuEJA7oO+2Zmbu+cQwDwYDVR0TAQH/BAUwAwEB/zANBgkq
hkiG9w0BAQsFAAOCAQEAmHbpfCt3RXezhkk5pnie8Sdi8WCV19hMIX1RZk7SyKlz
zqafYb+Lhr8ly3vJr4NZMCoCIKo6YztCqwgd3ckxUepU3e3OmqkZJE9yZMWE//L2
/umYZ8ny+JS6Mtzk1/evX6Q6DZqpWV50hLSJjqJPu3k/wDWOEwwpqcSaFpaaiQRg
gUe9PINbPYHW6F7Cqvls71tuBzDSI5Xxfe8FE7laZZ5bTqLDARaXNkdn/ET7vIaP
/Cr4Rd8/3NmmKOpovN759AgLXBDJdDHSxbUrAqUhg9tmty5702kbZWVJ2YJXKYf2
bcL4Lc0hGm5Z8p0TDpWC2Cl8TvEnHUAJrrtP/YLVhg==
-----END CERTIFICATE-----
