Certificate:
    Data:
        Version: 3 (0x2)
        Serial Number:
            33:92:93:9e:95:a4:53:c5:7e:93:7a:a3:58:3d:80:e3:3f:88:96:20
        Signature Algorithm: sha256WithRSAEncryption
        Issuer: C = US, ST = California, L = Santa Clara, O = pkg5, OU = ta9, CN = localhost, emailAddress = ta9
        Validity
            Not Before: May 23 15:47:23 2024 GMT
            Not After : Feb 17 15:47:23 2027 GMT
        Subject: C = US, ST = California, L = Santa Clara, O = pkg5, OU = ta9, CN = localhost, emailAddress = ta9
        Subject Public Key Info:
            Public Key Algorithm: rsaEncryption
                Public-Key: (2048 bit)
                Modulus:
                    00:e9:14:74:da:a1:b6:f5:be:a9:5f:e6:bc:76:25:
                    52:5c:e2:95:dd:7c:66:67:0c:fe:1a:d0:7e:7e:f8:
                    7f:b9:bb:59:11:7f:1a:f7:5b:8c:e7:dc:94:91:ff:
                    4d:4d:ba:37:5e:62:c4:8f:d6:3c:8b:9d:b9:36:6e:
                    1f:24:28:91:84:eb:9f:8e:47:c1:9d:d6:3a:23:5e:
                    02:63:de:9d:e4:c4:eb:34:b5:e1:52:b3:6b:74:7a:
                    f6:cd:76:59:20:ba:e8:68:ff:85:f9:61:db:43:73:
                    ad:c4:54:3a:62:1f:cb:db:64:0f:0c:74:43:06:34:
                    60:2f:07:e7:24:82:fc:d1:c1:31:c0:dc:e3:9e:6b:
                    20:7c:09:0c:10:83:1e:a5:34:78:f4:89:66:10:26:
                    7d:ea:72:f0:29:1b:94:58:45:d6:b7:49:f2:44:29:
                    1c:ea:94:37:5c:e0:c8:70:40:37:b0:6b:a7:f7:9d:
                    c4:2f:75:0a:7a:4a:27:b2:d4:30:f5:43:a2:50:44:
                    39:97:9c:c0:1d:d2:cd:0b:ff:6f:c0:6b:30:cf:37:
                    1d:9e:83:ba:8b:15:c8:78:d4:82:53:fe:ce:2f:28:
                    3c:5d:f6:a1:f4:79:49:73:9e:88:6c:6b:60:9c:6d:
                    44:58:ec:77:60:1f:c5:88:e2:29:9f:fe:f8:a7:8b:
                    a4:c5
                Exponent: 65537 (0x10001)
        X509v3 extensions:
            X509v3 Subject Key Identifier: 
                DC:CD:26:63:5C:E2:4F:CD:62:4E:9C:6C:4F:70:94:A7:15:68:E2:60
            X509v3 Authority Key Identifier: 
                DC:CD:26:63:5C:E2:4F:CD:62:4E:9C:6C:4F:70:94:A7:15:68:E2:60
            X509v3 Basic Constraints: critical
                CA:TRUE
    Signature Algorithm: sha256WithRSAEncryption
    Signature Value:
        d5:97:b4:cd:c0:45:56:82:d5:00:1f:d1:c0:ad:db:c0:6a:bc:
        76:bb:06:f8:9c:75:aa:5b:a9:72:70:69:a7:91:0d:2c:16:78:
        9a:bb:4b:29:c5:54:c6:94:f3:98:e2:48:47:be:1c:c5:b6:65:
        e3:1e:32:3a:49:16:1a:81:c4:f4:90:49:79:f4:58:18:e4:8e:
        9d:29:6b:8d:05:de:93:b0:37:35:22:fc:3d:80:cc:17:f8:68:
        ac:b7:a9:e9:36:de:fb:a9:30:10:33:05:77:c0:f0:2a:5b:6b:
        1b:66:8c:52:f1:bb:19:be:b2:76:72:93:86:b7:0e:8f:51:40:
        4e:0f:bf:ba:74:95:e3:0c:a3:f5:e3:30:c2:71:40:79:ab:7b:
        bb:7f:59:87:77:04:98:d6:ff:a0:0f:9e:85:42:20:0a:3e:2a:
        3c:2e:26:61:f8:fe:05:4e:1d:aa:7a:e6:9e:ab:1f:71:84:5d:
        b6:99:09:f8:e2:68:9a:ba:f5:35:8e:85:2f:3b:6f:9b:b0:8d:
        f7:6f:6f:e9:40:73:59:68:16:50:f5:7a:47:6e:db:a3:e3:43:
        de:c4:04:7c:d8:5e:17:7c:99:c3:e4:21:31:a7:24:28:33:89:
        86:e3:6c:17:58:3a:89:f6:d8:47:59:f4:92:d4:90:9d:8c:a5:
        8d:40:15:c9
-----BEGIN CERTIFICATE-----
MIID2zCCAsOgAwIBAgIUM5KTnpWkU8V+k3qjWD2A4z+IliAwDQYJKoZIhvcNAQEL
BQAwfTELMAkGA1UEBhMCVVMxEzARBgNVBAgMCkNhbGlmb3JuaWExFDASBgNVBAcM
C1NhbnRhIENsYXJhMQ0wCwYDVQQKDARwa2c1MQwwCgYDVQQLDAN0YTkxEjAQBgNV
BAMMCWxvY2FsaG9zdDESMBAGCSqGSIb3DQEJARYDdGE5MB4XDTI0MDUyMzE1NDcy
M1oXDTI3MDIxNzE1NDcyM1owfTELMAkGA1UEBhMCVVMxEzARBgNVBAgMCkNhbGlm
b3JuaWExFDASBgNVBAcMC1NhbnRhIENsYXJhMQ0wCwYDVQQKDARwa2c1MQwwCgYD
VQQLDAN0YTkxEjAQBgNVBAMMCWxvY2FsaG9zdDESMBAGCSqGSIb3DQEJARYDdGE5
MIIBIjANBgkqhkiG9w0BAQEFAAOCAQ8AMIIBCgKCAQEA6RR02qG29b6pX+a8diVS
XOKV3XxmZwz+GtB+fvh/ubtZEX8a91uM59yUkf9NTbo3XmLEj9Y8i525Nm4fJCiR
hOufjkfBndY6I14CY96d5MTrNLXhUrNrdHr2zXZZILroaP+F+WHbQ3OtxFQ6Yh/L
22QPDHRDBjRgLwfnJIL80cExwNzjnmsgfAkMEIMepTR49IlmECZ96nLwKRuUWEXW
t0nyRCkc6pQ3XODIcEA3sGun953EL3UKekonstQw9UOiUEQ5l5zAHdLNC/9vwGsw
zzcdnoO6ixXIeNSCU/7OLyg8Xfah9HlJc56IbGtgnG1EWOx3YB/FiOIpn/74p4uk
xQIDAQABo1MwUTAdBgNVHQ4EFgQU3M0mY1ziT81iTpxsT3CUpxVo4mAwHwYDVR0j
BBgwFoAU3M0mY1ziT81iTpxsT3CUpxVo4mAwDwYDVR0TAQH/BAUwAwEB/zANBgkq
hkiG9w0BAQsFAAOCAQEA1Ze0zcBFVoLVAB/RwK3bwGq8drsG+Jx1qlupcnBpp5EN
LBZ4mrtLKcVUxpTzmOJIR74cxbZl4x4yOkkWGoHE9JBJefRYGOSOnSlrjQXek7A3
NSL8PYDMF/horLep6Tbe+6kwEDMFd8DwKltrG2aMUvG7Gb6ydnKThrcOj1FATg+/
unSV4wyj9eMwwnFAeat7u39Zh3cEmNb/oA+ehUIgCj4qPC4mYfj+BU4dqnrmnqsf
cYRdtpkJ+OJomrr1NY6FLztvm7CN929v6UBzWWgWUPV6R27bo+ND3sQEfNheF3yZ
w+QhMackKDOJhuNsF1g6ifbYR1n0ktSQnYyljUAVyQ==
-----END CERTIFICATE-----
