Certificate:
    Data:
        Version: 3 (0x2)
        Serial Number:
            8a:4e:92:4a:21:ee:16:72
    Signature Algorithm: sha256WithRSAEncryption
        Issuer: C=US, ST=California, L=Santa Clara, O=pkg5, OU=ta9, CN=localhost/emailAddress=ta9
        Validity
            Not Before: Nov 16 10:58:52 2017 GMT
            Not After : Aug 12 10:58:52 2020 GMT
        Subject: C=US, ST=California, L=Santa Clara, O=pkg5, OU=ta9, CN=localhost/emailAddress=ta9
        Subject Public Key Info:
            Public Key Algorithm: rsaEncryption
                Public-Key: (2048 bit)
                Modulus:
                    00:b7:e7:f7:85:d3:b9:ea:77:f1:a7:29:aa:96:e2:
                    23:fd:12:ce:32:6c:b6:07:c9:a6:35:03:bd:ce:4f:
                    32:d4:6d:a8:2e:45:49:2f:7c:a5:21:46:85:5c:cd:
                    8e:6a:39:8a:54:20:a2:27:b2:c0:18:94:6d:d5:1e:
                    e0:50:88:f1:7d:d2:d9:ae:2f:f8:90:31:3e:4f:db:
                    1d:b1:4b:8c:1d:5c:b1:d1:b9:0e:ac:08:d5:47:41:
                    a3:e0:ab:90:e8:0e:c2:a0:4a:0b:06:26:6c:f9:23:
                    2c:3b:57:af:eb:f7:cb:8c:2e:ea:72:ac:96:7b:53:
                    34:1d:f8:51:d8:36:6d:18:b3:f5:69:3b:4b:0a:d4:
                    4d:47:7a:bf:a2:39:e2:bf:c5:e8:82:83:32:6b:4a:
                    43:50:c8:f0:92:cc:3b:f0:ab:ee:a8:52:5d:03:d5:
                    26:12:a9:ec:b1:49:0b:bc:e5:57:a2:19:46:bf:b0:
                    1a:c1:1f:8e:e8:88:d4:a9:5b:a7:00:d1:0e:e8:04:
                    84:f9:eb:f2:09:23:8a:18:09:f1:c6:d6:98:34:41:
                    f4:54:75:ac:6e:58:04:2c:2b:eb:6d:79:ad:95:45:
                    32:7b:87:d0:df:9a:fa:c4:76:85:36:b6:38:0e:1e:
                    34:8e:a5:5c:d2:43:10:da:67:4b:2f:38:ae:3c:2b:
                    54:81
                Exponent: 65537 (0x10001)
        X509v3 extensions:
            X509v3 Subject Key Identifier: 
                BA:7D:3E:86:4E:D8:BB:01:01:C6:55:0B:09:5A:3C:D6:70:C4:5C:1A
            X509v3 Authority Key Identifier: 
                keyid:BA:7D:3E:86:4E:D8:BB:01:01:C6:55:0B:09:5A:3C:D6:70:C4:5C:1A

            X509v3 Basic Constraints: 
                CA:TRUE
    Signature Algorithm: sha256WithRSAEncryption
         27:33:b8:02:a8:02:a0:8c:9f:50:e2:17:cb:9f:10:0c:9a:09:
         84:10:a2:74:70:5f:0c:8d:7a:b4:fd:a9:93:8b:15:f2:0e:89:
         1d:55:22:fb:18:ed:cb:c4:69:00:36:48:eb:d7:c8:56:60:86:
         59:ba:35:44:49:84:e6:17:36:41:b5:61:ea:41:86:1d:28:c7:
         07:a6:1c:93:b4:8a:3f:b3:92:dd:c2:ee:46:d3:84:cf:8b:4e:
         ed:9a:14:47:d5:90:a0:d8:b7:83:73:d6:98:69:08:f7:34:56:
         85:7a:f9:c8:f5:fa:e9:18:c3:db:77:87:96:dc:9f:7f:c7:51:
         f3:e4:c3:c7:69:16:00:a8:17:ed:66:ab:39:1d:84:d1:2e:89:
         74:fd:67:20:b1:5d:67:80:79:09:f5:da:98:63:df:1d:a4:90:
         77:c8:df:f8:b3:b3:f8:9b:21:cc:f8:c5:03:92:6d:aa:e9:8f:
         42:eb:96:38:d4:9e:8d:f6:7c:22:79:27:dc:04:7d:72:5f:bc:
         11:dc:ba:25:fa:77:ca:39:ec:41:98:07:4f:a7:3d:bb:24:c9:
         65:a1:4b:87:7a:28:07:32:a1:e2:73:52:ae:69:c2:f0:4e:63:
         3b:de:25:07:e3:c6:c9:15:2c:01:c5:4a:01:c9:8c:dc:f1:ef:
         42:cf:71:70
-----BEGIN CERTIFICATE-----
MIIDzTCCArWgAwIBAgIJAIpOkkoh7hZyMA0GCSqGSIb3DQEBCwUAMH0xCzAJBgNV
BAYTAlVTMRMwEQYDVQQIDApDYWxpZm9ybmlhMRQwEgYDVQQHDAtTYW50YSBDbGFy
YTENMAsGA1UECgwEcGtnNTEMMAoGA1UECwwDdGE5MRIwEAYDVQQDDAlsb2NhbGhv
c3QxEjAQBgkqhkiG9w0BCQEWA3RhOTAeFw0xNzExMTYxMDU4NTJaFw0yMDA4MTIx
MDU4NTJaMH0xCzAJBgNVBAYTAlVTMRMwEQYDVQQIDApDYWxpZm9ybmlhMRQwEgYD
VQQHDAtTYW50YSBDbGFyYTENMAsGA1UECgwEcGtnNTEMMAoGA1UECwwDdGE5MRIw
EAYDVQQDDAlsb2NhbGhvc3QxEjAQBgkqhkiG9w0BCQEWA3RhOTCCASIwDQYJKoZI
hvcNAQEBBQADggEPADCCAQoCggEBALfn94XTuep38acpqpbiI/0SzjJstgfJpjUD
vc5PMtRtqC5FSS98pSFGhVzNjmo5ilQgoieywBiUbdUe4FCI8X3S2a4v+JAxPk/b
HbFLjB1csdG5DqwI1UdBo+CrkOgOwqBKCwYmbPkjLDtXr+v3y4wu6nKslntTNB34
Udg2bRiz9Wk7SwrUTUd6v6I54r/F6IKDMmtKQ1DI8JLMO/Cr7qhSXQPVJhKp7LFJ
C7zlV6IZRr+wGsEfjuiI1KlbpwDRDugEhPnr8gkjihgJ8cbWmDRB9FR1rG5YBCwr
6215rZVFMnuH0N+a+sR2hTa2OA4eNI6lXNJDENpnSy84rjwrVIECAwEAAaNQME4w
HQYDVR0OBBYEFLp9PoZO2LsBAcZVCwlaPNZwxFwaMB8GA1UdIwQYMBaAFLp9PoZO
2LsBAcZVCwlaPNZwxFwaMAwGA1UdEwQFMAMBAf8wDQYJKoZIhvcNAQELBQADggEB
ACczuAKoAqCMn1DiF8ufEAyaCYQQonRwXwyNerT9qZOLFfIOiR1VIvsY7cvEaQA2
SOvXyFZghlm6NURJhOYXNkG1YepBhh0oxwemHJO0ij+zkt3C7kbThM+LTu2aFEfV
kKDYt4Nz1phpCPc0VoV6+cj1+ukYw9t3h5bcn3/HUfPkw8dpFgCoF+1mqzkdhNEu
iXT9ZyCxXWeAeQn12phj3x2kkHfI3/izs/ibIcz4xQOSbarpj0LrljjUno32fCJ5
J9wEfXJfvBHcuiX6d8o57EGYB0+nPbskyWWhS4d6KAcyoeJzUq5pwvBOYzveJQfj
xskVLAHFSgHJjNzx70LPcXA=
-----END CERTIFICATE-----
